source_filename = "test"
target datalayout = "e-m:e-p:32:32-f64:32:64-f80:32-n8:16:32-S128"

%vtable_7dd4_type = type { i32 (i32*)*, i32 (i32)*, i32 (i32)*, i32 (i32*)*, i32 (i32, i32)* }
%vtable_7e8c_type = type { i32 (i32*)*, i32 (i32)*, i32 (i32)* }
%vtable_7ef4_type = type { i32 (i32*)*, i32 (i32)*, i32 (i32)*, i32 (i32)* }
%vtable_7f54_type = type { i32 (i32*)*, i32 (i32)* }

@cf = internal unnamed_addr global i1 false
@zf = internal unnamed_addr global i1 false
@df = internal unnamed_addr global i1 false
@st0 = internal unnamed_addr global x86_fp80 0xK00000000000000000000
@eax = internal unnamed_addr global i32 0
@ecx = internal unnamed_addr global i32 0
@edx = internal unnamed_addr global i32 0
@ebx = internal unnamed_addr global i32 0
@esp = internal unnamed_addr global i32 0
@ebp = internal unnamed_addr global i32 0
@esi = internal unnamed_addr global i32 0
@edi = internal unnamed_addr global i32 0
@global_var_1a44.333 = constant i32 50
@global_var_7fb4.336 = constant i32 0
@global_var_7f9c.337 = constant i32 0
@global_var_7f7c.338 = constant i32 5918
@global_var_7eb4.340 = constant i32 8158
@global_var_7f64.343 = constant i32 13222
@global_var_7f0c.345 = constant i32 18785
@global_var_7f20.346 = constant i32 33354
@global_var_19cc.347 = constant [54 x i8] c"/usr/include/boost/exception/detail/exception_ptr.hpp\00"
@global_var_1a8c.348 = constant [169 x i8] c"boost::exception_ptr boost::exception_detail::get_bad_alloc() [with int Dummy = 42, boost::exception_ptr = boost::shared_ptr<const boost::exception_detail::clone_base>]\00"
@global_var_1a02.349 = constant [24 x i8] c"vector::_M_range_insert\00"
@0 = external global i32
@1 = internal constant [14 x i8] c"\01\02\04\08\10 @\80\FF\FF\FF\FF\04\00"
@global_var_1a6c.334 = constant i8* getelementptr inbounds ([14 x i8], [14 x i8]* @1, i32 0, i32 0)
@global_var_e8.335 = constant i8 0
@global_var_7dd4.350 = constant %vtable_7dd4_type { i32 (i32*)* @_ZN5boost6detail17sp_counted_impl_pINS_16exception_detail10clone_implINS2_10bad_alloc_EEEED1Ev, i32 (i32)* @_ZN5boost6detail17sp_counted_impl_pINS_16exception_detail10clone_implINS2_10bad_alloc_EEEED0Ev, i32 (i32)* @_ZN5boost6detail17sp_counted_impl_pINS_16exception_detail10clone_implINS2_10bad_alloc_EEEE7disposeEv, i32 (i32*)* @_ZN5boost6detail15sp_counted_base7destroyEv, i32 (i32, i32)* @_ZN5boost6detail17sp_counted_impl_pINS_16exception_detail10clone_implINS2_10bad_alloc_EEEE11get_deleterERKSt9type_info }
@global_var_7e8c.341 = constant %vtable_7e8c_type { i32 (i32*)* @_ZN5boost6system12system_errorD1Ev, i32 (i32)* @_ZN5boost6system12system_errorD0Ev, i32 (i32)* @_ZNK5boost6system12system_error4whatEv }
@global_var_7ef4.344 = constant %vtable_7ef4_type { i32 (i32*)* @_ZN5boost16exception_detail10clone_implINS0_10bad_alloc_EED1Ev, i32 (i32)* @_ZN5boost16exception_detail10clone_implINS0_10bad_alloc_EED0Ev, i32 (i32)* @_ZNK5boost16exception_detail10clone_implINS0_10bad_alloc_EE5cloneEv.331, i32 (i32)* @_ZNK5boost16exception_detail10clone_implINS0_10bad_alloc_EE7rethrowEv }
@global_var_7f54.342 = constant %vtable_7f54_type { i32 (i32*)* @_ZN5boost16exception_detail10bad_alloc_D1Ev, i32 (i32)* @_ZN5boost16exception_detail10bad_alloc_D0Ev }

define i32 @_ZN12CBloomFilterC1Ejdjh() local_unnamed_addr {
dec_label_pc_0:
  %eax.global-to-local = alloca i32, align 4
  %v5_3 = load i32, i32* %eax.global-to-local, align 4
  ret i32 %v5_3
}

define void @_ZNK5boost16exception_detail10clone_implINS0_10bad_alloc_EE5cloneEv(i32 %this) local_unnamed_addr {
dec_label_pc_8:
  %cf.global-to-local = alloca i1, align 1
  %eax.global-to-local = alloca i32, align 4
  %v0_9 = load i32, i32* %eax.global-to-local, align 4
  %v1_9 = trunc i32 %v0_9 to i8
  %v2_9 = load i1, i1* %cf.global-to-local, align 1
  %v3_9 = zext i1 %v2_9 to i32
  %v4_9 = add i32 %v0_9, 117
  %v5_9 = add i32 %v4_9, %v3_9
  %v17_9 = icmp ult i8 %v1_9, -117
  %v18_9 = or i1 %v2_9, %v17_9
  store i1 %v18_9, i1* %cf.global-to-local, align 1
  %v31_9 = and i32 %v5_9, 255
  %v33_9 = and i32 %v0_9, -256
  %v34_9 = or i32 %v31_9, %v33_9
  store i32 %v34_9, i32* %eax.global-to-local, align 4
  ret void

; uselistorder directives
  uselistorder i1 %v2_9, { 1, 0 }
  uselistorder i32 %v0_9, { 1, 0, 2 }
  uselistorder i1* %cf.global-to-local, { 1, 0 }
}

define void @"~clone_impl"(i32 %this, i32 %__in_chrg) local_unnamed_addr {
dec_label_pc_e:
  %eax.global-to-local = alloca i32, align 4
  %v0_f = load i32, i32* %eax.global-to-local, align 4
  %v1_f = trunc i32 %v0_f to i8
  %not. = icmp ugt i8 %v1_f, -118
  %v3_f = urem i8 %v1_f, -117
  %v4_f = zext i8 %v3_f to i32
  %v6_f = and i32 %v0_f, -65536
  %v10_f = select i1 %not., i32 256, i32 0
  %v11_f = or i32 %v6_f, %v4_f
  %v12_f = or i32 %v11_f, %v10_f
  %v11_12 = or i32 %v12_f, 137
  store i32 %v11_12, i32* %eax.global-to-local, align 4
  ret void

; uselistorder directives
  uselistorder i8 %v1_f, { 1, 0 }
}

define i32 @MIN_PROTO_VERSION() local_unnamed_addr {
dec_label_pc_78:
  %eax.global-to-local = alloca i32, align 4
  %v0_78 = load i32, i32* %eax.global-to-local, align 4
  ret i32 %v0_78
}

define i32 @NOBLKS_VERSION_END() local_unnamed_addr {
dec_label_pc_84:
  %edi.global-to-local = alloca i32, align 4
  %edx.global-to-local = alloca i32, align 4
  %st0.global-to-local = alloca x86_fp80, align 4
  %v0_84 = load i32, i32* %edx.global-to-local, align 4
  %v1_84 = trunc i32 %v0_84 to i16
  %v2_84 = call i32 @__asm_insd(i16 %v1_84)
  %v3_84 = load i32, i32* %edi.global-to-local, align 4
  %v4_84 = inttoptr i32 %v3_84 to i32*
  store i32 %v2_84, i32* %v4_84, align 4
  %v0_85 = load i32, i32* %edx.global-to-local, align 4
  %v1_85 = and i32 %v0_85, -65281
  %v2_85 = or i32 %v1_85, 57088
  store i32 %v2_85, i32* %edx.global-to-local, align 4
  %v0_8c = load i32, i32* @ebp, align 4
  %v1_8c = add i32 %v0_8c, -72
  %v2_8c = inttoptr i32 %v1_8c to i32*
  %v3_8c = load i32, i32* %v2_8c, align 4
  %v1_8f = add i32 %v0_8c, -68
  %v2_8f = inttoptr i32 %v1_8f to i32*
  %v3_8f = load i32, i32* %v2_8f, align 4
  store i32 %v3_8f, i32* %edx.global-to-local, align 4
  %v2_92 = add i32 %v0_8c, -28
  %v3_92 = inttoptr i32 %v2_92 to i32*
  store i32 %v3_8c, i32* %v3_92, align 4
  %v0_95 = load i32, i32* @ebp, align 4
  %v1_95 = add i32 %v0_95, -24
  %v1_9c = add i32 %v0_95, -28
  %v2_a2 = inttoptr i32 %v1_9c to i32*
  %v3_a2 = call i32 @_ZSt3minIjERKT_S2_S2_(i32* %v2_a2, i32 %v1_95)
  %v1_a7 = inttoptr i32 %v3_a2 to i32*
  %v2_a7 = load i32, i32* %v1_a7, align 4
  %v2_ab = udiv i32 %v2_a7, 8
  store i32 %v2_ab, i32* @ecx, align 4
  %v0_ae = load i32, i32* @ebp, align 4
  %v1_ae = add i32 %v0_ae, -44
  %v2_ae = inttoptr i32 %v1_ae to i32*
  %v3_ae = load i32, i32* %v2_ae, align 4
  %v1_b1 = add i32 %v0_ae, -13
  %v1_b8 = add i32 %v0_ae, -14
  store i32 %v1_b8, i32* %edx.global-to-local, align 4
  %v4_c6 = call i32 @_ZNSt6vectorIhSaIhEEC1EjRKhRKS0_(i32 %v3_ae, i32 %v2_ab, i32 %v1_b8, i32 %v1_b1)
  %v0_cb = load i32, i32* @ebp, align 4
  %v1_cb = add i32 %v0_cb, -13
  %v1_d1 = call i32 @_ZNSaIhED1Ev(i32 %v1_cb)
  %v0_d6 = load i32, i32* @ebp, align 4
  %v1_d6 = add i32 %v0_d6, -44
  %v2_d6 = inttoptr i32 %v1_d6 to i32*
  %v3_d6 = load i32, i32* %v2_d6, align 4
  %v1_dc = inttoptr i32 %v3_d6 to i32*
  %v2_dc = call i32 @_ZNKSt6vectorIhSaIhEE4sizeEv(i32* %v1_dc)
  %v2_e1 = mul i32 %v2_dc, 8
  store i32 0, i32* %edx.global-to-local, align 4
  %v0_e9 = load i32, i32* @ebp, align 4
  %v1_e9 = add i32 %v0_e9, -48
  %v2_e9 = inttoptr i32 %v1_e9 to i32*
  %v3_e9 = load i32, i32* %v2_e9, align 4
  %div = udiv i32 %v2_e1, %v3_e9
  store i32 0, i32* %edx.global-to-local, align 4
  %v2_f1 = add i32 %v0_e9, -72
  %v3_f1 = inttoptr i32 %v2_f1 to i32*
  store i32 %div, i32* %v3_f1, align 4
  %v0_f4 = load i32, i32* %edx.global-to-local, align 4
  %v1_f4 = load i32, i32* @ebp, align 4
  %v2_f4 = add i32 %v1_f4, -68
  %v3_f4 = inttoptr i32 %v2_f4 to i32*
  store i32 %v0_f4, i32* %v3_f4, align 4
  %v0_f7 = load i32, i32* @ebp, align 4
  %v1_f7 = add i32 %v0_f7, -72
  %v2_f7 = inttoptr i32 %v1_f7 to i64*
  %v3_f7 = load i64, i64* %v2_f7, align 4
  %v4_f7 = sitofp i64 %v3_f7 to x86_fp80
  %v4_100 = fmul x86_fp80 %v4_f7, 0xK3FFEB17217F7D1CF7800
  store x86_fp80 %v4_100, x86_fp80* %st0.global-to-local, align 4
  %v1_105 = add i32 %v0_f7, -62
  %v2_105 = inttoptr i32 %v1_105 to i16*
  %v3_105 = load i16, i16* %v2_105, align 2
  %tmp101 = urem i16 %v3_105, 256
  %v2_109 = or i16 %tmp101, 3072
  %v3_10b = add i32 %v0_f7, -74
  %v4_10b = inttoptr i32 %v3_10b to i16*
  store i16 %v2_109, i16* %v4_10b, align 2
  %v1_112 = load x86_fp80, x86_fp80* %st0.global-to-local, align 4
  %v2_112 = fptosi x86_fp80 %v1_112 to i64
  %v3_112 = load i32, i32* @ebp, align 4
  %v4_112 = add i32 %v3_112, -72
  %v5_112 = inttoptr i32 %v4_112 to i64*
  store i64 %v2_112, i64* %v5_112, align 4
  %v2_118 = inttoptr i32 %v4_112 to i32*
  %v3_118 = load i32, i32* %v2_118, align 4
  %v1_11b = add i32 %v3_112, -68
  %v2_11b = inttoptr i32 %v1_11b to i32*
  %v3_11b = load i32, i32* %v2_11b, align 4
  store i32 %v3_11b, i32* %edx.global-to-local, align 4
  %v2_11e = add i32 %v3_112, -20
  %v3_11e = inttoptr i32 %v2_11e to i32*
  store i32 %v3_118, i32* %v3_11e, align 4
  %v0_129 = load i32, i32* @ebp, align 4
  %v1_129 = add i32 %v0_129, -20
  %v2_12f = inttoptr i32 %v1_129 to i32*
  %v3_12f = call i32 @_ZSt3minIjERKT_S2_S2_(i32* %v2_12f, i32 ptrtoint (i32* @global_var_1a44.333 to i32))
  %v1_134 = inttoptr i32 %v3_12f to i32*
  %v2_134 = load i32, i32* %v1_134, align 4
  store i32 %v2_134, i32* %edx.global-to-local, align 4
  %v0_136 = load i32, i32* @ebp, align 4
  %v1_136 = add i32 %v0_136, -44
  %v2_136 = inttoptr i32 %v1_136 to i32*
  %v3_136 = load i32, i32* %v2_136, align 4
  %v2_139 = add i32 %v3_136, 12
  %v3_139 = inttoptr i32 %v2_139 to i32*
  store i32 %v2_134, i32* %v3_139, align 4
  %v0_13c = load i32, i32* @ebp, align 4
  %v1_13c = add i32 %v0_13c, -44
  %v2_13c = inttoptr i32 %v1_13c to i32*
  %v3_13c = load i32, i32* %v2_13c, align 4
  %v1_13f = add i32 %v0_13c, -60
  %v2_13f = inttoptr i32 %v1_13f to i32*
  %v3_13f = load i32, i32* %v2_13f, align 4
  store i32 %v3_13f, i32* %edx.global-to-local, align 4
  %v2_142 = add i32 %v3_13c, 16
  %v3_142 = inttoptr i32 %v2_142 to i32*
  store i32 %v3_13f, i32* %v3_142, align 4
  %v0_145 = load i32, i32* @ebp, align 4
  %v1_145 = add i32 %v0_145, -44
  %v2_145 = inttoptr i32 %v1_145 to i32*
  %v3_145 = load i32, i32* %v2_145, align 4
  %v1_148 = add i32 %v0_145, -64
  %v2_148 = inttoptr i32 %v1_148 to i8*
  %v3_148 = load i8, i8* %v2_148, align 1
  %v4_148 = zext i8 %v3_148 to i32
  store i32 %v4_148, i32* %edx.global-to-local, align 4
  %v3_14c = add i32 %v3_145, 20
  %v4_14c = inttoptr i32 %v3_14c to i8*
  store i8 %v3_148, i8* %v4_14c, align 1
  %v0_14f = load i32, i32* @ebp, align 4
  %v1_14f = add i32 %v0_14f, -12
  %v2_14f = inttoptr i32 %v1_14f to i32*
  %v3_14f = load i32, i32* %v2_14f, align 4
  %v1_152 = load i32, i32* inttoptr (i32 20 to i32*), align 4
  %v2_152 = xor i32 %v1_152, %v3_14f
  %v3_152 = icmp eq i32 %v2_152, 0
  store i32 %v2_152, i32* @eax, align 4
  br i1 %v3_152, label %bb, label %dec_label_pc_15b

bb:                                               ; preds = %dec_label_pc_84
  %v1_159 = call i32 @function_179()
  store i32 %v1_159, i32* @eax, align 4
  br label %dec_label_pc_15b

dec_label_pc_15b:                                 ; preds = %bb, %dec_label_pc_84
  %v0_15b = call i32 @function_174()
  ret i32 %v0_15b

; uselistorder directives
  uselistorder i32 %v2_ab, { 1, 0 }
}

define i32 @function_15e() local_unnamed_addr {
dec_label_pc_15e:
  %eax.global-to-local = alloca i32, align 4
  %v0_15e = load i32, i32* %eax.global-to-local, align 4
  ret i32 %v0_15e
}

define i32 @function_174() local_unnamed_addr {
dec_label_pc_174:
  %tmp = load i32, i32* @eax, align 4
  ret i32 %tmp
}

define i32 @function_179() local_unnamed_addr {
dec_label_pc_179:
  %v0_17e = load i32, i32* @eax, align 4
  ret i32 %v0_17e
}

define void @_ZN12CBloomFilter6insertERKSt6vectorIhSaIhEE(i32 %this, i32 %vKey) local_unnamed_addr {
dec_label_pc_180:
  %v1_1a3 = inttoptr i32 %this to i32*
  %v2_1a3 = call i32 @_ZNKSt6vectorIhSaIhEE4sizeEv(i32* %v1_1a3)
  %v10_1a8 = icmp eq i32 %v2_1a3, 1
  %v1_1ab = icmp eq i1 %v10_1a8, false
  br i1 %v1_1ab, label %dec_label_pc_22b.preheader, label %dec_label_pc_1ad

dec_label_pc_1ad:                                 ; preds = %dec_label_pc_180
  %v3_1bb = call i32 @_ZNSt6vectorIhSaIhEEixEj(i32* %v1_1a3, i32 0)
  %v1_1c0 = inttoptr i32 %v3_1bb to i8*
  %v2_1c0 = load i8, i8* %v1_1c0, align 1
  %v11_1c3 = icmp eq i8 %v2_1c0, -1
  %v1_1c5 = icmp eq i1 %v11_1c3, false
  br i1 %v1_1c5, label %dec_label_pc_22b.preheader, label %dec_label_pc_1d3.thread

dec_label_pc_1d3.thread:                          ; preds = %dec_label_pc_1ad
  br label %dec_label_pc_23e

dec_label_pc_22b.preheader:                       ; preds = %dec_label_pc_180, %dec_label_pc_1ad
  %v1_22e = add i32 %this, 12
  %v2_22e = inttoptr i32 %v1_22e to i32*
  %v3_22e22 = load i32, i32* %v2_22e, align 4
  %tmp1623 = icmp eq i32 %v3_22e22, 0
  %v3_23424 = icmp ne i1 %tmp1623, true
  %v5_23728 = icmp eq i1 %v3_23424, false
  %v1_23929 = icmp eq i1 %v5_23728, false
  br i1 %v1_23929, label %dec_label_pc_1e0, label %dec_label_pc_23e

dec_label_pc_1e0:                                 ; preds = %dec_label_pc_22b.preheader, %dec_label_pc_1e0
  %storemerge30 = phi i32 [ %v4_227, %dec_label_pc_1e0 ], [ 0, %dec_label_pc_22b.preheader ]
  %v3_1f4 = sext i32 %storemerge30 to i64
  %v4_1f4 = call i32 @_ZNK12CBloomFilter4HashEjRKSt6vectorIhSaIhEE(i32 %this, i64 %v3_1f4, i32 %vKey)
  %v2_201 = udiv i32 %v4_1f4, 8
  %v3_20e = call i32 @_ZNSt6vectorIhSaIhEEixEj(i32* %v1_1a3, i32 %v2_201)
  %v1_213 = inttoptr i32 %v3_20e to i8*
  %v2_213 = load i8, i8* %v1_213, align 1
  %v1_219 = urem i32 %v4_1f4, 8
  %v1_21c = add i32 %v1_219, ptrtoint (i8** @global_var_1a6c.334 to i32)
  %v2_21c = inttoptr i32 %v1_21c to i8*
  %v3_21c = load i8, i8* %v2_21c, align 1
  %v2_2233 = or i8 %v3_21c, %v2_213
  store i8 %v2_2233, i8* %v1_213, align 1
  %v4_227 = add i32 %storemerge30, 1
  %v3_22e = load i32, i32* %v2_22e, align 4
  %tmp16 = icmp ule i32 %v3_22e, %v4_227
  %v3_234 = icmp ne i1 %tmp16, true
  %v5_237 = icmp eq i1 %v3_234, false
  %v1_239 = icmp eq i1 %v5_237, false
  br i1 %v1_239, label %dec_label_pc_1e0, label %dec_label_pc_23e

dec_label_pc_23e:                                 ; preds = %dec_label_pc_22b.preheader, %dec_label_pc_1e0, %dec_label_pc_1d3.thread
  store i32 0, i32* @eax, align 4
  br i1 true, label %bb, label %dec_label_pc_24a

bb:                                               ; preds = %dec_label_pc_23e
  %v1_248 = call i32 @function_24f()
  br label %dec_label_pc_24a

dec_label_pc_24a:                                 ; preds = %bb, %dec_label_pc_23e
  ret void

; uselistorder directives
  uselistorder i32 %v4_227, { 1, 0 }
  uselistorder i32 %v4_1f4, { 1, 0 }
  uselistorder i32 %storemerge30, { 1, 0 }
  uselistorder i32* %v2_22e, { 1, 0 }
  uselistorder i32* %v1_1a3, { 1, 0, 2 }
  uselistorder label %dec_label_pc_23e, { 1, 0, 2 }
  uselistorder label %dec_label_pc_1e0, { 1, 0 }
  uselistorder label %dec_label_pc_22b.preheader, { 1, 0 }
}

define i32 @function_24f() local_unnamed_addr {
dec_label_pc_24f:
  %v0_250 = load i32, i32* @eax, align 4
  ret i32 %v0_250
}

define void @_ZN12CBloomFilter6insertERK9COutPoint(i32 %this, i32 %outpoint) local_unnamed_addr {
dec_label_pc_252:
  %stack_var_-40 = alloca i32, align 4
  %stack_var_-28 = alloca i32, align 4
  %stack_var_-24 = alloca i32, align 4
  %stack_var_-17 = alloca i32, align 4
  %stack_var_-68 = alloca i32, align 4
  %v2_280 = ptrtoint i32* %stack_var_-68 to i32
  %v3_286 = call i32 @_ZN11CDataStreamC1Eii(i32 %v2_280, i32 1, i32 80000)
  %v2_298 = call i32 @_ZN11CDataStreamlsI9COutPointEERS_RKT_(i32 %v2_280, i32 %outpoint)
  %v2_29d = ptrtoint i32* %stack_var_-17 to i32
  %v1_2a3 = call i32 @_ZNSaIhEC1Ev(i32 %v2_29d)
  %v2_2a8 = ptrtoint i32* %stack_var_-24 to i32
  %v2_2b5 = call i32 @_ZN11CDataStream3endEv(i32 %v2_2a8, i32 %v2_280)
  %v2_2bd = ptrtoint i32* %stack_var_-28 to i32
  %v2_2ca = call i32 @_ZN11CDataStream5beginEv(i32 %v2_2bd, i32 %v2_280)
  %v3_2d9 = load i32, i32* %stack_var_-24, align 4
  %v3_2e0 = load i32, i32* %stack_var_-28, align 4
  %v2_2e7 = ptrtoint i32* %stack_var_-40 to i32
  %v4_2ed = call i32 @_ZNSt6vectorIhSaIhEEC1IN9__gnu_cxx17__normal_iteratorIPcS_Ic25zero_after_free_allocatorIcEEEEEET_SA_RKS0_(i32 %v2_2e7, i32 %v3_2e0, i32 %v3_2d9, i32 %v2_29d)
  %v1_2f8 = call i32 @_ZNSaIhED1Ev(i32 %v2_29d)
  call void @_ZN12CBloomFilter6insertERKSt6vectorIhSaIhEE(i32 %this, i32 %v2_2e7)
  %v2_315 = call i32 @_ZNSt6vectorIhSaIhEED1Ev(i32* nonnull %stack_var_-40)
  %v1_320 = call i32 @_ZN11CDataStreamD1Ev(i32 %v2_280)
  store i32 0, i32* @eax, align 4
  br i1 true, label %bb, label %dec_label_pc_331

bb:                                               ; preds = %dec_label_pc_252
  %v1_32f = call i32 @function_373()
  store i32 %v1_32f, i32* @eax, align 4
  br label %dec_label_pc_331

dec_label_pc_331:                                 ; preds = %bb, %dec_label_pc_252
  %v0_331 = call i32 @function_36e()
  ret void

; uselistorder directives
  uselistorder i32 %v2_29d, { 1, 0, 2 }
}

define i32 @function_333() local_unnamed_addr {
dec_label_pc_333:
  %eax.global-to-local = alloca i32, align 4
  %v0_335 = load i32, i32* %eax.global-to-local, align 4
  store i32 %v0_335, i32* @ebx, align 4
  %v0_337 = call i32 @function_33b()
  store i32 %v0_337, i32* %eax.global-to-local, align 4
  ret i32 %v0_337
}

define i32 @function_339() local_unnamed_addr {
dec_label_pc_339:
  %eax.global-to-local = alloca i32, align 4
  %v0_339 = load i32, i32* %eax.global-to-local, align 4
  ret i32 %v0_339
}

define i32 @function_33b() local_unnamed_addr {
dec_label_pc_33b:
  %v0_33b = load i32, i32* @ebp, align 4
  %v1_33b = add i32 %v0_33b, -13
  %v1_341 = call i32 @_ZNSaIhED1Ev(i32 %v1_33b)
  %v0_346 = call i32 @function_359()
  ret i32 %v0_346
}

define i32 @function_348() local_unnamed_addr {
dec_label_pc_348:
  %eax.global-to-local = alloca i32, align 4
  %v0_348 = load i32, i32* %eax.global-to-local, align 4
  store i32 %v0_348, i32* @ebx, align 4
  %v0_34a = load i32, i32* @ebp, align 4
  %v1_34a = add i32 %v0_34a, -36
  store i32 %v1_34a, i32* %eax.global-to-local, align 4
  %v1_350 = inttoptr i32 %v1_34a to i32*
  %v2_350 = call i32 @_ZNSt6vectorIhSaIhEED1Ev(i32* %v1_350)
  store i32 %v2_350, i32* %eax.global-to-local, align 4
  %v0_355 = call i32 @function_359()
  store i32 %v0_355, i32* %eax.global-to-local, align 4
  ret i32 %v0_355

; uselistorder directives
  uselistorder i32 ()* @function_359, { 1, 0 }
}

define i32 @function_358() local_unnamed_addr {
dec_label_pc_358:
  %eax.global-to-local = alloca i32, align 4
  %v0_358 = load i32, i32* %eax.global-to-local, align 4
  ret i32 %v0_358
}

define i32 @function_359() local_unnamed_addr {
dec_label_pc_359:
  %v0_359 = load i32, i32* @ebp, align 4
  %v1_359 = add i32 %v0_359, -64
  %v1_35f = call i32 @_ZN11CDataStreamD1Ev(i32 %v1_359)
  %v0_364 = load i32, i32* @ebx, align 4
  ret i32 %v0_364
}

define i32 @function_36e() local_unnamed_addr {
dec_label_pc_36e:
  %tmp = load i32, i32* @eax, align 4
  ret i32 %tmp
}

define i32 @function_373() local_unnamed_addr {
dec_label_pc_373:
  %v0_377 = load i32, i32* @eax, align 4
  ret i32 %v0_377
}

define void @_ZN12CBloomFilter6insertERK7uint256(i32 %this, i32 %hash) local_unnamed_addr {
dec_label_pc_378:
  %stack_var_-32 = alloca i32, align 4
  %stack_var_-17 = alloca i32, align 4
  %v2_396 = ptrtoint i32* %stack_var_-17 to i32
  %v1_39c = call i32 @_ZNSaIhEC1Ev(i32 %v2_396)
  %v1_3a7 = call i32 @_ZNK9base_uintILj256EE3endEv(i32 %hash)
  store i32 %v1_3a7, i32* @ebx, align 4
  %v1_3b4 = call i32 @_ZNK9base_uintILj256EE5beginEv(i32 %hash)
  %v0_3c0 = load i32, i32* @ebx, align 4
  %v2_3c8 = ptrtoint i32* %stack_var_-32 to i32
  %v4_3ce = call i32 @_ZNSt6vectorIhSaIhEEC1IPKhEET_S5_RKS0_(i32 %v2_3c8, i32 %v1_3b4, i32 %v0_3c0, i32 %v2_396)
  %v1_3d9 = call i32 @_ZNSaIhED1Ev(i32 %v2_396)
  call void @_ZN12CBloomFilter6insertERKSt6vectorIhSaIhEE(i32 %this, i32 %v2_3c8)
  %v2_3f6 = call i32 @_ZNSt6vectorIhSaIhEED1Ev(i32* nonnull %stack_var_-32)
  store i32 0, i32* @eax, align 4
  br i1 true, label %bb, label %dec_label_pc_407

bb:                                               ; preds = %dec_label_pc_378
  %v1_405 = call i32 @function_43c()
  store i32 %v1_405, i32* @eax, align 4
  br label %dec_label_pc_407

dec_label_pc_407:                                 ; preds = %bb, %dec_label_pc_378
  %v0_407 = call i32 @function_437()
  ret void

; uselistorder directives
  uselistorder void (i32, i32)* @_ZN12CBloomFilter6insertERKSt6vectorIhSaIhEE, { 1, 0 }
  uselistorder i32 %hash, { 1, 0 }
}

define i32 @function_40a() local_unnamed_addr {
dec_label_pc_40a:
  %eax.global-to-local = alloca i32, align 4
  %v0_40a = load i32, i32* %eax.global-to-local, align 4
  ret i32 %v0_40a
}

define i32 @function_421() local_unnamed_addr {
dec_label_pc_421:
  %eax.global-to-local = alloca i32, align 4
  %v0_421 = load i32, i32* %eax.global-to-local, align 4
  ret i32 %v0_421
}

define i32 @function_437() local_unnamed_addr {
dec_label_pc_437:
  %v0_437 = load i32, i32* @eax, align 4
  ret i32 %v0_437
}

define i32 @function_43c() local_unnamed_addr {
dec_label_pc_43c:
  %v0_441 = load i32, i32* @eax, align 4
  ret i32 %v0_441
}

define void @_ZNK12CBloomFilter8containsERKSt6vectorIhSaIhEE(i32 %this, i32 %vKey) local_unnamed_addr {
dec_label_pc_442:
  %v1_465 = inttoptr i32 %this to i32*
  %v2_465 = call i32 @_ZNKSt6vectorIhSaIhEE4sizeEv(i32* %v1_465)
  %v10_46a = icmp eq i32 %v2_465, 1
  %v1_46d = icmp eq i1 %v10_46a, false
  br i1 %v1_46d, label %dec_label_pc_495.thread, label %dec_label_pc_46f

dec_label_pc_46f:                                 ; preds = %dec_label_pc_442
  %v3_47d = call i32 @_ZNKSt6vectorIhSaIhEEixEj(i32* %v1_465, i32 0)
  %v1_482 = inttoptr i32 %v3_47d to i8*
  %v2_482 = load i8, i8* %v1_482, align 1
  %v11_485 = icmp eq i8 %v2_482, -1
  %v1_487 = icmp eq i1 %v11_485, false
  br i1 %v1_487, label %dec_label_pc_495.thread, label %dec_label_pc_499

dec_label_pc_495.thread:                          ; preds = %dec_label_pc_442, %dec_label_pc_46f
  %v1_505 = add i32 %this, 12
  %v2_505 = inttoptr i32 %v1_505 to i32*
  %v3_50522 = load i32, i32* %v2_505, align 4
  %tmp2123 = icmp eq i32 %v3_50522, 0
  %v3_50b24 = icmp ne i1 %tmp2123, true
  %v5_50e28 = icmp eq i1 %v3_50b24, false
  %v1_51029 = icmp eq i1 %v5_50e28, false
  br i1 %v1_51029, label %dec_label_pc_4a9, label %dec_label_pc_512

dec_label_pc_499:                                 ; preds = %dec_label_pc_46f
  br label %dec_label_pc_517

dec_label_pc_4a9:                                 ; preds = %dec_label_pc_495.thread, %dec_label_pc_4fe
  %storemerge30 = phi i32 [ %v4_4fe, %dec_label_pc_4fe ], [ 0, %dec_label_pc_495.thread ]
  %v3_4bd = sext i32 %storemerge30 to i64
  %v4_4bd = call i32 @_ZNK12CBloomFilter4HashEjRKSt6vectorIhSaIhEE(i32 %this, i64 %v3_4bd, i32 %vKey)
  %v2_4ca = udiv i32 %v4_4bd, 8
  %v3_4d7 = call i32 @_ZNKSt6vectorIhSaIhEEixEj(i32* %v1_465, i32 %v2_4ca)
  %v1_4dc = inttoptr i32 %v3_4d7 to i8*
  %v2_4dc = load i8, i8* %v1_4dc, align 1
  %v1_4e2 = urem i32 %v4_4bd, 8
  %v1_4e5 = add i32 %v1_4e2, ptrtoint (i8** @global_var_1a6c.334 to i32)
  %v2_4e5 = inttoptr i32 %v1_4e5 to i8*
  %v3_4e5 = load i8, i8* %v2_4e5, align 1
  %v2_4ec7 = and i8 %v3_4e5, %v2_4dc
  %v5_4ee = icmp eq i8 %v2_4ec7, 0
  %v5_4f3 = icmp eq i1 %v5_4ee, false
  br i1 %v5_4f3, label %dec_label_pc_4fe, label %dec_label_pc_4f7

dec_label_pc_4f7:                                 ; preds = %dec_label_pc_4a9
  br label %dec_label_pc_517

dec_label_pc_4fe:                                 ; preds = %dec_label_pc_4a9
  %v4_4fe = add i32 %storemerge30, 1
  %v3_505 = load i32, i32* %v2_505, align 4
  %tmp21 = icmp ule i32 %v3_505, %v4_4fe
  %v3_50b = icmp ne i1 %tmp21, true
  %v5_50e = icmp eq i1 %v3_50b, false
  %v1_510 = icmp eq i1 %v5_50e, false
  br i1 %v1_510, label %dec_label_pc_4a9, label %dec_label_pc_512

dec_label_pc_512:                                 ; preds = %dec_label_pc_4fe, %dec_label_pc_495.thread
  br label %dec_label_pc_517

dec_label_pc_517:                                 ; preds = %dec_label_pc_4f7, %dec_label_pc_512, %dec_label_pc_499
  ret void

; uselistorder directives
  uselistorder i32 %v4_4fe, { 1, 0 }
  uselistorder i32 %v4_4bd, { 1, 0 }
  uselistorder i32 %storemerge30, { 1, 0 }
  uselistorder i32* %v2_505, { 1, 0 }
  uselistorder i32* %v1_465, { 1, 0, 2 }
  uselistorder i32 ptrtoint (i8** @global_var_1a6c.334 to i32), { 1, 0 }
  uselistorder label %dec_label_pc_517, { 1, 0, 2 }
  uselistorder label %dec_label_pc_4a9, { 1, 0 }
  uselistorder label %dec_label_pc_495.thread, { 1, 0 }
}

define void @_ZNK12CBloomFilter8containsERK9COutPoint(i32 %this, i32 %outpoint) local_unnamed_addr {
dec_label_pc_52a:
  %stack_var_-40 = alloca i32, align 4
  %stack_var_-28 = alloca i32, align 4
  %stack_var_-24 = alloca i32, align 4
  %stack_var_-17 = alloca i32, align 4
  %stack_var_-68 = alloca i32, align 4
  %v2_558 = ptrtoint i32* %stack_var_-68 to i32
  %v3_55e = call i32 @_ZN11CDataStreamC1Eii(i32 %v2_558, i32 1, i32 80000)
  %v2_570 = call i32 @_ZN11CDataStreamlsI9COutPointEERS_RKT_(i32 %v2_558, i32 %outpoint)
  %v2_575 = ptrtoint i32* %stack_var_-17 to i32
  %v1_57b = call i32 @_ZNSaIhEC1Ev(i32 %v2_575)
  %v2_580 = ptrtoint i32* %stack_var_-24 to i32
  %v2_58d = call i32 @_ZN11CDataStream3endEv(i32 %v2_580, i32 %v2_558)
  %v2_595 = ptrtoint i32* %stack_var_-28 to i32
  %v2_5a2 = call i32 @_ZN11CDataStream5beginEv(i32 %v2_595, i32 %v2_558)
  %v3_5b1 = load i32, i32* %stack_var_-24, align 4
  %v3_5b8 = load i32, i32* %stack_var_-28, align 4
  %v2_5bf = ptrtoint i32* %stack_var_-40 to i32
  %v4_5c5 = call i32 @_ZNSt6vectorIhSaIhEEC1IN9__gnu_cxx17__normal_iteratorIPcS_Ic25zero_after_free_allocatorIcEEEEEET_SA_RKS0_(i32 %v2_5bf, i32 %v3_5b8, i32 %v3_5b1, i32 %v2_575)
  %v1_5d0 = call i32 @_ZNSaIhED1Ev(i32 %v2_575)
  call void @_ZNK12CBloomFilter8containsERKSt6vectorIhSaIhEE(i32 %this, i32 %v2_5bf)
  store i32 ptrtoint (i32* @0 to i32), i32* @ebx, align 4
  %v2_5ef = call i32 @_ZNSt6vectorIhSaIhEED1Ev(i32* nonnull %stack_var_-40)
  %v1_5fa = call i32 @_ZN11CDataStreamD1Ev(i32 %v2_558)
  %v0_5ff = load i32, i32* @ebx, align 4
  store i32 %v0_5ff, i32* @eax, align 4
  br i1 true, label %bb, label %dec_label_pc_60d

bb:                                               ; preds = %dec_label_pc_52a
  %v1_60b = call i32 @function_64f()
  store i32 %v1_60b, i32* @eax, align 4
  br label %dec_label_pc_60d

dec_label_pc_60d:                                 ; preds = %bb, %dec_label_pc_52a
  %v0_60d = call i32 @function_64a()
  ret void

; uselistorder directives
  uselistorder i32 %v2_575, { 1, 0, 2 }
  uselistorder i32 (i32, i32, i32, i32)* @_ZNSt6vectorIhSaIhEEC1IN9__gnu_cxx17__normal_iteratorIPcS_Ic25zero_after_free_allocatorIcEEEEEET_SA_RKS0_, { 1, 0 }
  uselistorder i32 (i32, i32)* @_ZN11CDataStream5beginEv, { 1, 0 }
  uselistorder i32 (i32, i32)* @_ZN11CDataStream3endEv, { 1, 0 }
  uselistorder i32 (i32, i32)* @_ZN11CDataStreamlsI9COutPointEERS_RKT_, { 1, 0 }
  uselistorder i32 (i32, i32, i32)* @_ZN11CDataStreamC1Eii, { 1, 0 }
}

define i32 @function_60f() local_unnamed_addr {
dec_label_pc_60f:
  %eax.global-to-local = alloca i32, align 4
  %v0_611 = load i32, i32* %eax.global-to-local, align 4
  store i32 %v0_611, i32* @ebx, align 4
  %v0_613 = call i32 @function_617()
  store i32 %v0_613, i32* %eax.global-to-local, align 4
  ret i32 %v0_613
}

define i32 @function_615() local_unnamed_addr {
dec_label_pc_615:
  %eax.global-to-local = alloca i32, align 4
  %v0_615 = load i32, i32* %eax.global-to-local, align 4
  ret i32 %v0_615
}

define i32 @function_617() local_unnamed_addr {
dec_label_pc_617:
  %v0_617 = load i32, i32* @ebp, align 4
  %v1_617 = add i32 %v0_617, -13
  %v1_61d = call i32 @_ZNSaIhED1Ev(i32 %v1_617)
  %v0_622 = call i32 @function_635()
  ret i32 %v0_622
}

define i32 @function_624() local_unnamed_addr {
dec_label_pc_624:
  %eax.global-to-local = alloca i32, align 4
  %v0_624 = load i32, i32* %eax.global-to-local, align 4
  store i32 %v0_624, i32* @ebx, align 4
  %v0_626 = load i32, i32* @ebp, align 4
  %v1_626 = add i32 %v0_626, -36
  store i32 %v1_626, i32* %eax.global-to-local, align 4
  %v1_62c = inttoptr i32 %v1_626 to i32*
  %v2_62c = call i32 @_ZNSt6vectorIhSaIhEED1Ev(i32* %v1_62c)
  store i32 %v2_62c, i32* %eax.global-to-local, align 4
  %v0_631 = call i32 @function_635()
  store i32 %v0_631, i32* %eax.global-to-local, align 4
  ret i32 %v0_631

; uselistorder directives
  uselistorder i32 ()* @function_635, { 1, 0 }
}

define i32 @function_634() local_unnamed_addr {
dec_label_pc_634:
  %eax.global-to-local = alloca i32, align 4
  %v0_634 = load i32, i32* %eax.global-to-local, align 4
  ret i32 %v0_634
}

define i32 @function_635() local_unnamed_addr {
dec_label_pc_635:
  %v0_635 = load i32, i32* @ebp, align 4
  %v1_635 = add i32 %v0_635, -64
  %v1_63b = call i32 @_ZN11CDataStreamD1Ev(i32 %v1_635)
  %v0_640 = load i32, i32* @ebx, align 4
  ret i32 %v0_640

; uselistorder directives
  uselistorder i32 (i32)* @_ZN11CDataStreamD1Ev, { 3, 1, 2, 0 }
}

define i32 @function_64a() local_unnamed_addr {
dec_label_pc_64a:
  %tmp = load i32, i32* @eax, align 4
  ret i32 %tmp
}

define i32 @function_64f() local_unnamed_addr {
dec_label_pc_64f:
  %v0_653 = load i32, i32* @eax, align 4
  ret i32 %v0_653
}

define void @_ZNK12CBloomFilter8containsERK7uint256(i32 %this, i32 %hash) local_unnamed_addr {
dec_label_pc_654:
  %stack_var_-32 = alloca i32, align 4
  %stack_var_-17 = alloca i32, align 4
  %v2_672 = ptrtoint i32* %stack_var_-17 to i32
  %v1_678 = call i32 @_ZNSaIhEC1Ev(i32 %v2_672)
  %v1_683 = call i32 @_ZNK9base_uintILj256EE3endEv(i32 %hash)
  store i32 %v1_683, i32* @ebx, align 4
  %v1_690 = call i32 @_ZNK9base_uintILj256EE5beginEv(i32 %hash)
  %v0_69c = load i32, i32* @ebx, align 4
  %v2_6a4 = ptrtoint i32* %stack_var_-32 to i32
  %v4_6aa = call i32 @_ZNSt6vectorIhSaIhEEC1IPKhEET_S5_RKS0_(i32 %v2_6a4, i32 %v1_690, i32 %v0_69c, i32 %v2_672)
  %v1_6b5 = call i32 @_ZNSaIhED1Ev(i32 %v2_672)
  call void @_ZNK12CBloomFilter8containsERKSt6vectorIhSaIhEE(i32 %this, i32 %v2_6a4)
  store i32 ptrtoint (i32* @0 to i32), i32* @ebx, align 4
  %v2_6d4 = call i32 @_ZNSt6vectorIhSaIhEED1Ev(i32* nonnull %stack_var_-32)
  %v0_6d9 = load i32, i32* @ebx, align 4
  store i32 %v0_6d9, i32* @eax, align 4
  br i1 true, label %bb, label %dec_label_pc_6e7

bb:                                               ; preds = %dec_label_pc_654
  %v1_6e5 = call i32 @function_71c()
  store i32 %v1_6e5, i32* @eax, align 4
  br label %dec_label_pc_6e7

dec_label_pc_6e7:                                 ; preds = %bb, %dec_label_pc_654
  %v0_6e7 = call i32 @function_717()
  ret void

; uselistorder directives
  uselistorder i32 (i32)* @_ZNSaIhED1Ev, { 3, 6, 2, 1, 5, 0, 4 }
  uselistorder i32 (i32, i32, i32, i32)* @_ZNSt6vectorIhSaIhEEC1IPKhEET_S5_RKS0_, { 1, 0 }
  uselistorder i32 (i32)* @_ZNK9base_uintILj256EE5beginEv, { 1, 0 }
  uselistorder i32 (i32)* @_ZNK9base_uintILj256EE3endEv, { 1, 0 }
  uselistorder i32 (i32)* @_ZNSaIhEC1Ev, { 3, 2, 1, 0 }
  uselistorder i32 %hash, { 1, 0 }
}

define i32 @function_6ea() local_unnamed_addr {
dec_label_pc_6ea:
  %eax.global-to-local = alloca i32, align 4
  %v0_6ea = load i32, i32* %eax.global-to-local, align 4
  ret i32 %v0_6ea
}

define i32 @function_701() local_unnamed_addr {
dec_label_pc_701:
  %eax.global-to-local = alloca i32, align 4
  %v0_701 = load i32, i32* %eax.global-to-local, align 4
  ret i32 %v0_701
}

define i32 @function_707() local_unnamed_addr {
dec_label_pc_707:
  %eax.global-to-local = alloca i32, align 4
  %v0_707 = load i32, i32* %eax.global-to-local, align 4
  %v11_707 = and i32 %v0_707, or (i32 zext (i8 ptrtoint (i8* @global_var_e8.335 to i8) to i32), i32 -256)
  store i32 %v11_707, i32* %eax.global-to-local, align 4
  ret i32 %v11_707

; uselistorder directives
  uselistorder i32 %v11_707, { 1, 0 }
}

define i32 @function_717() local_unnamed_addr {
dec_label_pc_717:
  %tmp = load i32, i32* @eax, align 4
  ret i32 %tmp
}

define i32 @function_71c() local_unnamed_addr {
dec_label_pc_71c:
  %v0_721 = load i32, i32* @eax, align 4
  ret i32 %v0_721
}

define void @_ZNK12CBloomFilter23IsWithinSizeConstraintsEv(i32 %this) local_unnamed_addr {
dec_label_pc_722:
  %v1_73f = inttoptr i32 %this to i32*
  %v2_73f = call i32 @_ZNKSt6vectorIhSaIhEE4sizeEv(i32* %v1_73f)
  %tmp103 = icmp ult i32 %v2_73f, 36001
  br i1 %tmp103, label %dec_label_pc_74b, label %dec_label_pc_75d

dec_label_pc_74b:                                 ; preds = %dec_label_pc_722
  %v1_74e = add i32 %this, 12
  %v2_74e = inttoptr i32 %v1_74e to i32*
  %v3_74e = load i32, i32* %v2_74e, align 4
  %tmp104 = icmp ult i32 %v3_74e, 51
  br i1 %tmp104, label %dec_label_pc_762, label %dec_label_pc_75d

dec_label_pc_75d:                                 ; preds = %dec_label_pc_74b, %dec_label_pc_722
  br label %dec_label_pc_762

dec_label_pc_762:                                 ; preds = %dec_label_pc_74b, %dec_label_pc_75d
  %storemerge = phi i32 [ 0, %dec_label_pc_75d ], [ 1, %dec_label_pc_74b ]
  store i32 %storemerge, i32* @eax, align 4
  br i1 true, label %bb, label %dec_label_pc_76e

bb:                                               ; preds = %dec_label_pc_762
  %v1_76c = call i32 @function_773()
  br label %dec_label_pc_76e

dec_label_pc_76e:                                 ; preds = %bb, %dec_label_pc_762
  ret void

; uselistorder directives
  uselistorder label %dec_label_pc_762, { 1, 0 }
}

define i32 @function_773() local_unnamed_addr {
dec_label_pc_773:
  %v0_774 = load i32, i32* @eax, align 4
  ret i32 %v0_774
}

define void @_ZN12CBloomFilter19IsRelevantAndUpdateERK12CTransactionRK7uint256(i32 %this, i32 %tx, i32 %hash) local_unnamed_addr {
dec_label_pc_776:
  call void @_ZNK12CBloomFilter8containsERK7uint256(i32 %this, i32 %hash)
  %v1_7d2 = call i32 @function_a55(i32 0)
  ret void
}

define i32 @function_964() local_unnamed_addr {
dec_label_pc_964:
  %eax.global-to-local = alloca i32, align 4
  %v0_964 = load i32, i32* %eax.global-to-local, align 4
  %v4_964 = trunc i32 %v0_964 to i8
  %v5_964 = icmp eq i8 %v4_964, 0
  br i1 %v5_964, label %dec_label_pc_98a, label %dec_label_pc_968

dec_label_pc_968:                                 ; preds = %dec_label_pc_964
  %v0_968 = load i32, i32* @ebp, align 4
  %v1_968 = add i32 %v0_968, -132
  %v2_968 = inttoptr i32 %v1_968 to i32*
  %v3_968 = load i32, i32* %v2_968, align 4
  store i32 %v3_968, i32* %eax.global-to-local, align 4
  %v10_96e = icmp eq i32 %v3_968, 1
  br i1 %v10_96e, label %dec_label_pc_98e, label %dec_label_pc_973

dec_label_pc_973:                                 ; preds = %dec_label_pc_968
  %v3_973 = load i32, i32* %v2_968, align 4
  store i32 %v3_973, i32* %eax.global-to-local, align 4
  %v10_979 = icmp eq i32 %v3_973, 4
  %v1_97c = icmp eq i1 %v10_979, false
  br i1 %v1_97c, label %dec_label_pc_98a, label %dec_label_pc_98e

dec_label_pc_98a:                                 ; preds = %dec_label_pc_964, %dec_label_pc_973
  br label %dec_label_pc_9f2

dec_label_pc_98e:                                 ; preds = %dec_label_pc_973, %dec_label_pc_968
  store i32 1, i32* %eax.global-to-local, align 4
  %v1_98e = add i32 %v0_968, -112
  %v2_98e = inttoptr i32 %v1_98e to i32*
  %v3_98e = load i32, i32* %v2_98e, align 4
  store i32 %v3_98e, i32* %eax.global-to-local, align 4
  %v1_995 = add i32 %v0_968, -180
  %v2_995 = inttoptr i32 %v1_995 to i32*
  %v3_995 = load i32, i32* %v2_995, align 4
  store i32 %v3_995, i32* %eax.global-to-local, align 4
  %v1_99b = inttoptr i32 %v3_995 to i32*
  %v2_99b = load i32, i32* %v1_99b, align 4
  %v1_9a1 = add i32 %v3_995, 4
  %v2_9a1 = inttoptr i32 %v1_9a1 to i32*
  %v3_9a1 = load i32, i32* %v2_9a1, align 4
  %v1_9a8 = add i32 %v3_995, 8
  %v2_9a8 = inttoptr i32 %v1_9a8 to i32*
  %v3_9a8 = load i32, i32* %v2_9a8, align 4
  %v1_9af = add i32 %v3_995, 12
  %v2_9af = inttoptr i32 %v1_9af to i32*
  %v3_9af = load i32, i32* %v2_9af, align 4
  %v1_9b6 = add i32 %v3_995, 16
  %v2_9b6 = inttoptr i32 %v1_9b6 to i32*
  %v3_9b6 = load i32, i32* %v2_9b6, align 4
  %v1_9bd = add i32 %v3_995, 20
  %v2_9bd = inttoptr i32 %v1_9bd to i32*
  %v3_9bd = load i32, i32* %v2_9bd, align 4
  %v1_9c4 = add i32 %v3_995, 24
  %v2_9c4 = inttoptr i32 %v1_9c4 to i32*
  %v3_9c4 = load i32, i32* %v2_9c4, align 4
  %v1_9cb = add i32 %v3_995, 28
  %v2_9cb = inttoptr i32 %v1_9cb to i32*
  %v3_9cb = load i32, i32* %v2_9cb, align 4
  %v1_9d2 = add i32 %v0_968, -48
  store i32 %v1_9d2, i32* %eax.global-to-local, align 4
  %v10_9d8 = inttoptr i32 %v1_9d2 to i32*
  %v11_9d8 = call i32 @_ZN9COutPointC1E7uint256j(i32* %v10_9d8, i32 %v2_99b, i32 %v3_9a1, i32 %v3_9a8, i32 %v3_9af, i32 %v3_9b6, i32 %v3_9bd, i32 %v3_9c4, i32 %v3_9cb, i32 %v3_98e)
  %v0_9dd = load i32, i32* @ebp, align 4
  %v1_9dd = add i32 %v0_9dd, -48
  store i32 %v1_9dd, i32* %eax.global-to-local, align 4
  %v1_9e4 = add i32 %v0_9dd, -172
  %v2_9e4 = inttoptr i32 %v1_9e4 to i32*
  %v3_9e4 = load i32, i32* %v2_9e4, align 4
  store i32 %v3_9e4, i32* %eax.global-to-local, align 4
  call void @_ZN12CBloomFilter6insertERK9COutPoint(i32 %v3_9e4, i32 %v1_9dd)
  br label %dec_label_pc_9f2

dec_label_pc_9f2:                                 ; preds = %dec_label_pc_98a, %dec_label_pc_98e
  %storemerge = phi i32 [ ptrtoint (i32* @0 to i32), %dec_label_pc_98e ], [ 0, %dec_label_pc_98a ]
  store i32 %storemerge, i32* %eax.global-to-local, align 4
  %v0_9f2 = load i32, i32* @ebp, align 4
  %v1_9f2 = add i32 %v0_9f2, -156
  store i32 %v1_9f2, i32* %eax.global-to-local, align 4
  %v1_9fb = inttoptr i32 %v1_9f2 to i32*
  %v2_9fb = call i32 @_ZNSt6vectorIS_IhSaIhEESaIS1_EED1Ev(i32* %v1_9fb)
  store i32 %v2_9fb, i32* @eax, align 4
  %v0_a00 = call i32 @function_a42()
  store i32 %v0_a00, i32* %eax.global-to-local, align 4
  ret i32 %v0_a00

; uselistorder directives
  uselistorder i32 %v3_995, { 1, 0, 3, 2, 5, 4, 6, 7, 8 }
  uselistorder i32 %v0_968, { 0, 2, 1, 3 }
  uselistorder i32* %eax.global-to-local, { 1, 2, 0, 3, 4, 5, 6, 7, 10, 8, 9, 11 }
  uselistorder label %dec_label_pc_9f2, { 1, 0 }
  uselistorder label %dec_label_pc_98a, { 1, 0 }
}

define i32 @function_a02() local_unnamed_addr {
dec_label_pc_a02:
  %v0_a02 = load i32, i32* @ebp, align 4
  %v1_a02 = add i32 %v0_a02, -108
  %v2_a02 = inttoptr i32 %v1_a02 to i32*
  %v3_a02 = load i32, i32* %v2_a02, align 4
  %v1_a05 = add i32 %v3_a02, 8
  %v1_a08 = add i32 %v0_a02, -140
  %v2_a15 = call i32 @_ZNKSt6vectorIhSaIhEE3endEv(i32 %v1_a08, i32 %v1_a05)
  %v0_a1d = load i32, i32* @ebp, align 4
  %v1_a1d = add i32 %v0_a1d, -140
  %v1_a27 = add i32 %v0_a1d, -144
  %v2_a30 = call i32 @_ZN9__gnu_cxxltIPKhSt6vectorIhSaIhEEEEbRKNS_17__normal_iteratorIT_T0_EESB_(i32 %v1_a27, i32 %v1_a1d)
  %v0_a3d = call i32 @function_a43()
  ret i32 %v0_a3d
}

define i32 @function_a3f() local_unnamed_addr {
dec_label_pc_a3f:
  %v0_a40 = call i32 @function_a43()
  ret i32 %v0_a40

; uselistorder directives
  uselistorder i32 ()* @function_a43, { 1, 0 }
}

define i32 @function_a42() local_unnamed_addr {
dec_label_pc_a42:
  %v0_a42 = load i32, i32* @eax, align 4
  ret i32 %v0_a42
}

define i32 @function_a43() local_unnamed_addr {
dec_label_pc_a43:
  %eax.global-to-local = alloca i32, align 4
  %v0_a43 = load i32, i32* @ebp, align 4
  %v1_a43 = add i32 %v0_a43, -168
  store i32 %v1_a43, i32* %eax.global-to-local, align 4
  %v1_a4c = inttoptr i32 %v1_a43 to i32*
  %v2_a4c = call i32 @_ZNSt6vectorIhSaIhEED1Ev(i32* %v1_a4c)
  store i32 %v2_a4c, i32* %eax.global-to-local, align 4
  %v0_a51 = load i32, i32* @ebp, align 4
  %v1_a51 = add i32 %v0_a51, -112
  %v2_a51 = inttoptr i32 %v1_a51 to i32*
  %v3_a51 = load i32, i32* %v2_a51, align 4
  %v4_a51 = add i32 %v3_a51, 1
  store i32 %v4_a51, i32* %v2_a51, align 4
  %v22_a51 = load i32, i32* %eax.global-to-local, align 4
  ret i32 %v22_a51
}

define i32 @function_a55(i32 %arg1) local_unnamed_addr {
dec_label_pc_a55:
  %eax.global-to-local = alloca i32, align 4
  %edx.global-to-local = alloca i32, align 4
  %esi.global-to-local = alloca i32, align 4
  %stack_var_-12 = alloca i32, align 4
  %stack_var_-8 = alloca i32, align 4
  %stack_var_-4 = alloca i32, align 4
  %v0_a55 = load i32, i32* @ebp, align 4
  %v1_a55 = add i32 %v0_a55, -176
  %v2_a55 = inttoptr i32 %v1_a55 to i32*
  %v3_a55 = load i32, i32* %v2_a55, align 4
  %v1_a5b = add i32 %v3_a55, 16
  store i32 %v1_a5b, i32* %eax.global-to-local, align 4
  %v1_a61 = inttoptr i32 %v1_a5b to i32*
  %v2_a61 = call i32 @_ZNKSt6vectorI6CTxOutSaIS0_EE4sizeEv(i32* %v1_a61)
  store i32 %v2_a61, i32* %eax.global-to-local, align 4
  %v1_a66 = load i32, i32* @ebp, align 4
  %v2_a66 = add i32 %v1_a66, -112
  %v3_a66 = inttoptr i32 %v2_a66 to i32*
  %v4_a66 = load i32, i32* %v3_a66, align 4
  %tmp23 = icmp ule i32 %v2_a61, %v4_a66
  %v3_a69 = icmp ne i1 %tmp23, true
  %v4_a69 = zext i1 %v3_a69 to i32
  %v6_a69 = and i32 %v2_a61, -256
  %v7_a69 = or i32 %v4_a69, %v6_a69
  store i32 %v7_a69, i32* %eax.global-to-local, align 4
  %v1_a74 = add i32 %v1_a66, -85
  %v2_a74 = inttoptr i32 %v1_a74 to i8*
  %v3_a74 = load i8, i8* %v2_a74, align 1
  %v10_a74 = icmp eq i8 %v3_a74, 0
  br i1 %v10_a74, label %dec_label_pc_a84, label %dec_label_pc_a7a

dec_label_pc_a7a:                                 ; preds = %dec_label_pc_a55
  br label %dec_label_pc_d17

dec_label_pc_a84:                                 ; preds = %dec_label_pc_a55
  %v1_a84 = add i32 %v1_a66, -176
  %v2_a84 = inttoptr i32 %v1_a84 to i32*
  %v3_a84 = load i32, i32* %v2_a84, align 4
  %v1_a8a = add i32 %v3_a84, 4
  store i32 %v1_a8a, i32* %edx.global-to-local, align 4
  %v1_a8d = add i32 %v1_a66, -128
  store i32 %v1_a8d, i32* %eax.global-to-local, align 4
  %v3_a9f = call i32 @_ZN5boost15foreach_detail_7containIKSt6vectorI5CTxInSaIS3_EEEENS0_8auto_anyIPT_EERS8_PN4mpl_5bool_ILb0EEE(i32 %v1_a8d, i32 %v1_a8a, i32 0)
  %v0_aa7 = load i32, i32* @ebp, align 4
  %v1_aa7 = add i32 %v0_aa7, -128
  store i32 %v1_aa7, i32* %eax.global-to-local, align 4
  %v2_aaa = add i32 %v0_aa7, -104
  %v3_aaa = inttoptr i32 %v2_aaa to i32*
  store i32 %v1_aa7, i32* %v3_aaa, align 4
  %v0_aad = load i32, i32* @ebp, align 4
  %v1_aad = add i32 %v0_aad, -104
  %v2_aad = inttoptr i32 %v1_aad to i32*
  %v3_aad = load i32, i32* %v2_aad, align 4
  store i32 %v3_aad, i32* %eax.global-to-local, align 4
  store i32 %v3_aad, i32* %stack_var_-4, align 4
  %v1_ab3 = call i32 @_ZNK5boost15foreach_detail_13auto_any_basecvbEv(i32 %v3_aad)
  store i32 %v1_ab3, i32* %eax.global-to-local, align 4
  %v4_ab8 = trunc i32 %v1_ab3 to i8
  %v5_ab8 = icmp eq i8 %v4_ab8, 0
  %v1_aba = icmp eq i1 %v5_ab8, false
  br i1 %v1_aba, label %dec_label_pc_d12, label %dec_label_pc_ac0

dec_label_pc_ac0:                                 ; preds = %dec_label_pc_a84
  %v0_ac0 = load i32, i32* @ebp, align 4
  %v1_ac0 = add i32 %v0_ac0, -124
  store i32 %v1_ac0, i32* %eax.global-to-local, align 4
  %v1_ad3 = add i32 %v0_ac0, -104
  %v2_ad3 = inttoptr i32 %v1_ad3 to i32*
  %v3_ad3 = load i32, i32* %v2_ad3, align 4
  store i32 %v3_ad3, i32* %edx.global-to-local, align 4
  store i32 %v1_ac0, i32* %stack_var_-4, align 4
  %v4_add = call i32 @_ZN5boost15foreach_detail_5beginISt6vectorI5CTxInSaIS3_EEN4mpl_5bool_ILb1EEEEENS0_8auto_anyINS0_16foreach_iteratorIT_T0_E4typeEEERKNS0_13auto_any_baseEPNS0_9type2typeISB_SC_EEPNS7_ILb0EEE(i32 %v1_ac0, i32 %v3_ad3, i32 0, i32 0)
  %v0_ae5 = load i32, i32* @ebp, align 4
  %v1_ae5 = add i32 %v0_ae5, -124
  store i32 %v1_ae5, i32* %eax.global-to-local, align 4
  %v2_ae8 = add i32 %v0_ae5, -100
  %v3_ae8 = inttoptr i32 %v2_ae8 to i32*
  store i32 %v1_ae5, i32* %v3_ae8, align 4
  %v0_aeb = load i32, i32* @ebp, align 4
  %v1_aeb = add i32 %v0_aeb, -100
  %v2_aeb = inttoptr i32 %v1_aeb to i32*
  %v3_aeb = load i32, i32* %v2_aeb, align 4
  store i32 %v3_aeb, i32* %eax.global-to-local, align 4
  store i32 %v3_aeb, i32* %stack_var_-8, align 4
  %v1_af1 = call i32 @_ZNK5boost15foreach_detail_13auto_any_basecvbEv(i32 %v3_aeb)
  store i32 %v1_af1, i32* %eax.global-to-local, align 4
  %v4_af6 = trunc i32 %v1_af1 to i8
  %v5_af6 = icmp eq i8 %v4_af6, 0
  %v1_af8 = icmp eq i1 %v5_af6, false
  br i1 %v1_af8, label %dec_label_pc_d12, label %dec_label_pc_afe

dec_label_pc_afe:                                 ; preds = %dec_label_pc_ac0
  %v0_afe = load i32, i32* @ebp, align 4
  %v1_afe = add i32 %v0_afe, -120
  store i32 %v1_afe, i32* %eax.global-to-local, align 4
  %v1_b11 = add i32 %v0_afe, -104
  %v2_b11 = inttoptr i32 %v1_b11 to i32*
  %v3_b11 = load i32, i32* %v2_b11, align 4
  store i32 %v3_b11, i32* %edx.global-to-local, align 4
  store i32 %v3_b11, i32* %stack_var_-4, align 4
  store i32 %v1_afe, i32* %stack_var_-8, align 4
  %v4_b1b = call i32 @_ZN5boost15foreach_detail_3endISt6vectorI5CTxInSaIS3_EEN4mpl_5bool_ILb1EEEEENS0_8auto_anyINS0_16foreach_iteratorIT_T0_E4typeEEERKNS0_13auto_any_baseEPNS0_9type2typeISB_SC_EEPNS7_ILb0EEE(i32 %v1_afe, i32 %v3_b11, i32 0, i32 0)
  %v0_b23 = load i32, i32* @ebp, align 4
  %v1_b23 = add i32 %v0_b23, -120
  store i32 %v1_b23, i32* %eax.global-to-local, align 4
  %v2_b26 = add i32 %v0_b23, -96
  %v3_b26 = inttoptr i32 %v2_b26 to i32*
  store i32 %v1_b23, i32* %v3_b26, align 4
  %v0_b29 = load i32, i32* @ebp, align 4
  %v1_b29 = add i32 %v0_b29, -96
  %v2_b29 = inttoptr i32 %v1_b29 to i32*
  %v3_b29 = load i32, i32* %v2_b29, align 4
  store i32 %v3_b29, i32* %eax.global-to-local, align 4
  store i32 %v3_b29, i32* %stack_var_-12, align 4
  %v1_b2f = call i32 @_ZNK5boost15foreach_detail_13auto_any_basecvbEv(i32 %v3_b29)
  store i32 %v1_b2f, i32* %eax.global-to-local, align 4
  %v4_b34 = trunc i32 %v1_b2f to i8
  %v5_b34 = icmp eq i8 %v4_b34, 0
  %v1_b36 = icmp eq i1 %v5_b34, false
  br i1 %v1_b36, label %dec_label_pc_d12, label %dec_label_pc_b3c

dec_label_pc_b3c:                                 ; preds = %dec_label_pc_afe
  %v0_b3c = load i32, i32* @ebp, align 4
  %v1_b3c = add i32 %v0_b3c, -136
  %v2_b3c = inttoptr i32 %v1_b3c to i8*
  store i8 1, i8* %v2_b3c, align 1
  %v0_cd246 = load i32, i32* @ebp, align 4
  %v1_cd247 = add i32 %v0_cd246, -136
  %v2_cd248 = inttoptr i32 %v1_cd247 to i8*
  %v3_cd249 = load i8, i8* %v2_cd248, align 1
  %v4_cd250 = zext i8 %v3_cd249 to i32
  store i32 %v4_cd250, i32* %eax.global-to-local, align 4
  %v5_cd951 = icmp eq i8 %v3_cd249, 0
  br i1 %v5_cd951, label %dec_label_pc_d0a.thread32, label %dec_label_pc_cdd

dec_label_pc_b48:                                 ; preds = %dec_label_pc_cdd
  %v0_b48 = load i32, i32* @ebp, align 4
  %v1_b48 = add i32 %v0_b48, -136
  store i32 %v1_b48, i32* %eax.global-to-local, align 4
  %v1_b4e = load i32, i32* @esp, align 4
  %v2_b4e = inttoptr i32 %v1_b4e to i32*
  store i32 %v1_b48, i32* %v2_b4e, align 4
  %v0_b51 = call i32 @_ZN5boost15foreach_detail_9set_falseERb()
  store i32 %v0_b51, i32* %eax.global-to-local, align 4
  %v4_b56 = trunc i32 %v0_b51 to i8
  %v5_b56 = icmp eq i8 %v4_b56, 0
  %v1_b58 = icmp eq i1 %v5_b56, false
  br i1 %v1_b58, label %dec_label_pc_b48.dec_label_pc_cb4_crit_edge, label %dec_label_pc_b5e

dec_label_pc_b48.dec_label_pc_cb4_crit_edge:      ; preds = %dec_label_pc_b48
  %v0_cb4.pre = load i32, i32* @ebp, align 4
  br label %dec_label_pc_cb4

dec_label_pc_b5e:                                 ; preds = %dec_label_pc_b48
  %v0_b5e = load i32, i32* @esp, align 4
  %v1_b5e = add i32 %v0_b5e, 4
  %v2_b5e = inttoptr i32 %v1_b5e to i32*
  store i32 0, i32* %v2_b5e, align 4
  %v0_b66 = load i32, i32* @ebp, align 4
  %v1_b66 = add i32 %v0_b66, -100
  %v2_b66 = inttoptr i32 %v1_b66 to i32*
  %v3_b66 = load i32, i32* %v2_b66, align 4
  store i32 %v3_b66, i32* %eax.global-to-local, align 4
  %v1_b69 = load i32, i32* @esp, align 4
  %v2_b69 = inttoptr i32 %v1_b69 to i32*
  store i32 %v3_b66, i32* %v2_b69, align 4
  %v0_b6c = call i32 @_ZN5boost15foreach_detail_5derefISt6vectorI5CTxInSaIS3_EEN4mpl_5bool_ILb1EEEEENS0_17foreach_referenceIT_T0_E4typeERKNS0_13auto_any_baseEPNS0_9type2typeISA_SB_EE()
  store i32 %v0_b6c, i32* %eax.global-to-local, align 4
  %v1_b71 = load i32, i32* @ebp, align 4
  %v2_b71 = add i32 %v1_b71, -92
  %v3_b71 = inttoptr i32 %v2_b71 to i32*
  store i32 %v0_b6c, i32* %v3_b71, align 4
  %v0_ca237 = load i32, i32* @ebp, align 4
  %v1_ca238 = add i32 %v0_ca237, -136
  %v2_ca239 = inttoptr i32 %v1_ca238 to i8*
  %v3_ca240 = load i8, i8* %v2_ca239, align 1
  %v4_ca241 = zext i8 %v3_ca240 to i32
  %v1_ca942 = xor i32 %v4_ca241, 1
  store i32 %v1_ca942, i32* %eax.global-to-local, align 4
  %v5_cac43 = icmp eq i32 %v1_ca942, 0
  %v1_cae44 = icmp eq i1 %v5_cac43, false
  br i1 %v1_cae44, label %dec_label_pc_b79, label %dec_label_pc_cb4

dec_label_pc_b79:                                 ; preds = %dec_label_pc_b5e, %dec_label_pc_c9b
  %v0_ca245 = phi i32 [ %v0_ca2, %dec_label_pc_c9b ], [ %v0_ca237, %dec_label_pc_b5e ]
  %v1_b79 = add i32 %v0_ca245, -92
  %v2_b79 = inttoptr i32 %v1_b79 to i32*
  %v3_b79 = load i32, i32* %v2_b79, align 4
  store i32 %v3_b79, i32* %eax.global-to-local, align 4
  %v1_b7c = load i32, i32* @esp, align 4
  %v2_b7c = add i32 %v1_b7c, 4
  %v3_b7c = inttoptr i32 %v2_b7c to i32*
  store i32 %v3_b79, i32* %v3_b7c, align 4
  %v0_b80 = load i32, i32* @ebp, align 4
  %v1_b80 = add i32 %v0_b80, -172
  %v2_b80 = inttoptr i32 %v1_b80 to i32*
  %v3_b80 = load i32, i32* %v2_b80, align 4
  store i32 %v3_b80, i32* %eax.global-to-local, align 4
  %v1_b86 = load i32, i32* @esp, align 4
  %v2_b86 = inttoptr i32 %v1_b86 to i32*
  store i32 %v3_b80, i32* %v2_b86, align 4
  %v0_b89 = load i32, i32* %stack_var_-12, align 4
  %v1_b89 = load i32, i32* %stack_var_-8, align 4
  call void @_ZNK12CBloomFilter8containsERK9COutPoint(i32 %v0_b89, i32 %v1_b89)
  store i32 ptrtoint (i32* @0 to i32), i32* %eax.global-to-local, align 4
  br i1 icmp eq (i8 and (i8 ptrtoint (i32* @0 to i8), i8 ptrtoint (i32* @0 to i8)), i8 0), label %dec_label_pc_b9c, label %dec_label_pc_b92

dec_label_pc_b92:                                 ; preds = %dec_label_pc_b79
  br label %dec_label_pc_d17

dec_label_pc_b9c:                                 ; preds = %dec_label_pc_b79
  %v0_b9c = load i32, i32* @ebp, align 4
  %v1_b9c = add i32 %v0_b9c, -92
  %v2_b9c = inttoptr i32 %v1_b9c to i32*
  %v3_b9c = load i32, i32* %v2_b9c, align 4
  %v1_b9f = add i32 %v3_b9c, 36
  store i32 %v1_b9f, i32* %edx.global-to-local, align 4
  %v1_ba2 = add i32 %v0_b9c, -144
  store i32 %v1_ba2, i32* %eax.global-to-local, align 4
  %v1_ba8 = load i32, i32* @esp, align 4
  %v2_ba8 = add i32 %v1_ba8, 4
  %v3_ba8 = inttoptr i32 %v2_ba8 to i32*
  store i32 %v1_b9f, i32* %v3_ba8, align 4
  %v0_bac = load i32, i32* %eax.global-to-local, align 4
  %v1_bac = load i32, i32* @esp, align 4
  %v2_bac = inttoptr i32 %v1_bac to i32*
  store i32 %v0_bac, i32* %v2_bac, align 4
  %v0_baf = load i32, i32* %stack_var_-12, align 4
  %v1_baf = load i32, i32* %stack_var_-8, align 4
  %v2_baf = inttoptr i32 %v1_baf to i32*
  %v3_baf = call i32 @_ZNKSt6vectorIhSaIhEE5beginEv(i32 %v0_baf, i32* %v2_baf)
  %v0_bb4 = load i32, i32* @esp, align 4
  %v1_bb4 = add i32 %v0_bb4, -4
  %v0_bb7 = load i32, i32* @ebp, align 4
  %v1_bb7 = add i32 %v0_bb7, -156
  store i32 %v1_bb7, i32* %eax.global-to-local, align 4
  %v2_bbd = inttoptr i32 %v1_bb4 to i32*
  store i32 %v1_bb7, i32* %v2_bbd, align 4
  %v0_bc0 = load i32, i32* %stack_var_-12, align 4
  %v1_bc0 = call i32 @_ZNSt6vectorIhSaIhEEC1Ev(i32 %v0_bc0)
  br label %dec_label_pc_c4b

dec_label_pc_bca:                                 ; preds = %dec_label_pc_c4b
  %v0_bca = load i32, i32* @ebp, align 4
  %v1_bca = add i32 %v0_bca, -92
  %v2_bca = inttoptr i32 %v1_bca to i32*
  %v3_bca = load i32, i32* %v2_bca, align 4
  %v1_bcd = add i32 %v3_bca, 36
  store i32 %v1_bcd, i32* %edx.global-to-local, align 4
  %v1_bd0 = add i32 %v0_bca, -156
  %v1_bd6 = load i32, i32* @esp, align 4
  %v2_bd6 = add i32 %v1_bd6, 12
  %v3_bd6 = inttoptr i32 %v2_bd6 to i32*
  store i32 %v1_bd0, i32* %v3_bd6, align 4
  %v0_bda = load i32, i32* @ebp, align 4
  %v1_bda = add i32 %v0_bda, -132
  %v1_be0 = load i32, i32* @esp, align 4
  %v2_be0 = add i32 %v1_be0, 8
  %v3_be0 = inttoptr i32 %v2_be0 to i32*
  store i32 %v1_bda, i32* %v3_be0, align 4
  %v0_be4 = load i32, i32* @ebp, align 4
  %v1_be4 = add i32 %v0_be4, -144
  store i32 %v1_be4, i32* %eax.global-to-local, align 4
  %v1_bea = load i32, i32* @esp, align 4
  %v2_bea = add i32 %v1_bea, 4
  %v3_bea = inttoptr i32 %v2_bea to i32*
  store i32 %v1_be4, i32* %v3_bea, align 4
  %v0_bee = load i32, i32* %edx.global-to-local, align 4
  %v1_bee = load i32, i32* @esp, align 4
  %v2_bee = inttoptr i32 %v1_bee to i32*
  store i32 %v0_bee, i32* %v2_bee, align 4
  %v0_bf1 = load i32, i32* %stack_var_-12, align 4
  %v1_bf1 = load i32, i32* %stack_var_-8, align 4
  %v2_bf1 = load i32, i32* %stack_var_-4, align 4
  %v4_bf1 = call i32 @_ZNK7CScript5GetOpERN9__gnu_cxx17__normal_iteratorIPKhSt6vectorIhSaIhEEEER10opcodetypeRS6_(i32 %v0_bf1, i32 %v1_bf1, i32 %v2_bf1, i32 0)
  %v1_bf6 = xor i32 %v4_bf1, 1
  %v4_bf6 = trunc i32 %v1_bf6 to i8
  store i32 %v1_bf6, i32* %eax.global-to-local, align 4
  %v5_bf9 = icmp eq i8 %v4_bf6, 0
  %v1_bfb = icmp eq i1 %v5_bf9, false
  br i1 %v1_bfb, label %dec_label_pc_c88, label %dec_label_pc_c01

dec_label_pc_c01:                                 ; preds = %dec_label_pc_bca
  %v0_c01 = load i32, i32* @ebp, align 4
  %v1_c01 = add i32 %v0_c01, -156
  store i32 %v1_c01, i32* %eax.global-to-local, align 4
  %v1_c07 = load i32, i32* @esp, align 4
  %v2_c07 = inttoptr i32 %v1_c07 to i32*
  store i32 %v1_c01, i32* %v2_c07, align 4
  %v0_c0a = load i32, i32* %stack_var_-12, align 4
  %v1_c0a = inttoptr i32 %v0_c0a to i32*
  %v2_c0a = call i32 @_ZNKSt6vectorIhSaIhEE4sizeEv(i32* %v1_c0a)
  store i32 %v2_c0a, i32* %eax.global-to-local, align 4
  %v1_c0f = icmp eq i32 %v2_c0a, 0
  br i1 %v1_c0f, label %dec_label_pc_c3b.thread, label %dec_label_pc_c13

dec_label_pc_c13:                                 ; preds = %dec_label_pc_c01
  %v0_c13 = load i32, i32* @ebp, align 4
  %v1_c13 = add i32 %v0_c13, -156
  store i32 %v1_c13, i32* %eax.global-to-local, align 4
  %v1_c19 = load i32, i32* @esp, align 4
  %v2_c19 = add i32 %v1_c19, 4
  %v3_c19 = inttoptr i32 %v2_c19 to i32*
  store i32 %v1_c13, i32* %v3_c19, align 4
  %v0_c1d = load i32, i32* @ebp, align 4
  %v1_c1d = add i32 %v0_c1d, -172
  %v2_c1d = inttoptr i32 %v1_c1d to i32*
  %v3_c1d = load i32, i32* %v2_c1d, align 4
  store i32 %v3_c1d, i32* %eax.global-to-local, align 4
  %v1_c23 = load i32, i32* @esp, align 4
  %v2_c23 = inttoptr i32 %v1_c23 to i32*
  store i32 %v3_c1d, i32* %v2_c23, align 4
  %v0_c26 = load i32, i32* %stack_var_-12, align 4
  %v1_c26 = load i32, i32* %stack_var_-8, align 4
  call void @_ZNK12CBloomFilter8containsERKSt6vectorIhSaIhEE(i32 %v0_c26, i32 %v1_c26)
  store i32 ptrtoint (i32* @0 to i32), i32* %eax.global-to-local, align 4
  br i1 icmp eq (i8 and (i8 ptrtoint (i32* @0 to i8), i8 ptrtoint (i32* @0 to i8)), i8 0), label %dec_label_pc_c3b.thread, label %dec_label_pc_c3f

dec_label_pc_c3b.thread:                          ; preds = %dec_label_pc_c01, %dec_label_pc_c13
  br label %dec_label_pc_c4b

dec_label_pc_c3f:                                 ; preds = %dec_label_pc_c13
  store i32 1, i32* %eax.global-to-local, align 4
  store i32 1, i32* @ebx, align 4
  br label %dec_label_pc_c88

dec_label_pc_c4b:                                 ; preds = %dec_label_pc_c3b.thread, %dec_label_pc_b9c
  %storemerge54 = phi i32 [ %v1_bc0, %dec_label_pc_b9c ], [ 0, %dec_label_pc_c3b.thread ]
  store i32 %storemerge54, i32* %eax.global-to-local, align 4
  %v0_c4b = load i32, i32* @ebp, align 4
  %v1_c4b = add i32 %v0_c4b, -92
  %v2_c4b = inttoptr i32 %v1_c4b to i32*
  %v3_c4b = load i32, i32* %v2_c4b, align 4
  %v1_c4e = add i32 %v3_c4b, 36
  store i32 %v1_c4e, i32* %edx.global-to-local, align 4
  %v1_c51 = add i32 %v0_c4b, -116
  store i32 %v1_c51, i32* %eax.global-to-local, align 4
  %v1_c54 = load i32, i32* @esp, align 4
  %v2_c54 = add i32 %v1_c54, 4
  %v3_c54 = inttoptr i32 %v2_c54 to i32*
  store i32 %v1_c4e, i32* %v3_c54, align 4
  %v0_c58 = load i32, i32* %eax.global-to-local, align 4
  %v1_c58 = load i32, i32* @esp, align 4
  %v2_c58 = inttoptr i32 %v1_c58 to i32*
  store i32 %v0_c58, i32* %v2_c58, align 4
  %v0_c5b = load i32, i32* %stack_var_-12, align 4
  %v1_c5b = load i32, i32* %stack_var_-8, align 4
  %v2_c5b = call i32 @_ZNKSt6vectorIhSaIhEE3endEv(i32 %v0_c5b, i32 %v1_c5b)
  %v0_c60 = load i32, i32* @esp, align 4
  %v0_c63 = load i32, i32* @ebp, align 4
  %v1_c63 = add i32 %v0_c63, -116
  %v3_c66 = inttoptr i32 %v0_c60 to i32*
  store i32 %v1_c63, i32* %v3_c66, align 4
  %v0_c6a = load i32, i32* @ebp, align 4
  %v1_c6a = add i32 %v0_c6a, -144
  store i32 %v1_c6a, i32* %eax.global-to-local, align 4
  %v1_c70 = load i32, i32* @esp, align 4
  %v2_c70 = inttoptr i32 %v1_c70 to i32*
  store i32 %v1_c6a, i32* %v2_c70, align 4
  %v0_c73 = load i32, i32* %stack_var_-12, align 4
  %v1_c73 = load i32, i32* %stack_var_-8, align 4
  %v2_c73 = call i32 @_ZN9__gnu_cxxltIPKhSt6vectorIhSaIhEEEEbRKNS_17__normal_iteratorIT_T0_EESB_(i32 %v0_c73, i32 %v1_c73)
  store i32 %v2_c73, i32* %eax.global-to-local, align 4
  %v4_c78 = trunc i32 %v2_c73 to i8
  %v5_c78 = icmp eq i8 %v4_c78, 0
  %v1_c7a = icmp eq i1 %v5_c78, false
  br i1 %v1_c7a, label %dec_label_pc_bca, label %dec_label_pc_c88

dec_label_pc_c88:                                 ; preds = %dec_label_pc_c4b, %dec_label_pc_bca, %dec_label_pc_c3f
  %storemerge = phi i32 [ 0, %dec_label_pc_c3f ], [ 1, %dec_label_pc_bca ], [ 1, %dec_label_pc_c4b ]
  store i32 %storemerge, i32* %esi.global-to-local, align 4
  %v0_c88 = load i32, i32* @ebp, align 4
  %v1_c88 = add i32 %v0_c88, -156
  store i32 %v1_c88, i32* %eax.global-to-local, align 4
  %v1_c8e = load i32, i32* @esp, align 4
  %v2_c8e = inttoptr i32 %v1_c8e to i32*
  store i32 %v1_c88, i32* %v2_c8e, align 4
  %v0_c91 = load i32, i32* %stack_var_-12, align 4
  %v1_c91 = inttoptr i32 %v0_c91 to i32*
  %v2_c91 = call i32 @_ZNSt6vectorIhSaIhEED1Ev(i32* %v1_c91)
  store i32 %v2_c91, i32* %eax.global-to-local, align 4
  %v0_c96 = load i32, i32* %esi.global-to-local, align 4
  %v10_c96 = icmp eq i32 %v0_c96, 1
  %v1_c99 = icmp eq i1 %v10_c96, false
  br i1 %v1_c99, label %dec_label_pc_d17.loopexit, label %dec_label_pc_c9b

dec_label_pc_c9b:                                 ; preds = %dec_label_pc_c88
  %v0_c9b = load i32, i32* @ebp, align 4
  %v1_c9b = add i32 %v0_c9b, -136
  %v2_c9b = inttoptr i32 %v1_c9b to i8*
  store i8 1, i8* %v2_c9b, align 1
  %v0_ca2 = load i32, i32* @ebp, align 4
  %v1_ca2 = add i32 %v0_ca2, -136
  %v2_ca2 = inttoptr i32 %v1_ca2 to i8*
  %v3_ca2 = load i8, i8* %v2_ca2, align 1
  %v4_ca2 = zext i8 %v3_ca2 to i32
  %v1_ca9 = xor i32 %v4_ca2, 1
  store i32 %v1_ca9, i32* %eax.global-to-local, align 4
  %v5_cac = icmp eq i32 %v1_ca9, 0
  %v1_cae = icmp eq i1 %v5_cac, false
  br i1 %v1_cae, label %dec_label_pc_b79, label %dec_label_pc_cb4

dec_label_pc_cb4:                                 ; preds = %dec_label_pc_b5e, %dec_label_pc_c9b, %dec_label_pc_b48.dec_label_pc_cb4_crit_edge
  %v0_cb4 = phi i32 [ %v0_cb4.pre, %dec_label_pc_b48.dec_label_pc_cb4_crit_edge ], [ %v0_ca237, %dec_label_pc_b5e ], [ %v0_ca2, %dec_label_pc_c9b ]
  %v1_cb4 = add i32 %v0_cb4, -136
  %v2_cb4 = inttoptr i32 %v1_cb4 to i8*
  %v3_cb4 = load i8, i8* %v2_cb4, align 1
  %v4_cb4 = zext i8 %v3_cb4 to i32
  store i32 %v4_cb4, i32* %eax.global-to-local, align 4
  %v5_cbb = icmp eq i8 %v3_cb4, 0
  br i1 %v5_cbb, label %dec_label_pc_cd2.backedge, label %dec_label_pc_cbf

dec_label_pc_cd2.backedge:                        ; preds = %dec_label_pc_cb4, %dec_label_pc_cbf
  %v0_cd2 = phi i32 [ %v0_cb4, %dec_label_pc_cb4 ], [ %v0_cd2.pre, %dec_label_pc_cbf ]
  %v1_cd2 = add i32 %v0_cd2, -136
  %v2_cd2 = inttoptr i32 %v1_cd2 to i8*
  %v3_cd2 = load i8, i8* %v2_cd2, align 1
  %v4_cd2 = zext i8 %v3_cd2 to i32
  store i32 %v4_cd2, i32* %eax.global-to-local, align 4
  %v5_cd9 = icmp eq i8 %v3_cd2, 0
  br i1 %v5_cd9, label %dec_label_pc_d0a.thread32, label %dec_label_pc_cdd

dec_label_pc_cbf:                                 ; preds = %dec_label_pc_cb4
  %v0_cbf = load i32, i32* @esp, align 4
  %v1_cbf = add i32 %v0_cbf, 4
  %v2_cbf = inttoptr i32 %v1_cbf to i32*
  store i32 0, i32* %v2_cbf, align 4
  %v0_cc7 = load i32, i32* @ebp, align 4
  %v1_cc7 = add i32 %v0_cc7, -100
  %v2_cc7 = inttoptr i32 %v1_cc7 to i32*
  %v3_cc7 = load i32, i32* %v2_cc7, align 4
  store i32 %v3_cc7, i32* %eax.global-to-local, align 4
  %v1_cca = load i32, i32* @esp, align 4
  %v2_cca = inttoptr i32 %v1_cca to i32*
  store i32 %v3_cc7, i32* %v2_cca, align 4
  %v0_ccd = call i32 @_ZN5boost15foreach_detail_4nextISt6vectorI5CTxInSaIS3_EEN4mpl_5bool_ILb1EEEEEvRKNS0_13auto_any_baseEPNS0_9type2typeIT_T0_EE()
  store i32 %v0_ccd, i32* %eax.global-to-local, align 4
  %v0_cd2.pre = load i32, i32* @ebp, align 4
  br label %dec_label_pc_cd2.backedge

dec_label_pc_cdd:                                 ; preds = %dec_label_pc_b3c, %dec_label_pc_cd2.backedge
  %v0_cdd = load i32, i32* @esp, align 4
  %v1_cdd = add i32 %v0_cdd, 8
  %v2_cdd = inttoptr i32 %v1_cdd to i32*
  store i32 0, i32* %v2_cdd, align 4
  %v0_ce5 = load i32, i32* @ebp, align 4
  %v1_ce5 = add i32 %v0_ce5, -96
  %v2_ce5 = inttoptr i32 %v1_ce5 to i32*
  %v3_ce5 = load i32, i32* %v2_ce5, align 4
  store i32 %v3_ce5, i32* %eax.global-to-local, align 4
  %v1_ce8 = load i32, i32* @esp, align 4
  %v2_ce8 = add i32 %v1_ce8, 4
  %v3_ce8 = inttoptr i32 %v2_ce8 to i32*
  store i32 %v3_ce5, i32* %v3_ce8, align 4
  %v0_cec = load i32, i32* @ebp, align 4
  %v1_cec = add i32 %v0_cec, -100
  %v2_cec = inttoptr i32 %v1_cec to i32*
  %v3_cec = load i32, i32* %v2_cec, align 4
  store i32 %v3_cec, i32* %eax.global-to-local, align 4
  %v1_cef = load i32, i32* @esp, align 4
  %v2_cef = inttoptr i32 %v1_cef to i32*
  store i32 %v3_cec, i32* %v2_cef, align 4
  %v0_cf2 = call i32 @_ZN5boost15foreach_detail_4doneISt6vectorI5CTxInSaIS3_EEN4mpl_5bool_ILb1EEEEEbRKNS0_13auto_any_baseESB_PNS0_9type2typeIT_T0_EE()
  %v1_cf7 = xor i32 %v0_cf2, 1
  %v4_cf7 = trunc i32 %v1_cf7 to i8
  store i32 %v1_cf7, i32* %eax.global-to-local, align 4
  %v5_cfa = icmp eq i8 %v4_cf7, 0
  br i1 %v5_cfa, label %dec_label_pc_d0a.thread32, label %dec_label_pc_b48

dec_label_pc_d0a.thread32:                        ; preds = %dec_label_pc_cdd, %dec_label_pc_cd2.backedge, %dec_label_pc_b3c
  store i32 0, i32* %eax.global-to-local, align 4
  br label %dec_label_pc_d12

dec_label_pc_d12:                                 ; preds = %dec_label_pc_d0a.thread32, %dec_label_pc_afe, %dec_label_pc_ac0, %dec_label_pc_a84
  br label %dec_label_pc_d17

dec_label_pc_d17.loopexit:                        ; preds = %dec_label_pc_c88
  %v0_d17.pre = load i32, i32* @ebx, align 4
  br label %dec_label_pc_d17

dec_label_pc_d17:                                 ; preds = %dec_label_pc_d17.loopexit, %dec_label_pc_b92, %dec_label_pc_d12, %dec_label_pc_a7a
  %v0_d17 = phi i32 [ %v0_d17.pre, %dec_label_pc_d17.loopexit ], [ 1, %dec_label_pc_b92 ], [ 0, %dec_label_pc_d12 ], [ 1, %dec_label_pc_a7a ]
  store i32 %v0_d17, i32* @eax, align 4
  %v0_d19 = load i32, i32* @ebp, align 4
  %v1_d19 = add i32 %v0_d19, -12
  %v2_d19 = inttoptr i32 %v1_d19 to i32*
  %v3_d19 = load i32, i32* %v2_d19, align 4
  store i32 %v3_d19, i32* %edx.global-to-local, align 4
  %v1_d1c = load i32, i32* inttoptr (i32 20 to i32*), align 4
  %v2_d1c = xor i32 %v1_d1c, %v3_d19
  %v3_d1c = icmp eq i32 %v2_d1c, 0
  store i32 %v2_d1c, i32* %edx.global-to-local, align 4
  br i1 %v3_d1c, label %bb, label %dec_label_pc_d25

bb:                                               ; preds = %dec_label_pc_d17
  %v1_d23 = call i32 @function_d72()
  store i32 %v1_d23, i32* @eax, align 4
  br label %dec_label_pc_d25

dec_label_pc_d25:                                 ; preds = %bb, %dec_label_pc_d17
  %v0_d25 = call i32 @function_d6d()
  store i32 %v0_d25, i32* %eax.global-to-local, align 4
  ret i32 %v0_d25

; uselistorder directives
  uselistorder i32 %v0_ca2, { 0, 2, 1 }
  uselistorder i32 %v1_afe, { 1, 0, 2 }
  uselistorder i32 %v1_ac0, { 1, 0, 2 }
  uselistorder i32 %v2_a61, { 1, 0, 2 }
  uselistorder i32* %stack_var_-8, { 0, 2, 5, 3, 1, 4, 6, 7 }
  uselistorder i32* %stack_var_-12, { 3, 0, 5, 8, 4, 6, 1, 2, 7, 9 }
  uselistorder i32* %edx.global-to-local, { 0, 1, 4, 2, 3, 5, 6, 7, 8 }
  uselistorder i32* %eax.global-to-local, { 4, 1, 33, 34, 35, 25, 26, 36, 27, 28, 5, 6, 15, 16, 17, 18, 0, 7, 8, 9, 10, 11, 12, 13, 14, 19, 20, 21, 22, 23, 24, 2, 29, 30, 31, 32, 3, 37, 38, 39, 40, 41, 42, 43, 44, 45, 46, 47, 48, 49, 50, 51 }
  uselistorder void (i32, i32)* @_ZNK12CBloomFilter8containsERKSt6vectorIhSaIhEE, { 2, 1, 0 }
  uselistorder i32 (i32*)* @_ZNKSt6vectorIhSaIhEE4sizeEv, { 1, 2, 3, 4, 0 }
  uselistorder i32 -132, { 1, 0 }
  uselistorder i32 -144, { 2, 1, 3, 0 }
  uselistorder i32 -172, { 1, 2, 0 }
  uselistorder i32 -136, { 6, 3, 4, 2, 1, 5, 0, 7 }
  uselistorder i32 (i32)* @_ZNK5boost15foreach_detail_13auto_any_basecvbEv, { 2, 1, 0 }
  uselistorder i32 -112, { 2, 1, 0 }
  uselistorder label %dec_label_pc_d17, { 0, 2, 1, 3 }
  uselistorder label %dec_label_pc_cdd, { 1, 0 }
  uselistorder label %dec_label_pc_cd2.backedge, { 1, 0 }
  uselistorder label %dec_label_pc_cb4, { 1, 0, 2 }
  uselistorder label %dec_label_pc_c88, { 0, 2, 1 }
  uselistorder label %dec_label_pc_c3b.thread, { 1, 0 }
  uselistorder label %dec_label_pc_b79, { 1, 0 }
}

define i32 @function_d27() local_unnamed_addr {
dec_label_pc_d27:
  %eax.global-to-local = alloca i32, align 4
  %v0_d27 = load i32, i32* %eax.global-to-local, align 4
  store i32 %v0_d27, i32* @ebx, align 4
  %v0_d29 = load i32, i32* @ebp, align 4
  %v1_d29 = add i32 %v0_d29, -156
  store i32 %v1_d29, i32* %eax.global-to-local, align 4
  %v1_d32 = inttoptr i32 %v1_d29 to i32*
  %v2_d32 = call i32 @_ZNSt6vectorIS_IhSaIhEESaIS1_EED1Ev(i32* %v1_d32)
  store i32 %v2_d32, i32* %eax.global-to-local, align 4
  %v0_d37 = call i32 @function_d3b()
  store i32 %v0_d37, i32* %eax.global-to-local, align 4
  ret i32 %v0_d37

; uselistorder directives
  uselistorder i32 -156, { 0, 2, 3, 4, 5, 6, 1 }
}

define i32 @function_d39() local_unnamed_addr {
dec_label_pc_d39:
  %eax.global-to-local = alloca i32, align 4
  %v0_d39 = load i32, i32* %eax.global-to-local, align 4
  ret i32 %v0_d39
}

define i32 @function_d3b() local_unnamed_addr {
dec_label_pc_d3b:
  %v0_d3b = load i32, i32* @ebp, align 4
  %v1_d3b = add i32 %v0_d3b, -168
  %v1_d44 = inttoptr i32 %v1_d3b to i32*
  %v2_d44 = call i32 @_ZNSt6vectorIhSaIhEED1Ev(i32* %v1_d44)
  %v0_d49 = load i32, i32* @ebx, align 4
  ret i32 %v0_d49

; uselistorder directives
  uselistorder i32 (i32*)* @_ZNSt6vectorIhSaIhEED1Ev, { 0, 4, 1, 5, 2, 6, 7, 3, 8 }
}

define i32 @function_d54() local_unnamed_addr {
dec_label_pc_d54:
  %eax.global-to-local = alloca i32, align 4
  %v0_d54 = load i32, i32* %eax.global-to-local, align 4
  ret i32 %v0_d54
}

define i32 @function_d6d() local_unnamed_addr {
dec_label_pc_d6d:
  %tmp = load i32, i32* @eax, align 4
  ret i32 %tmp
}

define i32 @function_d72() local_unnamed_addr {
dec_label_pc_d72:
  %v0_d78 = load i32, i32* @eax, align 4
  ret i32 %v0_d78
}

define void @__static_initialization_and_destruction_0(i32 %__initialize_p, i32 %__priority) local_unnamed_addr {
dec_label_pc_d79:
  %v0_d8b = load i32, i32* inttoptr (i32 20 to i32*), align 4
  %v13_d96 = icmp eq i32 %__initialize_p, 1
  %v1_d9a = icmp eq i1 %v13_d96, false
  br i1 %v1_d9a, label %bb, label %dec_label_pc_da0

bb:                                               ; preds = %dec_label_pc_d79
  %v4_d9a = call i32 @function_ea1(i32 %__priority, i32 %__initialize_p)
  br label %dec_label_pc_da0

dec_label_pc_da0:                                 ; preds = %bb, %dec_label_pc_d79
  %v13_da0 = icmp eq i32 %__priority, 65535
  %v1_da7 = icmp eq i1 %v13_da0, false
  br i1 %v1_da7, label %bb9, label %dec_label_pc_dad

bb9:                                              ; preds = %dec_label_pc_da0
  %v4_da7 = call i32 @function_ea1(i32 %v0_d8b, i32 ptrtoint (i32* @0 to i32))
  br label %dec_label_pc_dad

dec_label_pc_dad:                                 ; preds = %bb9, %dec_label_pc_da0
  ret void

; uselistorder directives
  uselistorder i32 (i32, i32)* @function_ea1, { 1, 0 }
  uselistorder i32 %__initialize_p, { 1, 0 }
}

define i32 @function_e87() local_unnamed_addr {
dec_label_pc_e87:
  %eax.global-to-local = alloca i32, align 4
  %v0_e87 = load i32, i32* %eax.global-to-local, align 4
  ret i32 %v0_e87
}

define i32 @function_e91() local_unnamed_addr {
dec_label_pc_e91:
  %eax.global-to-local = alloca i32, align 4
  %v0_e91 = load i32, i32* %eax.global-to-local, align 4
  ret i32 %v0_e91
}

define i32 @function_e9b() local_unnamed_addr {
dec_label_pc_e9b:
  %eax.global-to-local = alloca i32, align 4
  %v0_e9b = load i32, i32* %eax.global-to-local, align 4
  ret i32 %v0_e9b
}

define i32 @function_ea1(i32 %arg1, i32 %arg2) local_unnamed_addr {
dec_label_pc_ea1:
  %v0_ea1 = load i32, i32* @ebp, align 4
  %v1_ea1 = add i32 %v0_ea1, -12
  %v2_ea1 = inttoptr i32 %v1_ea1 to i32*
  %v3_ea1 = load i32, i32* %v2_ea1, align 4
  %v1_ea4 = load i32, i32* inttoptr (i32 20 to i32*), align 4
  %v2_ea4 = xor i32 %v1_ea4, %v3_ea1
  %v3_ea4 = icmp eq i32 %v2_ea4, 0
  store i32 %v2_ea4, i32* @eax, align 4
  br i1 %v3_ea4, label %bb, label %dec_label_pc_ead

bb:                                               ; preds = %dec_label_pc_ea1
  %v1_eab = call i32 @function_eb2()
  br label %dec_label_pc_ead

dec_label_pc_ead:                                 ; preds = %bb, %dec_label_pc_ea1
  %v2_eab = phi i32 [ %v1_eab, %bb ], [ %v2_ea4, %dec_label_pc_ea1 ]
  ret i32 %v2_eab
}

define i32 @function_eb2() local_unnamed_addr {
dec_label_pc_eb2:
  %v0_eb3 = load i32, i32* @eax, align 4
  ret i32 %v0_eb3
}

define void @_GLOBAL__sub_I__ZN12CBloomFilterC2Ejdjh() local_unnamed_addr {
dec_label_pc_eb4:
  call void @__static_initialization_and_destruction_0(i32 1, i32 65535)
  store i32 0, i32* @eax, align 4
  br i1 true, label %bb, label %dec_label_pc_ee5

bb:                                               ; preds = %dec_label_pc_eb4
  %v1_ee3 = call i32 @function_eea()
  br label %dec_label_pc_ee5

dec_label_pc_ee5:                                 ; preds = %bb, %dec_label_pc_eb4
  ret void

; uselistorder directives
  uselistorder i32 65535, { 1, 0 }
}

define i32 @function_eea() local_unnamed_addr {
dec_label_pc_eea:
  %v0_eeb = load i32, i32* @eax, align 4
  ret i32 %v0_eeb
}

define i32 @_ZNSt9exceptionC1Ev(i32 %arg1) local_unnamed_addr {
dec_label_pc_eec:
  ret i32 %arg1
}

define i32 @function_f1d() local_unnamed_addr {
dec_label_pc_f1d:
  %eax.global-to-local = alloca i32, align 4
  %v0_f1e = load i32, i32* %eax.global-to-local, align 4
  ret i32 %v0_f1e
}

define i32 @_ZNSt9bad_allocC1Ev(i32 %arg1) local_unnamed_addr {
dec_label_pc_f20:
  store i32 %arg1, i32* @eax, align 4
  %v1_f3d = call i32 @function_1e0c(i32 %arg1)
  ret i32 %arg1
}

define i32 @function_f5c() local_unnamed_addr {
dec_label_pc_f5c:
  %eax.global-to-local = alloca i32, align 4
  %v0_f5d = load i32, i32* %eax.global-to-local, align 4
  ret i32 %v0_f5d
}

define i32 @_ZnwjPv(i32 %arg1, i32 %arg2) local_unnamed_addr {
dec_label_pc_f5e:
  store i32 %arg2, i32* @eax, align 4
  br i1 true, label %bb, label %dec_label_pc_f8a

bb:                                               ; preds = %dec_label_pc_f5e
  %v3_f88 = call i32 @function_f8f(i32 %arg2, i32 %arg1)
  br label %dec_label_pc_f8a

dec_label_pc_f8a:                                 ; preds = %bb, %dec_label_pc_f5e
  %v4_f88 = phi i32 [ %v3_f88, %bb ], [ %arg2, %dec_label_pc_f5e ]
  ret i32 %v4_f88
}

define i32 @function_f8f(i32 %arg1, i32 %arg2) local_unnamed_addr {
dec_label_pc_f8f:
  %v0_f90 = load i32, i32* @eax, align 4
  ret i32 %v0_f90
}

define i32 @_ZN9base_uintILj256EEC1Ev(i32 %arg1) local_unnamed_addr {
dec_label_pc_f92:
  store i32 0, i32* @eax, align 4
  br i1 true, label %bb, label %dec_label_pc_fb5

bb:                                               ; preds = %dec_label_pc_f92
  %v2_fb3 = call i32 @function_fba(i32 %arg1)
  br label %dec_label_pc_fb5

dec_label_pc_fb5:                                 ; preds = %bb, %dec_label_pc_f92
  %v3_fb3 = phi i32 [ %v2_fb3, %bb ], [ 0, %dec_label_pc_f92 ]
  ret i32 %v3_fb3
}

define i32 @function_fba(i32 %arg1) local_unnamed_addr {
dec_label_pc_fba:
  %v0_fbb = load i32, i32* @eax, align 4
  ret i32 %v0_fbb
}

define i32 @_ZN7uint256C1Ev(i32 %arg1) local_unnamed_addr {
dec_label_pc_fbc:
  %eax.global-to-local = alloca i32, align 4
  store i32 %arg1, i32* %eax.global-to-local, align 4
  store i32 %arg1, i32* @eax, align 4
  %v1_fd9 = call i32 @function_1f4e(i32 %arg1)
  %v7_ffc106 = and i32 %v1_fd9, -256
  %v8_ffc107 = or i32 %v7_ffc106, 1
  store i32 %v8_ffc107, i32* %eax.global-to-local, align 4
  br label %dec_label_pc_fe7

dec_label_pc_fe7:                                 ; preds = %dec_label_pc_fbc, %dec_label_pc_fe7
  %storemerge108 = phi i32 [ 0, %dec_label_pc_fbc ], [ %v4_ff4, %dec_label_pc_fe7 ]
  store i32 %arg1, i32* %eax.global-to-local, align 4
  %v2_fed = mul nuw nsw i32 %storemerge108, 4
  %v3_fed = add i32 %v2_fed, %arg1
  %v4_fed = inttoptr i32 %v3_fed to i32*
  store i32 0, i32* %v4_fed, align 4
  %v4_ff4 = add nuw nsw i32 %storemerge108, 1
  %v6_ffc.pre = load i32, i32* %eax.global-to-local, align 4
  %tmp105 = sub nsw i32 5, %storemerge108
  %v11_ff8 = and i32 %tmp105, %v4_ff4
  %v12_ff8 = icmp slt i32 %v11_ff8, 0
  %v13_ff8 = icmp eq i32 %v4_ff4, 7
  %v14_ff8 = icmp slt i32 %v4_ff4, 7
  %v3_ffc = icmp ne i1 %v14_ff8, %v12_ff8
  %v4_ffc = or i1 %v13_ff8, %v3_ffc
  %v5_ffc = zext i1 %v4_ffc to i32
  %v7_ffc = and i32 %v6_ffc.pre, -256
  %v8_ffc = or i32 %v5_ffc, %v7_ffc
  store i32 %v8_ffc, i32* %eax.global-to-local, align 4
  %exitcond = icmp eq i32 %v4_ff4, 8
  br i1 %exitcond, label %dec_label_pc_1003, label %dec_label_pc_fe7

dec_label_pc_1003:                                ; preds = %dec_label_pc_fe7
  store i32 0, i32* %eax.global-to-local, align 4
  ret i32 0

; uselistorder directives
  uselistorder i32 %storemerge108, { 0, 2, 1 }
  uselistorder i32* %eax.global-to-local, { 2, 3, 0, 1, 5, 4 }
  uselistorder i32 7, { 1, 0 }
  uselistorder i32 %arg1, { 0, 1, 3, 2, 4 }
  uselistorder label %dec_label_pc_fe7, { 1, 0 }
}

define i32 @_ZStorSt12_Ios_IostateS_(i32 %arg1, i32 %arg2) local_unnamed_addr {
dec_label_pc_1016:
  %v2_1039 = or i32 %arg2, %arg1
  ret i32 %v2_1039
}

define i32 @_ZN5boost12noncopyable_11noncopyableD1Ev(i32 %arg1) local_unnamed_addr {
dec_label_pc_104e:
  store i32 0, i32* @eax, align 4
  br i1 true, label %bb, label %dec_label_pc_1071

bb:                                               ; preds = %dec_label_pc_104e
  %v2_106f = call i32 @function_1076(i32 %arg1)
  br label %dec_label_pc_1071

dec_label_pc_1071:                                ; preds = %bb, %dec_label_pc_104e
  %v3_106f = phi i32 [ %v2_106f, %bb ], [ 0, %dec_label_pc_104e ]
  ret i32 %v3_106f
}

define i32 @function_1076(i32 %arg1) local_unnamed_addr {
dec_label_pc_1076:
  %v0_1077 = load i32, i32* @eax, align 4
  ret i32 %v0_1077
}

define i32 @_ZN5boost10error_infoINS_15throw_function_EPKcEC1ES3_(i32* %arg1, i32 %arg2) local_unnamed_addr {
dec_label_pc_1078:
  store i32 %arg2, i32* %arg1, align 4
  store i32 0, i32* @eax, align 4
  br i1 true, label %bb, label %dec_label_pc_10a9

bb:                                               ; preds = %dec_label_pc_1078
  %tmp104 = ptrtoint i32* %arg1 to i32
  %v3_10a7 = call i32 @function_10ae(i32 %arg2, i32 %tmp104)
  br label %dec_label_pc_10a9

dec_label_pc_10a9:                                ; preds = %bb, %dec_label_pc_1078
  %v4_10a7 = phi i32 [ %v3_10a7, %bb ], [ 0, %dec_label_pc_1078 ]
  ret i32 %v4_10a7

; uselistorder directives
  uselistorder i32* %arg1, { 1, 0 }
}

define i32 @function_10ae(i32 %arg1, i32 %arg2) local_unnamed_addr {
dec_label_pc_10ae:
  %v0_10af = load i32, i32* @eax, align 4
  ret i32 %v0_10af
}

define i32 @_ZN5boost10error_infoINS_11throw_file_EPKcEC1ES3_(i32* %arg1, i32 %arg2) local_unnamed_addr {
dec_label_pc_10b0:
  store i32 %arg2, i32* %arg1, align 4
  store i32 0, i32* @eax, align 4
  br i1 true, label %bb, label %dec_label_pc_10e1

bb:                                               ; preds = %dec_label_pc_10b0
  %tmp104 = ptrtoint i32* %arg1 to i32
  %v3_10df = call i32 @function_10e6(i32 %arg2, i32 %tmp104)
  br label %dec_label_pc_10e1

dec_label_pc_10e1:                                ; preds = %bb, %dec_label_pc_10b0
  %v4_10df = phi i32 [ %v3_10df, %bb ], [ 0, %dec_label_pc_10b0 ]
  ret i32 %v4_10df

; uselistorder directives
  uselistorder i32* %arg1, { 1, 0 }
}

define i32 @function_10e6(i32 %arg1, i32 %arg2) local_unnamed_addr {
dec_label_pc_10e6:
  %v0_10e7 = load i32, i32* @eax, align 4
  ret i32 %v0_10e7
}

define i32 @_ZN5boost10error_infoINS_11throw_line_EiEC1Ei(i32* %arg1, i32 %arg2) local_unnamed_addr {
dec_label_pc_10e8:
  store i32 %arg2, i32* %arg1, align 4
  store i32 0, i32* @eax, align 4
  br i1 true, label %bb, label %dec_label_pc_1119

bb:                                               ; preds = %dec_label_pc_10e8
  %tmp104 = ptrtoint i32* %arg1 to i32
  %v3_1117 = call i32 @function_111e(i32 %arg2, i32 %tmp104)
  br label %dec_label_pc_1119

dec_label_pc_1119:                                ; preds = %bb, %dec_label_pc_10e8
  %v4_1117 = phi i32 [ %v3_1117, %bb ], [ 0, %dec_label_pc_10e8 ]
  ret i32 %v4_1117

; uselistorder directives
  uselistorder i32* %arg1, { 1, 0 }
}

define i32 @function_111e(i32 %arg1, i32 %arg2) local_unnamed_addr {
dec_label_pc_111e:
  %v0_111f = load i32, i32* @eax, align 4
  ret i32 %v0_111f
}

define i32 @_ZN5boost9exceptionC1Ev(i32* %arg1) local_unnamed_addr {
dec_label_pc_1120:
  %tmp100 = ptrtoint i32* %arg1 to i32
  store i32 ptrtoint (i32* @global_var_7fb4.336 to i32), i32* %arg1, align 4
  %v1_1143 = add i32 %tmp100, 4
  store i32 %v1_1143, i32* @eax, align 4
  %v1_1149 = call i32 @function_3bc2(i32 %v1_1143)
  %v1_1151 = add i32 %tmp100, 8
  %v2_1151 = inttoptr i32 %v1_1151 to i32*
  store i32 0, i32* %v2_1151, align 4
  %v1_115b = add i32 %tmp100, 12
  %v2_115b = inttoptr i32 %v1_115b to i32*
  store i32 0, i32* %v2_115b, align 4
  %v1_1165 = add i32 %tmp100, 16
  %v2_1165 = inttoptr i32 %v1_1165 to i32*
  store i32 -1, i32* %v2_1165, align 4
  store i32 0, i32* @eax, align 4
  br i1 true, label %bb, label %dec_label_pc_1178

bb:                                               ; preds = %dec_label_pc_1120
  %v1_1176 = call i32 @function_117d()
  br label %dec_label_pc_1178

dec_label_pc_1178:                                ; preds = %bb, %dec_label_pc_1120
  %v2_1176 = phi i32 [ %v1_1176, %bb ], [ 0, %dec_label_pc_1120 ]
  ret i32 %v2_1176

; uselistorder directives
  uselistorder i32 %tmp100, { 3, 2, 1, 0 }
}

define i32 @function_117d() local_unnamed_addr {
dec_label_pc_117d:
  %v0_117e = load i32, i32* @eax, align 4
  ret i32 %v0_117e
}

define i32 @_ZN5boost9exceptionD1Ev(i32* %arg1) local_unnamed_addr {
dec_label_pc_1180:
  %tmp99 = ptrtoint i32* %arg1 to i32
  store i32 ptrtoint (i32* @global_var_7fb4.336 to i32), i32* %arg1, align 4
  %v1_11a3 = add i32 %tmp99, 4
  %v2_11b8 = call i32 @function_11dc(i32 %v1_11a3)
  ret i32 %tmp99
}

define i32 @function_11c5() local_unnamed_addr {
dec_label_pc_11c5:
  %v1_11c5 = call i32 @function_11dc(i32 ptrtoint (i32* @0 to i32))
  ret i32 %v1_11c5

; uselistorder directives
  uselistorder i32 (i32)* @function_11dc, { 1, 0 }
}

define i32 @function_11dc(i32 %arg1) local_unnamed_addr {
dec_label_pc_11dc:
  %v0_11dc = load i32, i32* @ebp, align 4
  %v1_11dc = add i32 %v0_11dc, -12
  %v2_11dc = inttoptr i32 %v1_11dc to i32*
  %v3_11dc = load i32, i32* %v2_11dc, align 4
  %v1_11df = load i32, i32* inttoptr (i32 20 to i32*), align 4
  %v2_11df = xor i32 %v1_11df, %v3_11dc
  %v3_11df = icmp eq i32 %v2_11df, 0
  store i32 %v2_11df, i32* @eax, align 4
  br i1 %v3_11df, label %bb, label %dec_label_pc_11e8

bb:                                               ; preds = %dec_label_pc_11dc
  %v1_11e6 = call i32 @function_11ed()
  br label %dec_label_pc_11e8

dec_label_pc_11e8:                                ; preds = %bb, %dec_label_pc_11dc
  %v2_11e6 = phi i32 [ %v1_11e6, %bb ], [ %v2_11df, %dec_label_pc_11dc ]
  ret i32 %v2_11e6
}

define i32 @function_11ed() local_unnamed_addr {
dec_label_pc_11ed:
  %v0_11ee = load i32, i32* @eax, align 4
  ret i32 %v0_11ee
}

define i32 @_ZN5boost9exceptionD0Ev(i32 %arg1) local_unnamed_addr {
dec_label_pc_1494:
  store i32 %arg1, i32* @eax, align 4
  %v1_14b1 = call i32 @function_2614(i32 %arg1)
  ret i32 %arg1
}

define i32 @function_14d1() local_unnamed_addr {
dec_label_pc_14d1:
  %eax.global-to-local = alloca i32, align 4
  %ecx.global-to-local = alloca i32, align 4
  %v0_14d1 = load i32, i32* %ecx.global-to-local, align 4
  %v1_14d1 = add i32 %v0_14d1, -1
  store i32 %v1_14d1, i32* %ecx.global-to-local, align 4
  %v0_14d3 = load i32, i32* %eax.global-to-local, align 4
  ret i32 %v0_14d3
}

define i32 @_ZN5boost16exception_detail10clone_baseD1Ev(i32* %arg1) local_unnamed_addr {
dec_label_pc_14d4:
  %tmp99 = ptrtoint i32* %arg1 to i32
  store i32 ptrtoint (i32* @global_var_7f9c.337 to i32), i32* %arg1, align 4
  %v2_14fe = call i32 @function_150b(i32 %tmp99)
  ret i32 %tmp99

; uselistorder directives
  uselistorder i32 %tmp99, { 1, 0 }
}

define i32 @function_150b(i32 %arg1) local_unnamed_addr {
dec_label_pc_150b:
  %v0_150b = load i32, i32* @ebp, align 4
  %v1_150b = add i32 %v0_150b, -12
  %v2_150b = inttoptr i32 %v1_150b to i32*
  %v3_150b = load i32, i32* %v2_150b, align 4
  %v1_150e = load i32, i32* inttoptr (i32 20 to i32*), align 4
  %v2_150e = xor i32 %v1_150e, %v3_150b
  ret i32 %v2_150e
}

define i32 @_ZN5boost16exception_detail10clone_baseD0Ev(i32 %arg1) local_unnamed_addr {
dec_label_pc_151e:
  %v1_153b = call i32 @_Z11MurmurHash3jRKSt6vectorIhSaIhEE(i32 %arg1)
  ret i32 %arg1
}

define i32 @function_154a() local_unnamed_addr {
dec_label_pc_154a:
  %eax.global-to-local = alloca i32, align 4
  %ebx.global-to-local = alloca i32, align 4
  %v0_154a = load i32, i32* %ebx.global-to-local, align 4
  %v1_154a = add i32 %v0_154a, 862319685
  %v2_154a = inttoptr i32 %v1_154a to i32*
  %v3_154a = load i32, i32* %v2_154a, align 4
  %v4_154a = add i32 %v3_154a, -1
  store i32 %v4_154a, i32* %v2_154a, align 4
  %v0_1550 = load i32, i32* %eax.global-to-local, align 4
  %v1_1550 = add i32 %v0_1550, 20
  store i32 %v1_1550, i32* %eax.global-to-local, align 4
  ret i32 %v1_1550
}

define i32 @_ZN5boost16exception_detail20copy_boost_exceptionEPNS_9exceptionEPKS1_(i32 %arg1, i32 %arg2) local_unnamed_addr {
dec_label_pc_155e:
  %edx.global-to-local = alloca i32, align 4
  %stack_var_-64 = alloca i32, align 4
  %tmp97 = call i32 @__decompiler_undefined_function_0()
  %stack_var_-24 = alloca i32, align 4
  %stack_var_-28 = alloca i32, align 4
  %stack_var_-60 = alloca i32, align 4
  %v2_157c = ptrtoint i32* %stack_var_-28 to i32
  store i32 %v2_157c, i32* @eax, align 4
  store i32 %v2_157c, i32* %stack_var_-60, align 4
  %v1_1582 = call i32 @function_4000(i32 %v2_157c)
  %v1_158a = add i32 %arg2, 4
  store i32 %v1_158a, i32* %stack_var_-60, align 4
  %v1_1590 = call i32 @function_406a(i32 %v1_158a)
  store i1 false, i1* @cf, align 1
  %v10_1598 = icmp eq i32 %v1_1590, 0
  br i1 %v10_1598, label %dec_label_pc_15d7, label %dec_label_pc_159e

dec_label_pc_159e:                                ; preds = %dec_label_pc_155e
  %v2_15a8 = ptrtoint i32* %stack_var_-24 to i32
  store i32 %v1_1590, i32* %edx.global-to-local, align 4
  %v0_15b7 = load i32, i32* @esp, align 4
  %v5_15b7 = icmp ult i32 %v0_15b7, 4
  store i1 %v5_15b7, i1* @cf, align 1
  store i32 %v2_15a8, i32* %stack_var_-60, align 4
  store i32 %v2_157c, i32* @eax, align 4
  store i32 %v2_157c, i32* %stack_var_-64, align 4
  %v3_15c7 = call i32 @function_409a(i32 %v2_157c, i32 %v2_15a8, i32 %v1_1590)
  store i32 %v2_15a8, i32* @eax, align 4
  store i32 %v2_15a8, i32* %stack_var_-64, align 4
  %v1_15d2 = call i32 @function_4034(i32 %v2_15a8)
  br label %dec_label_pc_15d7

dec_label_pc_15d7:                                ; preds = %dec_label_pc_159e, %dec_label_pc_155e
  %stack_var_-56.0 = phi i32 [ %tmp97, %dec_label_pc_155e ], [ %v1_1590, %dec_label_pc_159e ]
  %v1_15da = add i32 %arg2, 12
  %v2_15da = inttoptr i32 %v1_15da to i32*
  %v3_15da = load i32, i32* %v2_15da, align 4
  store i32 %v3_15da, i32* %edx.global-to-local, align 4
  %v2_15e0 = add i32 %arg1, 12
  %v3_15e0 = inttoptr i32 %v2_15e0 to i32*
  store i32 %v3_15da, i32* %v3_15e0, align 4
  %v1_15e6 = add i32 %arg2, 16
  %v2_15e6 = inttoptr i32 %v1_15e6 to i32*
  %v3_15e6 = load i32, i32* %v2_15e6, align 4
  store i32 %v3_15e6, i32* %edx.global-to-local, align 4
  %v2_15ec = add i32 %arg1, 16
  %v3_15ec = inttoptr i32 %v2_15ec to i32*
  store i32 %v3_15e6, i32* %v3_15ec, align 4
  %v1_15f2 = add i32 %arg2, 8
  %v2_15f2 = inttoptr i32 %v1_15f2 to i32*
  %v3_15f2 = load i32, i32* %v2_15f2, align 4
  %v2_15f8 = add i32 %arg1, 8
  %v3_15f8 = inttoptr i32 %v2_15f8 to i32*
  store i32 %v3_15f2, i32* %v3_15f8, align 4
  %v1_15fe = add i32 %arg1, 4
  store i32 %v1_15fe, i32* %edx.global-to-local, align 4
  store i32 %v2_157c, i32* @eax, align 4
  %v1_1604 = load i32, i32* @esp, align 4
  %v2_1604 = add i32 %v1_1604, 4
  %v3_1604 = inttoptr i32 %v2_1604 to i32*
  store i32 %v2_157c, i32* %v3_1604, align 4
  %v0_1608 = load i32, i32* %edx.global-to-local, align 4
  %v1_1608 = load i32, i32* @esp, align 4
  %v2_1608 = inttoptr i32 %v1_1608 to i32*
  store i32 %v0_1608, i32* %v2_1608, align 4
  %v0_160b = load i32, i32* %stack_var_-64, align 4
  %v1_160b = load i32, i32* %stack_var_-60, align 4
  %v3_160b = call i32 @function_409a(i32 %v0_160b, i32 %v1_160b, i32 %stack_var_-56.0)
  store i32 %v2_157c, i32* @eax, align 4
  %v1_1613 = load i32, i32* @esp, align 4
  %v2_1613 = inttoptr i32 %v1_1613 to i32*
  store i32 %v2_157c, i32* %v2_1613, align 4
  %v0_1616 = load i32, i32* %stack_var_-64, align 4
  %v1_1616 = call i32 @function_4034(i32 %v0_1616)
  store i32 0, i32* @eax, align 4
  br i1 true, label %bb, label %dec_label_pc_1627

bb:                                               ; preds = %dec_label_pc_15d7
  %v1_1625 = call i32 @function_1654()
  store i32 %v1_1625, i32* @eax, align 4
  br label %dec_label_pc_1627

dec_label_pc_1627:                                ; preds = %bb, %dec_label_pc_15d7
  %v0_1627 = call i32 @function_164f()
  ret i32 %v0_1627

; uselistorder directives
  uselistorder i32 %v2_15a8, { 1, 0, 2, 4, 3 }
  uselistorder i32 %v2_157c, { 3, 4, 5, 6, 1, 0, 2, 8, 7, 9 }
  uselistorder i32 (i32, i32, i32)* @function_409a, { 1, 0 }
}

define i32 @function_1629() local_unnamed_addr {
dec_label_pc_1629:
  %eax.global-to-local = alloca i32, align 4
  %v0_1629 = load i32, i32* %eax.global-to-local, align 4
  store i32 %v0_1629, i32* @ebx, align 4
  %v0_162b = load i32, i32* @ebp, align 4
  %v1_162b = add i32 %v0_162b, -20
  store i32 %v1_162b, i32* @eax, align 4
  %v1_1631 = call i32 @function_4034(i32 %v1_162b)
  store i32 %v1_1631, i32* %eax.global-to-local, align 4
  %v0_1636 = call i32 @function_163a()
  store i32 %v0_1636, i32* %eax.global-to-local, align 4
  ret i32 %v0_1636
}

define i32 @function_1638() local_unnamed_addr {
dec_label_pc_1638:
  %eax.global-to-local = alloca i32, align 4
  %v0_1638 = load i32, i32* %eax.global-to-local, align 4
  ret i32 %v0_1638
}

define i32 @function_163a() local_unnamed_addr {
dec_label_pc_163a:
  %v0_163a = load i32, i32* @ebp, align 4
  %v1_163a = add i32 %v0_163a, -24
  store i32 %v1_163a, i32* @eax, align 4
  %v1_1640 = call i32 @function_4034(i32 %v1_163a)
  %v0_1645 = load i32, i32* @ebx, align 4
  ret i32 %v0_1645

; uselistorder directives
  uselistorder i32 (i32)* @function_4034, { 3, 2, 1, 0 }
}

define i32 @function_164f() local_unnamed_addr {
dec_label_pc_164f:
  %tmp = load i32, i32* @eax, align 4
  ret i32 %tmp
}

define i32 @function_1654() local_unnamed_addr {
dec_label_pc_1654:
  %v0_1658 = load i32, i32* @eax, align 4
  ret i32 %v0_1658
}

define i32 @_ZN5boost6detail23atomic_exchange_and_addEPii(i32* %arg1, i32 %arg2) local_unnamed_addr {
dec_label_pc_1659:
  %v2_1682 = load i32, i32* %arg1, align 4
  %v4_1682 = add i32 %v2_1682, %arg2
  store i32 %v4_1682, i32* %arg1, align 4
  store i32 %v2_1682, i32* @eax, align 4
  br i1 true, label %bb, label %dec_label_pc_1698

bb:                                               ; preds = %dec_label_pc_1659
  %tmp103 = ptrtoint i32* %arg1 to i32
  %v3_1696 = call i32 @function_169d(i32 %arg2, i32 %tmp103)
  br label %dec_label_pc_1698

dec_label_pc_1698:                                ; preds = %bb, %dec_label_pc_1659
  %v4_1696 = phi i32 [ %v3_1696, %bb ], [ %v2_1682, %dec_label_pc_1659 ]
  ret i32 %v4_1696

; uselistorder directives
  uselistorder i32 %v2_1682, { 1, 2, 0 }
  uselistorder i32 %arg2, { 1, 0 }
  uselistorder i32* %arg1, { 2, 0, 1 }
}

define i32 @function_169d(i32 %arg1, i32 %arg2) local_unnamed_addr {
dec_label_pc_169d:
  %v0_16a2 = load i32, i32* @eax, align 4
  ret i32 %v0_16a2
}

define i32 @_ZN5boost6detail16atomic_incrementEPi(i32* %arg1) local_unnamed_addr {
dec_label_pc_16a3:
  %v2_16c0 = load i32, i32* %arg1, align 4
  %v3_16c0 = add i32 %v2_16c0, 1
  store i32 %v3_16c0, i32* %arg1, align 4
  store i32 0, i32* @eax, align 4
  br i1 true, label %bb, label %dec_label_pc_16cf

bb:                                               ; preds = %dec_label_pc_16a3
  %tmp100 = ptrtoint i32* %arg1 to i32
  %v2_16cd = call i32 @function_16d4(i32 %tmp100)
  br label %dec_label_pc_16cf

dec_label_pc_16cf:                                ; preds = %bb, %dec_label_pc_16a3
  %v3_16cd = phi i32 [ %v2_16cd, %bb ], [ 0, %dec_label_pc_16a3 ]
  ret i32 %v3_16cd

; uselistorder directives
  uselistorder i32* %arg1, { 2, 0, 1 }
}

define i32 @function_16d4(i32 %arg1) local_unnamed_addr {
dec_label_pc_16d4:
  %v0_16d5 = load i32, i32* @eax, align 4
  ret i32 %v0_16d5
}

define i32 @_ZN5boost6detail15sp_counted_baseC1Ev(i32* %arg1) local_unnamed_addr {
dec_label_pc_16d6:
  %tmp100 = ptrtoint i32* %arg1 to i32
  store i32 ptrtoint (i32* @global_var_7f7c.338 to i32), i32* %arg1, align 4
  %v1_16f9 = add i32 %tmp100, 4
  %v2_16f9 = inttoptr i32 %v1_16f9 to i32*
  store i32 1, i32* %v2_16f9, align 4
  %v1_1703 = add i32 %tmp100, 8
  %v2_1703 = inttoptr i32 %v1_1703 to i32*
  store i32 1, i32* %v2_1703, align 4
  store i32 0, i32* @eax, align 4
  br i1 true, label %bb, label %dec_label_pc_1716

bb:                                               ; preds = %dec_label_pc_16d6
  %v2_1714 = call i32 @function_171b(i32 %tmp100)
  br label %dec_label_pc_1716

dec_label_pc_1716:                                ; preds = %bb, %dec_label_pc_16d6
  %v3_1714 = phi i32 [ %v2_1714, %bb ], [ 0, %dec_label_pc_16d6 ]
  ret i32 %v3_1714
}

define i32 @function_171b(i32 %arg1) local_unnamed_addr {
dec_label_pc_171b:
  %v0_171c = load i32, i32* @eax, align 4
  ret i32 %v0_171c
}

define i32 @_ZN5boost6detail15sp_counted_baseD1Ev(i32* %arg1) local_unnamed_addr {
dec_label_pc_171e:
  %tmp99 = ptrtoint i32* %arg1 to i32
  store i32 ptrtoint (i32* @global_var_7f7c.338 to i32), i32* %arg1, align 4
  %v2_1748 = call i32 @function_1755(i32 %tmp99)
  ret i32 %tmp99

; uselistorder directives
  uselistorder i32 %tmp99, { 1, 0 }
}

define i32 @function_1755(i32 %arg1) local_unnamed_addr {
dec_label_pc_1755:
  %v0_1755 = load i32, i32* @ebp, align 4
  %v1_1755 = add i32 %v0_1755, -12
  %v2_1755 = inttoptr i32 %v1_1755 to i32*
  %v3_1755 = load i32, i32* %v2_1755, align 4
  %v1_1758 = load i32, i32* inttoptr (i32 20 to i32*), align 4
  %v2_1758 = xor i32 %v1_1758, %v3_1755
  %v3_1758 = icmp eq i32 %v2_1758, 0
  store i32 %v2_1758, i32* @eax, align 4
  br i1 %v3_1758, label %bb, label %dec_label_pc_1761

bb:                                               ; preds = %dec_label_pc_1755
  %v1_175f = call i32 @function_1766()
  br label %dec_label_pc_1761

dec_label_pc_1761:                                ; preds = %bb, %dec_label_pc_1755
  %v2_175f = phi i32 [ %v1_175f, %bb ], [ %v2_1758, %dec_label_pc_1755 ]
  ret i32 %v2_175f
}

define i32 @function_1766() local_unnamed_addr {
dec_label_pc_1766:
  %v0_1767 = load i32, i32* @eax, align 4
  ret i32 %v0_1767
}

define i32 @_ZN5boost6detail15sp_counted_baseD0Ev(i32 %arg1) local_unnamed_addr {
dec_label_pc_1768:
  %v1_1785 = call i32 @function_2e86(i32 %arg1)
  ret i32 %arg1
}

define i32 @function_17a5() local_unnamed_addr {
dec_label_pc_17a5:
  %eax.global-to-local = alloca i32, align 4
  %ecx.global-to-local = alloca i32, align 4
  %v0_17a5 = load i32, i32* %ecx.global-to-local, align 4
  %v1_17a5 = add i32 %v0_17a5, -1
  store i32 %v1_17a5, i32* %ecx.global-to-local, align 4
  %v0_17a7 = load i32, i32* %eax.global-to-local, align 4
  ret i32 %v0_17a7
}

define i32 @_ZN5boost6detail15sp_counted_base7destroyEv(i32* %arg1) {
dec_label_pc_17a8:
  %v10_17bf = icmp eq i32* %arg1, null
  br i1 %v10_17bf, label %dec_label_pc_17d7, label %dec_label_pc_17c5

dec_label_pc_17c5:                                ; preds = %dec_label_pc_17a8
  br label %dec_label_pc_17d7

dec_label_pc_17d7:                                ; preds = %dec_label_pc_17c5, %dec_label_pc_17a8
  store i32 0, i32* @eax, align 4
  br i1 true, label %bb, label %dec_label_pc_17e3

bb:                                               ; preds = %dec_label_pc_17d7
  %v1_17e1 = call i32 @function_17e8()
  br label %dec_label_pc_17e3

dec_label_pc_17e3:                                ; preds = %bb, %dec_label_pc_17d7
  %v2_17e1 = phi i32 [ %v1_17e1, %bb ], [ 0, %dec_label_pc_17d7 ]
  ret i32 %v2_17e1
}

define i32 @function_17e8() local_unnamed_addr {
dec_label_pc_17e8:
  %v0_17e9 = load i32, i32* @eax, align 4
  ret i32 %v0_17e9
}

define i32 @_ZN5boost6detail15sp_counted_base12add_ref_copyEv(i32 %arg1) local_unnamed_addr {
dec_label_pc_17ea:
  ret i32 0
}

define i32 @_ZN5boost6detail15sp_counted_base7releaseEv(i32* %arg1) local_unnamed_addr {
dec_label_pc_1822:
  %tmp102 = ptrtoint i32* %arg1 to i32
  %v1_183c = add i32 %tmp102, 4
  store i32 %v1_183c, i32* @eax, align 4
  %v2_184a = call i32 @function_2e7b(i32 %v1_183c, i32 -1)
  %v10_184f = icmp eq i32 %v2_184a, 1
  %v5_1855 = icmp eq i1 %v10_184f, false
  br i1 %v5_1855, label %dec_label_pc_1876, label %dec_label_pc_1859

dec_label_pc_1859:                                ; preds = %dec_label_pc_1822
  br label %dec_label_pc_1876

dec_label_pc_1876:                                ; preds = %dec_label_pc_1859, %dec_label_pc_1822
  store i32 0, i32* @eax, align 4
  br i1 true, label %bb, label %dec_label_pc_1882

bb:                                               ; preds = %dec_label_pc_1876
  %v1_1880 = call i32 @function_1887()
  br label %dec_label_pc_1882

dec_label_pc_1882:                                ; preds = %bb, %dec_label_pc_1876
  %v2_1880 = phi i32 [ %v1_1880, %bb ], [ 0, %dec_label_pc_1876 ]
  ret i32 %v2_1880
}

define i32 @function_1887() local_unnamed_addr {
dec_label_pc_1887:
  %v0_1888 = load i32, i32* @eax, align 4
  ret i32 %v0_1888
}

define i32 @_ZN5boost6detail15sp_counted_base12weak_releaseEv(i32* %arg1) local_unnamed_addr {
dec_label_pc_188a:
  %tmp102 = ptrtoint i32* %arg1 to i32
  %v1_18a4 = add i32 %tmp102, 8
  %v2_18b2 = call i32 @function_2ee3(i32 %v1_18a4, i32 -1)
  %v10_18b7 = icmp eq i32 %v2_18b2, 1
  %v5_18bd = icmp eq i1 %v10_18b7, false
  br i1 %v5_18bd, label %dec_label_pc_18d3, label %dec_label_pc_18c1

dec_label_pc_18c1:                                ; preds = %dec_label_pc_188a
  br label %dec_label_pc_18d3

dec_label_pc_18d3:                                ; preds = %dec_label_pc_18c1, %dec_label_pc_188a
  ret i32 0
}

define i32 @_ZN5boost6detail12shared_countD1Ev(i32* %arg1) local_unnamed_addr {
dec_label_pc_18e6:
  %ebp.global-to-local = alloca i32, align 4
  %stack_var_-4 = alloca i32, align 4
  %v0_18e6 = load i32, i32* %ebp.global-to-local, align 4
  store i32 %v0_18e6, i32* %stack_var_-4, align 4
  %v4_18e6 = ptrtoint i32* %stack_var_-4 to i32
  store i32 %v4_18e6, i32* @ebp, align 4
  %v2_1900 = load i32, i32* %arg1, align 4
  %v1_1902 = icmp eq i32 %v2_1900, 0
  br i1 %v1_1902, label %dec_label_pc_1913, label %dec_label_pc_1906

dec_label_pc_1906:                                ; preds = %dec_label_pc_18e6
  %v2_1909 = load i32, i32* %arg1, align 4
  store i32 %v2_1909, i32* @eax, align 4
  %v1_190e = call i32 @function_3108(i32 %v2_1909)
  %v2_1924.pre = load i32, i32* %stack_var_-4, align 4
  br label %dec_label_pc_1913

dec_label_pc_1913:                                ; preds = %dec_label_pc_1906, %dec_label_pc_18e6
  %v2_1924 = phi i32 [ %v2_1924.pre, %dec_label_pc_1906 ], [ %v0_18e6, %dec_label_pc_18e6 ]
  store i32 %v2_1924, i32* %ebp.global-to-local, align 4
  ret i32 0
}

define i32 @_ZN5boost6detail12shared_countC1ERKS1_(i32* %arg1, i32 %arg2) local_unnamed_addr {
dec_label_pc_1926:
  %v1_1946 = inttoptr i32 %arg2 to i32*
  %v2_1946 = load i32, i32* %v1_1946, align 4
  store i32 %v2_1946, i32* %arg1, align 4
  %v1_1952 = icmp eq i32 %v2_1946, 0
  br i1 %v1_1952, label %dec_label_pc_1963, label %dec_label_pc_1956

dec_label_pc_1956:                                ; preds = %dec_label_pc_1926
  %v2_1959 = load i32, i32* %arg1, align 4
  store i32 %v2_1959, i32* @eax, align 4
  %v1_195e = call i32 @function_3110(i32 %v2_1959)
  br label %dec_label_pc_1963

dec_label_pc_1963:                                ; preds = %dec_label_pc_1956, %dec_label_pc_1926
  store i32 0, i32* @eax, align 4
  br i1 true, label %bb, label %dec_label_pc_196f

bb:                                               ; preds = %dec_label_pc_1963
  %v1_196d = call i32 @function_1974()
  br label %dec_label_pc_196f

dec_label_pc_196f:                                ; preds = %bb, %dec_label_pc_1963
  %v2_196d = phi i32 [ %v1_196d, %bb ], [ 0, %dec_label_pc_1963 ]
  ret i32 %v2_196d
}

define i32 @function_1974() local_unnamed_addr {
dec_label_pc_1974:
  %v0_1975 = load i32, i32* @eax, align 4
  ret i32 %v0_1975
}

define i32 @_ZN5boost6detail26sp_enable_shared_from_thisEz() local_unnamed_addr {
dec_label_pc_1976:
  ret i32 0
}

define i32 @_ZN9CFlatDataC1EPvS0_(i32* %arg1, i32 %arg2, i32 %arg3) local_unnamed_addr {
dec_label_pc_1b94:
  %tmp104 = ptrtoint i32* %arg1 to i32
  store i32 %arg2, i32* %arg1, align 4
  %v2_1bc5 = add i32 %tmp104, 4
  %v3_1bc5 = inttoptr i32 %v2_1bc5 to i32*
  store i32 %arg3, i32* %v3_1bc5, align 4
  store i32 0, i32* @eax, align 4
  br i1 true, label %bb, label %dec_label_pc_1bd4

bb:                                               ; preds = %dec_label_pc_1b94
  %v4_1bd2 = call i32 @function_1bd9(i32 %arg3, i32 %arg2, i32 %tmp104)
  br label %dec_label_pc_1bd4

dec_label_pc_1bd4:                                ; preds = %bb, %dec_label_pc_1b94
  %v5_1bd2 = phi i32 [ %v4_1bd2, %bb ], [ 0, %dec_label_pc_1b94 ]
  ret i32 %v5_1bd2
}

define i32 @function_1bd9(i32 %arg1, i32 %arg2, i32 %arg3) local_unnamed_addr {
dec_label_pc_1bd9:
  %v0_1bda = load i32, i32* @eax, align 4
  ret i32 %v0_1bda
}

define i32 @_ZN11CDataStreamC1Eii(i32 %arg1, i32 %arg2, i32 %arg3) local_unnamed_addr {
dec_label_pc_1bdc:
  store i32 %arg1, i32* @eax, align 4
  %v1_1c05 = call i32 @function_479a(i32 %arg1)
  store i32 %arg1, i32* @eax, align 4
  %v3_1c1e = call i32 @function_3812(i32 %arg1, i32 %arg2, i32 %arg3)
  store i32 0, i32* @eax, align 4
  br i1 true, label %bb, label %dec_label_pc_1c2f

bb:                                               ; preds = %dec_label_pc_1bdc
  %v1_1c2d = call i32 @function_1c34()
  br label %dec_label_pc_1c2f

dec_label_pc_1c2f:                                ; preds = %bb, %dec_label_pc_1bdc
  %v2_1c2d = phi i32 [ %v1_1c2d, %bb ], [ 0, %dec_label_pc_1bdc ]
  ret i32 %v2_1c2d

; uselistorder directives
  uselistorder i32 %arg1, { 3, 2, 1, 0 }
}

define i32 @function_1c34() local_unnamed_addr {
dec_label_pc_1c34:
  %v0_1c35 = load i32, i32* @eax, align 4
  ret i32 %v0_1c35
}

define i32 @_ZN11CDataStream4InitEii(i32 %arg1, i32 %arg2, i32 %arg3) local_unnamed_addr {
dec_label_pc_1c36:
  %v1_1c5c = add i32 %arg1, 12
  %v2_1c5c = inttoptr i32 %v1_1c5c to i32*
  store i32 0, i32* %v2_1c5c, align 4
  %v2_1c69 = add i32 %arg1, 20
  %v3_1c69 = inttoptr i32 %v2_1c69 to i32*
  store i32 %arg2, i32* %v3_1c69, align 4
  %v2_1c72 = add i32 %arg1, 24
  %v3_1c72 = inttoptr i32 %v2_1c72 to i32*
  store i32 %arg3, i32* %v3_1c72, align 4
  store i32 %arg1, i32* @eax, align 4
  %v1_1c78 = add i32 %arg1, 16
  %v2_1c78 = inttoptr i32 %v1_1c78 to i16*
  store i16 0, i16* %v2_1c78, align 2
  %v2_1c8d = call i32 @function_2c4c(i32 1, i32 4)
  %v1_1c97 = trunc i32 %v2_1c8d to i16
  %v3_1c97 = add i32 %arg1, 18
  %v4_1c97 = inttoptr i32 %v3_1c97 to i16*
  store i16 %v1_1c97, i16* %v4_1c97, align 2
  store i32 0, i32* @eax, align 4
  br i1 true, label %bb, label %dec_label_pc_1ca7

bb:                                               ; preds = %dec_label_pc_1c36
  %v1_1ca5 = call i32 @function_1cac()
  br label %dec_label_pc_1ca7

dec_label_pc_1ca7:                                ; preds = %bb, %dec_label_pc_1c36
  %v2_1ca5 = phi i32 [ %v1_1ca5, %bb ], [ 0, %dec_label_pc_1c36 ]
  ret i32 %v2_1ca5

; uselistorder directives
  uselistorder i32 %arg1, { 5, 4, 3, 2, 1, 0 }
}

define i32 @function_1cac() local_unnamed_addr {
dec_label_pc_1cac:
  %v0_1cad = load i32, i32* @eax, align 4
  ret i32 %v0_1cad
}

define i32 @_ZN11CDataStreamD1Ev(i32 %arg1) local_unnamed_addr {
dec_label_pc_1cae:
  store i1 true, i1* @zf, align 1
  store i32 %arg1, i32* @eax, align 4
  %v1_1ccb = call i32 @function_48a2(i32 %arg1)
  store i32 0, i32* @eax, align 4
  br i1 true, label %bb, label %dec_label_pc_1cdc

bb:                                               ; preds = %dec_label_pc_1cae
  %v1_1cda = call i32 @function_1ce1()
  br label %dec_label_pc_1cdc

dec_label_pc_1cdc:                                ; preds = %bb, %dec_label_pc_1cae
  %v2_1cda = phi i32 [ %v1_1cda, %bb ], [ 0, %dec_label_pc_1cae ]
  ret i32 %v2_1cda

; uselistorder directives
  uselistorder i32 %arg1, { 1, 0 }
}

define i32 @function_1ce1() local_unnamed_addr {
dec_label_pc_1ce1:
  %v0_1ce2 = load i32, i32* @eax, align 4
  ret i32 %v0_1ce2
}

define i32 @_ZN11CDataStream5beginEv(i32 %arg1, i32 %arg2) local_unnamed_addr {
dec_label_pc_1ce4:
  %stack_var_-24 = alloca i32, align 4
  %stack_var_-20 = alloca i32, align 4
  %v1_1d04 = add i32 %arg2, 12
  %v2_1d04 = inttoptr i32 %v1_1d04 to i32*
  %v3_1d04 = load i32, i32* %v2_1d04, align 4
  store i32 %v3_1d04, i32* %stack_var_-20, align 4
  %v2_1d0d = ptrtoint i32* %stack_var_-24 to i32
  store i32 %v2_1d0d, i32* @eax, align 4
  %v2_1d17 = call i32 @function_4ae4(i32 %v2_1d0d, i32 %arg2)
  store i32 %arg1, i32* @eax, align 4
  %v2_1d22 = ptrtoint i32* %stack_var_-20 to i32
  store i32 %v2_1d0d, i32* @edx, align 4
  %v3_1d33 = call i32 @function_4b2c(i32 %arg1, i32 %v2_1d0d, i32 %v2_1d22)
  store i32 %arg1, i32* @eax, align 4
  br i1 true, label %bb, label %dec_label_pc_1d4a

bb:                                               ; preds = %dec_label_pc_1ce4
  %v1_1d48 = call i32 @function_1d4f()
  br label %dec_label_pc_1d4a

dec_label_pc_1d4a:                                ; preds = %bb, %dec_label_pc_1ce4
  %v2_1d48 = phi i32 [ %v1_1d48, %bb ], [ %arg1, %dec_label_pc_1ce4 ]
  ret i32 %v2_1d48

; uselistorder directives
  uselistorder i32 %arg2, { 1, 0 }
  uselistorder i32 %arg1, { 0, 3, 1, 2 }
}

define i32 @function_1d4f() local_unnamed_addr {
dec_label_pc_1d4f:
  %v0_1d50 = load i32, i32* @eax, align 4
  ret i32 %v0_1d50
}

define i32 @_ZN11CDataStream3endEv(i32 %arg1, i32 %arg2) local_unnamed_addr {
dec_label_pc_1d54:
  %v2_1d7e = call i32 @function_4b0a(i32 %arg1, i32 %arg2)
  store i32 %arg1, i32* @eax, align 4
  br i1 true, label %bb, label %dec_label_pc_1d95

bb:                                               ; preds = %dec_label_pc_1d54
  %v1_1d93 = call i32 @function_1d9a()
  br label %dec_label_pc_1d95

dec_label_pc_1d95:                                ; preds = %bb, %dec_label_pc_1d54
  %v2_1d93 = phi i32 [ %v1_1d93, %bb ], [ %arg1, %dec_label_pc_1d54 ]
  ret i32 %v2_1d93

; uselistorder directives
  uselistorder i32 %arg1, { 0, 2, 1 }
}

define i32 @function_1d9a() local_unnamed_addr {
dec_label_pc_1d9a:
  %v0_1d9b = load i32, i32* @eax, align 4
  ret i32 %v0_1d9b
}

define i32 @_ZNSt9exceptionC1ERKS_(i32 %arg1, i32 %arg2) local_unnamed_addr {
dec_label_pc_1d9e:
  ret i32 %arg1
}

define i32 @function_1dd5() local_unnamed_addr {
dec_label_pc_1dd5:
  %eax.global-to-local = alloca i32, align 4
  %v0_1dd6 = load i32, i32* %eax.global-to-local, align 4
  ret i32 %v0_1dd6
}

define i32 @_ZN11CDataStream5writeEPKci(i32 %arg1, i32 %arg2, i32 %arg3) local_unnamed_addr {
dec_label_pc_1dd8:
  %v11_1dfc = icmp slt i32 %arg3, 0
  %v1_1e00 = icmp eq i1 %v11_1dfc, false
  br i1 %v1_1e00, label %bb, label %dec_label_pc_1e02

bb:                                               ; preds = %dec_label_pc_1dd8
  %v5_1e00 = call i32 @function_1e26(i32 %arg3, i32 %arg2, i32 %arg1)
  br label %dec_label_pc_1e02

dec_label_pc_1e02:                                ; preds = %bb, %dec_label_pc_1dd8
  %v4_1e02 = phi i32 [ %v5_1e00, %bb ], [ 0, %dec_label_pc_1dd8 ]
  ret i32 %v4_1e02
}

define i32 @function_1e0c(i32 %arg1) local_unnamed_addr {
dec_label_pc_1e0c:
  %eax.global-to-local = alloca i32, align 4
  %v0_1e0c = load i32, i32* @eax, align 4
  %v11_1e0c = and i32 %v0_1e0c, -248
  store i32 %v11_1e0c, i32* %eax.global-to-local, align 4
  %v4_1e0e = mul i32 %v11_1e0c, 2
  %v5_1e0e = inttoptr i32 %v4_1e0e to i32*
  %v6_1e0e = load i32, i32* %v5_1e0e, align 16
  %v9_1e0e = sub i32 %v11_1e0c, %v6_1e0e
  %v11_1e14 = and i32 %v9_1e0e, -252
  store i32 %v11_1e14, i32* %eax.global-to-local, align 4
  %v3_1e16 = load i32, i32* @edi, align 4
  %v9_1e16 = icmp ult i32 %v11_1e14, %v3_1e16
  %v1_1e17 = inttoptr i32 %v11_1e14 to i32*
  %v2_1e17 = load i32, i32* %v1_1e17, align 4
  %v5_1e17 = zext i1 %v9_1e16 to i32
  %v6_1e17 = sub i32 %v5_1e17, %v11_1e14
  %v7_1e17 = add i32 %v6_1e17, %v2_1e17
  store i32 %v7_1e17, i32* %v1_1e17, align 4
  %v3_1e19 = load i32, i32* %eax.global-to-local, align 4
  %v2_1e1b = add i32 %v3_1e19, 36
  %v16_1e1b = and i32 %v2_1e1b, 255
  %v18_1e1b = and i32 %v3_1e19, -256
  %v19_1e1b = or i32 %v16_1e1b, %v18_1e1b
  store i32 %v19_1e1b, i32* %eax.global-to-local, align 4
  ret i32 %v19_1e1b

; uselistorder directives
  uselistorder i32 %v3_1e19, { 1, 0 }
  uselistorder i32 %v11_1e14, { 0, 3, 2, 1 }
  uselistorder i32 %v11_1e0c, { 2, 0, 1 }
}

define i32 @function_1e26(i32 %arg1, i32 %arg2, i32 %arg3) local_unnamed_addr {
dec_label_pc_1e26:
  %ebx.global-to-local = alloca i32, align 4
  %v0_1e26 = load i32, i32* @ebp, align 4
  %v1_1e26 = add i32 %v0_1e26, -36
  %v2_1e26 = inttoptr i32 %v1_1e26 to i32*
  %v3_1e26 = load i32, i32* %v2_1e26, align 4
  store i32 %v3_1e26, i32* %ebx.global-to-local, align 4
  %v2_1e2b = add i32 %v0_1e26, -32
  %v3_1e2b = inttoptr i32 %v2_1e2b to i32*
  %v4_1e2b = load i32, i32* %v3_1e2b, align 4
  %v5_1e2b = add i32 %v4_1e2b, %v3_1e26
  %v10_1e2b = icmp ult i32 %v5_1e2b, %v3_1e26
  store i1 %v10_1e2b, i1* @cf, align 1
  store i32 %v5_1e2b, i32* %ebx.global-to-local, align 4
  %v1_1e2e = add i32 %v0_1e26, -28
  %v2_1e2e = inttoptr i32 %v1_1e2e to i32*
  %v3_1e2e = load i32, i32* %v2_1e2e, align 4
  %v1_1e31 = add i32 %v0_1e26, -16
  store i32 %v1_1e31, i32* @eax, align 4
  %v2_1e3b = call i32 @function_4b8e(i32 %v1_1e31, i32 %v3_1e2e)
  %v0_1e43 = load i32, i32* @ebp, align 4
  %v1_1e43 = add i32 %v0_1e43, -28
  %v2_1e43 = inttoptr i32 %v1_1e43 to i32*
  %v3_1e43 = load i32, i32* %v2_1e43, align 4
  store i32 %v3_1e43, i32* @eax, align 4
  %v0_1e46 = load i32, i32* %ebx.global-to-local, align 4
  %v1_1e4a = add i32 %v0_1e43, -32
  %v2_1e4a = inttoptr i32 %v1_1e4a to i32*
  %v3_1e4a = load i32, i32* %v2_1e4a, align 4
  %v1_1e51 = add i32 %v0_1e43, -16
  %v2_1e51 = inttoptr i32 %v1_1e51 to i32*
  %v3_1e51 = load i32, i32* %v2_1e51, align 4
  %v4_1e5b = call i32 @function_4cba(i32 %v3_1e43, i32 %v3_1e51, i32 %v3_1e4a, i32 %v0_1e46)
  %v0_1e60 = load i32, i32* @ebp, align 4
  %v1_1e60 = add i32 %v0_1e60, -28
  %v2_1e60 = inttoptr i32 %v1_1e60 to i32*
  %v3_1e60 = load i32, i32* %v2_1e60, align 4
  store i32 %v3_1e60, i32* @eax, align 4
  %v1_1e63 = add i32 %v0_1e60, -12
  %v2_1e63 = inttoptr i32 %v1_1e63 to i32*
  %v3_1e63 = load i32, i32* %v2_1e63, align 4
  %v1_1e66 = load i32, i32* inttoptr (i32 20 to i32*), align 4
  %v3_1e66 = icmp eq i32 %v1_1e66, %v3_1e63
  br i1 %v3_1e66, label %bb, label %dec_label_pc_1e6f

bb:                                               ; preds = %dec_label_pc_1e26
  %v1_1e6d = call i32 @function_1e74()
  br label %dec_label_pc_1e6f

dec_label_pc_1e6f:                                ; preds = %bb, %dec_label_pc_1e26
  %v2_1e6d = phi i32 [ %v1_1e6d, %bb ], [ %v3_1e60, %dec_label_pc_1e26 ]
  ret i32 %v2_1e6d

; uselistorder directives
  uselistorder i32 %v0_1e43, { 1, 0, 2 }
  uselistorder i32 %v3_1e26, { 1, 0, 2 }
  uselistorder i32 %v0_1e26, { 1, 0, 2, 3 }
}

define i32 @function_1e74() local_unnamed_addr {
dec_label_pc_1e74:
  %v0_1e78 = load i32, i32* @eax, align 4
  ret i32 %v0_1e78
}

define i32 @_ZNK5boost15foreach_detail_13auto_any_basecvbEv(i32 %arg1) local_unnamed_addr {
dec_label_pc_1e7a:
  store i32 0, i32* @eax, align 4
  br i1 true, label %bb, label %dec_label_pc_1ea2

bb:                                               ; preds = %dec_label_pc_1e7a
  %v2_1ea0 = call i32 @function_1ea7(i32 %arg1)
  br label %dec_label_pc_1ea2

dec_label_pc_1ea2:                                ; preds = %bb, %dec_label_pc_1e7a
  %v3_1ea0 = phi i32 [ %v2_1ea0, %bb ], [ 0, %dec_label_pc_1e7a ]
  ret i32 %v3_1ea0
}

define i32 @function_1ea7(i32 %arg1) local_unnamed_addr {
dec_label_pc_1ea7:
  %v0_1ea8 = load i32, i32* @eax, align 4
  ret i32 %v0_1ea8
}

define i32 @_ZN5boost15foreach_detail_9set_falseERb() local_unnamed_addr {
dec_label_pc_1ea9:
  %tmp5 = call i32 @__decompiler_undefined_function_0()
  %v4_1eb2 = inttoptr i32 %tmp5 to i8*
  store i8 0, i8* %v4_1eb2, align 1
  store i32 0, i32* @eax, align 4
  br i1 true, label %bb, label %dec_label_pc_1ed7

bb:                                               ; preds = %dec_label_pc_1ea9
  %v3_1ed5 = call i32 @function_1edc(i32 %tmp5)
  br label %dec_label_pc_1ed7

dec_label_pc_1ed7:                                ; preds = %bb, %dec_label_pc_1ea9
  %v4_1ed5 = phi i32 [ %v3_1ed5, %bb ], [ 0, %dec_label_pc_1ea9 ]
  ret i32 %v4_1ed5
}

define i32 @function_1edc(i32 %arg1) local_unnamed_addr {
dec_label_pc_1edc:
  %v0_1edd = load i32, i32* @eax, align 4
  ret i32 %v0_1edd
}

define i32 @_ZN5boost9exceptionC1ERKS0_(i32* %arg1, i32 %arg2) local_unnamed_addr {
dec_label_pc_1ede:
  %tmp103 = ptrtoint i32* %arg1 to i32
  store i32 ptrtoint (i32* @global_var_7fb4.336 to i32), i32* %arg1, align 4
  %v1_1f07 = add i32 %arg2, 4
  %v1_1f0d = add i32 %tmp103, 4
  store i32 %v1_1f0d, i32* @eax, align 4
  %v2_1f17 = call i32 @function_51e8(i32 %v1_1f0d, i32 %v1_1f07)
  %v1_1f1f = add i32 %arg2, 8
  %v2_1f1f = inttoptr i32 %v1_1f1f to i32*
  %v3_1f1f = load i32, i32* %v2_1f1f, align 4
  %v2_1f25 = add i32 %tmp103, 8
  %v3_1f25 = inttoptr i32 %v2_1f25 to i32*
  store i32 %v3_1f1f, i32* %v3_1f25, align 4
  %v1_1f2b = add i32 %arg2, 12
  %v2_1f2b = inttoptr i32 %v1_1f2b to i32*
  %v3_1f2b = load i32, i32* %v2_1f2b, align 4
  %v2_1f31 = add i32 %tmp103, 12
  %v3_1f31 = inttoptr i32 %v2_1f31 to i32*
  store i32 %v3_1f2b, i32* %v3_1f31, align 4
  %v1_1f37 = add i32 %arg2, 16
  %v2_1f37 = inttoptr i32 %v1_1f37 to i32*
  %v3_1f37 = load i32, i32* %v2_1f37, align 4
  %v2_1f3d = add i32 %tmp103, 16
  %v3_1f3d = inttoptr i32 %v2_1f3d to i32*
  store i32 %v3_1f37, i32* %v3_1f3d, align 4
  store i32 0, i32* @eax, align 4
  br i1 true, label %bb, label %dec_label_pc_1f4c

bb:                                               ; preds = %dec_label_pc_1ede
  %v1_1f4a = call i32 @function_1f51()
  br label %dec_label_pc_1f4c

dec_label_pc_1f4c:                                ; preds = %bb, %dec_label_pc_1ede
  %v2_1f4a = phi i32 [ %v1_1f4a, %bb ], [ 0, %dec_label_pc_1ede ]
  ret i32 %v2_1f4a

; uselistorder directives
  uselistorder i32 %tmp103, { 3, 2, 1, 0 }
  uselistorder i32 %arg2, { 3, 2, 1, 0 }
}

define i32 @function_1f4e(i32 %arg1) local_unnamed_addr {
dec_label_pc_1f4e:
  %tmp = load i32, i32* @eax, align 4
  ret i32 %tmp
}

define i32 @function_1f51() local_unnamed_addr {
dec_label_pc_1f51:
  %v0_1f52 = load i32, i32* @eax, align 4
  ret i32 %v0_1f52
}

define i32 @_ZN5boost10shared_ptrIKNS_16exception_detail10clone_baseEED1Ev(i32 %arg1) local_unnamed_addr {
dec_label_pc_1f54:
  %v1_1f6e = add i32 %arg1, 4
  %v1_1f74 = inttoptr i32 %v1_1f6e to i32*
  %v2_1f74 = call i32 @_ZNSt6vectorIhSaIhEE5clearEv(i32* %v1_1f74)
  store i32 0, i32* @eax, align 4
  br i1 true, label %bb, label %dec_label_pc_1f85

bb:                                               ; preds = %dec_label_pc_1f54
  %v1_1f83 = call i32 @function_1f8a()
  br label %dec_label_pc_1f85

dec_label_pc_1f85:                                ; preds = %bb, %dec_label_pc_1f54
  %v2_1f83 = phi i32 [ %v1_1f83, %bb ], [ 0, %dec_label_pc_1f54 ]
  ret i32 %v2_1f83
}

define i32 @function_1f8a() local_unnamed_addr {
dec_label_pc_1f8a:
  %v0_1f8b = load i32, i32* @eax, align 4
  ret i32 %v0_1f8b
}

define i32 @_ZN5boost10shared_ptrIKNS_16exception_detail10clone_baseEEC1ERKS4_(i32* %arg1, i32 %arg2) local_unnamed_addr {
dec_label_pc_1f8c:
  %tmp103 = ptrtoint i32* %arg1 to i32
  %v1_1fac = inttoptr i32 %arg2 to i32*
  %v2_1fac = load i32, i32* %v1_1fac, align 4
  store i32 %v2_1fac, i32* %arg1, align 4
  %v1_1fb6 = add i32 %arg2, 4
  %v1_1fbc = add i32 %tmp103, 4
  %v5_1fbc = icmp ugt i32* %arg1, inttoptr (i32 -5 to i32*)
  store i1 %v5_1fbc, i1* @cf, align 1
  store i32 %v1_1fbc, i32* @eax, align 4
  %v2_1fc6 = call i32 @function_38b2(i32 %v1_1fbc, i32 %v1_1fb6)
  store i32 0, i32* @eax, align 4
  br i1 true, label %bb, label %dec_label_pc_1fd7

bb:                                               ; preds = %dec_label_pc_1f8c
  %v1_1fd5 = call i32 @function_1fdc()
  br label %dec_label_pc_1fd7

dec_label_pc_1fd7:                                ; preds = %bb, %dec_label_pc_1f8c
  %v2_1fd5 = phi i32 [ %v1_1fd5, %bb ], [ 0, %dec_label_pc_1f8c ]
  ret i32 %v2_1fd5

; uselistorder directives
  uselistorder i32 %arg2, { 1, 0 }
}

define i32 @function_1fdc() local_unnamed_addr {
dec_label_pc_1fdc:
  %v0_1fdd = load i32, i32* @eax, align 4
  ret i32 %v0_1fdd
}

define i32 @_ZN5boost6system14error_categoryD1Ev(i32* %arg1) local_unnamed_addr {
dec_label_pc_1fde:
  %tmp99 = ptrtoint i32* %arg1 to i32
  store i1 false, i1* @cf, align 1
  store i32 ptrtoint (i32* @global_var_7eb4.340 to i32), i32* %arg1, align 4
  store i32 %tmp99, i32* @eax, align 4
  %v1_2004 = call i32 @function_302c(i32 %tmp99)
  %v1_2013 = call i32 @function_2020()
  ret i32 %tmp99
}

define i32 @function_2020() local_unnamed_addr {
dec_label_pc_2020:
  %v0_2020 = load i32, i32* @ebp, align 4
  %v1_2020 = add i32 %v0_2020, -12
  %v2_2020 = inttoptr i32 %v1_2020 to i32*
  %v3_2020 = load i32, i32* %v2_2020, align 4
  %v1_2023 = load i32, i32* inttoptr (i32 20 to i32*), align 4
  %v2_2023 = xor i32 %v1_2023, %v3_2020
  %v3_2023 = icmp eq i32 %v2_2023, 0
  store i32 %v2_2023, i32* @eax, align 4
  br i1 %v3_2023, label %bb, label %dec_label_pc_202c

bb:                                               ; preds = %dec_label_pc_2020
  %v1_202a = call i32 @function_2031()
  br label %dec_label_pc_202c

dec_label_pc_202c:                                ; preds = %bb, %dec_label_pc_2020
  %v2_202a = phi i32 [ %v1_202a, %bb ], [ %v2_2023, %dec_label_pc_2020 ]
  ret i32 %v2_202a
}

define i32 @function_2031() local_unnamed_addr {
dec_label_pc_2031:
  %v0_2032 = load i32, i32* @eax, align 4
  ret i32 %v0_2032
}

define i32 @_ZN5boost6system14error_categoryD0Ev(i32 %arg1) local_unnamed_addr {
dec_label_pc_2034:
  ret i32 %arg1
}

define i32 @function_2071() local_unnamed_addr {
dec_label_pc_2071:
  %eax.global-to-local = alloca i32, align 4
  %ecx.global-to-local = alloca i32, align 4
  %v0_2071 = load i32, i32* %ecx.global-to-local, align 4
  %v1_2071 = add i32 %v0_2071, -1
  store i32 %v1_2071, i32* %ecx.global-to-local, align 4
  %v0_2073 = load i32, i32* %eax.global-to-local, align 4
  ret i32 %v0_2073
}

define i32 @_ZNK5boost6system14error_categoryeqERKS1_(i32 %arg1, i32 %arg2) local_unnamed_addr {
dec_label_pc_2074:
  %v15_2094 = icmp eq i32 %arg1, %arg2
  %v1_2097 = zext i1 %v15_2094 to i32
  %v3_2097 = and i32 %arg1, -256
  %v4_2097 = or i32 %v1_2097, %v3_2097
  store i32 %v4_2097, i32* @eax, align 4
  br i1 true, label %bb, label %dec_label_pc_20a6

bb:                                               ; preds = %dec_label_pc_2074
  %v3_20a4 = call i32 @function_20ab(i32 %arg2, i32 %arg1)
  br label %dec_label_pc_20a6

dec_label_pc_20a6:                                ; preds = %bb, %dec_label_pc_2074
  %v4_20a4 = phi i32 [ %v3_20a4, %bb ], [ %v4_2097, %dec_label_pc_2074 ]
  ret i32 %v4_20a4

; uselistorder directives
  uselistorder i32 %arg2, { 1, 0 }
  uselistorder i32 %arg1, { 2, 1, 0 }
}

define i32 @function_20ab(i32 %arg1, i32 %arg2) local_unnamed_addr {
dec_label_pc_20ab:
  %v0_20ac = load i32, i32* @eax, align 4
  ret i32 %v0_20ac
}

define i32 @_ZN5boost6system15error_conditionC1EiRKNS0_14error_categoryE(i32* %arg1, i32 %arg2, i32 %arg3) local_unnamed_addr {
dec_label_pc_20ae:
  %tmp104 = ptrtoint i32* %arg1 to i32
  store i32 %arg2, i32* %arg1, align 4
  %v2_20df = add i32 %tmp104, 4
  %v3_20df = inttoptr i32 %v2_20df to i32*
  store i32 %arg3, i32* %v3_20df, align 4
  store i32 0, i32* @eax, align 4
  br i1 true, label %bb, label %dec_label_pc_20ee

bb:                                               ; preds = %dec_label_pc_20ae
  %v4_20ec = call i32 @function_20f3(i32 %arg3, i32 %arg2, i32 %tmp104)
  br label %dec_label_pc_20ee

dec_label_pc_20ee:                                ; preds = %bb, %dec_label_pc_20ae
  %v5_20ec = phi i32 [ %v4_20ec, %bb ], [ 0, %dec_label_pc_20ae ]
  ret i32 %v5_20ec
}

define i32 @function_20f3(i32 %arg1, i32 %arg2, i32 %arg3) local_unnamed_addr {
dec_label_pc_20f3:
  %v0_20f4 = load i32, i32* @eax, align 4
  ret i32 %v0_20f4
}

define i32 @_ZN5boost6systemeqERKNS0_15error_conditionES3_(i32* %arg1, i32 %arg2) local_unnamed_addr {
dec_label_pc_20f5:
  %tmp102 = ptrtoint i32* %arg1 to i32
  %v1_2115 = add i32 %tmp102, 4
  %v2_2115 = inttoptr i32 %v1_2115 to i32*
  %v3_2115 = load i32, i32* %v2_2115, align 4
  %v1_211b = add i32 %arg2, 4
  %v2_211b = inttoptr i32 %v1_211b to i32*
  %v3_211b = load i32, i32* %v2_211b, align 4
  %v12_211e = icmp eq i32 %v3_2115, %v3_211b
  %v1_2120 = icmp eq i1 %v12_211e, false
  br i1 %v1_2120, label %dec_label_pc_2137, label %dec_label_pc_2122

dec_label_pc_2122:                                ; preds = %dec_label_pc_20f5
  %v2_2125 = load i32, i32* %arg1, align 4
  %v1_212a = inttoptr i32 %arg2 to i32*
  %v2_212a = load i32, i32* %v1_212a, align 4
  %v12_212c = icmp eq i32 %v2_2125, %v2_212a
  %v1_212e = icmp eq i1 %v12_212c, false
  br i1 %v1_212e, label %dec_label_pc_2137, label %dec_label_pc_213c

dec_label_pc_2137:                                ; preds = %dec_label_pc_2122, %dec_label_pc_20f5
  br label %dec_label_pc_213c

dec_label_pc_213c:                                ; preds = %dec_label_pc_2122, %dec_label_pc_2137
  %storemerge = phi i32 [ 0, %dec_label_pc_2137 ], [ 1, %dec_label_pc_2122 ]
  store i32 %storemerge, i32* @eax, align 4
  br i1 true, label %bb, label %dec_label_pc_2148

bb:                                               ; preds = %dec_label_pc_213c
  %v1_2146 = call i32 @function_214d()
  br label %dec_label_pc_2148

dec_label_pc_2148:                                ; preds = %bb, %dec_label_pc_213c
  %v2_2146 = phi i32 [ %v1_2146, %bb ], [ %storemerge, %dec_label_pc_213c ]
  ret i32 %v2_2146

; uselistorder directives
  uselistorder label %dec_label_pc_213c, { 1, 0 }
}

define i32 @function_214d() local_unnamed_addr {
dec_label_pc_214d:
  %v0_214e = load i32, i32* @eax, align 4
  ret i32 %v0_214e
}

define i32 @_ZNK5boost6system10error_code5valueEv(i32* %arg1) local_unnamed_addr {
dec_label_pc_2150:
  %v2_216a = load i32, i32* %arg1, align 4
  store i32 %v2_216a, i32* @eax, align 4
  br i1 true, label %bb, label %dec_label_pc_2178

bb:                                               ; preds = %dec_label_pc_2150
  %tmp100 = ptrtoint i32* %arg1 to i32
  %v2_2176 = call i32 @function_217d(i32 %tmp100)
  br label %dec_label_pc_2178

dec_label_pc_2178:                                ; preds = %bb, %dec_label_pc_2150
  %v3_2176 = phi i32 [ %v2_2176, %bb ], [ %v2_216a, %dec_label_pc_2150 ]
  ret i32 %v3_2176

; uselistorder directives
  uselistorder i32* %arg1, { 1, 0 }
}

define i32 @function_217d(i32 %arg1) local_unnamed_addr {
dec_label_pc_217d:
  %v0_217e = load i32, i32* @eax, align 4
  ret i32 %v0_217e
}

define i32 @_ZNK5boost6system10error_code8categoryEv(i32 %arg1) local_unnamed_addr {
dec_label_pc_2180:
  %v1_219a = add i32 %arg1, 4
  %v2_219a = inttoptr i32 %v1_219a to i32*
  %v3_219a = load i32, i32* %v2_219a, align 4
  store i32 %v3_219a, i32* @eax, align 4
  br i1 true, label %bb, label %dec_label_pc_21a9

bb:                                               ; preds = %dec_label_pc_2180
  %v2_21a7 = call i32 @function_21ae(i32 %arg1)
  br label %dec_label_pc_21a9

dec_label_pc_21a9:                                ; preds = %bb, %dec_label_pc_2180
  %v3_21a7 = phi i32 [ %v2_21a7, %bb ], [ %v3_219a, %dec_label_pc_2180 ]
  ret i32 %v3_21a7
}

define i32 @function_21ae(i32 %arg1) local_unnamed_addr {
dec_label_pc_21ae:
  %v0_21af = load i32, i32* @eax, align 4
  ret i32 %v0_21af
}

define i32 @_ZNK5boost6system10error_code7messageEv(i32 %arg1, i32 %arg2) local_unnamed_addr {
dec_label_pc_21b0:
  %ebx.global-to-local = alloca i32, align 4
  %v0_21b3 = load i32, i32* %ebx.global-to-local, align 4
  %v1_21d1 = add i32 %arg2, 4
  %v2_21d1 = inttoptr i32 %v1_21d1 to i32*
  %v3_21d1 = load i32, i32* %v2_21d1, align 4
  %v1_21d4 = inttoptr i32 %v3_21d1 to i32*
  %v2_21d4 = load i32, i32* %v1_21d4, align 4
  %v1_21d6 = add i32 %v2_21d4, 12
  %v1_21d9 = inttoptr i32 %v1_21d6 to i32*
  %v2_21d9 = load i32, i32* %v1_21d9, align 4
  store i32 %v2_21d9, i32* %ebx.global-to-local, align 4
  store i32 %arg2, i32* @eax, align 4
  %v1_21e1 = call i32 @function_4300(i32 %arg2)
  store i32 %v0_21b3, i32* %ebx.global-to-local, align 4
  ret i32 %arg1

; uselistorder directives
  uselistorder i32 %arg2, { 2, 1, 0 }
}

define i32 @_ZNK5boost6system14error_category23default_error_conditionEi(i32 %arg1, i32 %arg2, i32 %arg3) local_unnamed_addr {
dec_label_pc_221a:
  store i1 false, i1* @cf, align 1
  store i32 %arg1, i32* @eax, align 4
  %v3_2251 = call i32 @function_42c8(i32 %arg1, i32 %arg3, i32 %arg2)
  store i32 %arg1, i32* @eax, align 4
  br i1 true, label %bb, label %dec_label_pc_2265

bb:                                               ; preds = %dec_label_pc_221a
  %v1_2263 = call i32 @function_226a()
  br label %dec_label_pc_2265

dec_label_pc_2265:                                ; preds = %bb, %dec_label_pc_221a
  %v2_2263 = phi i32 [ %v1_2263, %bb ], [ %arg1, %dec_label_pc_221a ]
  ret i32 %v2_2263

; uselistorder directives
  uselistorder i32 %arg1, { 0, 3, 2, 1 }
}

define i32 @function_226a() local_unnamed_addr {
dec_label_pc_226a:
  %v0_226b = load i32, i32* @eax, align 4
  ret i32 %v0_226b
}

define i32 @_ZNK5boost6system14error_category10equivalentEiRKNS0_15error_conditionE(i32* %arg1, i32 %arg2, i32 %arg3) local_unnamed_addr {
dec_label_pc_226e:
  %stack_var_-24 = alloca i32, align 4
  %tmp108 = ptrtoint i32* %arg1 to i32
  %v2_2294 = load i32, i32* %arg1, align 4
  %v1_2296 = add i32 %v2_2294, 16
  %v1_2299 = inttoptr i32 %v1_2296 to i32*
  %v2_2299 = load i32, i32* %v1_2299, align 4
  store i32 %v2_2299, i32* @ecx, align 4
  %v2_229b = ptrtoint i32* %stack_var_-24 to i32
  %v4_22c1 = call i32 @function_4363(i32 %v2_229b, i32 %arg3, i32 %tmp108, i32 %arg2)
  store i32 %v4_22c1, i32* @eax, align 4
  br i1 true, label %bb, label %dec_label_pc_22d2

bb:                                               ; preds = %dec_label_pc_226e
  %v1_22d0 = call i32 @function_22d7()
  br label %dec_label_pc_22d2

dec_label_pc_22d2:                                ; preds = %bb, %dec_label_pc_226e
  %v2_22d0 = phi i32 [ %v1_22d0, %bb ], [ %v4_22c1, %dec_label_pc_226e ]
  ret i32 %v2_22d0
}

define i32 @function_22d7() local_unnamed_addr {
dec_label_pc_22d7:
  %v0_22d8 = load i32, i32* @eax, align 4
  ret i32 %v0_22d8
}

define i32 @_ZNK5boost6system14error_category10equivalentERKNS0_10error_codeEi(i32 %arg1, i32 %arg2, i32 %arg3) local_unnamed_addr {
dec_label_pc_22da:
  %v1_2303 = call i32 @_ZNSt12_Vector_baseIhSaIhEEC1Ev(i32 %arg2)
  store i32 %arg1, i32* @eax, align 4
  %v2_2312 = call i32 @function_434e(i32 %arg1, i32 %v1_2303)
  %v4_2317 = trunc i32 %v2_2312 to i8
  %v5_2317 = icmp eq i8 %v4_2317, 0
  br i1 %v5_2317, label %dec_label_pc_2332, label %dec_label_pc_231b

dec_label_pc_231b:                                ; preds = %dec_label_pc_22da
  %v1_2321 = call i32 @function_442a(i32 %arg2)
  %v15_2326 = icmp eq i32 %v1_2321, %arg3
  %v1_2329 = icmp eq i1 %v15_2326, false
  br i1 %v1_2329, label %dec_label_pc_2332, label %dec_label_pc_2337

dec_label_pc_2332:                                ; preds = %dec_label_pc_231b, %dec_label_pc_22da
  br label %dec_label_pc_2337

dec_label_pc_2337:                                ; preds = %dec_label_pc_231b, %dec_label_pc_2332
  %storemerge = phi i32 [ 0, %dec_label_pc_2332 ], [ 1, %dec_label_pc_231b ]
  store i32 %storemerge, i32* @eax, align 4
  br i1 true, label %bb, label %dec_label_pc_2343

bb:                                               ; preds = %dec_label_pc_2337
  %v1_2341 = call i32 @function_2348()
  br label %dec_label_pc_2343

dec_label_pc_2343:                                ; preds = %bb, %dec_label_pc_2337
  %v2_2341 = phi i32 [ %v1_2341, %bb ], [ %storemerge, %dec_label_pc_2337 ]
  ret i32 %v2_2341

; uselistorder directives
  uselistorder i32 %arg1, { 1, 0 }
  uselistorder label %dec_label_pc_2337, { 1, 0 }
}

define i32 @function_2348() local_unnamed_addr {
dec_label_pc_2348:
  %v0_2349 = load i32, i32* @eax, align 4
  ret i32 %v0_2349
}

define i32 @_ZN5boost6system12system_errorD1Ev(i32* %arg1) {
dec_label_pc_234a:
  %tmp99 = ptrtoint i32* %arg1 to i32
  store i32 ptrtoint (%vtable_7e8c_type* @global_var_7e8c.341 to i32), i32* %arg1, align 4
  %v1_236f = add i32 %tmp99, 16
  ret i32 %v1_236f
}

define i32 @function_2385() local_unnamed_addr {
dec_label_pc_2385:
  %v2_238f = call i32 @function_23c6(i32 ptrtoint (i32* @0 to i32))
  %v0_2391 = load i32, i32* @ebp, align 4
  %v1_2391 = add i32 %v0_2391, -28
  %v2_2391 = inttoptr i32 %v1_2391 to i32*
  %v3_2391 = load i32, i32* %v2_2391, align 4
  %v1_239c = call i32 @function_23c6(i32 %v3_2391)
  ret i32 %v1_239c

; uselistorder directives
  uselistorder i32 (i32)* @function_23c6, { 1, 0 }
}

define i32 @function_23c6(i32 %arg1) local_unnamed_addr {
dec_label_pc_23c6:
  %v0_23c6 = load i32, i32* @ebp, align 4
  %v1_23c6 = add i32 %v0_23c6, -12
  %v2_23c6 = inttoptr i32 %v1_23c6 to i32*
  %v3_23c6 = load i32, i32* %v2_23c6, align 4
  %v1_23c9 = load i32, i32* inttoptr (i32 20 to i32*), align 4
  %v2_23c9 = xor i32 %v1_23c9, %v3_23c6
  ret i32 %v2_23c9
}

define i32 @_ZN5boost6system12system_errorD0Ev(i32 %arg1) {
dec_label_pc_23de:
  store i32 %arg1, i32* @eax, align 4
  %v1_23fb = call i32 @function_4728(i32 %arg1)
  ret i32 %arg1
}

define i32 @function_240a() local_unnamed_addr {
dec_label_pc_240a:
  %eax.global-to-local = alloca i32, align 4
  %ebx.global-to-local = alloca i32, align 4
  %v0_240a = load i32, i32* %ebx.global-to-local, align 4
  %v1_240a = add i32 %v0_240a, 862319685
  %v2_240a = inttoptr i32 %v1_240a to i32*
  %v3_240a = load i32, i32* %v2_240a, align 4
  %v4_240a = add i32 %v3_240a, -1
  store i32 %v4_240a, i32* %v2_240a, align 4
  %v0_2410 = load i32, i32* %eax.global-to-local, align 4
  %v1_2410 = add i32 %v0_2410, 20
  store i32 %v1_2410, i32* %eax.global-to-local, align 4
  ret i32 %v1_2410
}

define i32 @_ZNK5boost6system12system_error4whatEv(i32 %arg1) {
dec_label_pc_241e:
  %v1_2439 = add i32 %arg1, 16
  ret i32 %v1_2439
}

define i32 @function_2458() local_unnamed_addr {
dec_label_pc_2458:
  %eax.global-to-local = alloca i32, align 4
  %v0_245b = load i32, i32* %eax.global-to-local, align 4
  ret i32 %v0_245b
}

define i32 @function_24d9() local_unnamed_addr {
dec_label_pc_24d9:
  %ecx.global-to-local = alloca i32, align 4
  %edx.global-to-local = alloca i32, align 4
  %v0_24d9 = load i32, i32* %ecx.global-to-local, align 4
  %v1_24d9 = add i32 %v0_24d9, -1948743229
  %v2_24d9 = inttoptr i32 %v1_24d9 to i32*
  %v3_24d9 = load i32, i32* %v2_24d9, align 4
  %v4_24d9 = add i32 %v3_24d9, -1
  store i32 %v4_24d9, i32* %v2_24d9, align 4
  %v0_24e1 = load i32, i32* %edx.global-to-local, align 4
  %v1_24e1 = load i32, i32* inttoptr (i32 20 to i32*), align 4
  %v2_24e1 = xor i32 %v1_24e1, %v0_24e1
  %v3_24e1 = icmp eq i32 %v2_24e1, 0
  store i32 %v2_24e1, i32* %edx.global-to-local, align 4
  br i1 %v3_24e1, label %bb, label %dec_label_pc_24ea

bb:                                               ; preds = %dec_label_pc_24d9
  %v1_24e8 = call i32 @function_2533()
  store i32 %v1_24e8, i32* @eax, align 4
  br label %dec_label_pc_24ea

dec_label_pc_24ea:                                ; preds = %bb, %dec_label_pc_24d9
  %v0_24ea = call i32 @function_252e()
  ret i32 %v0_24ea
}

define i32 @function_24ed() local_unnamed_addr {
dec_label_pc_24ed:
  %eax.global-to-local = alloca i32, align 4
  %v0_24ed = load i32, i32* %eax.global-to-local, align 4
  ret i32 %v0_24ed
}

define i32 @function_24f9() local_unnamed_addr {
dec_label_pc_24f9:
  %tmp91 = call i32 @__decompiler_undefined_function_0()
  %v1_2505 = add i32 %tmp91, -28
  %v2_2505 = inttoptr i32 %v1_2505 to i32*
  %v3_2505 = load i32, i32* %v2_2505, align 4
  ret i32 %v3_2505
}

define i32 @function_2510() local_unnamed_addr {
dec_label_pc_2510:
  %eax.global-to-local = alloca i32, align 4
  %v0_2510 = load i32, i32* %eax.global-to-local, align 4
  ret i32 %v0_2510
}

define i32 @function_252e() local_unnamed_addr {
dec_label_pc_252e:
  %tmp = load i32, i32* @eax, align 4
  ret i32 %tmp
}

define i32 @function_2533() local_unnamed_addr {
dec_label_pc_2533:
  %v0_2537 = load i32, i32* @eax, align 4
  ret i32 %v0_2537
}

define i32 @_ZNK7CScript5GetOpERN9__gnu_cxx17__normal_iteratorIPKhSt6vectorIhSaIhEEEER10opcodetypeRS6_(i32 %arg1, i32 %arg2, i32 %arg3, i32 %arg4) local_unnamed_addr {
dec_label_pc_2538:
  store i32 %arg1, i32* @eax, align 4
  %v8_257c = call i32 @function_4acc(i32 %arg1, i32 %arg2, i32 %arg3, i32 %arg4, i32 %arg4, i32 %arg3, i32 %arg2, i32 %arg1)
  store i32 %v8_257c, i32* @eax, align 4
  br i1 true, label %bb, label %dec_label_pc_258d

bb:                                               ; preds = %dec_label_pc_2538
  %v1_258b = call i32 @function_2592()
  br label %dec_label_pc_258d

dec_label_pc_258d:                                ; preds = %bb, %dec_label_pc_2538
  %v2_258b = phi i32 [ %v1_258b, %bb ], [ %v8_257c, %dec_label_pc_2538 ]
  ret i32 %v2_258b

; uselistorder directives
  uselistorder i32 %arg4, { 1, 0 }
  uselistorder i32 %arg3, { 1, 0 }
  uselistorder i32 %arg2, { 1, 0 }
  uselistorder i32 %arg1, { 2, 1, 0 }
}

define i32 @function_2592() local_unnamed_addr {
dec_label_pc_2592:
  %v0_2593 = load i32, i32* @eax, align 4
  ret i32 %v0_2593
}

define i32 @_ZNK7CScript6GetOp2ERN9__gnu_cxx17__normal_iteratorIPKhSt6vectorIhSaIhEEEER10opcodetypePS6_(i32 %arg1, i32 %arg2, i32* %arg3, i32 %arg4) local_unnamed_addr {
dec_label_pc_2594:
  %stack_var_-84 = alloca i32, align 4
  %stack_var_-88 = alloca i32, align 4
  store i32 255, i32* %arg3, align 4
  store i1 false, i1* @cf, align 1
  %v10_25c6 = icmp eq i32 %arg4, 0
  br i1 %v10_25c6, label %dec_label_pc_25d7, label %dec_label_pc_25cc

dec_label_pc_25cc:                                ; preds = %dec_label_pc_2594
  store i32 %arg4, i32* @eax, align 4
  %v1_25d2 = call i32 @function_5dce(i32 %arg4)
  br label %dec_label_pc_25d7

dec_label_pc_25d7:                                ; preds = %dec_label_pc_25cc, %dec_label_pc_2594
  %v2_25da = ptrtoint i32* %stack_var_-88 to i32
  store i32 %v2_25da, i32* @eax, align 4
  %v1_25e4 = call i32 @function_52fa(i32 %v2_25da)
  %v0_25e9 = load i32, i32* @esp, align 4
  %v5_25e9 = icmp ult i32 %v0_25e9, 4
  store i1 %v5_25e9, i1* @cf, align 1
  store i32 %arg2, i32* @eax, align 4
  %v2_25f9 = call i32 @function_5e0c(i32 %arg2, i32 %v2_25da)
  %v4_25fe = trunc i32 %v2_25f9 to i8
  %v5_25fe = icmp eq i8 %v4_25fe, 0
  br i1 %v5_25fe, label %dec_label_pc_260c, label %dec_label_pc_2602

dec_label_pc_2602:                                ; preds = %dec_label_pc_25d7
  store i32 0, i32* @eax, align 4
  %v0_2607 = call i32 @function_28f8()
  ret i32 %v0_2607

dec_label_pc_260c:                                ; preds = %dec_label_pc_25d7
  %v2_260f = ptrtoint i32* %stack_var_-84 to i32
  ret i32 %v2_260f

; uselistorder directives
  uselistorder i32 %arg4, { 1, 0, 2 }
  uselistorder i32 %arg2, { 1, 0 }
}

define i32 @function_2614(i32 %arg1) local_unnamed_addr {
dec_label_pc_2614:
  %v0_2614 = load i32, i32* @eax, align 4
  store i1 false, i1* @cf, align 1
  %v11_2614 = and i32 %v0_2614, -252
  store i32 %v11_2614, i32* @eax, align 4
  %v1_2619 = call i32 @function_52fa(i32 %v11_2614)
  %v0_2621 = load i32, i32* @ebp, align 4
  %v1_2621 = add i32 %v0_2621, -96
  %v2_2621 = inttoptr i32 %v1_2621 to i32*
  %v3_2621 = load i32, i32* %v2_2621, align 4
  %v1_2628 = add i32 %v0_2621, -80
  %v2_262e = call i32 @function_5e60(i32 %v1_2628, i32 %v3_2621)
  %tmp14 = icmp slt i32 %v2_262e, 1
  %v5_2638 = icmp eq i1 %tmp14, false
  br i1 %v5_2638, label %dec_label_pc_2646, label %dec_label_pc_263c

dec_label_pc_263c:                                ; preds = %dec_label_pc_2614
  store i32 0, i32* @eax, align 4
  %v0_2641 = call i32 @function_28f8()
  ret i32 %v0_2641

dec_label_pc_2646:                                ; preds = %dec_label_pc_2614
  %v0_2646 = load i32, i32* @ebp, align 4
  %v1_2646 = add i32 %v0_2646, -76
  store i32 %v1_2646, i32* @eax, align 4
  %v1_2651 = add i32 %v0_2646, -96
  %v2_2651 = inttoptr i32 %v1_2651 to i32*
  %v3_2651 = load i32, i32* %v2_2651, align 4
  %v3_265b = call i32 @function_5eb8(i32 %v1_2646, i32 %v3_2651, i32 0)
  %v0_2663 = load i32, i32* @ebp, align 4
  %v1_2663 = add i32 %v0_2663, -76
  %v1_2669 = call i32 @function_5f16(i32 %v1_2663)
  %v1_266e = inttoptr i32 %v1_2669 to i8*
  %v2_266e = load i8, i8* %v1_266e, align 1
  %v3_266e = zext i8 %v2_266e to i32
  %v1_2674 = load i32, i32* @ebp, align 4
  %v2_2674 = add i32 %v1_2674, -16
  %v3_2674 = inttoptr i32 %v2_2674 to i32*
  store i32 %v3_266e, i32* %v3_2674, align 4
  %v0_2677 = load i32, i32* @ebp, align 4
  %v1_2677 = add i32 %v0_2677, -16
  %v2_2677 = inttoptr i32 %v1_2677 to i32*
  %v3_2677 = load i32, i32* %v2_2677, align 4
  %tmp26 = icmp ult i32 %v3_2677, 79
  br i1 %tmp26, label %dec_label_pc_2681, label %bb

bb:                                               ; preds = %dec_label_pc_2646
  %v4_267b = call i32 @function_28eb()
  %v0_2681.pre = load i32, i32* @ebp, align 4
  br label %dec_label_pc_2681

dec_label_pc_2681:                                ; preds = %dec_label_pc_2646, %bb
  %v0_2681 = phi i32 [ %v0_2677, %dec_label_pc_2646 ], [ %v0_2681.pre, %bb ]
  %v1_2681 = add i32 %v0_2681, -72
  %v2_2681 = inttoptr i32 %v1_2681 to i32*
  store i32 0, i32* %v2_2681, align 4
  %v0_2688 = load i32, i32* @ebp, align 4
  %v1_2688 = add i32 %v0_2688, -16
  %v2_2688 = inttoptr i32 %v1_2688 to i32*
  %v3_2688 = load i32, i32* %v2_2688, align 4
  %v8_2688 = icmp ult i32 %v3_2688, 75
  store i1 %v8_2688, i1* @cf, align 1
  %tmp27 = icmp ult i32 %v3_2688, 76
  br i1 %tmp27, label %dec_label_pc_268e, label %dec_label_pc_2699

dec_label_pc_268e:                                ; preds = %dec_label_pc_2681
  %v2_2691 = add i32 %v0_2688, -72
  %v3_2691 = inttoptr i32 %v2_2691 to i32*
  store i32 %v3_2688, i32* %v3_2691, align 4
  %v0_2694 = call i32 @function_281e()
  ret i32 %v0_2694

dec_label_pc_2699:                                ; preds = %dec_label_pc_2681
  store i1 false, i1* @cf, align 1
  %v13_2699 = icmp eq i32 %v3_2688, 76
  %v1_269d = icmp eq i1 %v13_2699, false
  br i1 %v1_269d, label %dec_label_pc_270f, label %dec_label_pc_269f

dec_label_pc_269f:                                ; preds = %dec_label_pc_2699
  %v1_26a2 = add i32 %v0_2688, -68
  store i32 %v1_26a2, i32* @eax, align 4
  %v1_26ac = call i32 @function_52fa(i32 %v1_26a2)
  %v0_26b4 = load i32, i32* @ebp, align 4
  %v1_26b4 = add i32 %v0_26b4, -96
  %v2_26b4 = inttoptr i32 %v1_26b4 to i32*
  %v3_26b4 = load i32, i32* %v2_26b4, align 4
  %v1_26bb = add i32 %v0_26b4, -68
  %v2_26c1 = call i32 @function_5e60(i32 %v1_26bb, i32 %v3_26b4)
  %tmp20 = icmp slt i32 %v2_26c1, 1
  %v5_26cb = icmp eq i1 %tmp20, false
  br i1 %v5_26cb, label %dec_label_pc_26d9, label %dec_label_pc_26cf

dec_label_pc_26cf:                                ; preds = %dec_label_pc_269f
  store i32 0, i32* @eax, align 4
  %v0_26d4 = call i32 @function_28f8()
  ret i32 %v0_26d4

dec_label_pc_26d9:                                ; preds = %dec_label_pc_269f
  %v0_26d9 = load i32, i32* @ebp, align 4
  %v1_26d9 = add i32 %v0_26d9, -64
  store i32 %v1_26d9, i32* @eax, align 4
  %v1_26e4 = add i32 %v0_26d9, -96
  %v2_26e4 = inttoptr i32 %v1_26e4 to i32*
  %v3_26e4 = load i32, i32* %v2_26e4, align 4
  %v3_26ee = call i32 @function_5eb8(i32 %v1_26d9, i32 %v3_26e4, i32 0)
  %v0_26f6 = load i32, i32* @ebp, align 4
  %v1_26f6 = add i32 %v0_26f6, -64
  %v1_26fc = call i32 @function_5f16(i32 %v1_26f6)
  %v1_2701 = inttoptr i32 %v1_26fc to i8*
  %v2_2701 = load i8, i8* %v1_2701, align 1
  %v3_2701 = zext i8 %v2_2701 to i32
  %v1_2707 = load i32, i32* @ebp, align 4
  %v2_2707 = add i32 %v1_2707, -72
  %v3_2707 = inttoptr i32 %v2_2707 to i32*
  store i32 %v3_2701, i32* %v3_2707, align 4
  %v0_270a = call i32 @function_281e()
  ret i32 %v0_270a

dec_label_pc_270f:                                ; preds = %dec_label_pc_2699
  %v8_270f = icmp ult i32 %v3_2688, 77
  store i1 %v8_270f, i1* @cf, align 1
  %v13_270f = icmp eq i32 %v3_2688, 77
  %v1_2713 = icmp eq i1 %v13_270f, false
  br i1 %v1_2713, label %bb23, label %dec_label_pc_2719

bb23:                                             ; preds = %dec_label_pc_270f
  %v2_2713 = call i32 @function_27a6()
  %v0_2719.pre = load i32, i32* @ebp, align 4
  br label %dec_label_pc_2719

dec_label_pc_2719:                                ; preds = %bb23, %dec_label_pc_270f
  %v0_2719 = phi i32 [ %v0_2719.pre, %bb23 ], [ %v0_2688, %dec_label_pc_270f ]
  %v1_271c = add i32 %v0_2719, -60
  store i32 %v1_271c, i32* @eax, align 4
  %v1_2726 = call i32 @function_52fa(i32 %v1_271c)
  %v0_272e = load i32, i32* @ebp, align 4
  %v1_272e = add i32 %v0_272e, -96
  %v2_272e = inttoptr i32 %v1_272e to i32*
  %v3_272e = load i32, i32* %v2_272e, align 4
  %v1_2735 = add i32 %v0_272e, -60
  %v2_273b = call i32 @function_5e60(i32 %v1_2735, i32 %v3_272e)
  %v1_2740 = add i32 %v2_273b, -1
  %tmp25 = sub i32 0, %v2_273b
  %v8_2740 = and i32 %v2_273b, %tmp25
  %v9_2740 = icmp slt i32 %v8_2740, 0
  %v10_2740 = icmp eq i32 %v1_2740, 0
  %v11_2740 = icmp slt i32 %v1_2740, 0
  %v3_2743 = icmp ne i1 %v11_2740, %v9_2740
  %v4_2743 = or i1 %v10_2740, %v3_2743
  %v5_2746 = icmp eq i1 %v4_2743, false
  br i1 %v5_2746, label %dec_label_pc_2754, label %dec_label_pc_274a

dec_label_pc_274a:                                ; preds = %dec_label_pc_2719
  store i32 0, i32* @eax, align 4
  %v0_274f = call i32 @function_28f8()
  ret i32 %v0_274f

dec_label_pc_2754:                                ; preds = %dec_label_pc_2719
  %v0_2754 = load i32, i32* @ebp, align 4
  %v1_2754 = add i32 %v0_2754, -72
  %v2_2754 = inttoptr i32 %v1_2754 to i32*
  store i32 0, i32* %v2_2754, align 4
  %v0_275b = load i32, i32* @ebp, align 4
  %v1_275b = add i32 %v0_275b, -56
  %v2_275b = inttoptr i32 %v1_275b to i32*
  store i32 0, i32* %v2_275b, align 4
  %v0_2762 = load i32, i32* @ebp, align 4
  %v1_2762 = add i32 %v0_2762, -56
  %v1_2769 = add i32 %v0_2762, -96
  %v2_2769 = inttoptr i32 %v1_2769 to i32*
  %v3_2769 = load i32, i32* %v2_2769, align 4
  %v2_276f = call i32 @function_52be(i32 %v3_2769, i32 %v1_2762)
  %v0_2780 = load i32, i32* @ebp, align 4
  %v1_2780 = add i32 %v0_2780, -72
  ret i32 %v1_2780

; uselistorder directives
  uselistorder i32 %v1_2740, { 1, 0 }
  uselistorder i32 %v2_273b, { 1, 0, 2 }
  uselistorder i32 %v3_2688, { 0, 3, 1, 4, 2, 5 }
  uselistorder i32 %v11_2614, { 1, 0 }
  uselistorder i32 -60, { 1, 2, 0 }
  uselistorder i32 -68, { 3, 4, 0, 1, 2 }
  uselistorder i32 (i32)* @function_5f16, { 1, 0 }
  uselistorder i32 (i32, i32, i32)* @function_5eb8, { 1, 0 }
  uselistorder label %dec_label_pc_2681, { 1, 0 }
}

define i32 @function_278a() local_unnamed_addr {
dec_label_pc_278a:
  %eax.global-to-local = alloca i32, align 4
  %ebp.global-to-local = alloca i32, align 4
  %tmp93 = call i32 @__decompiler_undefined_function_0()
  %v1_278a = add i32 %tmp93, 1
  store i32 %v1_278a, i32* @edi, align 4
  %v0_278c = load i32, i32* %ebp.global-to-local, align 4
  %v1_278c = add i32 %v0_278c, 1
  store i32 %v1_278c, i32* @ebp, align 4
  %v0_278e = load i32, i32* %eax.global-to-local, align 4
  %v1_278e = trunc i32 %v0_278e to i8
  %v5_278e = mul i8 %v1_278e, 2
  %v20_278e = zext i8 %v5_278e to i32
  %v22_278e = and i32 %v0_278e, -256
  %v23_278e = or i32 %v20_278e, %v22_278e
  store i32 %v23_278e, i32* %eax.global-to-local, align 4
  %v1_2790 = inttoptr i32 %v23_278e to i8*
  %v2_2790 = load i8, i8* %v1_2790, align 2
  %v5_2790 = add i8 %v2_2790, %v5_278e
  store i8 %v5_2790, i8* %v1_2790, align 2
  %v0_2792 = load i32, i32* @ebp, align 4
  %v1_2792 = add i32 %v0_2792, -52
  store i32 %v1_2792, i32* %eax.global-to-local, align 4
  %v1_2799 = add i32 %v0_2792, -96
  %v2_2799 = inttoptr i32 %v1_2799 to i32*
  %v3_2799 = load i32, i32* %v2_2799, align 4
  store i32 %v3_2799, i32* @eax, align 4
  %v2_279f = call i32 @function_5f46(i32 %v3_2799, i32 %v1_2792)
  store i32 %v2_279f, i32* %eax.global-to-local, align 4
  %v0_27a4 = call i32 @function_281e()
  store i32 %v0_27a4, i32* %eax.global-to-local, align 4
  ret i32 %v0_27a4

; uselistorder directives
  uselistorder i8 %v5_278e, { 1, 0 }
  uselistorder i32* @edi, { 1, 0 }
}

define i32 @function_27a6() local_unnamed_addr {
dec_label_pc_27a6:
  %v0_27a6 = load i32, i32* @ebp, align 4
  %v1_27a6 = add i32 %v0_27a6, -16
  %v2_27a6 = inttoptr i32 %v1_27a6 to i32*
  %v3_27a6 = load i32, i32* %v2_27a6, align 4
  %v8_27a6 = icmp ult i32 %v3_27a6, 78
  store i1 %v8_27a6, i1* @cf, align 1
  %v13_27a6 = icmp eq i32 %v3_27a6, 78
  %v1_27aa = icmp eq i1 %v13_27a6, false
  br i1 %v1_27aa, label %bb, label %dec_label_pc_27ac

bb:                                               ; preds = %dec_label_pc_27a6
  %v2_27aa = call i32 @function_281e()
  %v0_27ac.pre = load i32, i32* @ebp, align 4
  br label %dec_label_pc_27ac

dec_label_pc_27ac:                                ; preds = %bb, %dec_label_pc_27a6
  %v0_27ac = phi i32 [ %v0_27ac.pre, %bb ], [ %v0_27a6, %dec_label_pc_27a6 ]
  %v1_27af = add i32 %v0_27ac, -48
  store i32 %v1_27af, i32* @eax, align 4
  %v1_27b9 = call i32 @function_52fa(i32 %v1_27af)
  %v0_27c1 = load i32, i32* @ebp, align 4
  %v1_27c1 = add i32 %v0_27c1, -96
  %v2_27c1 = inttoptr i32 %v1_27c1 to i32*
  %v3_27c1 = load i32, i32* %v2_27c1, align 4
  %v1_27c8 = add i32 %v0_27c1, -48
  %v2_27ce = call i32 @function_5e60(i32 %v1_27c8, i32 %v3_27c1)
  %v1_27d3 = add i32 %v2_27ce, -3
  %tmp7 = sub i32 2, %v2_27ce
  %v8_27d3 = and i32 %tmp7, %v2_27ce
  %v9_27d3 = icmp slt i32 %v8_27d3, 0
  %v10_27d3 = icmp eq i32 %v1_27d3, 0
  %v11_27d3 = icmp slt i32 %v1_27d3, 0
  %v3_27d6 = icmp ne i1 %v11_27d3, %v9_27d3
  %v4_27d6 = or i1 %v10_27d3, %v3_27d6
  %v5_27d9 = icmp eq i1 %v4_27d6, false
  br i1 %v5_27d9, label %dec_label_pc_27e7, label %dec_label_pc_27dd

dec_label_pc_27dd:                                ; preds = %dec_label_pc_27ac
  store i32 0, i32* @eax, align 4
  %v0_27e2 = call i32 @function_28f8()
  ret i32 %v0_27e2

dec_label_pc_27e7:                                ; preds = %dec_label_pc_27ac
  %v0_27e7 = load i32, i32* @ebp, align 4
  %v1_27e7 = add i32 %v0_27e7, -44
  %v2_27e7 = inttoptr i32 %v1_27e7 to i32*
  store i32 0, i32* %v2_27e7, align 4
  %v0_27ee = load i32, i32* @ebp, align 4
  %v1_27ee = add i32 %v0_27ee, -44
  %v1_27f5 = add i32 %v0_27ee, -96
  %v2_27f5 = inttoptr i32 %v1_27f5 to i32*
  %v3_27f5 = load i32, i32* %v2_27f5, align 4
  %v2_27fb = call i32 @function_52be(i32 %v3_27f5, i32 %v1_27ee)
  %v1_2800 = inttoptr i32 %v2_27fb to i32*
  %v2_2800 = load i32, i32* %v1_2800, align 4
  %v1_2802 = load i32, i32* @ebp, align 4
  %v2_2802 = add i32 %v1_2802, -72
  %v3_2802 = inttoptr i32 %v2_2802 to i32*
  store i32 %v2_2800, i32* %v3_2802, align 4
  %v0_2805 = load i32, i32* @ebp, align 4
  %v1_2805 = add i32 %v0_2805, -40
  %v2_2805 = inttoptr i32 %v1_2805 to i32*
  store i32 4, i32* %v2_2805, align 4
  %v0_280c = load i32, i32* @ebp, align 4
  %v1_280c = add i32 %v0_280c, -40
  %v1_2813 = add i32 %v0_280c, -96
  %v2_2813 = inttoptr i32 %v1_2813 to i32*
  %v3_2813 = load i32, i32* %v2_2813, align 4
  store i32 %v3_2813, i32* @eax, align 4
  %v2_2819 = call i32 @function_5f46(i32 %v3_2813, i32 %v1_280c)
  ret i32 %v2_2819

; uselistorder directives
  uselistorder i32 %v1_27d3, { 1, 0 }
  uselistorder i32 (i32, i32)* @function_52be, { 1, 0 }
  uselistorder i32 -44, { 5, 6, 0, 1, 2, 3, 4 }
  uselistorder i32 -48, { 3, 4, 0, 1, 2 }
  uselistorder i32 ()* @function_281e, { 2, 3, 1, 0 }
}

define i32 @function_281e() local_unnamed_addr {
dec_label_pc_281e:
  %stack_var_-8 = alloca i32, align 4
  %stack_var_-4 = alloca i32, align 4
  %v0_281e = load i32, i32* @ebp, align 4
  %v1_2821 = add i32 %v0_281e, -36
  store i32 %v1_2821, i32* @eax, align 4
  %v1_282b = call i32 @function_52fa(i32 %v1_2821)
  %v0_2833 = load i32, i32* @ebp, align 4
  %v1_2833 = add i32 %v0_2833, -96
  %v2_2833 = inttoptr i32 %v1_2833 to i32*
  %v3_2833 = load i32, i32* %v2_2833, align 4
  %v1_283a = add i32 %v0_2833, -36
  store i32 %v1_283a, i32* %stack_var_-4, align 4
  %v2_2840 = call i32 @function_5e60(i32 %v1_283a, i32 %v3_2833)
  store i1 false, i1* @cf, align 1
  %v2_2845 = icmp slt i32 %v2_2840, 0
  br i1 %v2_2845, label %dec_label_pc_2885.thread, label %dec_label_pc_2885

dec_label_pc_2885.thread:                         ; preds = %dec_label_pc_281e
  br label %dec_label_pc_2889

dec_label_pc_2885:                                ; preds = %dec_label_pc_281e
  %v0_2849 = load i32, i32* @ebp, align 4
  %v1_284c = add i32 %v0_2849, -32
  store i32 %v1_284c, i32* @eax, align 4
  store i32 %v1_284c, i32* %stack_var_-4, align 4
  %v1_2856 = call i32 @function_52fa(i32 %v1_284c)
  %v0_285e = load i32, i32* @ebp, align 4
  %v1_285e = add i32 %v0_285e, -96
  %v2_285e = inttoptr i32 %v1_285e to i32*
  %v3_285e = load i32, i32* %v2_285e, align 4
  store i32 %v3_285e, i32* %stack_var_-4, align 4
  %v1_2865 = add i32 %v0_285e, -32
  store i32 %v1_2865, i32* %stack_var_-8, align 4
  %v2_286b = call i32 @function_5e60(i32 %v1_2865, i32 %v3_285e)
  %v0_2872 = load i32, i32* @ebp, align 4
  %v1_2872 = add i32 %v0_2872, -72
  %v2_2872 = inttoptr i32 %v1_2872 to i32*
  %v3_2872 = load i32, i32* %v2_2872, align 4
  %v7_2875 = icmp ult i32 %v2_286b, %v3_2872
  %v5_2885 = icmp eq i1 %v7_2875, false
  br i1 %v5_2885, label %dec_label_pc_2890, label %dec_label_pc_2889

dec_label_pc_2889:                                ; preds = %dec_label_pc_2885.thread, %dec_label_pc_2885
  store i32 0, i32* @eax, align 4
  %v0_288e = call i32 @function_28f8()
  ret i32 %v0_288e

dec_label_pc_2890:                                ; preds = %dec_label_pc_2885
  %v1_2890 = add i32 %v0_2872, -104
  %v2_2890 = inttoptr i32 %v1_2890 to i32*
  %v3_2890 = load i32, i32* %v2_2890, align 4
  %v10_2890 = icmp eq i32 %v3_2890, 0
  br i1 %v10_2890, label %dec_label_pc_28d3, label %dec_label_pc_2896

dec_label_pc_2896:                                ; preds = %dec_label_pc_2890
  %v3_2896 = load i32, i32* %v2_2872, align 4
  %v2_2899 = add i32 %v0_2872, -28
  %v3_2899 = inttoptr i32 %v2_2899 to i32*
  store i32 %v3_2896, i32* %v3_2899, align 4
  %v0_289c = load i32, i32* @ebp, align 4
  %v1_289c = add i32 %v0_289c, -24
  store i32 %v1_289c, i32* @eax, align 4
  %v1_289f = add i32 %v0_289c, -28
  %v1_28a2 = load i32, i32* @esp, align 4
  %v2_28a2 = add i32 %v1_28a2, 8
  %v3_28a2 = inttoptr i32 %v2_28a2 to i32*
  store i32 %v1_289f, i32* %v3_28a2, align 4
  %v0_28a6 = load i32, i32* @ebp, align 4
  %v1_28a6 = add i32 %v0_28a6, -96
  %v2_28a6 = inttoptr i32 %v1_28a6 to i32*
  %v3_28a6 = load i32, i32* %v2_28a6, align 4
  %v1_28a9 = load i32, i32* @esp, align 4
  %v2_28a9 = add i32 %v1_28a9, 4
  %v3_28a9 = inttoptr i32 %v2_28a9 to i32*
  store i32 %v3_28a6, i32* %v3_28a9, align 4
  %v0_28ad = load i32, i32* @eax, align 4
  %v1_28ad = load i32, i32* @esp, align 4
  %v2_28ad = inttoptr i32 %v1_28ad to i32*
  store i32 %v0_28ad, i32* %v2_28ad, align 4
  %v0_28b0 = call i32 @function_5f8a()
  %v0_28b5 = load i32, i32* @esp, align 4
  %v0_28b8 = load i32, i32* @ebp, align 4
  %v1_28b8 = add i32 %v0_28b8, -24
  %v2_28b8 = inttoptr i32 %v1_28b8 to i32*
  %v3_28b8 = load i32, i32* %v2_28b8, align 4
  %v2_28bb = add i32 %v0_28b5, 4
  %v3_28bb = inttoptr i32 %v2_28bb to i32*
  store i32 %v3_28b8, i32* %v3_28bb, align 4
  %v0_28bf = load i32, i32* @ebp, align 4
  %v1_28bf = add i32 %v0_28bf, -96
  %v2_28bf = inttoptr i32 %v1_28bf to i32*
  %v3_28bf = load i32, i32* %v2_28bf, align 4
  %v1_28c2 = inttoptr i32 %v3_28bf to i32*
  %v2_28c2 = load i32, i32* %v1_28c2, align 4
  %v1_28c4 = load i32, i32* @esp, align 4
  %v2_28c4 = add i32 %v1_28c4, 4
  %v3_28c4 = inttoptr i32 %v2_28c4 to i32*
  store i32 %v2_28c2, i32* %v3_28c4, align 4
  %v0_28c8 = load i32, i32* @ebp, align 4
  %v1_28c8 = add i32 %v0_28c8, -104
  %v2_28c8 = inttoptr i32 %v1_28c8 to i32*
  %v3_28c8 = load i32, i32* %v2_28c8, align 4
  store i32 %v3_28c8, i32* @eax, align 4
  %v1_28cb = load i32, i32* @esp, align 4
  %v2_28cb = inttoptr i32 %v1_28cb to i32*
  store i32 %v3_28c8, i32* %v2_28cb, align 4
  %v0_28ce = call i32 @function_5fe6()
  %v0_28d3.pre = load i32, i32* @ebp, align 4
  br label %dec_label_pc_28d3

dec_label_pc_28d3:                                ; preds = %dec_label_pc_2896, %dec_label_pc_2890
  %v0_28d3 = phi i32 [ %v0_28d3.pre, %dec_label_pc_2896 ], [ %v0_2872, %dec_label_pc_2890 ]
  %v1_28d3 = add i32 %v0_28d3, -72
  %v2_28d3 = inttoptr i32 %v1_28d3 to i32*
  %v3_28d3 = load i32, i32* %v2_28d3, align 4
  %v2_28d6 = add i32 %v0_28d3, -20
  %v3_28d6 = inttoptr i32 %v2_28d6 to i32*
  store i32 %v3_28d3, i32* %v3_28d6, align 4
  %v0_28d9 = load i32, i32* @ebp, align 4
  %v1_28d9 = add i32 %v0_28d9, -20
  %v1_28dc = load i32, i32* @esp, align 4
  %v2_28dc = add i32 %v1_28dc, 4
  %v3_28dc = inttoptr i32 %v2_28dc to i32*
  store i32 %v1_28d9, i32* %v3_28dc, align 4
  %v0_28e0 = load i32, i32* @ebp, align 4
  %v1_28e0 = add i32 %v0_28e0, -96
  %v2_28e0 = inttoptr i32 %v1_28e0 to i32*
  %v3_28e0 = load i32, i32* %v2_28e0, align 4
  store i32 %v3_28e0, i32* @eax, align 4
  %v1_28e3 = load i32, i32* @esp, align 4
  %v2_28e3 = inttoptr i32 %v1_28e3 to i32*
  store i32 %v3_28e0, i32* %v2_28e3, align 4
  %v0_28e6 = load i32, i32* %stack_var_-8, align 4
  %v1_28e6 = load i32, i32* %stack_var_-4, align 4
  %v2_28e6 = call i32 @function_5f46(i32 %v0_28e6, i32 %v1_28e6)
  ret i32 %v2_28e6

; uselistorder directives
  uselistorder i32 %v0_28d3, { 1, 0 }
  uselistorder i32 (i32, i32)* @function_5f46, { 1, 0, 2 }
  uselistorder i32* @esp, { 5, 6, 7, 8, 9, 10, 11, 12, 0, 1, 2, 3, 4, 35, 36, 37, 30, 31, 13, 21, 22, 23, 24, 14, 15, 16, 17, 18, 19, 20, 25, 26, 27, 28, 29, 32, 33, 34 }
  uselistorder i32 ()* @function_28f8, { 4, 3, 2, 1, 0, 5 }
  uselistorder i32 -72, { 4, 5, 6, 7, 8, 9, 10, 11, 0, 1, 2, 3 }
  uselistorder i32 (i32, i32)* @function_5e60, { 5, 4, 3, 2, 1, 0 }
  uselistorder i32 -96, { 1, 2, 3, 4, 5, 6, 7, 8, 0, 9, 10, 11, 12, 13, 14, 15, 16, 17 }
  uselistorder i32 (i32)* @function_52fa, { 5, 4, 3, 2, 1, 0, 6 }
  uselistorder label %dec_label_pc_2889, { 1, 0 }
}

define i32 @function_28eb() local_unnamed_addr {
dec_label_pc_28eb:
  %v0_28eb = load i32, i32* @ebp, align 4
  %v1_28eb = add i32 %v0_28eb, -100
  %v2_28eb = inttoptr i32 %v1_28eb to i32*
  %v3_28eb = load i32, i32* %v2_28eb, align 4
  %v1_28ee = add i32 %v0_28eb, -16
  %v2_28ee = inttoptr i32 %v1_28ee to i32*
  %v3_28ee = load i32, i32* %v2_28ee, align 4
  %v2_28f1 = inttoptr i32 %v3_28eb to i32*
  store i32 %v3_28ee, i32* %v2_28f1, align 4
  ret i32 1

; uselistorder directives
  uselistorder i32 -100, { 0, 3, 1, 2, 4, 5 }
}

define i32 @function_28f8() local_unnamed_addr {
dec_label_pc_28f8:
  %v0_28f8 = load i32, i32* @ebp, align 4
  %v1_28f8 = add i32 %v0_28f8, -12
  %v2_28f8 = inttoptr i32 %v1_28f8 to i32*
  %v3_28f8 = load i32, i32* %v2_28f8, align 4
  %v1_28fb = load i32, i32* inttoptr (i32 20 to i32*), align 4
  store i1 false, i1* @cf, align 1
  %v3_28fb = icmp eq i32 %v1_28fb, %v3_28f8
  br i1 %v3_28fb, label %bb, label %dec_label_pc_28f8.dec_label_pc_2904_crit_edge

dec_label_pc_28f8.dec_label_pc_2904_crit_edge:    ; preds = %dec_label_pc_28f8
  %v2_2902.pre = load i32, i32* @eax, align 4
  br label %dec_label_pc_2904

bb:                                               ; preds = %dec_label_pc_28f8
  %v1_2902 = call i32 @function_2909()
  br label %dec_label_pc_2904

dec_label_pc_2904:                                ; preds = %dec_label_pc_28f8.dec_label_pc_2904_crit_edge, %bb
  %v2_2902 = phi i32 [ %v2_2902.pre, %dec_label_pc_28f8.dec_label_pc_2904_crit_edge ], [ %v1_2902, %bb ]
  ret i32 %v2_2902

; uselistorder directives
  uselistorder label %dec_label_pc_2904, { 1, 0 }
}

define i32 @function_2909() local_unnamed_addr {
dec_label_pc_2909:
  %v0_290a = load i32, i32* @eax, align 4
  ret i32 %v0_290a
}

define i32 @_ZN9COutPointC1E7uint256j(i32* %arg1, i32 %arg2, i32 %arg3, i32 %arg4, i32 %arg5, i32 %arg6, i32 %arg7, i32 %arg8, i32 %arg9, i32 %arg10) local_unnamed_addr {
dec_label_pc_290c:
  %eax.global-to-local = alloca i32, align 4
  %tmp22 = ptrtoint i32* %arg1 to i32
  store i32 %arg10, i32* %eax.global-to-local, align 4
  store i32 %tmp22, i32* @eax, align 4
  %v1_295f = call i32 @function_38c8(i32 %tmp22)
  store i32 %tmp22, i32* %eax.global-to-local, align 4
  store i32 %arg2, i32* %arg1, align 4
  %v2_296f = add i32 %tmp22, 4
  %v3_296f = inttoptr i32 %v2_296f to i32*
  store i32 %arg3, i32* %v3_296f, align 4
  %v1_2975 = load i32, i32* %eax.global-to-local, align 4
  %v2_2975 = add i32 %v1_2975, 8
  %v3_2975 = inttoptr i32 %v2_2975 to i32*
  store i32 %arg4, i32* %v3_2975, align 4
  %v1_297b = load i32, i32* %eax.global-to-local, align 4
  %v2_297b = add i32 %v1_297b, 12
  %v3_297b = inttoptr i32 %v2_297b to i32*
  store i32 %arg5, i32* %v3_297b, align 4
  %v1_2981 = load i32, i32* %eax.global-to-local, align 4
  %v2_2981 = add i32 %v1_2981, 16
  %v3_2981 = inttoptr i32 %v2_2981 to i32*
  store i32 %arg6, i32* %v3_2981, align 4
  %v1_2987 = load i32, i32* %eax.global-to-local, align 4
  %v2_2987 = add i32 %v1_2987, 20
  %v3_2987 = inttoptr i32 %v2_2987 to i32*
  store i32 %arg7, i32* %v3_2987, align 4
  %v1_298d = load i32, i32* %eax.global-to-local, align 4
  %v2_298d = add i32 %v1_298d, 24
  %v3_298d = inttoptr i32 %v2_298d to i32*
  store i32 %arg8, i32* %v3_298d, align 4
  %v1_2993 = load i32, i32* %eax.global-to-local, align 4
  %v2_2993 = add i32 %v1_2993, 28
  %v3_2993 = inttoptr i32 %v2_2993 to i32*
  store i32 %arg9, i32* %v3_2993, align 4
  %v2_299c = add i32 %tmp22, 32
  %v3_299c = inttoptr i32 %v2_299c to i32*
  store i32 %arg10, i32* %v3_299c, align 4
  store i32 0, i32* %eax.global-to-local, align 4
  ret i32 0

; uselistorder directives
  uselistorder i32 %tmp22, { 4, 0, 3, 2, 1 }
  uselistorder i32 28, { 1, 0 }
}

define i32 @_ZNK12CBloomFilter4HashEjRKSt6vectorIhSaIhEE(i32 %arg1, i64 %arg2, i32 %arg3) local_unnamed_addr {
dec_label_pc_29b2:
  ret i32 %arg3
}

declare i32 @_Z11MurmurHash3jRKSt6vectorIhSaIhEE(i32) local_unnamed_addr

define i32 @function_29f7() local_unnamed_addr {
dec_label_pc_29f7:
  %eax.global-to-local = alloca i32, align 4
  %v0_29f7 = load i32, i32* %eax.global-to-local, align 4
  ret i32 %v0_29f7
}

define i32 @function_2a25() local_unnamed_addr {
dec_label_pc_2a25:
  %eax.global-to-local = alloca i32, align 4
  %ebx.global-to-local = alloca i32, align 4
  %v0_2a25 = load i32, i32* %ebx.global-to-local, align 4
  %v1_2a25 = add i32 %v0_2a25, 1566258372
  %v2_2a25 = inttoptr i32 %v1_2a25 to i32*
  %v3_2a25 = load i32, i32* %v2_2a25, align 4
  %v4_2a25 = add i32 %v3_2a25, 1
  store i32 %v4_2a25, i32* %v2_2a25, align 4
  %v0_2a2b = load i32, i32* %eax.global-to-local, align 4
  ret i32 %v0_2a2b
}

define i32 @_ZNKSt6vectorIhSaIhEE4sizeEv(i32* %arg1) local_unnamed_addr {
dec_label_pc_2a2c:
  %tmp4 = ptrtoint i32* %arg1 to i32
  %v1_2a46 = add i32 %tmp4, 4
  %v2_2a46 = inttoptr i32 %v1_2a46 to i32*
  %v3_2a46 = load i32, i32* %v2_2a46, align 4
  %v2_2a4e = load i32, i32* %arg1, align 4
  %v2_2a52 = sub i32 %v3_2a46, %v2_2a4e
  store i32 %v2_2a52, i32* @ecx, align 4
  ret i32 %v2_2a52
}

define i32 @_ZNKSt6vectorIhSaIhEEixEj(i32* %arg1, i32 %arg2) local_unnamed_addr {
dec_label_pc_2a6a:
  %v2_2a8a = load i32, i32* %arg1, align 4
  %v5_2a8c = add i32 %v2_2a8a, %arg2
  ret i32 %v5_2a8c
}

define i32 @_ZN5boost16exception_detail12refcount_ptrINS0_20error_info_containerEEC1Ev(i32* %arg1) local_unnamed_addr {
dec_label_pc_2aa2:
  store i32 0, i32* %arg1, align 4
  store i32 0, i32* @eax, align 4
  br i1 true, label %bb, label %dec_label_pc_2ace

bb:                                               ; preds = %dec_label_pc_2aa2
  %tmp100 = ptrtoint i32* %arg1 to i32
  %v2_2acc = call i32 @function_2ad3(i32 %tmp100)
  br label %dec_label_pc_2ace

dec_label_pc_2ace:                                ; preds = %bb, %dec_label_pc_2aa2
  %v3_2acc = phi i32 [ %v2_2acc, %bb ], [ 0, %dec_label_pc_2aa2 ]
  ret i32 %v3_2acc

; uselistorder directives
  uselistorder i32* %arg1, { 1, 0 }
}

define i32 @function_2ad3(i32 %arg1) local_unnamed_addr {
dec_label_pc_2ad3:
  %v0_2ad4 = load i32, i32* @eax, align 4
  ret i32 %v0_2ad4
}

define i32 @_ZN5boost16exception_detail12refcount_ptrINS0_20error_info_containerEED1Ev(i32 %arg1) local_unnamed_addr {
dec_label_pc_2ad6:
  %v1_2af3 = call i32 @function_6ac6(i32 %arg1)
  ret i32 0
}

define i32 @_ZNK5boost16exception_detail12refcount_ptrINS0_20error_info_containerEE3getEv(i32* %arg1) local_unnamed_addr {
dec_label_pc_2b0c:
  %v2_2b26 = load i32, i32* %arg1, align 4
  store i32 %v2_2b26, i32* @eax, align 4
  br i1 true, label %bb, label %dec_label_pc_2b34

bb:                                               ; preds = %dec_label_pc_2b0c
  %tmp100 = ptrtoint i32* %arg1 to i32
  %v2_2b32 = call i32 @function_2b39(i32 %tmp100)
  br label %dec_label_pc_2b34

dec_label_pc_2b34:                                ; preds = %bb, %dec_label_pc_2b0c
  %v3_2b32 = phi i32 [ %v2_2b32, %bb ], [ %v2_2b26, %dec_label_pc_2b0c ]
  ret i32 %v3_2b32

; uselistorder directives
  uselistorder i32* %arg1, { 1, 0 }
}

define i32 @function_2b39(i32 %arg1) local_unnamed_addr {
dec_label_pc_2b39:
  %v0_2b3a = load i32, i32* @eax, align 4
  ret i32 %v0_2b3a
}

define i32 @_ZN5boost16exception_detail12refcount_ptrINS0_20error_info_containerEEaSERKS3_(i32 %arg1, i32* %arg2) local_unnamed_addr {
dec_label_pc_2b3c:
  %v2_2b5c = load i32, i32* %arg2, align 4
  store i32 %arg1, i32* @eax, align 4
  %v2_2b68 = call i32 @function_5df8(i32 %arg1, i32 %v2_2b5c)
  ret i32 %arg1

; uselistorder directives
  uselistorder i32 %arg1, { 0, 2, 1 }
}

define i32 @_ZN5boost16exception_detail10clone_baseC1ERKS1_(i32* %arg1, i32 %arg2) local_unnamed_addr {
dec_label_pc_2b84:
  %ebp.global-to-local = alloca i32, align 4
  %v0_2b84 = load i32, i32* %ebp.global-to-local, align 4
  store i32 ptrtoint (i32* @global_var_7f9c.337 to i32), i32* %arg1, align 4
  store i32 %v0_2b84, i32* %ebp.global-to-local, align 4
  ret i32 0
}

define i32 @_ZNSt6vectorIc25zero_after_free_allocatorIcEEC1Ev(i32 %arg1) local_unnamed_addr {
dec_label_pc_2bbe:
  store i32 %arg1, i32* @eax, align 4
  %v1_2bdb = call i32 @function_6c4a(i32 %arg1)
  store i32 0, i32* @eax, align 4
  br i1 true, label %bb, label %dec_label_pc_2bec

bb:                                               ; preds = %dec_label_pc_2bbe
  %v1_2bea = call i32 @function_2bf1()
  br label %dec_label_pc_2bec

dec_label_pc_2bec:                                ; preds = %bb, %dec_label_pc_2bbe
  %v2_2bea = phi i32 [ %v1_2bea, %bb ], [ 0, %dec_label_pc_2bbe ]
  ret i32 %v2_2bea

; uselistorder directives
  uselistorder i32 %arg1, { 1, 0 }
}

define i32 @function_2bf1() local_unnamed_addr {
dec_label_pc_2bf1:
  %v0_2bf2 = load i32, i32* @eax, align 4
  ret i32 %v0_2bf2
}

define i32 @_ZNSt6vectorIc25zero_after_free_allocatorIcEED1Ev(i32* %arg1) local_unnamed_addr {
dec_label_pc_2bf4:
  %tmp101 = ptrtoint i32* %arg1 to i32
  store i32 %tmp101, i32* @eax, align 4
  %v1_2c12 = call i32 @function_6d36(i32 %tmp101)
  store i32 %v1_2c12, i32* @eax, align 4
  %v1_2c1a = add i32 %tmp101, 4
  %v2_2c1a = inttoptr i32 %v1_2c1a to i32*
  %v3_2c1a = load i32, i32* %v2_2c1a, align 4
  %v2_2c20 = load i32, i32* %arg1, align 4
  store i32 %v2_2c20, i32* @edx, align 4
  %v3_2c2d = call i32 @function_6d63(i32 %v2_2c20, i32 %v3_2c1a, i32 %v1_2c12)
  store i32 %tmp101, i32* @eax, align 4
  %v1_2c38 = call i32 @function_6cb6(i32 %tmp101)
  store i32 0, i32* @eax, align 4
  br i1 true, label %bb, label %dec_label_pc_2c49

bb:                                               ; preds = %dec_label_pc_2bf4
  %v1_2c47 = call i32 @function_2c67()
  store i32 %v1_2c47, i32* @eax, align 4
  br label %dec_label_pc_2c49

dec_label_pc_2c49:                                ; preds = %bb, %dec_label_pc_2bf4
  %v0_2c49 = call i32 @function_2c62()
  ret i32 %v0_2c49

; uselistorder directives
  uselistorder i32 %tmp101, { 4, 3, 2, 1, 0 }
}

define i32 @function_2c4c(i32 %arg1, i32 %arg2) local_unnamed_addr {
dec_label_pc_2c4c:
  %v0_2c4c = load i32, i32* @eax, align 4
  ret i32 %v0_2c4c
}

define i32 @function_2c62() local_unnamed_addr {
dec_label_pc_2c62:
  %v0_2c62 = load i32, i32* @eax, align 4
  ret i32 %v0_2c62
}

define i32 @function_2c67() local_unnamed_addr {
dec_label_pc_2c67:
  %v0_2c6c = load i32, i32* @eax, align 4
  ret i32 %v0_2c6c
}

define i32 @_ZN25zero_after_free_allocatorIcEC1Ev(i32 %arg1) local_unnamed_addr {
dec_label_pc_2c6e:
  ret i32 %arg1
}

define i32 @function_2c8f() local_unnamed_addr {
dec_label_pc_2c8f:
  %eax.global-to-local = alloca i32, align 4
  %ebx.global-to-local = alloca i32, align 4
  %v0_2c8f = load i32, i32* %ebx.global-to-local, align 4
  %v1_2c8f = add i32 %v0_2c8f, 862319685
  %v2_2c8f = inttoptr i32 %v1_2c8f to i32*
  %v3_2c8f = load i32, i32* %v2_2c8f, align 4
  %v4_2c8f = add i32 %v3_2c8f, -1
  store i32 %v4_2c8f, i32* %v2_2c8f, align 4
  %v0_2c95 = load i32, i32* %eax.global-to-local, align 4
  %v1_2c95 = add i32 %v0_2c95, 20
  store i32 %v1_2c95, i32* %eax.global-to-local, align 4
  ret i32 %v1_2c95
}

define i32 @_ZN25zero_after_free_allocatorIcED1Ev(i32 %arg1) local_unnamed_addr {
dec_label_pc_2ca4:
  ret i32 %arg1
}

define i32 @function_2cc5() local_unnamed_addr {
dec_label_pc_2cc5:
  %eax.global-to-local = alloca i32, align 4
  %ebx.global-to-local = alloca i32, align 4
  %v0_2cc5 = load i32, i32* %ebx.global-to-local, align 4
  %v1_2cc5 = add i32 %v0_2cc5, 862319685
  %v2_2cc5 = inttoptr i32 %v1_2cc5 to i32*
  %v3_2cc5 = load i32, i32* %v2_2cc5, align 4
  %v4_2cc5 = add i32 %v3_2cc5, -1
  store i32 %v4_2cc5, i32* %v2_2cc5, align 4
  %v0_2ccb = load i32, i32* %eax.global-to-local, align 4
  %v1_2ccb = add i32 %v0_2ccb, 20
  store i32 %v1_2ccb, i32* %eax.global-to-local, align 4
  ret i32 %v1_2ccb
}

define i32 @_ZNKSt6vectorIhSaIhEE5beginEv(i32 %arg1, i32* %arg2) local_unnamed_addr {
dec_label_pc_2cda:
  %stack_var_-20 = alloca i32, align 4
  %v2_2cfa = load i32, i32* %arg2, align 4
  store i32 %v2_2cfa, i32* %stack_var_-20, align 4
  %v2_2cff = ptrtoint i32* %stack_var_-20 to i32
  store i32 %arg1, i32* @eax, align 4
  %v2_2d0c = call i32 @function_6eac(i32 %arg1, i32 %v2_2cff)
  store i32 %arg1, i32* @eax, align 4
  br i1 true, label %bb, label %dec_label_pc_2d20

bb:                                               ; preds = %dec_label_pc_2cda
  %v1_2d1e = call i32 @function_2d25()
  br label %dec_label_pc_2d20

dec_label_pc_2d20:                                ; preds = %bb, %dec_label_pc_2cda
  %v2_2d1e = phi i32 [ %v1_2d1e, %bb ], [ %arg1, %dec_label_pc_2cda ]
  ret i32 %v2_2d1e

; uselistorder directives
  uselistorder i32 %arg1, { 0, 3, 2, 1 }
}

define i32 @function_2d25() local_unnamed_addr {
dec_label_pc_2d25:
  %v0_2d26 = load i32, i32* @eax, align 4
  ret i32 %v0_2d26
}

define i32 @_ZNK9__gnu_cxx17__normal_iteratorIPKhSt6vectorIhSaIhEEEixERKi(i32* %arg1, i32 %arg2) local_unnamed_addr {
dec_label_pc_2d2a:
  %ebp.global-to-local = alloca i32, align 4
  %v0_2d2a = load i32, i32* %ebp.global-to-local, align 4
  %v2_2d4a = load i32, i32* %arg1, align 4
  %v1_2d4f = inttoptr i32 %arg2 to i32*
  %v2_2d4f = load i32, i32* %v1_2d4f, align 4
  %v2_2d51 = add i32 %v2_2d4f, %v2_2d4a
  store i32 %v0_2d2a, i32* %ebp.global-to-local, align 4
  ret i32 %v2_2d51
}

define i32 @_ZNKSt6vectorIhSaIhEE3endEv(i32 %arg1, i32 %arg2) local_unnamed_addr {
dec_label_pc_2d66:
  %stack_var_-20 = alloca i32, align 4
  %v1_2d86 = add i32 %arg2, 4
  %v2_2d86 = inttoptr i32 %v1_2d86 to i32*
  %v3_2d86 = load i32, i32* %v2_2d86, align 4
  store i32 %v3_2d86, i32* %stack_var_-20, align 4
  %v2_2d8c = ptrtoint i32* %stack_var_-20 to i32
  store i32 %arg1, i32* @eax, align 4
  %v2_2d99 = call i32 @function_6f38(i32 %arg1, i32 %v2_2d8c)
  ret i32 %arg1

; uselistorder directives
  uselistorder i32 %arg1, { 0, 2, 1 }
}

define i32 @_ZNSt6vectorIc25zero_after_free_allocatorIcEE3endEv(i32 %arg1, i32 %arg2) local_unnamed_addr {
dec_label_pc_2db6:
  %v1_2dd6 = add i32 %arg2, 4
  %v2_2de3 = call i32 @function_6fc2(i32 %arg1, i32 %v1_2dd6)
  store i32 %arg1, i32* @eax, align 4
  br i1 true, label %bb, label %dec_label_pc_2df7

bb:                                               ; preds = %dec_label_pc_2db6
  %v1_2df5 = call i32 @function_2dfc()
  br label %dec_label_pc_2df7

dec_label_pc_2df7:                                ; preds = %bb, %dec_label_pc_2db6
  %v2_2df5 = phi i32 [ %v1_2df5, %bb ], [ %arg1, %dec_label_pc_2db6 ]
  ret i32 %v2_2df5

; uselistorder directives
  uselistorder i32 %arg1, { 0, 2, 1 }
}

define i32 @function_2dfc() local_unnamed_addr {
dec_label_pc_2dfc:
  %v0_2dfd = load i32, i32* @eax, align 4
  ret i32 %v0_2dfd
}

define i32 @_ZNSt6vectorIc25zero_after_free_allocatorIcEE5beginEv(i32 %arg1, i32 %arg2) local_unnamed_addr {
dec_label_pc_2e00:
  store i32 %arg1, i32* @eax, align 4
  %v2_2e2a = call i32 @function_700c(i32 %arg1, i32 %arg2)
  ret i32 %arg1

; uselistorder directives
  uselistorder i32 %arg1, { 0, 2, 1 }
}

define i32 @_ZNK9__gnu_cxx17__normal_iteratorIPcSt6vectorIc25zero_after_free_allocatorIcEEEplERKi(i32 %arg1, i32* %arg2, i32 %arg3) local_unnamed_addr {
dec_label_pc_2e48:
  %v2_2e6e = load i32, i32* %arg2, align 4
  %v1_2e73 = inttoptr i32 %arg3 to i32*
  %v2_2e73 = load i32, i32* %v1_2e73, align 4
  %v2_2e75 = add i32 %v2_2e73, %v2_2e6e
  ret i32 %v2_2e75
}

define i32 @function_2e7b(i32 %arg1, i32 %arg2) local_unnamed_addr {
dec_label_pc_2e7b:
  %v0_2e7b = load i32, i32* @ebp, align 4
  %v1_2e7b = add i32 %v0_2e7b, 1
  store i32 %v1_2e7b, i32* @ebp, align 4
  %v15_2e7b = load i32, i32* @eax, align 4
  ret i32 %v15_2e7b
}

define i32 @function_2e86(i32 %arg1) local_unnamed_addr {
dec_label_pc_2e86:
  %tmp2 = call i32 @__decompiler_undefined_function_0()
  ret i32 %tmp2
}

define i32 @_ZNKSt6vectorIc25zero_after_free_allocatorIcEE4sizeEv(i32* %arg1) local_unnamed_addr {
dec_label_pc_2ea4:
  %ebp.global-to-local = alloca i32, align 4
  %tmp100 = ptrtoint i32* %arg1 to i32
  %v0_2ea4 = load i32, i32* %ebp.global-to-local, align 4
  %v1_2ebe = add i32 %tmp100, 4
  %v2_2ebe = inttoptr i32 %v1_2ebe to i32*
  %v3_2ebe = load i32, i32* %v2_2ebe, align 4
  %v2_2ec6 = load i32, i32* %arg1, align 4
  %v2_2eca = sub i32 %v3_2ebe, %v2_2ec6
  store i32 %v0_2ea4, i32* %ebp.global-to-local, align 4
  ret i32 %v2_2eca
}

define i32 @_ZNSt6vectorIc25zero_after_free_allocatorIcEE6insertIPKcEEvN9__gnu_cxx17__normal_iteratorIPcS2_EET_SA_() local_unnamed_addr {
dec_label_pc_2ee2:
  %eax.global-to-local = alloca i32, align 4
  %v5_2ee2 = load i32, i32* %eax.global-to-local, align 4
  ret i32 %v5_2ee2
}

define i32 @function_2ee3(i32 %arg1, i32 %arg2) local_unnamed_addr {
dec_label_pc_2ee3:
  %tmp7 = call i32 @__decompiler_undefined_function_0()
  %tmp9 = call i32 @__decompiler_undefined_function_0()
  %tmp11 = call i32 @__decompiler_undefined_function_0()
  %stack_var_0 = alloca i32, align 4
  store i32 %arg1, i32* %stack_var_0, align 4
  %v1_2ee3 = ptrtoint i32* %stack_var_0 to i32
  store i32 %v1_2ee3, i32* @ebp, align 4
  %v0_2f0b = load i32, i32* @edx, align 4
  store i32 %arg2, i32* @eax, align 4
  %sext = mul i32 %v0_2f0b, 16777216
  %v5_2f2a = sdiv i32 %sext, 16777216
  %v6_2f2a = call i32 @function_726e(i32 %arg2, i32 %tmp11, i32 %tmp9, i32 %tmp7, i32 %v5_2f2a)
  ret i32 0

; uselistorder directives
  uselistorder i32* %stack_var_0, { 1, 0 }
  uselistorder i32 %arg2, { 1, 0 }
}

define i32 @_ZN9__gnu_cxxmiIPcSt6vectorIc25zero_after_free_allocatorIcEEEENS_17__normal_iteratorIT_T0_E15difference_typeERKS9_SC_(i32 %arg1, i32 %arg2) local_unnamed_addr {
dec_label_pc_2f42:
  %ebx.global-to-local = alloca i32, align 4
  %v0_2f45 = load i32, i32* %ebx.global-to-local, align 4
  store i32 %arg1, i32* @eax, align 4
  %v1_2f66 = call i32 @function_72a0(i32 %arg1)
  %v1_2f6b = inttoptr i32 %v1_2f66 to i32*
  %v2_2f6b = load i32, i32* %v1_2f6b, align 4
  store i32 %v2_2f6b, i32* %ebx.global-to-local, align 4
  store i32 %arg2, i32* @eax, align 4
  %v1_2f75 = call i32 @function_72a0(i32 %arg2)
  %v1_2f7a = inttoptr i32 %v1_2f75 to i32*
  %v2_2f7a = load i32, i32* %v1_2f7a, align 4
  %v2_2f7e = sub i32 %v2_2f6b, %v2_2f7a
  store i32 %v0_2f45, i32* %ebx.global-to-local, align 4
  ret i32 %v2_2f7e

; uselistorder directives
  uselistorder i32 (i32)* @function_72a0, { 1, 0 }
  uselistorder i32 %arg2, { 1, 0 }
  uselistorder i32 %arg1, { 1, 0 }
}

define i32 @_ZNSt6vectorIhSaIhEEC1Ev(i32 %arg1) local_unnamed_addr {
dec_label_pc_2f9a:
  %v1_2fb7 = call i32 @function_73f4(i32 %arg1)
  store i32 0, i32* @eax, align 4
  br i1 true, label %bb, label %dec_label_pc_2fc8

bb:                                               ; preds = %dec_label_pc_2f9a
  %v1_2fc6 = call i32 @function_2fcd()
  br label %dec_label_pc_2fc8

dec_label_pc_2fc8:                                ; preds = %bb, %dec_label_pc_2f9a
  %v2_2fc6 = phi i32 [ %v1_2fc6, %bb ], [ 0, %dec_label_pc_2f9a ]
  ret i32 %v2_2fc6
}

define i32 @function_2fcd() local_unnamed_addr {
dec_label_pc_2fcd:
  %v0_2fce = load i32, i32* @eax, align 4
  ret i32 %v0_2fce
}

define i32 @_ZNSt6vectorIhSaIhEED1Ev(i32* %arg1) local_unnamed_addr {
dec_label_pc_2fd0:
  %tmp5 = ptrtoint i32* %arg1 to i32
  store i32 %tmp5, i32* @eax, align 4
  %v1_2fee = call i32 @function_74e0(i32 %tmp5)
  %v1_2ff6 = add i32 %tmp5, 4
  %v2_2ff6 = inttoptr i32 %v1_2ff6 to i32*
  %v3_2ff6 = load i32, i32* %v2_2ff6, align 4
  store i32 %v3_2ff6, i32* @ecx, align 4
  %v2_2ffc = load i32, i32* %arg1, align 4
  %v3_3009 = call i32 @function_750d(i32 %v2_2ffc, i32 %v3_2ff6, i32 %v1_2fee)
  store i32 %tmp5, i32* @eax, align 4
  %v1_3014 = call i32 @function_7460(i32 %tmp5)
  store i32 0, i32* @eax, align 4
  br i1 true, label %bb, label %dec_label_pc_3025

bb:                                               ; preds = %dec_label_pc_2fd0
  %v1_3023 = call i32 @function_3043()
  store i32 %v1_3023, i32* @eax, align 4
  br label %dec_label_pc_3025

dec_label_pc_3025:                                ; preds = %bb, %dec_label_pc_2fd0
  %v0_3025 = call i32 @function_303e()
  ret i32 %v0_3025

; uselistorder directives
  uselistorder i32 %tmp5, { 4, 3, 2, 1, 0 }
}

define i32 @function_3028() local_unnamed_addr {
dec_label_pc_3028:
  %eax.global-to-local = alloca i32, align 4
  %v0_3028 = load i32, i32* %eax.global-to-local, align 4
  ret i32 %v0_3028
}

define i32 @function_302c(i32 %arg1) local_unnamed_addr {
dec_label_pc_302c:
  %v0_302c = load i32, i32* @eax, align 4
  %v1_302f = call i32 @function_7460(i32 %v0_302c)
  %v0_3034 = load i32, i32* @ebx, align 4
  ret i32 %v0_3034

; uselistorder directives
  uselistorder i32 (i32)* @function_7460, { 1, 0 }
}

define i32 @function_303e() local_unnamed_addr {
dec_label_pc_303e:
  %tmp = load i32, i32* @eax, align 4
  ret i32 %tmp
}

define i32 @function_3043() local_unnamed_addr {
dec_label_pc_3043:
  %v0_3048 = load i32, i32* @eax, align 4
  ret i32 %v0_3048
}

define i32 @_ZNSaIhEC1Ev(i32 %arg1) local_unnamed_addr {
dec_label_pc_304a:
  store i32 %arg1, i32* @eax, align 4
  %v1_3067 = call i32 @function_75d0(i32 %arg1)
  store i32 0, i32* @eax, align 4
  br i1 true, label %bb, label %dec_label_pc_3078

bb:                                               ; preds = %dec_label_pc_304a
  %v1_3076 = call i32 @function_307d()
  br label %dec_label_pc_3078

dec_label_pc_3078:                                ; preds = %bb, %dec_label_pc_304a
  %v2_3076 = phi i32 [ %v1_3076, %bb ], [ 0, %dec_label_pc_304a ]
  ret i32 %v2_3076

; uselistorder directives
  uselistorder i32 %arg1, { 1, 0 }
}

define i32 @function_307d() local_unnamed_addr {
dec_label_pc_307d:
  %v0_307e = load i32, i32* @eax, align 4
  ret i32 %v0_307e
}

define i32 @_ZNSaIhED1Ev(i32 %arg1) local_unnamed_addr {
dec_label_pc_3080:
  store i32 %arg1, i32* @eax, align 4
  %v1_309d = call i32 @function_7630(i32 %arg1)
  store i32 0, i32* @eax, align 4
  br i1 true, label %bb, label %dec_label_pc_30ae

bb:                                               ; preds = %dec_label_pc_3080
  %v1_30ac = call i32 @function_30b3()
  br label %dec_label_pc_30ae

dec_label_pc_30ae:                                ; preds = %bb, %dec_label_pc_3080
  %v2_30ac = phi i32 [ %v1_30ac, %bb ], [ 0, %dec_label_pc_3080 ]
  ret i32 %v2_30ac

; uselistorder directives
  uselistorder i32 %arg1, { 1, 0 }
}

define i32 @function_30b3() local_unnamed_addr {
dec_label_pc_30b3:
  %v0_30b4 = load i32, i32* @eax, align 4
  ret i32 %v0_30b4
}

define i32 @_ZNSt6vectorIhSaIhEEC1EjRKhRKS0_(i32 %arg1, i32 %arg2, i32 %arg3, i32 %arg4) local_unnamed_addr {
dec_label_pc_30b6:
  store i32 %arg1, i32* @eax, align 4
  store i32 %arg2, i32* @edx, align 4
  %v7_30f4 = call i32 @function_7690(i32 %arg1, i32 %arg2, i32 %arg4, i32 %arg4, i32 %arg3, i32 %arg2, i32 %arg1)
  ret i32 %arg2

; uselistorder directives
  uselistorder i32 %arg2, { 3, 2, 1, 0 }
  uselistorder i32 %arg1, { 2, 1, 0 }
}

define i32 @function_3108(i32 %arg1) local_unnamed_addr {
dec_label_pc_3108:
  %v0_3108 = load i32, i32* @ebp, align 4
  %v1_3108 = add i32 %v0_3108, 1
  store i32 %v1_3108, i32* @ebp, align 4
  %v0_310b = load i32, i32* @eax, align 4
  %v2_310b = add i32 %v0_310b, 36
  %v16_310b = and i32 %v2_310b, 255
  %v18_310b = and i32 %v0_310b, -256
  %v19_310b = or i32 %v16_310b, %v18_310b
  store i32 %v19_310b, i32* @eax, align 4
  %v0_310d = call i32 @function_772a()
  %v0_3112 = call i32 @function_312b()
  ret i32 %v0_3112

; uselistorder directives
  uselistorder i32 %v0_310b, { 1, 0 }
}

define i32 @function_3110(i32 %arg1) local_unnamed_addr {
dec_label_pc_3110:
  %tmp = load i32, i32* @eax, align 4
  ret i32 %tmp
}

define i32 @function_3115() local_unnamed_addr {
dec_label_pc_3115:
  %eax.global-to-local = alloca i32, align 4
  %v0_3115 = load i32, i32* %eax.global-to-local, align 4
  ret i32 %v0_3115
}

define i32 @function_312b() local_unnamed_addr {
dec_label_pc_312b:
  %v0_312b = load i32, i32* @ebp, align 4
  %v1_312b = add i32 %v0_312b, -12
  %v2_312b = inttoptr i32 %v1_312b to i32*
  %v3_312b = load i32, i32* %v2_312b, align 4
  %v1_312e = load i32, i32* inttoptr (i32 20 to i32*), align 4
  %v2_312e = xor i32 %v1_312e, %v3_312b
  ret i32 %v2_312e
}

define i32 @_ZN5boost3argILi1EEC1Ev(i32 %arg1) local_unnamed_addr {
dec_label_pc_3142:
  ret i32 0
}

define i32 @_ZN5boost3argILi2EEC1Ev(i32 %arg1) local_unnamed_addr {
dec_label_pc_316c:
  store i32 0, i32* @eax, align 4
  br i1 true, label %bb, label %dec_label_pc_318f

bb:                                               ; preds = %dec_label_pc_316c
  %v2_318d = call i32 @function_3194(i32 %arg1)
  br label %dec_label_pc_318f

dec_label_pc_318f:                                ; preds = %bb, %dec_label_pc_316c
  %v3_318d = phi i32 [ %v2_318d, %bb ], [ 0, %dec_label_pc_316c ]
  ret i32 %v3_318d
}

define i32 @function_3194(i32 %arg1) local_unnamed_addr {
dec_label_pc_3194:
  %v0_3195 = load i32, i32* @eax, align 4
  ret i32 %v0_3195
}

define i32 @_ZN5boost3argILi3EEC1Ev(i32 %arg1) local_unnamed_addr {
dec_label_pc_3196:
  store i32 0, i32* @eax, align 4
  br i1 true, label %bb, label %dec_label_pc_31b9

bb:                                               ; preds = %dec_label_pc_3196
  %v2_31b7 = call i32 @function_31be(i32 %arg1)
  br label %dec_label_pc_31b9

dec_label_pc_31b9:                                ; preds = %bb, %dec_label_pc_3196
  %v3_31b7 = phi i32 [ %v2_31b7, %bb ], [ 0, %dec_label_pc_3196 ]
  ret i32 %v3_31b7
}

define i32 @function_31be(i32 %arg1) local_unnamed_addr {
dec_label_pc_31be:
  %v0_31bf = load i32, i32* @eax, align 4
  ret i32 %v0_31bf
}

define i32 @_ZN5boost3argILi4EEC1Ev(i32 %arg1) local_unnamed_addr {
dec_label_pc_31c0:
  ret i32 0
}

define i32 @_ZN5boost3argILi5EEC1Ev(i32 %arg1) local_unnamed_addr {
dec_label_pc_31ea:
  ret i32 0
}

define i32 @_ZN5boost3argILi6EEC1Ev(i32 %arg1) local_unnamed_addr {
dec_label_pc_3214:
  store i32 0, i32* @eax, align 4
  br i1 true, label %bb, label %dec_label_pc_3237

bb:                                               ; preds = %dec_label_pc_3214
  %v2_3235 = call i32 @function_323c(i32 %arg1)
  br label %dec_label_pc_3237

dec_label_pc_3237:                                ; preds = %bb, %dec_label_pc_3214
  %v3_3235 = phi i32 [ %v2_3235, %bb ], [ 0, %dec_label_pc_3214 ]
  ret i32 %v3_3235
}

define i32 @function_323c(i32 %arg1) local_unnamed_addr {
dec_label_pc_323c:
  %v0_323d = load i32, i32* @eax, align 4
  ret i32 %v0_323d
}

define i32 @_ZN5boost3argILi7EEC1Ev(i32 %arg1) local_unnamed_addr {
dec_label_pc_323e:
  store i32 0, i32* @eax, align 4
  br i1 true, label %bb, label %dec_label_pc_3261

bb:                                               ; preds = %dec_label_pc_323e
  %v2_325f = call i32 @function_3266(i32 %arg1)
  br label %dec_label_pc_3261

dec_label_pc_3261:                                ; preds = %bb, %dec_label_pc_323e
  %v3_325f = phi i32 [ %v2_325f, %bb ], [ 0, %dec_label_pc_323e ]
  ret i32 %v3_325f
}

define i32 @function_3266(i32 %arg1) local_unnamed_addr {
dec_label_pc_3266:
  %v0_3267 = load i32, i32* @eax, align 4
  ret i32 %v0_3267
}

define i32 @_ZN5boost3argILi8EEC1Ev(i32 %arg1) local_unnamed_addr {
dec_label_pc_3268:
  ret i32 0
}

define i32 @_ZN5boost3argILi9EEC1Ev(i32 %arg1) local_unnamed_addr {
dec_label_pc_3292:
  ret i32 0
}

define i32 @_ZN5boost16exception_detail12refcount_ptrINS0_20error_info_containerEE5adoptEPS2_(i32* %arg1, i32 %arg2) local_unnamed_addr {
dec_label_pc_32bc:
  %tmp102 = ptrtoint i32* %arg1 to i32
  store i32 %tmp102, i32* @eax, align 4
  %v1_32df = call i32 @function_72ac(i32 %tmp102)
  store i32 %arg2, i32* %arg1, align 4
  store i32 %tmp102, i32* @eax, align 4
  %v1_32f2 = call i32 @function_7aea(i32 %tmp102)
  ret i32 0

; uselistorder directives
  uselistorder i32 %tmp102, { 3, 2, 1, 0 }
}

define i32 @_ZN5boost16exception_detail12refcount_ptrINS0_20error_info_containerEEC1ERKS3_(i32* %arg1, i32 %arg2) local_unnamed_addr {
dec_label_pc_330a:
  %v1_332a = inttoptr i32 %arg2 to i32*
  %v2_332a = load i32, i32* %v1_332a, align 4
  store i32 %v2_332a, i32* %arg1, align 4
  store i32 0, i32* @eax, align 4
  br i1 true, label %bb, label %dec_label_pc_3348

bb:                                               ; preds = %dec_label_pc_330a
  %tmp102 = ptrtoint i32* %arg1 to i32
  %v2_3346 = call i32 @function_334d(i32 %tmp102)
  br label %dec_label_pc_3348

dec_label_pc_3348:                                ; preds = %bb, %dec_label_pc_330a
  %v3_3346 = phi i32 [ %v2_3346, %bb ], [ 0, %dec_label_pc_330a ]
  ret i32 %v3_3346

; uselistorder directives
  uselistorder i32* %arg1, { 1, 0 }
}

define i32 @function_334d(i32 %arg1) local_unnamed_addr {
dec_label_pc_334d:
  %v0_334e = load i32, i32* @eax, align 4
  ret i32 %v0_334e
}

define i32 @_ZN5boost16exception_detail10bad_alloc_C1Ev(i32* %arg1) local_unnamed_addr {
dec_label_pc_3350:
  %tmp100 = ptrtoint i32* %arg1 to i32
  %v1_3375 = add i32 %tmp100, 20
  store i32 %v1_3375, i32* @eax, align 4
  %v1_337b = call i32 @function_4270(i32 %v1_3375)
  store i32 ptrtoint (%vtable_7f54_type* @global_var_7f54.342 to i32), i32* %arg1, align 4
  %v2_338c = inttoptr i32 %v1_3375 to i32*
  store i32 ptrtoint (i32* @global_var_7f64.343 to i32), i32* %v2_338c, align 4
  ret i32 0
}

define i32 @_ZThn20_N5boost16exception_detail10bad_alloc_D1Ev(i32 %arg1) local_unnamed_addr {
dec_label_pc_33a6:
  %eax.global-to-local = alloca i32, align 4
  %v0_33ab = load i32, i32* %eax.global-to-local, align 4
  ret i32 %v0_33ab
}

define i32 @_ZN5boost16exception_detail10bad_alloc_D1Ev(i32* %arg1) {
dec_label_pc_33b0:
  %tmp99 = ptrtoint i32* %arg1 to i32
  store i32 ptrtoint (%vtable_7f54_type* @global_var_7f54.342 to i32), i32* %arg1, align 4
  %v1_33d3 = add i32 %tmp99, 20
  %v2_33d3 = inttoptr i32 %v1_33d3 to i32*
  store i32 ptrtoint (i32* @global_var_7f64.343 to i32), i32* %v2_33d3, align 4
  ret i32 %v1_33d3
}

define i32 @function_341a() local_unnamed_addr {
dec_label_pc_341a:
  %eax.global-to-local = alloca i32, align 4
  %ecx.global-to-local = alloca i32, align 4
  %v0_341a = load i32, i32* %ecx.global-to-local, align 4
  %v1_341a = add i32 %v0_341a, -1
  store i32 %v1_341a, i32* %ecx.global-to-local, align 4
  %v0_341c = load i32, i32* %eax.global-to-local, align 4
  ret i32 %v0_341c
}

define i32 @_ZThn20_N5boost16exception_detail10bad_alloc_D0Ev(i32 %arg1) local_unnamed_addr {
dec_label_pc_341e:
  %v4_341e = add i32 %arg1, -20
  %v1_3423 = call i32 @_ZN5boost16exception_detail10bad_alloc_D0Ev(i32 %v4_341e)
  ret i32 %v1_3423
}

define i32 @_ZN5boost16exception_detail10bad_alloc_D0Ev(i32 %arg1) {
dec_label_pc_3426:
  store i32 %arg1, i32* @eax, align 4
  %v1_3443 = call i32 @function_67ce(i32 %arg1)
  ret i32 %arg1
}

define i32 @function_3452() local_unnamed_addr {
dec_label_pc_3452:
  %eax.global-to-local = alloca i32, align 4
  %ebx.global-to-local = alloca i32, align 4
  %v0_3452 = load i32, i32* %ebx.global-to-local, align 4
  %v1_3452 = add i32 %v0_3452, 862319685
  %v2_3452 = inttoptr i32 %v1_3452 to i32*
  %v3_3452 = load i32, i32* %v2_3452, align 4
  %v4_3452 = add i32 %v3_3452, -1
  store i32 %v4_3452, i32* %v2_3452, align 4
  %v0_3458 = load i32, i32* %eax.global-to-local, align 4
  %v1_3458 = add i32 %v0_3458, 20
  store i32 %v1_3458, i32* %eax.global-to-local, align 4
  ret i32 %v1_3458
}

define i32 @_ZNSt9bad_allocC1ERKS_(i32 %arg1, i32 %arg2) local_unnamed_addr {
dec_label_pc_3466:
  ret i32 %arg1
}

define i32 @function_34af() local_unnamed_addr {
dec_label_pc_34af:
  %eax.global-to-local = alloca i32, align 4
  %v0_34b0 = load i32, i32* %eax.global-to-local, align 4
  ret i32 %v0_34b0
}

define i32 @_ZN5boost16exception_detail10bad_alloc_C1ERKS1_(i32* %arg1, i32 %arg2) local_unnamed_addr {
dec_label_pc_34b2:
  %tmp103 = ptrtoint i32* %arg1 to i32
  store i32 %tmp103, i32* @eax, align 4
  %v2_34dc = call i32 @function_5390(i32 %tmp103, i32 %arg2)
  %v1_34e4 = add i32 %arg2, 20
  %v1_34ea = add i32 %tmp103, 20
  %v2_34f4 = call i32 @function_6918(i32 %v1_34ea, i32 %v1_34e4)
  store i32 ptrtoint (%vtable_7f54_type* @global_var_7f54.342 to i32), i32* %arg1, align 4
  %v2_3505 = inttoptr i32 %v1_34ea to i32*
  store i32 ptrtoint (i32* @global_var_7f64.343 to i32), i32* %v2_3505, align 4
  store i32 0, i32* @eax, align 4
  br i1 true, label %bb, label %dec_label_pc_3518

bb:                                               ; preds = %dec_label_pc_34b2
  %v1_3516 = call i32 @function_351d()
  br label %dec_label_pc_3518

dec_label_pc_3518:                                ; preds = %bb, %dec_label_pc_34b2
  %v2_3516 = phi i32 [ %v1_3516, %bb ], [ 0, %dec_label_pc_34b2 ]
  ret i32 %v2_3516

; uselistorder directives
  uselistorder i32 %tmp103, { 2, 1, 0 }
  uselistorder i32 (i32)* @_ZN5boost16exception_detail10bad_alloc_D0Ev, { 1, 0 }
  uselistorder i32 ptrtoint (%vtable_7f54_type* @global_var_7f54.342 to i32), { 2, 1, 0 }
  uselistorder i32 %arg2, { 1, 0 }
}

define i32 @function_351d() local_unnamed_addr {
dec_label_pc_351d:
  %v0_351e = load i32, i32* @eax, align 4
  ret i32 %v0_351e
}

define i32 @_ZN5boost16exception_detail10clone_implINS0_10bad_alloc_EEC1ERKS3_(i32* %arg1, i32 %arg2) local_unnamed_addr {
dec_label_pc_3520:
  %tmp103 = ptrtoint i32* %arg1 to i32
  store i32 %tmp103, i32* @eax, align 4
  %v2_354a = call i32 @function_69d2(i32 %tmp103, i32 %arg2)
  %v1_3558 = add i32 %tmp103, 24
  store i32 ptrtoint (%vtable_7ef4_type* @global_var_7ef4.344 to i32), i32* %arg1, align 4
  %v1_3573 = add i32 %tmp103, 20
  %v2_3573 = inttoptr i32 %v1_3573 to i32*
  store i32 ptrtoint (i32* @global_var_7f0c.345 to i32), i32* %v2_3573, align 4
  %v2_357d = inttoptr i32 %v1_3558 to i32*
  store i32 ptrtoint (i32* @global_var_7f20.346 to i32), i32* %v2_357d, align 4
  ret i32 0

; uselistorder directives
  uselistorder i32 %tmp103, { 3, 2, 1, 0 }
}

define i32 @_ZN5boost16exception_detail13get_bad_allocILi42EEENS_10shared_ptrIKNS0_10clone_baseEEEv(i32 %arg1) local_unnamed_addr {
dec_label_pc_359c:
  %stack_var_-36 = alloca i32, align 4
  %stack_var_-40 = alloca i32, align 4
  %stack_var_-44 = alloca i32, align 4
  %stack_var_-96 = alloca i32, align 4
  %stack_var_-68 = alloca i32, align 4
  %v2_35b6 = ptrtoint i32* %stack_var_-68 to i32
  store i32 %v2_35b6, i32* @eax, align 4
  %v1_35bc = call i32 @function_68ec(i32 %v2_35b6)
  %v2_35c8 = ptrtoint i32* %stack_var_-96 to i32
  %v3_35ce = call i32 @function_7e48(i32 %v2_35c8, i32 %v2_35b6)
  %v2_35db = ptrtoint i32* %stack_var_-44 to i32
  store i32 %v2_35db, i32* @eax, align 4
  %v3_35e1 = call i32 @function_4684(i32 %v2_35db, i32 81)
  %v2_35ee = ptrtoint i32* %stack_var_-40 to i32
  store i32 %v2_35ee, i32* @eax, align 4
  %v3_35f4 = call i32 @function_464c(i32 %v2_35ee, i32 ptrtoint ([54 x i8]* @global_var_19cc.347 to i32))
  %v2_3601 = ptrtoint i32* %stack_var_-36 to i32
  store i32 %v2_3601, i32* @eax, align 4
  %v3_3607 = call i32 @function_4614(i32 %v2_3601, i32 ptrtoint ([169 x i8]* @global_var_1a8c.348 to i32))
  store i32 %v2_35c8, i32* @eax, align 4
  %v3_3619 = call i32 @function_7fce(i32 %v2_35c8, i32 %v2_3601)
  store i32 %v3_3619, i32* @eax, align 4
  %v3_3628 = call i32 @function_8010(i32 %v3_3619, i32 %v2_35ee)
  store i32 %v3_3628, i32* @eax, align 4
  %v3_3637 = call i32 @function_8052(i32 %v3_3628, i32 %v2_35db)
  %v2_3641 = load i8, i8* inttoptr (i32 13724 to i8*), align 4
  %v3_3641 = zext i8 %v2_3641 to i32
  ret i32 %v3_3641
}

define i32 @function_366f() local_unnamed_addr {
dec_label_pc_366f:
  %eax.global-to-local = alloca i32, align 4
  %v0_366f = load i32, i32* %eax.global-to-local, align 4
  ret i32 %v0_366f
}

define i32 @function_36f2() local_unnamed_addr {
dec_label_pc_36f2:
  %eax.global-to-local = alloca i32, align 4
  %ebx.global-to-local = alloca i32, align 4
  %v0_36f2 = load i32, i32* %eax.global-to-local, align 4
  %v0_36f4 = load i32, i32* %ebx.global-to-local, align 4
  store i32 %v0_36f2, i32* @ebx, align 4
  %v1_36fe = call i32 @function_3702(i32 %v0_36f4)
  store i32 %v1_36fe, i32* %eax.global-to-local, align 4
  ret i32 %v1_36fe
}

define i32 @function_3700() local_unnamed_addr {
dec_label_pc_3700:
  %eax.global-to-local = alloca i32, align 4
  %v0_3700 = load i32, i32* %eax.global-to-local, align 4
  ret i32 %v0_3700
}

define i32 @function_3702(i32 %arg1) local_unnamed_addr {
dec_label_pc_3702:
  %v0_3702 = load i32, i32* @esi, align 4
  %v4_3704 = trunc i32 %v0_3702 to i8
  %v5_3704 = icmp eq i8 %v4_3704, 0
  %v1_3706 = icmp eq i1 %v5_3704, false
  br i1 %v1_3706, label %bb, label %dec_label_pc_3708

bb:                                               ; preds = %dec_label_pc_3702
  %v2_3706 = call i32 @function_3714()
  br label %dec_label_pc_3708

dec_label_pc_3708:                                ; preds = %bb, %dec_label_pc_3702
  %v2_3708 = phi i32 [ %v2_3706, %bb ], [ %v0_3702, %dec_label_pc_3702 ]
  ret i32 %v2_3708
}

define i32 @function_3714() local_unnamed_addr {
dec_label_pc_3714:
  %v0_3714 = call i32 @function_3718()
  ret i32 %v0_3714
}

define i32 @function_3716() local_unnamed_addr {
dec_label_pc_3716:
  %eax.global-to-local = alloca i32, align 4
  %v0_3716 = load i32, i32* %eax.global-to-local, align 4
  ret i32 %v0_3716
}

define i32 @function_3718() local_unnamed_addr {
dec_label_pc_3718:
  %v0_3718 = load i32, i32* @ebp, align 4
  %v1_3718 = add i32 %v0_3718, -92
  store i32 %v1_3718, i32* @eax, align 4
  %v1_371e = call i32 @function_7f08(i32 %v1_3718)
  %v0_3723 = call i32 @function_3727()
  ret i32 %v0_3723

; uselistorder directives
  uselistorder i32 -92, { 0, 2, 1, 3, 4, 5 }
}

define i32 @function_3725() local_unnamed_addr {
dec_label_pc_3725:
  %eax.global-to-local = alloca i32, align 4
  %v0_3725 = load i32, i32* %eax.global-to-local, align 4
  ret i32 %v0_3725
}

define i32 @function_3727() local_unnamed_addr {
dec_label_pc_3727:
  %v0_3727 = load i32, i32* @ebp, align 4
  %v1_3727 = add i32 %v0_3727, -64
  store i32 %v1_3727, i32* @eax, align 4
  %v1_372d = call i32 @function_694c(i32 %v1_3727)
  %v0_3732 = load i32, i32* @ebx, align 4
  ret i32 %v0_3732

; uselistorder directives
  uselistorder i32 -64, { 0, 4, 5, 1, 2, 3 }
}

define i32 @function_373c() local_unnamed_addr {
dec_label_pc_373c:
  %eax.global-to-local = alloca i32, align 4
  %tmp96 = load i32, i32* %eax.global-to-local, align 4
  ret i32 %tmp96
}

define i32 @function_3741(i32 %arg1, i32 %arg2, i32 %arg3, i32 %arg4) local_unnamed_addr {
dec_label_pc_3741:
  %eax.global-to-local = alloca i32, align 4
  %v0_3748 = load i32, i32* %eax.global-to-local, align 4
  ret i32 %v0_3748
}

define i32 @_Z3REFI9CFlatDataERT_RKS1_(i32 %arg1) local_unnamed_addr {
dec_label_pc_374b:
  store i32 %arg1, i32* @eax, align 4
  br i1 true, label %bb, label %dec_label_pc_3771

bb:                                               ; preds = %dec_label_pc_374b
  %v2_376f = call i32 @function_3776(i32 %arg1)
  br label %dec_label_pc_3771

dec_label_pc_3771:                                ; preds = %bb, %dec_label_pc_374b
  %v3_376f = phi i32 [ %v2_376f, %bb ], [ %arg1, %dec_label_pc_374b ]
  ret i32 %v3_376f
}

define i32 @function_3776(i32 %arg1) local_unnamed_addr {
dec_label_pc_3776:
  %v0_3777 = load i32, i32* @eax, align 4
  ret i32 %v0_3777
}

define i32 @_ZNSt6vectorIhSaIhEEixEj(i32* %arg1, i32 %arg2) local_unnamed_addr {
dec_label_pc_3778:
  %v2_3798 = load i32, i32* %arg1, align 4
  %v5_379a = add i32 %v2_3798, %arg2
  store i32 %v5_379a, i32* @eax, align 4
  br i1 true, label %bb, label %dec_label_pc_37a9

bb:                                               ; preds = %dec_label_pc_3778
  %tmp6 = ptrtoint i32* %arg1 to i32
  %v3_37a7 = call i32 @function_37ae(i32 %arg2, i32 %tmp6)
  br label %dec_label_pc_37a9

dec_label_pc_37a9:                                ; preds = %bb, %dec_label_pc_3778
  %v4_37a7 = phi i32 [ %v3_37a7, %bb ], [ %v5_379a, %dec_label_pc_3778 ]
  ret i32 %v4_37a7

; uselistorder directives
  uselistorder i32 %arg2, { 1, 0 }
  uselistorder i32* %arg1, { 1, 0 }
}

define i32 @function_37ae(i32 %arg1, i32 %arg2) local_unnamed_addr {
dec_label_pc_37ae:
  %v0_37af = load i32, i32* @eax, align 4
  ret i32 %v0_37af
}

define i32 @_ZNSt6vectorIhSaIhEEC1IPKhEET_S5_RKS0_(i32 %arg1, i32 %arg2, i32 %arg3, i32 %arg4) local_unnamed_addr {
dec_label_pc_37b0:
  %v2_37e7 = call i32 @unknown_83fc(i32 %arg1, i32 %arg4)
  %v0_37ec = load i32, i32* @ebx, align 4
  %sext = mul i32 %v0_37ec, 16777216
  %v4_3804 = sdiv i32 %sext, 16777216
  %v5_3804 = call i32 @unknown_843e(i32 %arg1, i32 %arg2, i32 %arg3, i32 %v4_3804)
  %v0_3809 = call i32 @function_3822()
  ret i32 %v0_3809

; uselistorder directives
  uselistorder i32 %arg1, { 1, 0 }
}

define i32 @function_380c() local_unnamed_addr {
dec_label_pc_380c:
  %eax.global-to-local = alloca i32, align 4
  %v0_380c = load i32, i32* %eax.global-to-local, align 4
  ret i32 %v0_380c
}

define i32 @function_3812(i32 %arg1, i32 %arg2, i32 %arg3) local_unnamed_addr {
dec_label_pc_3812:
  %v0_3812 = load i32, i32* @eax, align 4
  %v1_3812 = trunc i32 %v0_3812 to i8
  %v2_3812 = and i8 %v1_3812, ptrtoint (i8* @global_var_e8.335 to i8)
  %v8_3812 = zext i8 %v2_3812 to i32
  %v10_3812 = and i32 %v0_3812, -256
  %v11_3812 = or i32 %v8_3812, %v10_3812
  %v3_3814 = mul i32 %v11_3812, 2
  %v4_3814 = inttoptr i32 %v3_3814 to i8*
  %v5_3814 = load i8, i8* %v4_3814, align 2
  %v8_3814 = sub i8 %v5_3814, %v2_3812
  store i8 %v8_3814, i8* %v4_3814, align 2
  %v0_3818 = load i32, i32* @ebx, align 4
  ret i32 %v0_3818
}

define i32 @function_3822() local_unnamed_addr {
dec_label_pc_3822:
  %v0_3822 = load i32, i32* @ebp, align 4
  %v1_3822 = add i32 %v0_3822, -12
  %v2_3822 = inttoptr i32 %v1_3822 to i32*
  %v3_3822 = load i32, i32* %v2_3822, align 4
  %v1_3825 = load i32, i32* inttoptr (i32 20 to i32*), align 4
  %v2_3825 = xor i32 %v1_3825, %v3_3822
  ret i32 %v2_3825
}

define i32 @_ZNSt6vectorIhSaIhEE5clearEv(i32* %arg1) local_unnamed_addr {
dec_label_pc_383a:
  %tmp5 = ptrtoint i32* %arg1 to i32
  %v2_3854 = load i32, i32* %arg1, align 4
  %v2_3860 = call i32 @unknown_83fe(i32 %tmp5, i32 %v2_3854)
  store i32 0, i32* @eax, align 4
  br i1 true, label %bb, label %dec_label_pc_3871

bb:                                               ; preds = %dec_label_pc_383a
  %v1_386f = call i32 @function_3876()
  br label %dec_label_pc_3871

dec_label_pc_3871:                                ; preds = %bb, %dec_label_pc_383a
  %v2_386f = phi i32 [ %v1_386f, %bb ], [ 0, %dec_label_pc_383a ]
  ret i32 %v2_386f
}

define i32 @function_3876() local_unnamed_addr {
dec_label_pc_3876:
  %v0_3877 = load i32, i32* @eax, align 4
  ret i32 %v0_3877
}

define i32 @_ZN9__gnu_cxxgeIPKhSt6vectorIhSaIhEEEEbRKNS_17__normal_iteratorIT_T0_EESB_(i32 %arg1, i32 %arg2) local_unnamed_addr {
dec_label_pc_3878:
  %v1_389c = call i32 @unknown_8560(i32 %arg1)
  %v1_38a9 = call i32 @unknown_8560(i32 %arg2)
  %v1_38ae = inttoptr i32 %v1_38a9 to i32*
  %v2_38ae = load i32, i32* %v1_38ae, align 4
  ret i32 %v2_38ae

; uselistorder directives
  uselistorder i32 (i32)* @unknown_8560, { 1, 0 }
}

define i32 @function_38b2(i32 %arg1, i32 %arg2) local_unnamed_addr {
dec_label_pc_38b2:
  %v0_38b2 = load i1, i1* @cf, align 1
  %v1_38b2 = icmp eq i1 %v0_38b2, false
  %v2_38b2 = zext i1 %v1_38b2 to i32
  %v3_38b2 = load i32, i32* @eax, align 4
  %v4_38b2 = and i32 %v3_38b2, -256
  %v5_38b2 = or i32 %v4_38b2, %v2_38b2
  store i32 %v5_38b2, i32* @eax, align 4
  %v0_38b5 = load i32, i32* @ebp, align 4
  %v1_38b5 = add i32 %v0_38b5, -12
  %v2_38b5 = inttoptr i32 %v1_38b5 to i32*
  %v3_38b5 = load i32, i32* %v2_38b5, align 4
  %v1_38b8 = load i32, i32* inttoptr (i32 20 to i32*), align 4
  %v3_38b8 = icmp eq i32 %v1_38b8, %v3_38b5
  br i1 %v3_38b8, label %bb, label %dec_label_pc_38c1

bb:                                               ; preds = %dec_label_pc_38b2
  %v1_38bf = call i32 @function_38c6()
  br label %dec_label_pc_38c1

dec_label_pc_38c1:                                ; preds = %bb, %dec_label_pc_38b2
  %v2_38bf = phi i32 [ %v1_38bf, %bb ], [ %v5_38b2, %dec_label_pc_38b2 ]
  ret i32 %v2_38bf
}

define i32 @function_38c6() local_unnamed_addr {
dec_label_pc_38c6:
  %v0_38cb = load i32, i32* @eax, align 4
  ret i32 %v0_38cb
}

define i32 @function_38c8(i32 %arg1) local_unnamed_addr {
dec_label_pc_38c8:
  %tmp = load i32, i32* @eax, align 4
  ret i32 %tmp
}

define i32 @_ZN9__gnu_cxxmiIPKhSt6vectorIhSaIhEEEENS_17__normal_iteratorIT_T0_E15difference_typeERKS9_SC_(i32 %arg1, i32 %arg2) local_unnamed_addr {
dec_label_pc_38cc:
  %v1_38f0 = call i32 @unknown_85b4(i32 %arg1)
  %v1_38f5 = inttoptr i32 %v1_38f0 to i32*
  %v2_38f5 = load i32, i32* %v1_38f5, align 4
  %v1_38ff = call i32 @unknown_85b4(i32 %arg2)
  %v1_3904 = inttoptr i32 %v1_38ff to i32*
  %v2_3904 = load i32, i32* %v1_3904, align 4
  %v2_3908 = sub i32 %v2_38f5, %v2_3904
  store i32 %v2_3908, i32* @eax, align 4
  br i1 true, label %bb, label %dec_label_pc_3918

bb:                                               ; preds = %dec_label_pc_38cc
  %v1_3916 = call i32 @function_391d()
  br label %dec_label_pc_3918

dec_label_pc_3918:                                ; preds = %bb, %dec_label_pc_38cc
  %v2_3916 = phi i32 [ %v1_3916, %bb ], [ %v2_3908, %dec_label_pc_38cc ]
  ret i32 %v2_3916

; uselistorder directives
  uselistorder i32 (i32)* @unknown_85b4, { 1, 0 }
}

define i32 @function_391d() local_unnamed_addr {
dec_label_pc_391d:
  %v0_3922 = load i32, i32* @eax, align 4
  ret i32 %v0_3922
}

define i32 @_ZN9__gnu_cxx17__normal_iteratorIPKhSt6vectorIhSaIhEEEppEi(i32 %arg1, i32* %arg2, i32 %arg3) local_unnamed_addr {
dec_label_pc_3924:
  %stack_var_-20 = alloca i32, align 4
  %v2_394a = load i32, i32* %arg2, align 4
  store i32 %v2_394a, i32* %stack_var_-20, align 4
  %v1_3952 = add i32 %v2_394a, 1
  store i32 %v1_3952, i32* %arg2, align 4
  store i32 %arg1, i32* @eax, align 4
  br i1 true, label %bb, label %dec_label_pc_3978

bb:                                               ; preds = %dec_label_pc_3924
  %v2_394f = ptrtoint i32* %stack_var_-20 to i32
  %v3_3976 = call i32 @function_397d(i32 %arg1, i32 %v2_394f)
  br label %dec_label_pc_3978

dec_label_pc_3978:                                ; preds = %bb, %dec_label_pc_3924
  %v4_3976 = phi i32 [ %v3_3976, %bb ], [ %arg1, %dec_label_pc_3924 ]
  ret i32 %v4_3976
}

define i32 @function_397d(i32 %arg1, i32 %arg2) local_unnamed_addr {
dec_label_pc_397d:
  %v0_397e = load i32, i32* @eax, align 4
  ret i32 %v0_397e
}

define i32 @_ZNK9__gnu_cxx17__normal_iteratorIPKhSt6vectorIhSaIhEEEdeEv(i32* %arg1) local_unnamed_addr {
dec_label_pc_3982:
  %ebp.global-to-local = alloca i32, align 4
  %v0_3982 = load i32, i32* %ebp.global-to-local, align 4
  %v2_399c = load i32, i32* %arg1, align 4
  store i32 %v0_3982, i32* %ebp.global-to-local, align 4
  ret i32 %v2_399c
}

define i32 @_ZN9__gnu_cxx17__normal_iteratorIPKhSt6vectorIhSaIhEEEpLERKi(i32* %arg1, i32 %arg2) local_unnamed_addr {
dec_label_pc_39b2:
  %ebp.global-to-local = alloca i32, align 4
  %tmp102 = ptrtoint i32* %arg1 to i32
  %v0_39b2 = load i32, i32* %ebp.global-to-local, align 4
  %v2_39d2 = load i32, i32* %arg1, align 4
  %v1_39d7 = inttoptr i32 %arg2 to i32*
  %v2_39d7 = load i32, i32* %v1_39d7, align 4
  %v2_39d9 = add i32 %v2_39d7, %v2_39d2
  store i32 %v2_39d9, i32* %arg1, align 4
  store i32 %v0_39b2, i32* %ebp.global-to-local, align 4
  ret i32 %tmp102
}

define i32 @_ZNK9__gnu_cxx17__normal_iteratorIPKhSt6vectorIhSaIhEEEplERKi(i32 %arg1, i32* %arg2, i32 %arg3) local_unnamed_addr {
dec_label_pc_39f6:
  %stack_var_-20 = alloca i32, align 4
  %v2_3a1c = load i32, i32* %arg2, align 4
  %v1_3a21 = inttoptr i32 %arg3 to i32*
  %v2_3a21 = load i32, i32* %v1_3a21, align 4
  %v2_3a23 = add i32 %v2_3a21, %v2_3a1c
  store i32 %v2_3a23, i32* %stack_var_-20, align 4
  %v2_3a28 = ptrtoint i32* %stack_var_-20 to i32
  store i32 %arg1, i32* @eax, align 4
  %v2_3a35 = call i32 @function_7bc8(i32 %arg1, i32 %v2_3a28)
  store i32 %arg1, i32* @eax, align 4
  br i1 true, label %bb, label %dec_label_pc_3a49

bb:                                               ; preds = %dec_label_pc_39f6
  %v1_3a47 = call i32 @function_3a4e()
  br label %dec_label_pc_3a49

dec_label_pc_3a49:                                ; preds = %bb, %dec_label_pc_39f6
  %v2_3a47 = phi i32 [ %v1_3a47, %bb ], [ %arg1, %dec_label_pc_39f6 ]
  ret i32 %v2_3a47

; uselistorder directives
  uselistorder i32 %arg1, { 0, 3, 2, 1 }
}

define i32 @function_3a4e() local_unnamed_addr {
dec_label_pc_3a4e:
  %v0_3a4f = load i32, i32* @eax, align 4
  ret i32 %v0_3a4f
}

define i32 @_ZNSt6vectorIhSaIhEE6assignIN9__gnu_cxx17__normal_iteratorIPKhS1_EEEEvT_S8_(i32 %arg1, i32 %arg2, i32 %arg3) local_unnamed_addr {
dec_label_pc_3a52:
  %edx.global-to-local = alloca i32, align 4
  %v0_3a75 = load i32, i32* %edx.global-to-local, align 4
  %sext = mul i32 %v0_3a75, 16777216
  %v7_3a8d = sdiv i32 %sext, 16777216
  %v8_3a8d = call i32 @unknown_8768(i32 %arg1, i32 %arg2, i32 %arg3, i32 %v7_3a8d, i32 %arg3, i32 %arg2, i32 %arg1)
  ret i32 0

; uselistorder directives
  uselistorder i32 %arg3, { 1, 0 }
  uselistorder i32 %arg2, { 1, 0 }
  uselistorder i32 %arg1, { 1, 0 }
}

define i32 @_ZN9__gnu_cxxltIPKhSt6vectorIhSaIhEEEEbRKNS_17__normal_iteratorIT_T0_EESB_(i32 %arg1, i32 %arg2) local_unnamed_addr {
dec_label_pc_3aa5:
  %v1_3ac9 = call i32 @unknown_878d(i32 %arg1)
  %v1_3ace = inttoptr i32 %v1_3ac9 to i32*
  %v2_3ace = load i32, i32* %v1_3ace, align 4
  %v1_3ad6 = call i32 @unknown_878d(i32 %arg2)
  %v1_3adb = inttoptr i32 %v1_3ad6 to i32*
  %v2_3adb = load i32, i32* %v1_3adb, align 4
  %v7_3add = icmp ult i32 %v2_3ace, %v2_3adb
  %v1_3adf = zext i1 %v7_3add to i32
  %v3_3adf = and i32 %v2_3adb, -256
  %v4_3adf = or i32 %v1_3adf, %v3_3adf
  ret i32 %v4_3adf

; uselistorder directives
  uselistorder i32 (i32)* @unknown_878d, { 1, 0 }
}

define i32 @_ZNKSt6vectorI6CTxOutSaIS0_EE4sizeEv(i32* %arg1) local_unnamed_addr {
dec_label_pc_3afa:
  %tmp4 = ptrtoint i32* %arg1 to i32
  %v1_3b14 = add i32 %tmp4, 4
  %v2_3b14 = inttoptr i32 %v1_3b14 to i32*
  %v3_3b14 = load i32, i32* %v2_3b14, align 4
  %v2_3b1c = load i32, i32* %arg1, align 4
  %v2_3b20 = sub i32 %v3_3b14, %v2_3b1c
  store i32 %v2_3b20, i32* @ecx, align 4
  %v2_3b24 = sdiv i32 %v2_3b20, 4
  %v3_3b27 = mul i32 %v2_3b24, -858993459
  store i32 %v3_3b27, i32* @eax, align 4
  br i1 true, label %bb, label %dec_label_pc_3b39

bb:                                               ; preds = %dec_label_pc_3afa
  %v2_3b37 = call i32 @function_3b3e(i32 %tmp4)
  br label %dec_label_pc_3b39

dec_label_pc_3b39:                                ; preds = %bb, %dec_label_pc_3afa
  %v3_3b37 = phi i32 [ %v2_3b37, %bb ], [ %v3_3b27, %dec_label_pc_3afa ]
  ret i32 %v3_3b37
}

define i32 @function_3b3e(i32 %arg1) local_unnamed_addr {
dec_label_pc_3b3e:
  %v0_3b3f = load i32, i32* @eax, align 4
  ret i32 %v0_3b3f
}

define i32 @_ZNKSt6vectorI6CTxOutSaIS0_EEixEj(i32* %arg1, i32 %arg2) local_unnamed_addr {
dec_label_pc_3b40:
  %v2_3b60 = load i32, i32* %arg1, align 4
  %v2_3b6c = mul i32 %arg2, 20
  %v2_3b6f = add i32 %v2_3b60, %v2_3b6c
  ret i32 %v2_3b6f
}

define i32 @_ZSt3minIjERKT_S2_S2_(i32* %arg1, i32 %arg2) local_unnamed_addr {
dec_label_pc_3b84:
  %tmp5 = ptrtoint i32* %arg1 to i32
  %v1_3ba4 = inttoptr i32 %arg2 to i32*
  %v2_3ba4 = load i32, i32* %v1_3ba4, align 4
  %v2_3ba9 = load i32, i32* %arg1, align 4
  %v7_3bab = icmp ult i32 %v2_3ba4, %v2_3ba9
  %v1_3bad = icmp eq i1 %v7_3bab, false
  %storemerge = select i1 %v1_3bad, i32 %tmp5, i32 %arg2
  ret i32 %storemerge

; uselistorder directives
  uselistorder i32 %arg2, { 1, 0 }
}

define i32 @function_3bc2(i32 %arg1) local_unnamed_addr {
dec_label_pc_3bc2:
  %v0_3bc2 = load i32, i32* @eax, align 4
  %v1_3bc2 = add i32 %v0_3bc2, -792
  ret i32 %v1_3bc2
}

define i32 @_ZN11CDataStreamlsI9COutPointEERS_RKT_(i32 %arg1, i32 %arg2) local_unnamed_addr {
dec_label_pc_3bca:
  %v1_3bea = add i32 %arg1, 24
  %v2_3bea = inttoptr i32 %v1_3bea to i32*
  %v3_3bea = load i32, i32* %v2_3bea, align 4
  %v1_3bf0 = add i32 %arg1, 20
  %v2_3bf0 = inttoptr i32 %v1_3bf0 to i32*
  %v3_3bf0 = load i32, i32* %v2_3bf0, align 4
  %v4_3c08 = call i32 @unknown_8a2d(i32 %arg1, i32 %arg2, i32 %v3_3bf0, i32 %v3_3bea)
  store i32 %arg1, i32* @eax, align 4
  br i1 true, label %bb, label %dec_label_pc_3c1c

bb:                                               ; preds = %dec_label_pc_3bca
  %v1_3c1a = call i32 @function_3c21()
  br label %dec_label_pc_3c1c

dec_label_pc_3c1c:                                ; preds = %bb, %dec_label_pc_3bca
  %v2_3c1a = phi i32 [ %v1_3c1a, %bb ], [ %arg1, %dec_label_pc_3bca ]
  ret i32 %v2_3c1a

; uselistorder directives
  uselistorder i32 %arg1, { 0, 4, 3, 2, 1 }
}

define i32 @function_3c21() local_unnamed_addr {
dec_label_pc_3c21:
  %v0_3c22 = load i32, i32* @eax, align 4
  ret i32 %v0_3c22
}

define i32 @_ZNSt6vectorIhSaIhEEC1IN9__gnu_cxx17__normal_iteratorIPcS_Ic25zero_after_free_allocatorIcEEEEEET_SA_RKS0_(i32 %arg1, i32 %arg2, i32 %arg3, i32 %arg4) local_unnamed_addr {
dec_label_pc_3c24:
  %v2_3c5b = call i32 @unknown_8870(i32 %arg1, i32 %arg4)
  %v0_3c60 = load i32, i32* @ebx, align 4
  %sext = mul i32 %v0_3c60, 16777216
  %v4_3c78 = sdiv i32 %sext, 16777216
  %v5_3c78 = call i32 @unknown_8ae4(i32 %arg1, i32 %arg2, i32 %arg3, i32 %v4_3c78)
  ret i32 0

; uselistorder directives
  uselistorder i32 %arg1, { 1, 0 }
}

define i32 @_ZNK9base_uintILj256EE5beginEv(i32 %arg1) local_unnamed_addr {
dec_label_pc_3cae:
  store i32 %arg1, i32* @eax, align 4
  br i1 true, label %bb, label %dec_label_pc_3cd4

bb:                                               ; preds = %dec_label_pc_3cae
  %v2_3cd2 = call i32 @function_3cd9(i32 %arg1)
  br label %dec_label_pc_3cd4

dec_label_pc_3cd4:                                ; preds = %bb, %dec_label_pc_3cae
  %v3_3cd2 = phi i32 [ %v2_3cd2, %bb ], [ %arg1, %dec_label_pc_3cae ]
  ret i32 %v3_3cd2
}

define i32 @function_3cd9(i32 %arg1) local_unnamed_addr {
dec_label_pc_3cd9:
  %v0_3cda = load i32, i32* @eax, align 4
  ret i32 %v0_3cda
}

define i32 @_ZNK9base_uintILj256EE3endEv(i32 %arg1) local_unnamed_addr {
dec_label_pc_3cdc:
  %v1_3cf6 = add i32 %arg1, 32
  ret i32 %v1_3cf6

; uselistorder directives
  uselistorder i32 32, { 1, 0 }
}

define i32 @_ZNSt6vectorIS_IhSaIhEESaIS1_EEC1Ev(i32 %arg1) local_unnamed_addr {
dec_label_pc_3d0c:
  %v1_3d29 = call i32 @unknown_8c5c(i32 %arg1)
  ret i32 0
}

define i32 @_ZNSt6vectorIS_IhSaIhEESaIS1_EED1Ev(i32* %arg1) local_unnamed_addr {
dec_label_pc_3d42:
  %tmp6 = ptrtoint i32* %arg1 to i32
  %v1_3d60 = call i32 @unknown_8d52(i32 %tmp6)
  %v1_3d68 = add i32 %tmp6, 4
  %v2_3d68 = inttoptr i32 %v1_3d68 to i32*
  %v3_3d68 = load i32, i32* %v2_3d68, align 4
  %v2_3d6e = load i32, i32* %arg1, align 4
  %v3_3d7b = call i32 @unknown_8d7f(i32 %v2_3d6e, i32 %v3_3d68, i32 %v1_3d60)
  %v1_3d86 = call i32 @unknown_8cc8(i32 %tmp6)
  store i32 0, i32* @eax, align 4
  br i1 true, label %bb, label %dec_label_pc_3db0

bb:                                               ; preds = %dec_label_pc_3d42
  %v1_3d95 = call i32 @function_3db5()
  br label %dec_label_pc_3db0

dec_label_pc_3db0:                                ; preds = %dec_label_pc_3d42, %bb
  %v0_3d97 = phi i32 [ 0, %dec_label_pc_3d42 ], [ %v1_3d95, %bb ]
  ret i32 %v0_3d97

; uselistorder directives
  uselistorder i32 %tmp6, { 2, 1, 0 }
  uselistorder label %dec_label_pc_3db0, { 1, 0 }
}

define i32 @function_3d99() local_unnamed_addr {
dec_label_pc_3d99:
  %eax.global-to-local = alloca i32, align 4
  %ebp.global-to-local = alloca i32, align 4
  %ebx.global-to-local = alloca i32, align 4
  %v0_3d99 = load i32, i32* %eax.global-to-local, align 4
  store i32 %v0_3d99, i32* %ebx.global-to-local, align 4
  %v0_3d9b = load i32, i32* %ebp.global-to-local, align 4
  %v1_3d9b = add i32 %v0_3d9b, -28
  %v2_3d9b = inttoptr i32 %v1_3d9b to i32*
  %v3_3d9b = load i32, i32* %v2_3d9b, align 4
  store i32 %v3_3d9b, i32* %eax.global-to-local, align 4
  %v1_3da1 = call i32 @unknown_8cc8(i32 %v3_3d9b)
  %v0_3da6 = load i32, i32* %ebx.global-to-local, align 4
  store i32 %v0_3da6, i32* %eax.global-to-local, align 4
  ret i32 %v0_3da6

; uselistorder directives
  uselistorder i32 (i32)* @unknown_8cc8, { 1, 0 }
}

define i32 @function_3db5() local_unnamed_addr {
dec_label_pc_3db5:
  %v0_3dba = load i32, i32* @eax, align 4
  ret i32 %v0_3dba
}

define i32 @_ZN5boost15foreach_detail_7containIKSt6vectorI5CTxInSaIS3_EEEENS0_8auto_anyIPT_EERS8_PN4mpl_5bool_ILb0EEE(i32 %arg1, i32 %arg2, i32 %arg3) local_unnamed_addr {
dec_label_pc_3dbb:
  %stack_var_-20 = alloca i32, align 4
  %v1_3de4 = call i32 @unknown_8e40(i32 %arg2)
  store i32 %v1_3de4, i32* %stack_var_-20, align 4
  %v2_3dec = ptrtoint i32* %stack_var_-20 to i32
  %v2_3df9 = call i32 @unknown_8e97(i32 %arg1, i32 %v2_3dec)
  store i32 %arg1, i32* @eax, align 4
  br i1 true, label %bb, label %dec_label_pc_3e0d

bb:                                               ; preds = %dec_label_pc_3dbb
  %v1_3e0b = call i32 @function_3e12()
  br label %dec_label_pc_3e0d

dec_label_pc_3e0d:                                ; preds = %bb, %dec_label_pc_3dbb
  %v2_3e0b = phi i32 [ %v1_3e0b, %bb ], [ %arg1, %dec_label_pc_3dbb ]
  ret i32 %v2_3e0b

; uselistorder directives
  uselistorder i32 %arg1, { 0, 2, 1 }
}

define i32 @function_3e12() local_unnamed_addr {
dec_label_pc_3e12:
  %v0_3e13 = load i32, i32* @eax, align 4
  ret i32 %v0_3e13
}

define i32 @_ZN5boost15foreach_detail_5beginISt6vectorI5CTxInSaIS3_EEN4mpl_5bool_ILb1EEEEENS0_8auto_anyINS0_16foreach_iteratorIT_T0_E4typeEEERKNS0_13auto_any_baseEPNS0_9type2typeISB_SC_EEPNS7_ILb0EEE(i32 %arg1, i32 %arg2, i32 %arg3, i32 %arg4) local_unnamed_addr {
dec_label_pc_3e16:
  %stack_var_-20 = alloca i32, align 4
  %v1_3e45 = call i32 @unknown_8f37(i32 %arg2)
  %v1_3e4a = inttoptr i32 %v1_3e45 to i32*
  %v2_3e4a = load i32, i32* %v1_3e4a, align 4
  %v1_3e4f = call i32 @unknown_8f64(i32 %v2_3e4a)
  %v2_3e54 = ptrtoint i32* %stack_var_-20 to i32
  %v2_3e5e = call i32 @unknown_8f91(i32 %v2_3e54, i32 %v1_3e4f)
  %v2_3e73 = call i32 @unknown_8fdc(i32 %arg1, i32 %v2_3e54)
  ret i32 %arg1
}

define i32 @_ZN5boost15foreach_detail_3endISt6vectorI5CTxInSaIS3_EEN4mpl_5bool_ILb1EEEEENS0_8auto_anyINS0_16foreach_iteratorIT_T0_E4typeEEERKNS0_13auto_any_baseEPNS0_9type2typeISB_SC_EEPNS7_ILb0EEE(i32 %arg1, i32 %arg2, i32 %arg3, i32 %arg4) local_unnamed_addr {
dec_label_pc_3e90:
  %stack_var_-20 = alloca i32, align 4
  %v1_3ebf = call i32 @unknown_8fb1(i32 %arg2)
  %v1_3ec4 = inttoptr i32 %v1_3ebf to i32*
  %v2_3ec4 = load i32, i32* %v1_3ec4, align 4
  %v1_3ec9 = call i32 @unknown_8fde(i32 %v2_3ec4)
  %v2_3ece = ptrtoint i32* %stack_var_-20 to i32
  %v2_3ed8 = call i32 @unknown_909b(i32 %v2_3ece, i32 %v1_3ec9)
  %v2_3eed = call i32 @unknown_9056(i32 %arg1, i32 %v2_3ece)
  store i32 %arg1, i32* @eax, align 4
  br i1 true, label %bb, label %dec_label_pc_3f01

bb:                                               ; preds = %dec_label_pc_3e90
  %v1_3eff = call i32 @function_3f06()
  br label %dec_label_pc_3f01

dec_label_pc_3f01:                                ; preds = %bb, %dec_label_pc_3e90
  %v2_3eff = phi i32 [ %v1_3eff, %bb ], [ %arg1, %dec_label_pc_3e90 ]
  ret i32 %v2_3eff

; uselistorder directives
  uselistorder i32 %arg1, { 0, 2, 1 }
}

define i32 @function_3f06() local_unnamed_addr {
dec_label_pc_3f06:
  %v0_3f07 = load i32, i32* @eax, align 4
  ret i32 %v0_3f07
}

define i32 @_ZN5boost15foreach_detail_4doneISt6vectorI5CTxInSaIS3_EEN4mpl_5bool_ILb1EEEEEbRKNS0_13auto_any_baseESB_PNS0_9type2typeIT_T0_EE() local_unnamed_addr {
dec_label_pc_3f0a:
  %tmp6 = call i32 @__decompiler_undefined_function_0()
  %tmp8 = call i32 @__decompiler_undefined_function_0()
  %v1_3f34 = call i32 @unknown_915f(i32 %tmp6)
  store i32 %v1_3f34, i32* @ebx, align 4
  %v1_3f41 = call i32 @unknown_915f(i32 %tmp8)
  %v0_3f46 = load i32, i32* @ebx, align 4
  %v2_3f4d = call i32 @unknown_8d19(i32 %v1_3f41, i32 %v0_3f46)
  store i32 %v2_3f4d, i32* @eax, align 4
  br i1 true, label %bb, label %dec_label_pc_3f5e

bb:                                               ; preds = %dec_label_pc_3f0a
  %v1_3f5c = call i32 @function_3f63()
  br label %dec_label_pc_3f5e

dec_label_pc_3f5e:                                ; preds = %bb, %dec_label_pc_3f0a
  %v2_3f5c = phi i32 [ %v1_3f5c, %bb ], [ %v2_3f4d, %dec_label_pc_3f0a ]
  ret i32 %v2_3f5c

; uselistorder directives
  uselistorder i32 (i32)* @unknown_915f, { 1, 0 }
}

define i32 @function_3f63() local_unnamed_addr {
dec_label_pc_3f63:
  %v0_3f68 = load i32, i32* @eax, align 4
  ret i32 %v0_3f68
}

define i32 @_ZN5boost15foreach_detail_4nextISt6vectorI5CTxInSaIS3_EEN4mpl_5bool_ILb1EEEEEvRKNS0_13auto_any_baseEPNS0_9type2typeIT_T0_EE() local_unnamed_addr {
dec_label_pc_3f69:
  %tmp5 = call i32 @__decompiler_undefined_function_0()
  %v1_3f8c = call i32 @unknown_91be(i32 %tmp5)
  %v1_3f94 = call i32 @unknown_91eb(i32 %v1_3f8c)
  ret i32 0
}

define i32 @_ZN5boost15foreach_detail_5derefISt6vectorI5CTxInSaIS3_EEN4mpl_5bool_ILb1EEEEENS0_17foreach_referenceIT_T0_E4typeERKNS0_13auto_any_baseEPNS0_9type2typeISA_SB_EE() local_unnamed_addr {
dec_label_pc_3fac:
  %tmp5 = call i32 @__decompiler_undefined_function_0()
  %v1_3fcf = call i32 @unknown_9201(i32 %tmp5)
  %v1_3fd7 = call i32 @unknown_9268(i32 %v1_3fcf)
  store i32 %v1_3fd7, i32* @eax, align 4
  br i1 true, label %bb, label %dec_label_pc_3fe8

bb:                                               ; preds = %dec_label_pc_3fac
  %v1_3fe6 = call i32 @function_3fed()
  br label %dec_label_pc_3fe8

dec_label_pc_3fe8:                                ; preds = %bb, %dec_label_pc_3fac
  %v2_3fe6 = phi i32 [ %v1_3fe6, %bb ], [ %v1_3fd7, %dec_label_pc_3fac ]
  ret i32 %v2_3fe6
}

define i32 @function_3fed() local_unnamed_addr {
dec_label_pc_3fed:
  %v0_3fee = load i32, i32* @eax, align 4
  ret i32 %v0_3fee
}

define i32 @_ZN5boost16exception_detail12refcount_ptrINS0_20error_info_containerEE7releaseEv(i32 %arg1) local_unnamed_addr {
dec_label_pc_3ff0:
  ret i32 %arg1
}

define i32 @function_4000(i32 %arg1) local_unnamed_addr {
dec_label_pc_4000:
  %v2_4000 = load i8, i8* bitcast (i32* @eax to i8*), align 4
  %v3_4000 = load i32, i32* @eax, align 4
  %v4_4000 = trunc i32 %v3_4000 to i8
  %v5_4000 = add i8 %v4_4000, %v2_4000
  %v21_4000 = inttoptr i32 %v3_4000 to i8*
  store i8 %v5_4000, i8* %v21_4000, align 1
  %v0_4002 = load i32, i32* @eax, align 4
  %v1_4002 = load i32, i32* @ebp, align 4
  %v2_4002 = add i32 %v1_4002, -12
  %v3_4002 = inttoptr i32 %v2_4002 to i32*
  store i32 %v0_4002, i32* %v3_4002, align 4
  %v0_4007 = load i32, i32* @ebp, align 4
  %v1_4007 = add i32 %v0_4007, -28
  %v2_4007 = inttoptr i32 %v1_4007 to i32*
  %v3_4007 = load i32, i32* %v2_4007, align 4
  %v1_400a = inttoptr i32 %v3_4007 to i32*
  %v2_400a = load i32, i32* %v1_400a, align 4
  %v1_400c = icmp eq i32 %v2_400a, 0
  br i1 %v1_400c, label %dec_label_pc_4031, label %dec_label_pc_4010

dec_label_pc_4010:                                ; preds = %dec_label_pc_4000
  %v3_401c = load i32, i32* %v2_4007, align 4
  %v1_401f = inttoptr i32 %v3_401c to i32*
  %v2_401f = load i32, i32* %v1_401f, align 4
  %v4_4026 = trunc i32 %v2_401f to i8
  %v5_4026 = icmp eq i8 %v4_4026, 0
  br i1 %v5_4026, label %dec_label_pc_4031, label %dec_label_pc_402a

dec_label_pc_402a:                                ; preds = %dec_label_pc_4010
  store i32 1, i32* @eax, align 4
  %v1_402f = call i32 @function_4036(i32 %v2_401f)
  ret i32 %v1_402f

dec_label_pc_4031:                                ; preds = %dec_label_pc_4010, %dec_label_pc_4000
  %v3_402f = phi i32 [ %v2_401f, %dec_label_pc_4010 ], [ 0, %dec_label_pc_4000 ]
  ret i32 %v3_402f
}

define i32 @function_4034(i32 %arg1) local_unnamed_addr {
dec_label_pc_4034:
  %v2_4034 = load i8, i8* bitcast (i32* @eax to i8*), align 4
  %v3_4034 = load i32, i32* @eax, align 4
  %v4_4034 = trunc i32 %v3_4034 to i8
  %v5_4034 = add i8 %v4_4034, %v2_4034
  %v10_4034 = icmp ult i8 %v5_4034, %v2_4034
  store i1 %v10_4034, i1* @cf, align 1
  %v21_4034 = inttoptr i32 %v3_4034 to i8*
  store i8 %v5_4034, i8* %v21_4034, align 1
  %v22_4034 = load i32, i32* @eax, align 4
  ret i32 %v22_4034

; uselistorder directives
  uselistorder i8 %v2_4034, { 1, 0 }
}

define i32 @function_4036(i32 %arg1) local_unnamed_addr {
dec_label_pc_4036:
  %v0_4036 = load i32, i32* @eax, align 4
  %v4_4036 = trunc i32 %v0_4036 to i8
  %v5_4036 = icmp eq i8 %v4_4036, 0
  br i1 %v5_4036, label %dec_label_pc_4043, label %dec_label_pc_403a

dec_label_pc_403a:                                ; preds = %dec_label_pc_4036
  %v0_403a = load i32, i32* @ebp, align 4
  %v1_403a = add i32 %v0_403a, -28
  %v2_403a = inttoptr i32 %v1_403a to i32*
  %v3_403a = load i32, i32* %v2_403a, align 4
  %v1_403d = inttoptr i32 %v3_403a to i32*
  store i32 0, i32* %v1_403d, align 4
  br label %dec_label_pc_4043

dec_label_pc_4043:                                ; preds = %dec_label_pc_403a, %dec_label_pc_4036
  %v0_4043 = load i32, i32* @ebp, align 4
  %v1_4043 = add i32 %v0_4043, -12
  %v2_4043 = inttoptr i32 %v1_4043 to i32*
  %v3_4043 = load i32, i32* %v2_4043, align 4
  %v1_4046 = load i32, i32* inttoptr (i32 20 to i32*), align 4
  %v2_4046 = xor i32 %v1_4046, %v3_4043
  ret i32 %v2_4046
}

define i32 @_ZNSt12_Vector_baseIc25zero_after_free_allocatorIcEE12_Vector_implD1Ev(i32 %arg1) local_unnamed_addr {
dec_label_pc_4056:
  %v0_4062 = load i32, i32* inttoptr (i32 20 to i32*), align 4
  ret i32 %v0_4062
}

define i32 @function_406a(i32 %arg1) local_unnamed_addr {
dec_label_pc_406a:
  %v0_406d = load i32, i32* @ebp, align 4
  %v1_406d = add i32 %v0_406d, -28
  %v2_406d = inttoptr i32 %v1_406d to i32*
  %v3_406d = load i32, i32* %v2_406d, align 4
  store i32 %v3_406d, i32* @eax, align 4
  %v1_4073 = call i32 @function_6cfa(i32 %v3_406d)
  %v0_4078 = load i32, i32* @ebp, align 4
  %v1_4078 = add i32 %v0_4078, -12
  %v2_4078 = inttoptr i32 %v1_4078 to i32*
  %v3_4078 = load i32, i32* %v2_4078, align 4
  %v1_407b = load i32, i32* inttoptr (i32 20 to i32*), align 4
  %v2_407b = xor i32 %v1_407b, %v3_4078
  ret i32 %v2_407b
}

define i32 @_ZNSt12_Vector_baseIc25zero_after_free_allocatorIcEEC1Ev(i32 %arg1) local_unnamed_addr {
dec_label_pc_408c:
  ret i32 %arg1
}

define i32 @function_409a(i32 %arg1, i32 %arg2, i32 %arg3) local_unnamed_addr {
dec_label_pc_409a:
  %eax.global-to-local = alloca i32, align 4
  %v0_409a = load i32, i32* @eax, align 4
  %v1_409a = trunc i32 %v0_409a to i8
  %v2_409a = load i1, i1* @cf, align 1
  %v3_409a = zext i1 %v2_409a to i8
  %v4_409a = add i8 %v3_409a, %v1_409a
  %v22_409a = zext i8 %v4_409a to i32
  %v24_409a = and i32 %v0_409a, -256
  %v25_409a = or i32 %v22_409a, %v24_409a
  store i32 %v25_409a, i32* %eax.global-to-local, align 4
  %v1_409c = inttoptr i32 %v25_409a to i8*
  %v2_409c = load i8, i8* %v1_409c, align 1
  %v5_409c = add i8 %v2_409c, %v4_409a
  store i8 %v5_409c, i8* %v1_409c, align 1
  %v0_409e = load i32, i32* %eax.global-to-local, align 4
  %v1_409e = load i32, i32* @ebp, align 4
  %v2_409e = add i32 %v1_409e, -12
  %v3_409e = inttoptr i32 %v2_409e to i32*
  store i32 %v0_409e, i32* %v3_409e, align 4
  store i32 0, i32* %eax.global-to-local, align 4
  %v0_40a3 = load i32, i32* @ebp, align 4
  %v1_40a3 = add i32 %v0_40a3, -28
  %v2_40a3 = inttoptr i32 %v1_40a3 to i32*
  %v3_40a3 = load i32, i32* %v2_40a3, align 4
  store i32 %v3_40a3, i32* %eax.global-to-local, align 4
  %v1_40a9 = call i32 @unknown_9378(i32 %v3_40a3)
  store i32 %v1_40a9, i32* %eax.global-to-local, align 4
  %v0_40ae = load i32, i32* @ebp, align 4
  %v1_40ae = add i32 %v0_40ae, -12
  %v2_40ae = inttoptr i32 %v1_40ae to i32*
  %v3_40ae = load i32, i32* %v2_40ae, align 4
  store i32 %v3_40ae, i32* %eax.global-to-local, align 4
  %v1_40b1 = load i32, i32* inttoptr (i32 20 to i32*), align 4
  %v2_40b1 = xor i32 %v1_40b1, %v3_40ae
  store i32 %v2_40b1, i32* %eax.global-to-local, align 4
  ret i32 %v2_40b1
}

define i32 @_ZNSt12_Vector_baseIc25zero_after_free_allocatorIcEED1Ev(i32* %arg1) local_unnamed_addr {
dec_label_pc_40c2:
  %tmp102 = ptrtoint i32* %arg1 to i32
  %v1_40dd = add i32 %tmp102, 8
  %v2_40dd = inttoptr i32 %v1_40dd to i32*
  %v3_40dd = load i32, i32* %v2_40dd, align 4
  %v2_40e5 = load i32, i32* %arg1, align 4
  %v2_40e9 = sub i32 %v3_40dd, %v2_40e5
  store i32 %tmp102, i32* @eax, align 4
  %v3_4102 = call i32 @function_8374(i32 %tmp102, i32 %v2_40e5, i32 %v2_40e9)
  %v1_410d = call i32 @unknown_8118(i32 %tmp102)
  store i32 0, i32* @eax, align 4
  br i1 true, label %bb, label %dec_label_pc_4137

bb:                                               ; preds = %dec_label_pc_40c2
  %v1_411c = call i32 @function_413c()
  br label %dec_label_pc_4137

dec_label_pc_4137:                                ; preds = %dec_label_pc_40c2, %bb
  %v0_411e = phi i32 [ 0, %dec_label_pc_40c2 ], [ %v1_411c, %bb ]
  ret i32 %v0_411e

; uselistorder directives
  uselistorder i32 %tmp102, { 1, 2, 3, 0 }
  uselistorder label %dec_label_pc_4137, { 1, 0 }
}

define i32 @function_4120() local_unnamed_addr {
dec_label_pc_4120:
  %eax.global-to-local = alloca i32, align 4
  %ebp.global-to-local = alloca i32, align 4
  %ebx.global-to-local = alloca i32, align 4
  %v0_4120 = load i32, i32* %eax.global-to-local, align 4
  store i32 %v0_4120, i32* %ebx.global-to-local, align 4
  %v0_4122 = load i32, i32* %ebp.global-to-local, align 4
  %v1_4122 = add i32 %v0_4122, -28
  %v2_4122 = inttoptr i32 %v1_4122 to i32*
  %v3_4122 = load i32, i32* %v2_4122, align 4
  store i32 %v3_4122, i32* %eax.global-to-local, align 4
  %v1_4128 = call i32 @unknown_8118(i32 %v3_4122)
  %v0_412d = load i32, i32* %ebx.global-to-local, align 4
  store i32 %v0_412d, i32* %eax.global-to-local, align 4
  ret i32 %v0_412d

; uselistorder directives
  uselistorder i32 (i32)* @unknown_8118, { 1, 0 }
}

define i32 @function_413c() local_unnamed_addr {
dec_label_pc_413c:
  %v0_4141 = load i32, i32* @eax, align 4
  ret i32 %v0_4141
}

define i32 @_ZNSt12_Vector_baseIc25zero_after_free_allocatorIcEE19_M_get_Tp_allocatorEv(i32 %arg1) local_unnamed_addr {
dec_label_pc_4142:
  store i32 %arg1, i32* @eax, align 4
  br i1 true, label %bb, label %dec_label_pc_4168

bb:                                               ; preds = %dec_label_pc_4142
  %v2_4166 = call i32 @function_416d(i32 %arg1)
  br label %dec_label_pc_4168

dec_label_pc_4168:                                ; preds = %bb, %dec_label_pc_4142
  %v3_4166 = phi i32 [ %v2_4166, %bb ], [ %arg1, %dec_label_pc_4142 ]
  ret i32 %v3_4166
}

define i32 @function_416d(i32 %arg1) local_unnamed_addr {
dec_label_pc_416d:
  %v0_416e = load i32, i32* @eax, align 4
  ret i32 %v0_416e
}

define i32 @_ZSt8_DestroyIPc25zero_after_free_allocatorIcEEvT_S3_RT0_(i32 %arg1, i32 %arg2, i32 %arg3) local_unnamed_addr {
dec_label_pc_416f:
  %v15_41b5108 = icmp eq i32 %arg1, %arg2
  %v1_41b8109 = icmp eq i1 %v15_41b5108, false
  %v5_41bb113 = icmp eq i1 %v1_41b8109, false
  %v1_41bd114 = icmp eq i1 %v5_41bb113, false
  br i1 %v1_41bd114, label %dec_label_pc_4194, label %dec_label_pc_41bf

dec_label_pc_4194:                                ; preds = %dec_label_pc_416f, %dec_label_pc_4194
  %stack_var_-32.0115 = phi i32 [ %v4_41ae, %dec_label_pc_4194 ], [ %arg1, %dec_label_pc_416f ]
  %v1_419a = call i32 @unknown_94ad(i32 %stack_var_-32.0115)
  %v2_41a9 = call i32 @unknown_8563(i32 %arg3, i32 %v1_419a)
  %v4_41ae = add i32 %stack_var_-32.0115, 1
  %v15_41b5 = icmp eq i32 %v4_41ae, %arg2
  %v1_41b8 = icmp eq i1 %v15_41b5, false
  %v5_41bb = icmp eq i1 %v1_41b8, false
  %v1_41bd = icmp eq i1 %v5_41bb, false
  br i1 %v1_41bd, label %dec_label_pc_4194, label %dec_label_pc_41bf

dec_label_pc_41bf:                                ; preds = %dec_label_pc_4194, %dec_label_pc_416f
  store i32 0, i32* @eax, align 4
  br i1 true, label %bb, label %dec_label_pc_41cb

bb:                                               ; preds = %dec_label_pc_41bf
  %v1_41c9 = call i32 @function_41d0()
  br label %dec_label_pc_41cb

dec_label_pc_41cb:                                ; preds = %bb, %dec_label_pc_41bf
  %v2_41c9 = phi i32 [ %v1_41c9, %bb ], [ 0, %dec_label_pc_41bf ]
  ret i32 %v2_41c9

; uselistorder directives
  uselistorder i32 %v4_41ae, { 1, 0 }
  uselistorder i32 %stack_var_-32.0115, { 1, 0 }
  uselistorder i32 %arg2, { 1, 0 }
  uselistorder label %dec_label_pc_4194, { 1, 0 }
}

define i32 @function_41d0() local_unnamed_addr {
dec_label_pc_41d0:
  %v0_41d1 = load i32, i32* @eax, align 4
  ret i32 %v0_41d1
}

define i32 @_ZN9__gnu_cxx17__normal_iteratorIPKhSt6vectorIhSaIhEEEC1ERKS2_(i32* %arg1, i32 %arg2) local_unnamed_addr {
dec_label_pc_41d2:
  %ebp.global-to-local = alloca i32, align 4
  %v0_41d2 = load i32, i32* %ebp.global-to-local, align 4
  %v1_41f2 = inttoptr i32 %arg2 to i32*
  %v2_41f2 = load i32, i32* %v1_41f2, align 4
  store i32 %v2_41f2, i32* %arg1, align 4
  store i32 %v0_41d2, i32* %ebp.global-to-local, align 4
  ret i32 0
}

define i32 @_ZN9__gnu_cxx17__normal_iteratorIPcSt6vectorIc25zero_after_free_allocatorIcEEEC1ERKS1_(i32* %arg1, i32 %arg2) local_unnamed_addr {
dec_label_pc_420c:
  %ebp.global-to-local = alloca i32, align 4
  %v0_420c = load i32, i32* %ebp.global-to-local, align 4
  %v1_422c = inttoptr i32 %arg2 to i32*
  %v2_422c = load i32, i32* %v1_422c, align 4
  store i32 %v2_422c, i32* %arg1, align 4
  store i32 %v0_420c, i32* %ebp.global-to-local, align 4
  ret i32 0
}

define i32 @_ZNKSt12_Vector_baseIc25zero_after_free_allocatorIcEE19_M_get_Tp_allocatorEv(i32 %arg1) local_unnamed_addr {
dec_label_pc_4246:
  ret i32 %arg1
}

define i32 @function_4270(i32 %arg1) local_unnamed_addr {
dec_label_pc_4270:
  %v0_4272 = load i32, i32* @eax, align 4
  ret i32 %v0_4272
}

define i32 @_ZNKSt6vectorIc25zero_after_free_allocatorIcEE8max_sizeEv(i32 %arg1) local_unnamed_addr {
dec_label_pc_4274:
  %v1_4291 = call i32 @unknown_84ba(i32 %arg1)
  %v1_4299 = call i32 @unknown_9638(i32 %v1_4291)
  store i32 %v1_4299, i32* @eax, align 4
  br i1 true, label %bb, label %dec_label_pc_42aa

bb:                                               ; preds = %dec_label_pc_4274
  %v1_42a8 = call i32 @function_42af()
  br label %dec_label_pc_42aa

dec_label_pc_42aa:                                ; preds = %bb, %dec_label_pc_4274
  %v2_42a8 = phi i32 [ %v1_42a8, %bb ], [ %v1_4299, %dec_label_pc_4274 ]
  ret i32 %v2_42a8
}

define i32 @function_42af() local_unnamed_addr {
dec_label_pc_42af:
  %v0_42b0 = load i32, i32* @eax, align 4
  ret i32 %v0_42b0
}

define i32 @_ZNSt12_Vector_baseIc25zero_after_free_allocatorIcEE13_M_deallocateEPcj(i32 %arg1, i32 %arg2, i32 %arg3) local_unnamed_addr {
dec_label_pc_42b2:
  ret i32 %arg3
}

define i32 @function_42c8(i32 %arg1, i32 %arg2, i32 %arg3) local_unnamed_addr {
dec_label_pc_42c8:
  %eax.global-to-local = alloca i32, align 4
  %v0_42c8 = load i32, i32* @ebp, align 4
  %v1_42c8 = add i32 %v0_42c8, 1
  store i32 %v1_42c8, i32* @ebp, align 4
  %v0_42cc = load i32, i32* @eax, align 4
  %v1_42cc = trunc i32 %v0_42cc to i8
  %v2_42cc = load i1, i1* @cf, align 1
  %v3_42cc = zext i1 %v2_42cc to i8
  %v4_42cc = add i8 %v3_42cc, %v1_42cc
  %v22_42cc = zext i8 %v4_42cc to i32
  %v24_42cc = and i32 %v0_42cc, -256
  %v25_42cc = or i32 %v22_42cc, %v24_42cc
  store i32 %v25_42cc, i32* %eax.global-to-local, align 4
  %v1_42ce = inttoptr i32 %v25_42cc to i8*
  %v2_42ce = load i8, i8* %v1_42ce, align 1
  %v5_42ce = add i8 %v2_42ce, %v4_42cc
  store i8 %v5_42ce, i8* %v1_42ce, align 1
  %v0_42d0 = load i32, i32* %eax.global-to-local, align 4
  %v1_42d0 = load i32, i32* @ebp, align 4
  %v2_42d0 = add i32 %v1_42d0, -12
  %v3_42d0 = inttoptr i32 %v2_42d0 to i32*
  store i32 %v0_42d0, i32* %v3_42d0, align 4
  store i32 0, i32* %eax.global-to-local, align 4
  %v0_42d5 = load i32, i32* @ebp, align 4
  %v1_42d5 = add i32 %v0_42d5, -32
  %v2_42d5 = inttoptr i32 %v1_42d5 to i32*
  %v3_42d5 = load i32, i32* %v2_42d5, align 4
  %v10_42d5 = icmp eq i32 %v3_42d5, 0
  br i1 %v10_42d5, label %dec_label_pc_42f4, label %dec_label_pc_42db

dec_label_pc_42db:                                ; preds = %dec_label_pc_42c8
  %v1_42db = add i32 %v0_42d5, -28
  %v2_42db = inttoptr i32 %v1_42db to i32*
  %v3_42db = load i32, i32* %v2_42db, align 4
  store i32 %v3_42db, i32* %eax.global-to-local, align 4
  %v1_42de = add i32 %v0_42d5, -36
  %v2_42de = inttoptr i32 %v1_42de to i32*
  %v3_42de = load i32, i32* %v2_42de, align 4
  %v3_42e5 = load i32, i32* %v2_42d5, align 4
  %v3_42ef = call i32 @unknown_9722(i32 %v3_42db, i32 %v3_42e5, i32 %v3_42de)
  store i32 %v3_42ef, i32* %eax.global-to-local, align 4
  %v0_42f4.pre = load i32, i32* @ebp, align 4
  br label %dec_label_pc_42f4

dec_label_pc_42f4:                                ; preds = %dec_label_pc_42db, %dec_label_pc_42c8
  %v0_42f4 = phi i32 [ %v0_42f4.pre, %dec_label_pc_42db ], [ %v0_42d5, %dec_label_pc_42c8 ]
  %v1_42f4 = add i32 %v0_42f4, -12
  %v2_42f4 = inttoptr i32 %v1_42f4 to i32*
  %v3_42f4 = load i32, i32* %v2_42f4, align 4
  store i32 %v3_42f4, i32* %eax.global-to-local, align 4
  %v1_42f7 = load i32, i32* inttoptr (i32 20 to i32*), align 4
  %v2_42f7 = xor i32 %v1_42f7, %v3_42f4
  store i32 %v2_42f7, i32* %eax.global-to-local, align 4
  ret i32 %v2_42f7

; uselistorder directives
  uselistorder i32 %v0_42d5, { 0, 2, 1, 3 }
}

define i32 @function_4300(i32 %arg1) local_unnamed_addr {
dec_label_pc_4300:
  %tmp = load i32, i32* @eax, align 4
  ret i32 %tmp
}

define i32 @function_4305() local_unnamed_addr {
dec_label_pc_4305:
  %eax.global-to-local = alloca i32, align 4
  %v0_4306 = load i32, i32* %eax.global-to-local, align 4
  ret i32 %v0_4306
}

define i32 @_ZN9__gnu_cxx13new_allocatorIcE9constructEPcRKc(i32 %arg1, i32 %arg2, i8* %arg3) local_unnamed_addr {
dec_label_pc_4308:
  %v0_4320 = load i32, i32* inttoptr (i32 20 to i32*), align 4
  %v2_4339 = call i32 @function_5266(i32 1, i32 %arg2)
  %v2_433e = icmp eq i32 %v2_4339, 0
  br i1 %v2_433e, label %dec_label_pc_434a, label %dec_label_pc_4342

dec_label_pc_4342:                                ; preds = %dec_label_pc_4308
  %v3_4339 = inttoptr i32 %v2_4339 to i8*
  %v2_4345 = load i8, i8* %arg3, align 1
  store i8 %v2_4345, i8* %v3_4339, align 1
  br label %dec_label_pc_434a

dec_label_pc_434a:                                ; preds = %dec_label_pc_4342, %dec_label_pc_4308
  ret i32 %v0_4320

; uselistorder directives
  uselistorder i32 %v2_4339, { 1, 0 }
}

define i32 @function_434e(i32 %arg1, i32 %arg2) local_unnamed_addr {
dec_label_pc_434e:
  %v0_434e = load i32, i32* @eax, align 4
  %v1_434e = load i32, i32* inttoptr (i32 20 to i32*), align 4
  %v2_434e = xor i32 %v1_434e, %v0_434e
  ret i32 %v2_434e
}

define i32 @_ZNK9__gnu_cxx17__normal_iteratorIPcSt6vectorIc25zero_after_free_allocatorIcEEE4baseEv() local_unnamed_addr {
dec_label_pc_435e:
  %eax.global-to-local = alloca i32, align 4
  %v2_435f = load i32, i32* %eax.global-to-local, align 4
  ret i32 %v2_435f
}

define i32 @function_4363(i32 %arg1, i32 %arg2, i32 %arg3, i32 %arg4) local_unnamed_addr {
dec_label_pc_4363:
  %v0_4363 = load i32, i32* @ebx, align 4
  %v1_4363 = add i32 %v0_4363, 1166608453
  %v2_4363 = inttoptr i32 %v1_4363 to i8*
  %v3_4363 = load i8, i8* %v2_4363, align 1
  %v4_4363 = load i32, i32* @ecx, align 4
  %v5_4363 = trunc i32 %v4_4363 to i8
  %v6_4363 = sub i8 %v3_4363, %v5_4363
  store i8 %v6_4363, i8* %v2_4363, align 1
  %v0_436b = load i32, i32* inttoptr (i32 20 to i32*), align 4
  %v1_4370 = load i32, i32* @ebp, align 4
  %v2_4370 = add i32 %v1_4370, -12
  %v3_4370 = inttoptr i32 %v2_4370 to i32*
  store i32 %v0_436b, i32* %v3_4370, align 4
  %v0_4375 = load i32, i32* @ebp, align 4
  %v1_4375 = add i32 %v0_4375, -28
  %v2_4375 = inttoptr i32 %v1_4375 to i32*
  %v3_4375 = load i32, i32* %v2_4375, align 4
  store i32 %v3_4375, i32* @eax, align 4
  %v1_4378 = add i32 %v0_4375, -12
  %v2_4378 = inttoptr i32 %v1_4378 to i32*
  %v3_4378 = load i32, i32* %v2_4378, align 4
  %v1_437b = load i32, i32* inttoptr (i32 20 to i32*), align 4
  %v3_437b = icmp eq i32 %v1_437b, %v3_4378
  br i1 %v3_437b, label %bb, label %dec_label_pc_4384

bb:                                               ; preds = %dec_label_pc_4363
  %v1_4382 = call i32 @function_4389()
  br label %dec_label_pc_4384

dec_label_pc_4384:                                ; preds = %bb, %dec_label_pc_4363
  %v2_4382 = phi i32 [ %v1_4382, %bb ], [ %v3_4375, %dec_label_pc_4363 ]
  ret i32 %v2_4382
}

define i32 @function_4389() local_unnamed_addr {
dec_label_pc_4389:
  %v0_438a = load i32, i32* @eax, align 4
  ret i32 %v0_438a
}

define i32 @_ZNSt6vectorIc25zero_after_free_allocatorIcEE18_M_insert_dispatchIPKcEEvN9__gnu_cxx17__normal_iteratorIPcS2_EET_SA_St12__false_type(i32 %arg1, i32 %arg2, i32 %arg3, i32 %arg4, i8 %arg5) local_unnamed_addr {
dec_label_pc_438c:
  %edx.global-to-local = alloca i32, align 4
  %v0_43bc = load i32, i32* %edx.global-to-local, align 4
  %sext = mul i32 %v0_43bc, 16777216
  %v5_43db = sdiv i32 %sext, 16777216
  %v6_43db = call i32 @unknown_99f8(i32 %arg1, i32 %arg2, i32 %arg3, i32 %arg4, i32 %v5_43db)
  store i32 0, i32* @eax, align 4
  br i1 true, label %bb, label %dec_label_pc_43ec

bb:                                               ; preds = %dec_label_pc_438c
  %v1_43ea = call i32 @function_43f1()
  br label %dec_label_pc_43ec

dec_label_pc_43ec:                                ; preds = %bb, %dec_label_pc_438c
  %v2_43ea = phi i32 [ %v1_43ea, %bb ], [ 0, %dec_label_pc_438c ]
  ret i32 %v2_43ea
}

define i32 @function_43f1() local_unnamed_addr {
dec_label_pc_43f1:
  %v0_43f2 = load i32, i32* @eax, align 4
  ret i32 %v0_43f2
}

define i32 @_ZN9__gnu_cxx13new_allocatorIcE7destroyEPc(i32 %arg1, i32 %arg2) local_unnamed_addr {
dec_label_pc_43f4:
  store i32 0, i32* @eax, align 4
  br i1 true, label %bb, label %dec_label_pc_441d

bb:                                               ; preds = %dec_label_pc_43f4
  %v3_441b = call i32 @function_4422(i32 %arg2, i32 %arg1)
  br label %dec_label_pc_441d

dec_label_pc_441d:                                ; preds = %bb, %dec_label_pc_43f4
  %v4_441b = phi i32 [ %v3_441b, %bb ], [ 0, %dec_label_pc_43f4 ]
  ret i32 %v4_441b
}

define i32 @function_4422(i32 %arg1, i32 %arg2) local_unnamed_addr {
dec_label_pc_4422:
  %v0_4423 = load i32, i32* @eax, align 4
  ret i32 %v0_4423
}

define i32 @_ZNSt12_Vector_baseIhSaIhEE12_Vector_implD1Ev() local_unnamed_addr {
dec_label_pc_4424:
  %eax.global-to-local = alloca i32, align 4
  %v17_4427 = load i32, i32* %eax.global-to-local, align 4
  ret i32 %v17_4427
}

define i32 @function_442a(i32 %arg1) local_unnamed_addr {
dec_label_pc_442a:
  %v0_442a = load i32, i32* @ebp, align 4
  %v1_442a = add i32 %v0_442a, 8
  %v2_442a = inttoptr i32 %v1_442a to i32*
  %v3_442a = load i32, i32* %v2_442a, align 4
  %v2_442d = add i32 %v0_442a, -28
  %v3_442d = inttoptr i32 %v2_442d to i32*
  store i32 %v3_442a, i32* %v3_442d, align 4
  %v0_4430 = load i32, i32* inttoptr (i32 20 to i32*), align 4
  %v1_4436 = load i32, i32* @ebp, align 4
  %v2_4436 = add i32 %v1_4436, -12
  %v3_4436 = inttoptr i32 %v2_4436 to i32*
  store i32 %v0_4430, i32* %v3_4436, align 4
  store i1 false, i1* @cf, align 1
  %v0_443b = load i32, i32* @ebp, align 4
  %v1_443b = add i32 %v0_443b, -28
  %v2_443b = inttoptr i32 %v1_443b to i32*
  %v3_443b = load i32, i32* %v2_443b, align 4
  store i32 %v3_443b, i32* @eax, align 4
  %v1_4441 = call i32 @function_74a4(i32 %v3_443b)
  %v0_4446 = load i32, i32* @ebp, align 4
  %v1_4446 = add i32 %v0_4446, -12
  %v2_4446 = inttoptr i32 %v1_4446 to i32*
  %v3_4446 = load i32, i32* %v2_4446, align 4
  %v1_4449 = load i32, i32* inttoptr (i32 20 to i32*), align 4
  %v2_4449 = xor i32 %v1_4449, %v3_4446
  %v3_4449 = icmp eq i32 %v2_4449, 0
  store i32 %v2_4449, i32* @eax, align 4
  br i1 %v3_4449, label %bb, label %dec_label_pc_4452

bb:                                               ; preds = %dec_label_pc_442a
  %v1_4450 = call i32 @function_4457()
  br label %dec_label_pc_4452

dec_label_pc_4452:                                ; preds = %bb, %dec_label_pc_442a
  %v2_4450 = phi i32 [ %v1_4450, %bb ], [ %v2_4449, %dec_label_pc_442a ]
  ret i32 %v2_4450
}

define i32 @function_4457() local_unnamed_addr {
dec_label_pc_4457:
  %v0_4458 = load i32, i32* @eax, align 4
  ret i32 %v0_4458
}

define i32 @_ZNSt12_Vector_baseIhSaIhEEC1Ev(i32 %arg1) local_unnamed_addr {
dec_label_pc_445a:
  %v1_4477 = call i32 @unknown_9ee2(i32 %arg1)
  store i32 0, i32* @eax, align 4
  br i1 true, label %bb, label %dec_label_pc_4488

bb:                                               ; preds = %dec_label_pc_445a
  %v1_4486 = call i32 @function_448d()
  br label %dec_label_pc_4488

dec_label_pc_4488:                                ; preds = %bb, %dec_label_pc_445a
  %v3_4486 = phi i32 [ %v1_4486, %bb ], [ 0, %dec_label_pc_445a ]
  ret i32 %v3_4486
}

define i32 @function_448d() local_unnamed_addr {
dec_label_pc_448d:
  %v0_448e = load i32, i32* @eax, align 4
  ret i32 %v0_448e
}

define i32 @_ZNSt12_Vector_baseIhSaIhEED1Ev(i32* %arg1) local_unnamed_addr {
dec_label_pc_4490:
  %tmp101 = ptrtoint i32* %arg1 to i32
  %v1_44ab = add i32 %tmp101, 8
  %v2_44ab = inttoptr i32 %v1_44ab to i32*
  %v3_44ab = load i32, i32* %v2_44ab, align 4
  %v2_44b3 = load i32, i32* %arg1, align 4
  %v2_44b7 = sub i32 %v3_44ab, %v2_44b3
  %v3_44d0 = call i32 @unknown_8c68(i32 %tmp101, i32 %v2_44b3, i32 %v2_44b7)
  %v1_44db = call i32 @unknown_88b4(i32 %tmp101)
  store i32 0, i32* @eax, align 4
  br i1 true, label %bb, label %dec_label_pc_44ec

bb:                                               ; preds = %dec_label_pc_4490
  %v1_44ea = call i32 @function_450a()
  store i32 %v1_44ea, i32* @eax, align 4
  br label %dec_label_pc_44ec

dec_label_pc_44ec:                                ; preds = %bb, %dec_label_pc_4490
  %v0_44ec = call i32 @function_4505()
  ret i32 %v0_44ec

; uselistorder directives
  uselistorder i32 %tmp101, { 1, 2, 0 }
}

define i32 @function_44ef() local_unnamed_addr {
dec_label_pc_44ef:
  %eax.global-to-local = alloca i32, align 4
  %v0_44ef = load i32, i32* %eax.global-to-local, align 4
  ret i32 %v0_44ef
}

define i32 @function_4505() local_unnamed_addr {
dec_label_pc_4505:
  %tmp = load i32, i32* @eax, align 4
  ret i32 %tmp
}

define i32 @function_450a() local_unnamed_addr {
dec_label_pc_450a:
  %v0_450f = load i32, i32* @eax, align 4
  ret i32 %v0_450f
}

define i32 @_ZNSt12_Vector_baseIhSaIhEE19_M_get_Tp_allocatorEv(i32 %arg1) local_unnamed_addr {
dec_label_pc_4510:
  ret i32 %arg1
}

define i32 @_ZSt8_DestroyIPhhEvT_S1_RSaIT0_E(i32 %arg1, i32 %arg2, i32 %arg3) local_unnamed_addr {
dec_label_pc_453d:
  %v2_456d = call i32 @unknown_a017(i32 %arg1, i32 %arg2)
  ret i32 0
}

define i32 @_ZN9__gnu_cxx13new_allocatorIhEC1Ev(i32 %arg1) local_unnamed_addr {
dec_label_pc_4586:
  store i32 0, i32* @eax, align 4
  br i1 true, label %bb, label %dec_label_pc_45a9

bb:                                               ; preds = %dec_label_pc_4586
  %v2_45a7 = call i32 @function_45ae(i32 %arg1)
  br label %dec_label_pc_45a9

dec_label_pc_45a9:                                ; preds = %bb, %dec_label_pc_4586
  %v3_45a7 = phi i32 [ %v2_45a7, %bb ], [ 0, %dec_label_pc_4586 ]
  ret i32 %v3_45a7
}

define i32 @function_45ae(i32 %arg1) local_unnamed_addr {
dec_label_pc_45ae:
  %v0_45af = load i32, i32* @eax, align 4
  ret i32 %v0_45af
}

define i32 @_ZN9__gnu_cxx13new_allocatorIhED1Ev(i32 %arg1) local_unnamed_addr {
dec_label_pc_45b0:
  ret i32 0
}

define i32 @_ZNSt12_Vector_baseIhSaIhEEC1EjRKS0_(i32 %arg1, i32 %arg2, i32 %arg3) local_unnamed_addr {
dec_label_pc_45da:
  %v2_460b = call i32 @unknown_a0f6(i32 %arg1, i32 %arg3)
  ret i32 %v2_460b
}

define i32 @function_4611() local_unnamed_addr {
dec_label_pc_4611:
  %eax.global-to-local = alloca i32, align 4
  %v15_4611 = load i32, i32* %eax.global-to-local, align 4
  ret i32 %v15_4611
}

define i32 @function_4614(i32 %arg1, i32 %arg2) local_unnamed_addr {
dec_label_pc_4614:
  %v0_4617 = load i32, i32* @ebp, align 4
  %v1_4617 = add i32 %v0_4617, -28
  %v2_4617 = inttoptr i32 %v1_4617 to i32*
  %v3_4617 = load i32, i32* %v2_4617, align 4
  %v1_461d = call i32 @unknown_a156(i32 %v3_4617)
  %v0_4624 = load i32, i32* @ebp, align 4
  %v1_4624 = add i32 %v0_4624, -28
  %v2_4624 = inttoptr i32 %v1_4624 to i32*
  %v3_4624 = load i32, i32* %v2_4624, align 4
  %v2_4627 = inttoptr i32 %v3_4624 to i32*
  store i32 %v1_461d, i32* %v2_4627, align 4
  %v0_4629 = load i32, i32* @ebp, align 4
  %v1_4629 = add i32 %v0_4629, -28
  %v2_4629 = inttoptr i32 %v1_4629 to i32*
  %v3_4629 = load i32, i32* %v2_4629, align 4
  %v1_462c = inttoptr i32 %v3_4629 to i32*
  %v2_462c = load i32, i32* %v1_462c, align 4
  %v2_4631 = add i32 %v3_4629, 4
  %v3_4631 = inttoptr i32 %v2_4631 to i32*
  store i32 %v2_462c, i32* %v3_4631, align 4
  %v0_4634 = load i32, i32* @ebp, align 4
  %v1_4634 = add i32 %v0_4634, -28
  %v2_4634 = inttoptr i32 %v1_4634 to i32*
  %v3_4634 = load i32, i32* %v2_4634, align 4
  %v1_4637 = inttoptr i32 %v3_4634 to i32*
  %v2_4637 = load i32, i32* %v1_4637, align 4
  %v2_463b = add i32 %v0_4634, -32
  %v3_463b = inttoptr i32 %v2_463b to i32*
  %v4_463b = load i32, i32* %v3_463b, align 4
  %v5_463b = add i32 %v4_463b, %v2_4637
  %v3_463e = load i32, i32* %v2_4634, align 4
  %v2_4641 = add i32 %v3_463e, 8
  %v3_4641 = inttoptr i32 %v2_4641 to i32*
  store i32 %v5_463b, i32* %v3_4641, align 4
  %v0_4644 = load i32, i32* @ebp, align 4
  %v1_4644 = add i32 %v0_4644, -12
  %v2_4644 = inttoptr i32 %v1_4644 to i32*
  %v3_4644 = load i32, i32* %v2_4644, align 4
  ret i32 %v3_4644
}

define i32 @function_464c(i32 %arg1, i32 %arg2) local_unnamed_addr {
dec_label_pc_464c:
  %zf.global-to-local = alloca i1, align 1
  %v2_464c = load i8, i8* bitcast (i32* @eax to i8*), align 4
  %v3_464c = load i32, i32* @eax, align 4
  %v4_464c = trunc i32 %v3_464c to i8
  %v5_464c = add i8 %v4_464c, %v2_464c
  %v15_464c = icmp eq i8 %v5_464c, 0
  store i1 %v15_464c, i1* %zf.global-to-local, align 1
  %v21_464c = inttoptr i32 %v3_464c to i8*
  store i8 %v5_464c, i8* %v21_464c, align 1
  %v0_464e = load i1, i1* %zf.global-to-local, align 1
  br i1 %v0_464e, label %bb, label %dec_label_pc_4650

bb:                                               ; preds = %dec_label_pc_464c
  %v1_464e = call i32 @function_466e()
  store i32 %v1_464e, i32* @eax, align 4
  br label %dec_label_pc_4650

dec_label_pc_4650:                                ; preds = %bb, %dec_label_pc_464c
  %v0_4650 = call i32 @function_4669()
  ret i32 %v0_4650
}

define i32 @function_4653() local_unnamed_addr {
dec_label_pc_4653:
  %eax.global-to-local = alloca i32, align 4
  %v0_4653 = load i32, i32* %eax.global-to-local, align 4
  ret i32 %v0_4653
}

define i32 @function_4669() local_unnamed_addr {
dec_label_pc_4669:
  %v0_4669 = load i32, i32* @eax, align 4
  ret i32 %v0_4669
}

define i32 @function_466e() local_unnamed_addr {
dec_label_pc_466e:
  %v0_4673 = load i32, i32* @eax, align 4
  ret i32 %v0_4673
}

define i32 @_ZNSt6vectorIhSaIhEE18_M_fill_initializeEjRKh(i32 %arg1, i32 %arg2) local_unnamed_addr {
dec_label_pc_4674:
  ret i32 %arg2
}

define i32 @function_4684(i32 %arg1, i32 %arg2) local_unnamed_addr {
dec_label_pc_4684:
  %cf.global-to-local = alloca i1, align 1
  %eax.global-to-local = alloca i32, align 4
  %ebp.global-to-local = alloca i32, align 4
  %v0_4684 = load i32, i32* @ebp, align 4
  %v0_4685 = load i32, i32* @ecx, align 4
  %v1_4685 = add i32 %v0_4685, 255
  %v1_4687 = add i32 %v0_4684, 2
  store i32 %v1_4687, i32* %ebp.global-to-local, align 4
  %v1_4688 = add i32 %v0_4685, -1587159996
  %v2_4688 = inttoptr i32 %v1_4688 to i8*
  %v3_4688 = load i8, i8* %v2_4688, align 1
  %v5_4688 = trunc i32 %v1_4685 to i8
  %v6_4688 = load i1, i1* @cf, align 1
  %v7_4688 = zext i1 %v6_4688 to i8
  %v8_4688 = add i8 %v3_4688, %v5_4688
  %v9_4688 = add i8 %v7_4688, %v8_4688
  %v27_4688 = icmp ule i8 %v9_4688, %v3_4688
  %v28_4688 = icmp ult i8 %v8_4688, %v3_4688
  %v29_4688 = select i1 %v6_4688, i1 %v27_4688, i1 %v28_4688
  store i1 %v29_4688, i1* %cf.global-to-local, align 1
  store i8 %v9_4688, i8* %v2_4688, align 1
  %v0_468e = load i32, i32* @eax, align 4
  %v1_468e = trunc i32 %v0_468e to i8
  %v2_468e = load i1, i1* %cf.global-to-local, align 1
  %v3_468e = zext i1 %v2_468e to i8
  %v4_468e = add i8 %v3_468e, %v1_468e
  %v19_468e = icmp ule i8 %v4_468e, %v1_468e
  %v21_468e = icmp eq i1 %v2_468e, %v19_468e
  store i1 %v21_468e, i1* %cf.global-to-local, align 1
  %v22_468e = zext i8 %v4_468e to i32
  %v24_468e = and i32 %v0_468e, -256
  %v25_468e = or i32 %v22_468e, %v24_468e
  store i32 %v25_468e, i32* %eax.global-to-local, align 4
  %v1_4690 = inttoptr i32 %v25_468e to i8*
  %v2_4690 = load i8, i8* %v1_4690, align 1
  %v5_4690 = add i8 %v2_4690, %v4_468e
  store i8 %v5_4690, i8* %v1_4690, align 1
  %v0_4692 = load i32, i32* %eax.global-to-local, align 4
  %v1_4692 = load i32, i32* %ebp.global-to-local, align 4
  %v2_4692 = add i32 %v1_4692, -12
  %v3_4692 = inttoptr i32 %v2_4692 to i32*
  store i32 %v0_4692, i32* %v3_4692, align 4
  store i1 false, i1* %cf.global-to-local, align 1
  store i32 0, i32* %eax.global-to-local, align 4
  %v0_4697 = load i32, i32* %ebp.global-to-local, align 4
  %v1_4697 = add i32 %v0_4697, -28
  %v2_4697 = inttoptr i32 %v1_4697 to i32*
  %v3_4697 = load i32, i32* %v2_4697, align 4
  store i32 %v3_4697, i32* %eax.global-to-local, align 4
  %v1_469d = call i32 @unknown_8b84(i32 %v3_4697)
  store i32 %v1_469d, i32* %eax.global-to-local, align 4
  %v0_46a2 = load i32, i32* %ebp.global-to-local, align 4
  %v1_46a2 = add i32 %v0_46a2, -28
  %v2_46a2 = inttoptr i32 %v1_46a2 to i32*
  %v3_46a2 = load i32, i32* %v2_46a2, align 4
  %v1_46a5 = inttoptr i32 %v3_46a2 to i32*
  %v2_46a5 = load i32, i32* %v1_46a5, align 4
  %v1_46ab = add i32 %v0_46a2, -36
  %v2_46ab = inttoptr i32 %v1_46ab to i32*
  %v3_46ab = load i32, i32* %v2_46ab, align 4
  store i32 %v3_46ab, i32* %eax.global-to-local, align 4
  %v1_46b2 = add i32 %v0_46a2, -32
  %v2_46b2 = inttoptr i32 %v1_46b2 to i32*
  %v3_46b2 = load i32, i32* %v2_46b2, align 4
  store i32 %v3_46b2, i32* %eax.global-to-local, align 4
  %v4_46bc = call i32 @unknown_a247(i32 %v2_46a5, i32 %v3_46b2, i32 %v3_46ab, i32 %v1_469d)
  store i32 %v4_46bc, i32* %eax.global-to-local, align 4
  %v0_46c1 = load i32, i32* %ebp.global-to-local, align 4
  %v1_46c1 = add i32 %v0_46c1, -28
  %v2_46c1 = inttoptr i32 %v1_46c1 to i32*
  %v3_46c1 = load i32, i32* %v2_46c1, align 4
  store i32 %v3_46c1, i32* %eax.global-to-local, align 4
  %v1_46c4 = add i32 %v3_46c1, 8
  %v2_46c4 = inttoptr i32 %v1_46c4 to i32*
  %v3_46c4 = load i32, i32* %v2_46c4, align 4
  %v3_46c7 = load i32, i32* %v2_46c1, align 4
  store i32 %v3_46c7, i32* %eax.global-to-local, align 4
  %v2_46ca = add i32 %v3_46c7, 4
  %v3_46ca = inttoptr i32 %v2_46ca to i32*
  store i32 %v3_46c4, i32* %v3_46ca, align 4
  %v0_46cd = load i32, i32* %ebp.global-to-local, align 4
  %v1_46cd = add i32 %v0_46cd, -12
  %v2_46cd = inttoptr i32 %v1_46cd to i32*
  %v3_46cd = load i32, i32* %v2_46cd, align 4
  store i32 %v3_46cd, i32* %eax.global-to-local, align 4
  %v1_46d0 = load i32, i32* inttoptr (i32 20 to i32*), align 4
  %v2_46d0 = xor i32 %v1_46d0, %v3_46cd
  store i1 false, i1* %cf.global-to-local, align 1
  store i32 %v2_46d0, i32* %eax.global-to-local, align 4
  %v1_46de = inttoptr i32 %v0_46cd to i32*
  %v2_46de = load i32, i32* %v1_46de, align 4
  store i32 %v2_46de, i32* @ebp, align 4
  ret i32 %v2_46d0

; uselistorder directives
  uselistorder i32 %v0_46a2, { 1, 0, 2 }
  uselistorder i8 %v4_468e, { 0, 2, 1 }
  uselistorder i8 %v1_468e, { 1, 0 }
  uselistorder i8 %v9_4688, { 1, 0 }
  uselistorder i8 %v8_4688, { 1, 0 }
  uselistorder i8 %v3_4688, { 1, 2, 0 }
}

define i32 @_ZNKSt6vectorIhSaIhEE8capacityEv(i32* %arg1) local_unnamed_addr {
dec_label_pc_46e0:
  %ebp.global-to-local = alloca i32, align 4
  %tmp100 = ptrtoint i32* %arg1 to i32
  %v0_46e0 = load i32, i32* %ebp.global-to-local, align 4
  %v1_46fa = add i32 %tmp100, 8
  %v2_46fa = inttoptr i32 %v1_46fa to i32*
  %v3_46fa = load i32, i32* %v2_46fa, align 4
  %v2_4702 = load i32, i32* %arg1, align 4
  %v2_4706 = sub i32 %v3_46fa, %v2_4702
  store i32 %v0_46e0, i32* %ebp.global-to-local, align 4
  ret i32 %v2_4706
}

define i32 @_ZNSt6vectorIhSaIhEE20_M_allocate_and_copyIN9__gnu_cxx17__normal_iteratorIPKhS1_EEEEPhjT_S9_(i32 %arg1) local_unnamed_addr {
dec_label_pc_471e:
  ret i32 %arg1
}

define i32 @function_4728(i32 %arg1) local_unnamed_addr {
dec_label_pc_4728:
  %v0_4728 = load i32, i32* @eax, align 4
  %v1_4728 = load i32, i32* @ebp, align 4
  %v2_4728 = add i32 %v1_4728, -28
  %v3_4728 = inttoptr i32 %v2_4728 to i32*
  store i32 %v0_4728, i32* %v3_4728, align 4
  %v0_472b = load i32, i32* @ebp, align 4
  %v1_472b = add i32 %v0_472b, 12
  %v2_472b = inttoptr i32 %v1_472b to i32*
  %v3_472b = load i32, i32* %v2_472b, align 4
  %v2_472e = add i32 %v0_472b, -32
  %v3_472e = inttoptr i32 %v2_472e to i32*
  store i32 %v3_472b, i32* %v3_472e, align 4
  %v0_4731 = load i32, i32* @ebp, align 4
  %v1_4731 = add i32 %v0_4731, 16
  %v2_4731 = inttoptr i32 %v1_4731 to i32*
  %v3_4731 = load i32, i32* %v2_4731, align 4
  %v2_4734 = add i32 %v0_4731, -36
  %v3_4734 = inttoptr i32 %v2_4734 to i32*
  store i32 %v3_4731, i32* %v3_4734, align 4
  %v0_4737 = load i32, i32* @ebp, align 4
  %v1_4737 = add i32 %v0_4737, 20
  %v2_4737 = inttoptr i32 %v1_4737 to i32*
  %v3_4737 = load i32, i32* %v2_4737, align 4
  %v2_473a = add i32 %v0_4737, -40
  %v3_473a = inttoptr i32 %v2_473a to i32*
  store i32 %v3_4737, i32* %v3_473a, align 4
  %v0_473d = load i32, i32* inttoptr (i32 20 to i32*), align 4
  %v1_4743 = load i32, i32* @ebp, align 4
  %v2_4743 = add i32 %v1_4743, -12
  %v3_4743 = inttoptr i32 %v2_4743 to i32*
  store i32 %v0_473d, i32* %v3_4743, align 4
  %v0_4748 = load i32, i32* @ebp, align 4
  %v1_4748 = add i32 %v0_4748, -28
  %v2_4748 = inttoptr i32 %v1_4748 to i32*
  %v3_4748 = load i32, i32* %v2_4748, align 4
  %v1_474b = add i32 %v0_4748, -32
  %v2_474b = inttoptr i32 %v1_474b to i32*
  %v3_474b = load i32, i32* %v2_474b, align 4
