source_filename = "test"
target datalayout = "e-m:e-p:32:32-f64:32:64-f80:32-n8:16:32-S128"

%vtable_2a6d0_type = type { i32 (i32*)*, i32 (i32*)*, i32 (i32)* }
%vtable_38ed8_type = type { i32 (i32*)*, i32 (i32*)*, i32 ()* }
%vtable_38ef0_type = type { i32 (i32*)*, i32 (i32*)*, i32 ()* }
%vtable_38f28_type = type { i32 (i32*)*, i32 (i32*)*, i32 ()* }
%vtable_38f68_type = type { i32 (i32*)*, i32 (i32*)*, i32 ()*, i32 (i32)*, i32 (i32)* }
%vtable_38fe8_type = type { i32 (i32*)*, i32 (i32*)*, i32 ()* }
%vtable_39008_type = type { i32 (i32*)*, i32 (i32*)*, i32 ()* }
%vtable_39048_type = type { i32 (i32*)*, i32 (i32*)*, i32 ()*, i32 (i32)*, i32 (i32)* }
%vtable_390d8_type = type { i32 (i32*)*, i32 (i32*)*, i32 ()* }
%vtable_39108_type = type { i32 (i32*)*, i32 (i32*)*, i32 ()* }
%vtable_39148_type = type { i32 (i32*)*, i32 (i32*)*, i32 ()*, i32 (i32)*, i32 (i32)* }
%vtable_39228_type = type { i32 (i32*)*, i32 (i32*)*, i32 ()* }
%vtable_39240_type = type { i32 (i32*)*, i32 (i32*)*, i32 (i32*, i32)* }
%vtable_39290_type = type { i32 (i32*)*, i32 (i32*)*, i32 (i32*, i32)* }
%vtable_392e0_type = type { i32 (i32*)*, i32 (i32*)*, i32 (i32*, i32)* }
%vtable_39348_type = type { i32 (i32*)*, i32 (i32*)*, i32 (i32)* }
%vtable_39360_type = type { i32 (i32*)*, i32 (i32*)*, i32 (i32)*, i32 ()* }
%vtable_393e0_type = type { i32 (i32*)*, i32 (i32*)*, i32 ()* }
%vtable_39448_type = type { i32 (i32*)*, i32 (i32*)*, i32 ()* }
%vtable_39488_type = type { i32 (i32*)*, i32 (i32*)*, i32 ()*, i32 (i32)*, i32 (i32)* }
%vtable_39548_type = type { i32 (i32*)*, i32 (i32*)*, i32 (i32)*, i32 (i32*)*, i32 ()* }
%vtable_395e8_type = type { i32 (i32*)*, i32 (i32*)*, i32 (i32)* }
%vtable_39628_type = type { i32 (i32*)*, i32 (i32*)*, i32 ()* }
%vtable_39668_type = type { i32 (i32*)*, i32 (i32*)*, i32 ()*, i32 (i32)*, i32 (i32)* }
%vtable_396e8_type = type { i32 (i32*)*, i32 (i32*)*, i32 ()* }
%vtable_39708_type = type { i32 (i32*)*, i32 (i32*)*, i32 ()* }
%vtable_39748_type = type { i32 (i32*)*, i32 (i32*)*, i32 ()*, i32 (i32)*, i32 (i32)* }
%vtable_397c8_type = type { i32 (i32*)*, i32 (i32*)*, i32 ()* }
%vtable_397e8_type = type { i32 (i32*)*, i32 (i32*)*, i32 ()* }
%vtable_39828_type = type { i32 (i32*)*, i32 (i32*)*, i32 ()*, i32 (i32)*, i32 (i32)* }
%vtable_398a8_type = type { i32 (i32*)*, i32 (i32*)*, i32 ()* }
%vtable_398c8_type = type { i32 (i32*)*, i32 (i32*)*, i32 ()* }
%vtable_39908_type = type { i32 (i32*)*, i32 (i32*)*, i32 ()*, i32 (i32)*, i32 (i32)* }
%vtable_39988_type = type { i32 (i32*)*, i32 (i32*)*, i32 (i32)* }
%vtable_399a0_type = type { i32 (i32*)*, i32 (i32*)*, i32 (i32)*, i32 (i32*)*, i32 ()* }
%vtable_399c0_type = type { i32 (i32*)*, i32 (i32*)*, i32 (i32*, i32)* }
%vtable_399d8_type = type { i32 (i32*)*, i32 (i32*)*, i32 (i32*, i32)* }
%vtable_39a08_type = type { i32 (i32*)*, i32 (i32*)*, i32 (i32*, i32)* }
%vtable_39a20_type = type { i32 (i32*)*, i32 (i32*)*, i32 (i32*, i32)* }
%vtable_39a38_type = type { i32 (i32*)*, i32 (i32*)*, i32 (i32*, i32)* }
%vtable_39a50_type = type { i32 (i32*)*, i32 (i32*)*, i32 (i32*, i32)* }
%vtable_39a68_type = type { i32 (i32*)*, i32 (i32*)*, i32 (i32*, i32)* }
%vtable_39a80_type = type { i32 (i32*)*, i32 (i32*)*, i32 (i32*, i32)* }
%vtable_39a98_type = type { i32 (i32*)*, i32 (i32*)*, i32 (i32*, i32)* }
%vtable_39ac8_type = type { i32 (i32*)*, i32 (i32*)*, i32 (i32*, i32)* }
%vtable_39af8_type = type { i32 (i32*)*, i32 (i32*)*, i32 (i32*, i32)* }
%vtable_39bd0_type = type { i32 (i32*)*, i32 (i32*)*, i32 (i32)*, i32 (i32*)*, i32 ()* }
%vtable_39d48_type = type { i32 (i32*)*, i32 (i32*)* }
%vtable_39d88_type = type { i32 (i32*)*, i32 (i32*)*, i32 (i32)*, i32 (i32)* }
%vtable_39dd0_type = type { i32 (i32*)*, i32 (i32*)*, i32 (i32)*, i32 (i32*)*, i32 ()* }
%has_fallback_type__1 = type { i32 }
%has_fallback_type_ = type { i32 }
%has_fallback_type_.0 = type { i32 }
%has_fallback_type__1.1 = type { i32 }
%has_fallback_type__2 = type { i32 }
%"vector<boost::filesystem3::path,std::allocator<boost::filesystem3::path>>" = type { i32 }

@cf = internal unnamed_addr global i1 false
@zf = internal unnamed_addr global i1 false
@sf = internal unnamed_addr global i1 false
@tf = internal unnamed_addr global i1 false
@if = internal unnamed_addr global i1 false
@df = internal unnamed_addr global i1 false
@of = internal unnamed_addr global i1 false
@nt = internal unnamed_addr global i1 false
@gs = internal unnamed_addr global i16 0
@eax = internal unnamed_addr global i32 0
@ecx = internal unnamed_addr global i32 0
@edx = internal unnamed_addr global i32 0
@ebx = internal unnamed_addr global i32 0
@esp = internal unnamed_addr global i32 0
@ebp = internal unnamed_addr global i32 0
@esi = internal unnamed_addr global i32 0
@edi = internal unnamed_addr global i32 0
@global_var_b6.3266 = constant i32 608487168
@global_var_1c.3271 = constant i32 5125
@global_var_18.3278 = constant i32 862260260
@global_var_20.3279 = constant i32 -2096859904
@global_var_e8.3284 = constant i32 608471296
@global_var_4c.3290 = constant i32 5125
@global_var_9a2c.3296 = constant [9 x i8] c"Options:\00"
@global_var_e8f0.3297 = constant i32 1509967621
@global_var_9c86.3298 = constant [26 x i8] c"  -discover              \00"
@global_var_5424.3300 = constant i32 41506
@global_var_96.3308 = constant i32 -4
@global_var_c0a8.3311 = constant [35 x i8] c"wallet.dat corrupt, salvage failed\00"
@global_var_80.3314 = constant i32 -973078528
@global_var_c148.3316 = constant [62 x i8] c"Failed to listen on any port. Use -listen=0 if you want this.\00"
@global_var_8bc6.3317 = constant [3 x i8] c"t&\00"
@global_var_dc.3318 = constant i32 0
@global_var_a5b6.3319 = constant [21 x i8] c"Loading addresses...\00"
@global_var_9724.3320 = constant [26 x i8] c"st::thread_resource_error\00"
@global_var_e824.3321 = constant i32 1330
@global_var_198.3322 = constant i32 666668288
@global_var_120.3323 = constant i32 1697442947
@global_var_41.3324 = constant i32 0
@global_var_f175.3325 = constant i32 -65536
@global_var_38f50.3327 = constant i32 0
@global_var_970f.3328 = constant [18 x i8] c"boost::lock_error\00"
@global_var_9721.3329 = constant [29 x i8] c"boost::thread_resource_error\00"
@global_var_391c8.3330 = constant i32 42736
@global_var_2a6a8.3331 = constant i32 42880
@global_var_a8e0.3333 = constant [32 x i8] c"boost::signals2::no_slots_error\00"
@global_var_fe.3394 = constant i32 608487168
@global_var_39da0.3405 = constant i32 77120
@global_var_39db4.3406 = constant i32 73648
@global_var_38f08.3407 = constant i32 0
@global_var_394a4.3408 = constant i32 79440
@global_var_394b4.3410 = constant i32 73808
@global_var_38f84.3412 = constant i32 80176
@global_var_38f94.3414 = constant i32 73984
@global_var_39064.3416 = constant i32 79824
@global_var_39074.3418 = constant i32 74176
@global_var_39684.3420 = constant i32 77360
@global_var_39694.3422 = constant i32 74656
@global_var_39164.3423 = constant i32 78592
@global_var_39174.3425 = constant i32 74864
@global_var_39764.3426 = constant i32 78224
@global_var_39774.3428 = constant i32 75088
@global_var_39844.3429 = constant i32 79088
@global_var_39854.3431 = constant i32 75312
@global_var_39924.3432 = constant i32 77984
@global_var_39934.3434 = constant i32 75536
@global_var_39d58.3437 = constant i32 76128
@global_var_3963c.3439 = constant i32 76224
@global_var_3971c.3441 = constant i32 76320
@global_var_38f3c.3443 = constant i32 76432
@global_var_3901c.3445 = constant i32 76544
@global_var_3911c.3447 = constant i32 76656
@global_var_398dc.3449 = constant i32 76768
@global_var_397fc.3451 = constant i32 76880
@global_var_3945c.3453 = constant i32 76992
@global_var_60.3454 = constant i32 1696394371
@global_var_2444.3455 = constant i32 -1511460727
@global_var_38.3456 = constant i32 608471296
@global_var_34.3466 = constant i32 5281
@global_var_ab50.3467 = constant [45 x i8] c"boost::interprocess_exception::library_error\00"
@global_var_30.3470 = constant i32 1696394371
@global_var_3c.3471 = constant i32 -960483060
@global_var_50.3473 = constant i32 -2096859904
@global_var_e4.3479 = constant i32 5281
@global_var_68.3484 = constant i32 608471296
@global_var_39dc8.3485 = local_unnamed_addr constant i32 0
@global_var_38e20.3486 = constant [169 x i8] c"boost::exception_ptr boost::exception_detail::get_bad_alloc() [with int Dummy = 42, boost::exception_ptr = boost::shared_ptr<const boost::exception_detail::clone_base>]\00"
@global_var_ac68.3487 = constant [54 x i8] c"/usr/include/boost/exception/detail/exception_ptr.hpp\00"
@global_var_51.3488 = constant i32 -998046603
@global_var_39dcc.3489 = local_unnamed_addr constant i32 239744
@global_var_3a880.3490 = constant i32 8
@global_var_3db40.3491 = constant [90 x i8] c"N5boost6detail17sp_counted_impl_pINS_16exception_detail10clone_implINS2_10bad_alloc_EEEEE\00"
@global_var_3a884.3492 = local_unnamed_addr constant [90 x i8]* @global_var_3db40.3491
@global_var_3a885.3493 = constant i32 1543504859
@global_var_84.3506 = constant i32 5
@global_var_88.3507 = constant i32 158662656
@global_var_a0.3519 = constant i32 1697442947
@global_var_40.3547 = constant i32 5
@global_var_44.3548 = constant i32 1149960448
@global_var_577.3550 = constant i32 39054
@global_var_11.3555 = constant i32 38624
@global_var_1d.3556 = constant i32 20
@global_var_15020.3558 = constant i32 1699540099
@global_var_98.3568 = constant i32 -1232207873
@global_var_ad8c.3573 = constant [51 x i8] c"/usr/include/boost/signals2/detail/slot_groups.hpp\00"
@global_var_32500.3580 = constant [917 x i8] c"boost::signals2::detail::grouped_list<Group, GroupCompare, ValueType>::grouped_list(const boost::signals2::detail::grouped_list<Group, GroupCompare, ValueType>&) [with Group = int, GroupCompare = std::less<int>, ValueType = boost::shared_ptr<boost::signals2::detail::connection_body<std::pair<boost::signals2::detail::slot_meta_group, boost::optional<int> >, boost::signals2::slot1<void, const std::basic_string<char>&, boost::function<void(const std::basic_string<char>&)> >, boost::signals2::mutex> >, boost::signals2::detail::grouped_list<Group, GroupCompare, ValueType> = boost::signals2::detail::grouped_list<int, std::less<int>, boost::shared_ptr<boost::signals2::detail::connection_body<std::pair<boost::signals2::detail::slot_meta_group, boost::optional<int> >, boost::signals2::slot1<void, const std::basic_string<char>&, boost::function<void(const std::basic_string<char>&)> >, boost::signals2::mutex> > >]\00"
@global_var_c5f0.3602 = constant i32 1696394371
@global_var_5.3604 = constant i32 20
@0 = external global i32
@1 = internal constant [6 x i8] c"\EC\1Ce\A1\14\00"
@global_var_1.3274 = constant i8* getelementptr inbounds ([6 x i8], [6 x i8]* @1, i32 0, i32 0)
@2 = internal constant [7 x i8] c"\FF\8D\9C$\D4\02\00"
@global_var_27bc.3275 = constant i8* getelementptr inbounds ([7 x i8], [7 x i8]* @2, i32 0, i32 0)
@global_var_4.3276 = constant i16* inttoptr (i32 5281 to i16*)
@global_var_8.3277 = external constant i8*
@global_var_70.3282 = constant i8 61
@global_var_89.3286 = constant i8 0
@global_var_c7.3287 = constant i8 -57
@global_var_96e0.3291 = local_unnamed_addr constant i1 true
@global_var_ff.3305 = constant i8 -57
@global_var_83.3312 = constant i8 -58
@3 = internal constant [7 x i8] c"$\0Ce3\05\14\00"
@global_var_48.3313 = constant i8* getelementptr inbounds ([7 x i8], [7 x i8]* @3, i32 0, i32 0)
@global_var_65.3326 = constant i8 20
@global_var_85.3361 = constant i8 0
@4 = internal constant [3 x i8] c"\03$\00"
@global_var_ec83.3474 = constant i8* getelementptr inbounds ([3 x i8], [3 x i8]* @4, i32 0, i32 0)
@global_var_f083.3475 = external constant i8*
@global_var_d8.3476 = external constant i8*
@5 = internal constant [4 x i8] c"\8D\BC'\00"
@global_var_d9.3477 = constant i8* getelementptr inbounds ([4 x i8], [4 x i8]* @5, i32 0, i32 0)
@6 = internal constant [3 x i8] c"\BC'\00"
@global_var_da.3478 = constant i8* getelementptr inbounds ([3 x i8], [3 x i8]* @6, i32 0, i32 0)
@global_var_74.3482 = constant i8 0
@global_var_39.3508 = constant i8 -119
@global_var_1a2c.3551 = constant i16 368
@global_var_ffff.3552 = constant i64 6667584886641024138
@global_var_147b.3553 = constant i64 2602105335597795584
@global_var_a3e.3554 = constant i64 740574407
@global_var_2a6d0.3335 = constant %vtable_2a6d0_type { i32 (i32*)* @_ZN5boost6system12system_errorD1Ev, i32 (i32*)* @_ZN5boost6system12system_errorD0Ev, i32 (i32)* @_ZNK5boost6system12system_error4whatEv }
@global_var_38ed8.3336 = constant %vtable_38ed8_type { i32 (i32*)* @_ZN5boost16thread_exceptionD1Ev, i32 (i32*)* @_ZN5boost16thread_exceptionD0Ev, i32 ()* @fRequestShutdown }
@global_var_38ef0.3411 = constant %vtable_38ef0_type { i32 (i32*)* @_ZN5boost21thread_resource_errorD1Ev, i32 (i32*)* @_ZN5boost21thread_resource_errorD0Ev, i32 ()* @_ZNK5boost21thread_resource_error4whatEv }
@global_var_38f28.3442 = constant %vtable_38f28_type { i32 (i32*)* @_ZN5boost16exception_detail19error_info_injectorINS_21thread_resource_errorEED1Ev, i32 (i32*)* @_ZN5boost16exception_detail19error_info_injectorINS_21thread_resource_errorEED0Ev, i32 ()* @_ZNK5boost21thread_resource_error4whatEv }
@global_var_38f68.3413 = constant %vtable_38f68_type { i32 (i32*)* @_ZN5boost16exception_detail10clone_implINS0_19error_info_injectorINS_21thread_resource_errorEEEED1Ev, i32 (i32*)* @_ZN5boost16exception_detail10clone_implINS0_19error_info_injectorINS_21thread_resource_errorEEEED0Ev, i32 ()* @_ZNK5boost21thread_resource_error4whatEv, i32 (i32)* @_ZNK5boost16exception_detail10clone_implINS0_19error_info_injectorINS_21thread_resource_errorEEEE5cloneEv, i32 (i32)* @_ZNK5boost16exception_detail10clone_implINS0_19error_info_injectorINS_21thread_resource_errorEEEE7rethrowEv }
@global_var_38fe8.3415 = constant %vtable_38fe8_type { i32 (i32*)* @_ZN5boost10lock_errorD1Ev, i32 (i32*)* @_ZN5boost10lock_errorD0Ev, i32 ()* @_ZNK5boost10lock_error4whatEv }
@global_var_39008.3444 = constant %vtable_39008_type { i32 (i32*)* @_ZN5boost16exception_detail19error_info_injectorINS_10lock_errorEED1Ev, i32 (i32*)* @_ZN5boost16exception_detail19error_info_injectorINS_10lock_errorEED0Ev, i32 ()* @_ZNK5boost10lock_error4whatEv }
@global_var_39048.3417 = constant %vtable_39048_type { i32 (i32*)* @_ZN5boost16exception_detail10clone_implINS0_19error_info_injectorINS_10lock_errorEEEED1Ev, i32 (i32*)* @_ZN5boost16exception_detail10clone_implINS0_19error_info_injectorINS_10lock_errorEEEED0Ev, i32 ()* @_ZNK5boost10lock_error4whatEv, i32 (i32)* @_ZNK5boost16exception_detail10clone_implINS0_19error_info_injectorINS_10lock_errorEEEE5cloneEv, i32 (i32)* @_ZNK5boost16exception_detail10clone_implINS0_19error_info_injectorINS_10lock_errorEEEE7rethrowEv }
@global_var_390d8.3334 = constant %vtable_390d8_type { i32 (i32*)* @_ZN5boost17bad_function_callD1Ev, i32 (i32*)* @_ZN5boost17bad_function_callD0Ev, i32 ()* @fRequestShutdown }
@global_var_39108.3446 = constant %vtable_39108_type { i32 (i32*)* @_ZN5boost16exception_detail19error_info_injectorINS_17bad_function_callEED1Ev, i32 (i32*)* @_ZN5boost16exception_detail19error_info_injectorINS_17bad_function_callEED0Ev, i32 ()* @fRequestShutdown }
@global_var_39148.3424 = constant %vtable_39148_type { i32 (i32*)* @_ZN5boost16exception_detail10clone_implINS0_19error_info_injectorINS_17bad_function_callEEEED1Ev, i32 (i32*)* @_ZN5boost16exception_detail10clone_implINS0_19error_info_injectorINS_17bad_function_callEEEED0Ev, i32 ()* @fRequestShutdown, i32 (i32)* @_ZNK5boost16exception_detail10clone_implINS0_19error_info_injectorINS_17bad_function_callEEEE5cloneEv, i32 (i32)* @_ZNK5boost16exception_detail10clone_implINS0_19error_info_injectorINS_17bad_function_callEEEE7rethrowEv }
@global_var_39228.3332 = constant %vtable_39228_type { i32 (i32*)* @_ZN5boost8signals211signal_baseD1Ev, i32 (i32*)* @_ZN5boost8signals211signal_baseD0Ev, i32 ()* @fRequestShutdown }
@global_var_39240.3517 = constant %vtable_39240_type { i32 (i32*)* @_ZN5boost8signals27signal1IvP15CCryptoKeyStoreNS0_19optional_last_valueIvEEiSt4lessIiENS_8functionIFvS3_EEENS8_IFvRKNS0_10connectionES3_EEENS0_5mutexEED1Ev, i32 (i32*)* @_ZN5boost8signals27signal1IvP15CCryptoKeyStoreNS0_19optional_last_valueIvEEiSt4lessIiENS_8functionIFvS3_EEENS8_IFvRKNS0_10connectionES3_EEENS0_5mutexEED0Ev, i32 (i32*, i32)* @_ZNK5boost8signals27signal1IvP15CCryptoKeyStoreNS0_19optional_last_valueIvEEiSt4lessIiENS_8functionIFvS3_EEENS8_IFvRKNS0_10connectionES3_EEENS0_5mutexEE10lock_pimplEv }
@global_var_39290.3523 = constant %vtable_39290_type { i32 (i32*)* @_ZN5boost8signals27signal5IvP7CWalletRKNS_7variantI14CNoDestination6CKeyID9CScriptIDNS_6detail7variant5void_ESA_SA_SA_SA_SA_SA_SA_SA_SA_SA_SA_SA_SA_SA_SA_SA_EERKSsb10ChangeTypeNS0_19optional_last_valueIvEEiSt4lessIiENS_8functionIFvS3_SD_SF_bSG_EEENSL_IFvRKNS0_10connectionES3_SD_SF_bSG_EEENS0_5mutexEED1Ev, i32 (i32*)* @_ZN5boost8signals27signal5IvP7CWalletRKNS_7variantI14CNoDestination6CKeyID9CScriptIDNS_6detail7variant5void_ESA_SA_SA_SA_SA_SA_SA_SA_SA_SA_SA_SA_SA_SA_SA_SA_EERKSsb10ChangeTypeNS0_19optional_last_valueIvEEiSt4lessIiENS_8functionIFvS3_SD_SF_bSG_EEENSL_IFvRKNS0_10connectionES3_SD_SF_bSG_EEENS0_5mutexEED0Ev, i32 (i32*, i32)* @_ZNK5boost8signals27signal5IvP7CWalletRKNS_7variantI14CNoDestination6CKeyID9CScriptIDNS_6detail7variant5void_ESA_SA_SA_SA_SA_SA_SA_SA_SA_SA_SA_SA_SA_SA_SA_SA_EERKSsb10ChangeTypeNS0_19optional_last_valueIvEEiSt4lessIiENS_8functionIFvS3_SD_SF_bSG_EEENSL_IFvRKNS0_10connectionES3_SD_SF_bSG_EEENS0_5mutexEE10lock_pimplEv }
@global_var_392e0.3527 = constant %vtable_392e0_type { i32 (i32*)* @_ZN5boost8signals27signal3IvP7CWalletRK7uint25610ChangeTypeNS0_19optional_last_valueIvEEiSt4lessIiENS_8functionIFvS3_S6_S7_EEENSC_IFvRKNS0_10connectionES3_S6_S7_EEENS0_5mutexEED1Ev, i32 (i32*)* @_ZN5boost8signals27signal3IvP7CWalletRK7uint25610ChangeTypeNS0_19optional_last_valueIvEEiSt4lessIiENS_8functionIFvS3_S6_S7_EEENSC_IFvRKNS0_10connectionES3_S6_S7_EEENS0_5mutexEED0Ev, i32 (i32*, i32)* @_ZNK5boost8signals27signal3IvP7CWalletRK7uint25610ChangeTypeNS0_19optional_last_valueIvEEiSt4lessIiENS_8functionIFvS3_S6_S7_EEENSC_IFvRKNS0_10connectionES3_S6_S7_EEENS0_5mutexEE10lock_pimplEv }
@global_var_39348.3338 = constant %vtable_39348_type { i32 (i32*)* @_ZN5boost12interprocess22interprocess_exceptionD1Ev, i32 (i32*)* @_ZN5boost12interprocess22interprocess_exceptionD0Ev, i32 (i32)* @_ZNK5boost12interprocess22interprocess_exception4whatEv }
@global_var_39360.3343 = constant %vtable_39360_type { i32 (i32*)* @_ZN5boost6detail11thread_dataIPFvvEED1Ev, i32 (i32*)* @_ZN5boost6detail11thread_dataIPFvvEED0Ev, i32 (i32)* @_ZN5boost6detail11thread_dataIPFvvEE3runEv, i32 ()* @function_8 }
@global_var_393e0.3337 = constant %vtable_393e0_type { i32 (i32*)* @_ZN5boost8signals214no_slots_errorD1Ev, i32 (i32*)* @_ZN5boost8signals214no_slots_errorD0Ev, i32 ()* @_ZNK5boost8signals214no_slots_error4whatEv }
@global_var_39448.3452 = constant %vtable_39448_type { i32 (i32*)* @_ZN5boost16exception_detail19error_info_injectorINS_8signals214no_slots_errorEED1Ev, i32 (i32*)* @_ZN5boost16exception_detail19error_info_injectorINS_8signals214no_slots_errorEED0Ev, i32 ()* @_ZNK5boost8signals214no_slots_error4whatEv }
@global_var_39488.3409 = constant %vtable_39488_type { i32 (i32*)* @_ZN5boost16exception_detail10clone_implINS0_19error_info_injectorINS_8signals214no_slots_errorEEEED1Ev, i32 (i32*)* @_ZN5boost16exception_detail10clone_implINS0_19error_info_injectorINS_8signals214no_slots_errorEEEED0Ev, i32 ()* @_ZNK5boost8signals214no_slots_error4whatEv, i32 (i32)* @_ZNK5boost16exception_detail10clone_implINS0_19error_info_injectorINS_8signals214no_slots_errorEEEE5cloneEv.3264, i32 (i32)* @_ZNK5boost16exception_detail10clone_implINS0_19error_info_injectorINS_8signals214no_slots_errorEEEE7rethrowEv }
@global_var_39548.3571 = constant %vtable_39548_type { i32 (i32*)* @_ZN5boost6detail17sp_counted_impl_pINS_8signals219optional_last_valueIvEEED1Ev, i32 (i32*)* @_ZN5boost6detail17sp_counted_impl_pINS_8signals219optional_last_valueIvEEED0Ev, i32 (i32)* @_ZN5boost6detail17sp_counted_impl_pINS_8signals219optional_last_valueIvEEE7disposeEv, i32 (i32*)* @_ZN5boost6detail15sp_counted_base7destroyEv, i32 ()* @_ZN5boost6detail17sp_counted_impl_pINS_8signals219optional_last_valueIvEEE11get_deleterERKSt9type_info }
@global_var_395e8.3435 = constant %vtable_395e8_type { i32 (i32*)* @_ZN5boost6detail11thread_dataINS_3_bi6bind_tIvPFvSt6vectorINS_11filesystem34pathESaIS6_EEENS2_5list1INS2_5valueIS8_EEEEEEED1Ev, i32 (i32*)* @_ZN5boost6detail11thread_dataINS_3_bi6bind_tIvPFvSt6vectorINS_11filesystem34pathESaIS6_EEENS2_5list1INS2_5valueIS8_EEEEEEED0Ev, i32 (i32)* @_ZN5boost6detail11thread_dataINS_3_bi6bind_tIvPFvSt6vectorINS_11filesystem34pathESaIS6_EEENS2_5list1INS2_5valueIS8_EEEEEEE3runEv }
@global_var_39628.3438 = constant %vtable_39628_type { i32 (i32*)* @_ZN5boost16exception_detail19error_info_injectorISt13runtime_errorED1Ev, i32 (i32*)* @_ZN5boost16exception_detail19error_info_injectorISt13runtime_errorED0Ev, i32 ()* @fRequestShutdown }
@global_var_39668.3421 = constant %vtable_39668_type { i32 (i32*)* @_ZN5boost16exception_detail10clone_implINS0_19error_info_injectorISt13runtime_errorEEED1Ev, i32 (i32*)* @_ZN5boost16exception_detail10clone_implINS0_19error_info_injectorISt13runtime_errorEEED0Ev, i32 ()* @fRequestShutdown, i32 (i32)* @_ZNK5boost16exception_detail10clone_implINS0_19error_info_injectorISt13runtime_errorEEE5cloneEv, i32 (i32)* @_ZNK5boost16exception_detail10clone_implINS0_19error_info_injectorISt13runtime_errorEEE7rethrowEv }
@global_var_396e8.3339 = constant %vtable_396e8_type { i32 (i32*)* @_ZN5boost9gregorian16bad_day_of_monthD1Ev, i32 (i32*)* @_ZN5boost9gregorian16bad_day_of_monthD0Ev, i32 ()* @fRequestShutdown }
@global_var_39708.3440 = constant %vtable_39708_type { i32 (i32*)* @_ZN5boost16exception_detail19error_info_injectorINS_9gregorian16bad_day_of_monthEED1Ev, i32 (i32*)* @_ZN5boost16exception_detail19error_info_injectorINS_9gregorian16bad_day_of_monthEED0Ev, i32 ()* @fRequestShutdown }
@global_var_39748.3427 = constant %vtable_39748_type { i32 (i32*)* @_ZN5boost16exception_detail10clone_implINS0_19error_info_injectorINS_9gregorian16bad_day_of_monthEEEED1Ev, i32 (i32*)* @_ZN5boost16exception_detail10clone_implINS0_19error_info_injectorINS_9gregorian16bad_day_of_monthEEEED0Ev, i32 ()* @fRequestShutdown, i32 (i32)* @_ZNK5boost16exception_detail10clone_implINS0_19error_info_injectorINS_9gregorian16bad_day_of_monthEEEE5cloneEv, i32 (i32)* @_ZNK5boost16exception_detail10clone_implINS0_19error_info_injectorINS_9gregorian16bad_day_of_monthEEEE7rethrowEv }
@global_var_397c8.3341 = constant %vtable_397c8_type { i32 (i32*)* @_ZN5boost9gregorian9bad_monthD1Ev, i32 (i32*)* @_ZN5boost9gregorian9bad_monthD0Ev, i32 ()* @fRequestShutdown }
@global_var_397e8.3450 = constant %vtable_397e8_type { i32 (i32*)* @_ZN5boost16exception_detail19error_info_injectorINS_9gregorian9bad_monthEED1Ev, i32 (i32*)* @_ZN5boost16exception_detail19error_info_injectorINS_9gregorian9bad_monthEED0Ev, i32 ()* @fRequestShutdown }
@global_var_39828.3430 = constant %vtable_39828_type { i32 (i32*)* @_ZN5boost16exception_detail10clone_implINS0_19error_info_injectorINS_9gregorian9bad_monthEEEED1Ev, i32 (i32*)* @_ZN5boost16exception_detail10clone_implINS0_19error_info_injectorINS_9gregorian9bad_monthEEEED0Ev, i32 ()* @fRequestShutdown, i32 (i32)* @_ZNK5boost16exception_detail10clone_implINS0_19error_info_injectorINS_9gregorian9bad_monthEEEE5cloneEv, i32 (i32)* @_ZNK5boost16exception_detail10clone_implINS0_19error_info_injectorINS_9gregorian9bad_monthEEEE7rethrowEv }
@global_var_398a8.3340 = constant %vtable_398a8_type { i32 (i32*)* @_ZN5boost9gregorian8bad_yearD1Ev, i32 (i32*)* @_ZN5boost9gregorian8bad_yearD0Ev, i32 ()* @fRequestShutdown }
@global_var_398c8.3448 = constant %vtable_398c8_type { i32 (i32*)* @_ZN5boost16exception_detail19error_info_injectorINS_9gregorian8bad_yearEED1Ev, i32 (i32*)* @_ZN5boost16exception_detail19error_info_injectorINS_9gregorian8bad_yearEED0Ev, i32 ()* @fRequestShutdown }
@global_var_39908.3433 = constant %vtable_39908_type { i32 (i32*)* @_ZN5boost16exception_detail10clone_implINS0_19error_info_injectorINS_9gregorian8bad_yearEEEED1Ev, i32 (i32*)* @_ZN5boost16exception_detail10clone_implINS0_19error_info_injectorINS_9gregorian8bad_yearEEEED0Ev, i32 ()* @fRequestShutdown, i32 (i32)* @_ZNK5boost16exception_detail10clone_implINS0_19error_info_injectorINS_9gregorian8bad_yearEEEE5cloneEv, i32 (i32)* @_ZNK5boost16exception_detail10clone_implINS0_19error_info_injectorINS_9gregorian8bad_yearEEEE7rethrowEv }
@global_var_39988.3342 = constant %vtable_39988_type { i32 (i32*)* @_ZN5boost6detail11thread_dataINS_3_bi6bind_tIvPFvRKSsENS2_5list1INS_17reference_wrapperISsEEEEEEED1Ev, i32 (i32*)* @_ZN5boost6detail11thread_dataINS_3_bi6bind_tIvPFvRKSsENS2_5list1INS_17reference_wrapperISsEEEEEEED0Ev, i32 (i32)* @_ZN5boost6detail11thread_dataINS_3_bi6bind_tIvPFvRKSsENS2_5list1INS_17reference_wrapperISsEEEEEEE3runEv }
@global_var_399a0.3509 = constant %vtable_399a0_type { i32 (i32*)* @_ZN5boost6detail17sp_counted_impl_pINS0_11thread_dataINS_3_bi6bind_tIvPFvRKSsENS3_5list1INS_17reference_wrapperISsEEEEEEEEED1Ev, i32 (i32*)* @_ZN5boost6detail17sp_counted_impl_pINS0_11thread_dataINS_3_bi6bind_tIvPFvRKSsENS3_5list1INS_17reference_wrapperISsEEEEEEEEED0Ev, i32 (i32)* @_ZN5boost6detail17sp_counted_impl_pINS0_11thread_dataINS_3_bi6bind_tIvPFvRKSsENS3_5list1INS_17reference_wrapperISsEEEEEEEEE7disposeEv, i32 (i32*)* @_ZN5boost6detail15sp_counted_base7destroyEv, i32 ()* @_ZN5boost6detail17sp_counted_impl_pINS0_11thread_dataINS_3_bi6bind_tIvPFvRKSsENS3_5list1INS_17reference_wrapperISsEEEEEEEEE11get_deleterERKSt9type_info }
@global_var_399c0.3589 = constant %vtable_399c0_type { i32 (i32*)* @_ZN5boost8signals26signalIFvRK7uint25610ChangeTypeENS0_19optional_last_valueIvEEiSt4lessIiENS_8functionIS6_EENSB_IFvRKNS0_10connectionES4_S5_EEENS0_5mutexEED1Ev, i32 (i32*)* @_ZN5boost8signals26signalIFvRK7uint25610ChangeTypeENS0_19optional_last_valueIvEEiSt4lessIiENS_8functionIS6_EENSB_IFvRKNS0_10connectionES4_S5_EEENS0_5mutexEED0Ev, i32 (i32*, i32)* @_ZNK5boost8signals27signal2IvRK7uint25610ChangeTypeNS0_19optional_last_valueIvEEiSt4lessIiENS_8functionIFvS4_S5_EEENSA_IFvRKNS0_10connectionES4_S5_EEENS0_5mutexEE10lock_pimplEv }
@global_var_399d8.3546 = constant %vtable_399d8_type { i32 (i32*)* @_ZN5boost8signals27signal2IvRK7uint25610ChangeTypeNS0_19optional_last_valueIvEEiSt4lessIiENS_8functionIFvS4_S5_EEENSA_IFvRKNS0_10connectionES4_S5_EEENS0_5mutexEED1Ev, i32 (i32*)* @_ZN5boost8signals27signal2IvRK7uint25610ChangeTypeNS0_19optional_last_valueIvEEiSt4lessIiENS_8functionIFvS4_S5_EEENSA_IFvRKNS0_10connectionES4_S5_EEENS0_5mutexEED0Ev, i32 (i32*, i32)* @_ZNK5boost8signals27signal2IvRK7uint25610ChangeTypeNS0_19optional_last_valueIvEEiSt4lessIiENS_8functionIFvS4_S5_EEENSA_IFvRKNS0_10connectionES4_S5_EEENS0_5mutexEE10lock_pimplEv }
@global_var_39a08.3542 = constant %vtable_39a08_type { i32 (i32*)* @_ZN5boost8signals27signal1IviNS0_19optional_last_valueIvEEiSt4lessIiENS_8functionIFviEEENS6_IFvRKNS0_10connectionEiEEENS0_5mutexEED1Ev, i32 (i32*)* @_ZN5boost8signals27signal1IviNS0_19optional_last_valueIvEEiSt4lessIiENS_8functionIFviEEENS6_IFvRKNS0_10connectionEiEEENS0_5mutexEED0Ev, i32 (i32*, i32)* @_ZNK5boost8signals27signal1IviNS0_19optional_last_valueIvEEiSt4lessIiENS_8functionIFviEEENS6_IFvRKNS0_10connectionEiEEENS0_5mutexEE10lock_pimplEv }
@global_var_39a20.3588 = constant %vtable_39a20_type { i32 (i32*)* @_ZN5boost8signals26signalIFvvENS0_19optional_last_valueIvEEiSt4lessIiENS_8functionIS2_EENS7_IFvRKNS0_10connectionEEEENS0_5mutexEED1Ev, i32 (i32*)* @_ZN5boost8signals26signalIFvvENS0_19optional_last_valueIvEEiSt4lessIiENS_8functionIS2_EENS7_IFvRKNS0_10connectionEEEENS0_5mutexEED0Ev, i32 (i32*, i32)* @_ZNK5boost8signals27signal0IvNS0_19optional_last_valueIvEEiSt4lessIiENS_8functionIFvvEEENS6_IFvRKNS0_10connectionEEEENS0_5mutexEE10lock_pimplEv }
@global_var_39a38.3538 = constant %vtable_39a38_type { i32 (i32*)* @_ZN5boost8signals27signal0IvNS0_19optional_last_valueIvEEiSt4lessIiENS_8functionIFvvEEENS6_IFvRKNS0_10connectionEEEENS0_5mutexEED1Ev, i32 (i32*)* @_ZN5boost8signals27signal0IvNS0_19optional_last_valueIvEEiSt4lessIiENS_8functionIFvvEEENS6_IFvRKNS0_10connectionEEEENS0_5mutexEED0Ev, i32 (i32*, i32)* @_ZNK5boost8signals27signal0IvNS0_19optional_last_valueIvEEiSt4lessIiENS_8functionIFvvEEENS6_IFvRKNS0_10connectionEEEENS0_5mutexEE10lock_pimplEv }
@global_var_39a50.3587 = constant %vtable_39a50_type { i32 (i32*)* @_ZN5boost8signals26signalIFSsPKcENS0_19optional_last_valueISsEEiSt4lessIiENS_8functionIS4_EENS9_IFSsRKNS0_10connectionES3_EEENS0_5mutexEED1Ev, i32 (i32*)* @_ZN5boost8signals26signalIFSsPKcENS0_19optional_last_valueISsEEiSt4lessIiENS_8functionIS4_EENS9_IFSsRKNS0_10connectionES3_EEENS0_5mutexEED0Ev, i32 (i32*, i32)* @_ZNK5boost8signals27signal1ISsPKcNS0_19optional_last_valueISsEEiSt4lessIiENS_8functionIFSsS3_EEENS8_IFSsRKNS0_10connectionES3_EEENS0_5mutexEE10lock_pimplEv }
@global_var_39a68.3534 = constant %vtable_39a68_type { i32 (i32*)* @_ZN5boost8signals27signal1ISsPKcNS0_19optional_last_valueISsEEiSt4lessIiENS_8functionIFSsS3_EEENS8_IFSsRKNS0_10connectionES3_EEENS0_5mutexEED1Ev, i32 (i32*)* @_ZN5boost8signals27signal1ISsPKcNS0_19optional_last_valueISsEEiSt4lessIiENS_8functionIFSsS3_EEENS8_IFSsRKNS0_10connectionES3_EEENS0_5mutexEED0Ev, i32 (i32*, i32)* @_ZNK5boost8signals27signal1ISsPKcNS0_19optional_last_valueISsEEiSt4lessIiENS_8functionIFSsS3_EEENS8_IFSsRKNS0_10connectionES3_EEENS0_5mutexEE10lock_pimplEv }
@global_var_39a80.3586 = constant %vtable_39a80_type { i32 (i32*)* @_ZN5boost8signals26signalIFvRKSsENS0_19optional_last_valueIvEEiSt4lessIiENS_8functionIS4_EENS9_IFvRKNS0_10connectionES3_EEENS0_5mutexEED1Ev, i32 (i32*)* @_ZN5boost8signals26signalIFvRKSsENS0_19optional_last_valueIvEEiSt4lessIiENS_8functionIS4_EENS9_IFvRKNS0_10connectionES3_EEENS0_5mutexEED0Ev, i32 (i32*, i32)* @_ZNK5boost8signals27signal1IvRKSsNS0_19optional_last_valueIvEEiSt4lessIiENS_8functionIFvS3_EEENS8_IFvRKNS0_10connectionES3_EEENS0_5mutexEE10lock_pimplEv }
@global_var_39a98.3533 = constant %vtable_39a98_type { i32 (i32*)* @_ZN5boost8signals27signal1IvRKSsNS0_19optional_last_valueIvEEiSt4lessIiENS_8functionIFvS3_EEENS8_IFvRKNS0_10connectionES3_EEENS0_5mutexEED1Ev, i32 (i32*)* @_ZN5boost8signals27signal1IvRKSsNS0_19optional_last_valueIvEEiSt4lessIiENS_8functionIFvS3_EEENS8_IFvRKNS0_10connectionES3_EEENS0_5mutexEED0Ev, i32 (i32*, i32)* @_ZNK5boost8signals27signal1IvRKSsNS0_19optional_last_valueIvEEiSt4lessIiENS_8functionIFvS3_EEENS8_IFvRKNS0_10connectionES3_EEENS0_5mutexEE10lock_pimplEv }
@global_var_39ac8.3532 = constant %vtable_39ac8_type { i32 (i32*)* @_ZN5boost8signals27signal1IbxNS0_10last_valueIbEEiSt4lessIiENS_8functionIFbxEEENS6_IFbRKNS0_10connectionExEEENS0_5mutexEED1Ev, i32 (i32*)* @_ZN5boost8signals27signal1IbxNS0_10last_valueIbEEiSt4lessIiENS_8functionIFbxEEENS6_IFbRKNS0_10connectionExEEENS0_5mutexEED0Ev, i32 (i32*, i32)* @_ZNK5boost8signals27signal1IbxNS0_10last_valueIbEEiSt4lessIiENS_8functionIFbxEEENS6_IFbRKNS0_10connectionExEEENS0_5mutexEE10lock_pimplEv }
@global_var_39af8.3528 = constant %vtable_39af8_type { i32 (i32*)* @_ZN5boost8signals27signal3IbRKSsS3_jNS0_10last_valueIbEEiSt4lessIiENS_8functionIFbS3_S3_jEEENS8_IFbRKNS0_10connectionES3_S3_jEEENS0_5mutexEED1Ev, i32 (i32*)* @_ZN5boost8signals27signal3IbRKSsS3_jNS0_10last_valueIbEEiSt4lessIiENS_8functionIFbS3_S3_jEEENS8_IFbRKNS0_10connectionES3_S3_jEEENS0_5mutexEED0Ev, i32 (i32*, i32)* @_ZNK5boost8signals27signal3IbRKSsS3_jNS0_10last_valueIbEEiSt4lessIiENS_8functionIFbS3_S3_jEEENS8_IFbRKNS0_10connectionES3_S3_jEEENS0_5mutexEE10lock_pimplEv }
@global_var_39bd0.3578 = constant %vtable_39bd0_type { i32 (i32*)* @_ZN5boost6detail17sp_counted_impl_pINS_8signals210last_valueIbEEED1Ev, i32 (i32*)* @_ZN5boost6detail17sp_counted_impl_pINS_8signals210last_valueIbEEED0Ev, i32 (i32)* @_ZN5boost6detail17sp_counted_impl_pINS_8signals210last_valueIbEEE7disposeEv, i32 (i32*)* @_ZN5boost6detail15sp_counted_base7destroyEv, i32 ()* @_ZN5boost6detail17sp_counted_impl_pINS_8signals210last_valueIbEEE11get_deleterERKSt9type_info }
@global_var_39d48.3436 = constant %vtable_39d48_type { i32 (i32*)* @_ZN5boost16exception_detail10bad_alloc_D1Ev, i32 (i32*)* @_ZN5boost16exception_detail10bad_alloc_D0Ev }
@global_var_39d88.3404 = constant %vtable_39d88_type { i32 (i32*)* @_ZN5boost16exception_detail10clone_implINS0_10bad_alloc_EED1Ev, i32 (i32*)* @_ZN5boost16exception_detail10clone_implINS0_10bad_alloc_EED0Ev, i32 (i32)* @_ZNK5boost16exception_detail10clone_implINS0_10bad_alloc_EE5cloneEv, i32 (i32)* @_ZNK5boost16exception_detail10clone_implINS0_10bad_alloc_EE7rethrowEv }
@global_var_39dd0.3494 = constant %vtable_39dd0_type { i32 (i32*)* @_ZN5boost6detail17sp_counted_impl_pINS_16exception_detail10clone_implINS2_10bad_alloc_EEEED1Ev, i32 (i32*)* @_ZN5boost6detail17sp_counted_impl_pINS_16exception_detail10clone_implINS2_10bad_alloc_EEEED0Ev, i32 (i32)* @_ZN5boost6detail17sp_counted_impl_pINS_16exception_detail10clone_implINS2_10bad_alloc_EEEE7disposeEv, i32 (i32*)* @_ZN5boost6detail15sp_counted_base7destroyEv, i32 ()* @_ZN5boost6detail17sp_counted_impl_pINS_16exception_detail10clone_implINS2_10bad_alloc_EEEE11get_deleterERKSt9type_info }

define i32 @fRequestShutdown() {
dec_label_pc_0:
  %eax.global-to-local = alloca i32, align 4
  %tmp96 = load i32, i32* %eax.global-to-local, align 4
  ret i32 %tmp96
}

define i32 @function_8() {
dec_label_pc_8:
  %eax.global-to-local = alloca i32, align 4
  %tmp96 = load i32, i32* %eax.global-to-local, align 4
  ret i32 %tmp96
}

define void @_ZNK5boost16exception_detail10clone_implINS0_19error_info_injectorINS_8signals214no_slots_errorEEEE5cloneEv(i32 %this) local_unnamed_addr {
dec_label_pc_10:
  ret void
}

define void @"~clone_impl"(i32 %this, i32 %__in_chrg) local_unnamed_addr {
dec_label_pc_20:
  ret void
}

define void @_Z12HandleSIGHUPi(i32 %arg0) local_unnamed_addr {
dec_label_pc_30:
  ret void
}

define void @"~pthread_mutex_scoped_lock"(i32 %this, i32 %__in_chrg) local_unnamed_addr {
dec_label_pc_34:
  ret void
}

define void @"~CImportingNow"(i32 %this, i32 %__in_chrg) local_unnamed_addr {
dec_label_pc_60:
  ret void
}

define void @_ZN5boost5mutex6unlockEv(i32 %this) local_unnamed_addr {
dec_label_pc_68:
  ret void
}

define void @"visitation_impl_invoke<boost::detail::variant::invoke_visitor<const boost::signals2::detail::lock_weak_ptr_visitor>, const void*, boost::variant<boost::weak_ptr<void>, boost::signals2::detail::foreign_void_weak_ptr>::has_fallback_type_>"(i32 %arg0, i32 %arg1, i8* %arg2, i32 %arg3, %has_fallback_type__1 %arg4, i32 %arg5) local_unnamed_addr {
dec_label_pc_a0:
  ret void
}

define void @CImportingNow(i32 %this) local_unnamed_addr {
dec_label_pc_d0:
  ret void
}

define void @"visitation_impl_invoke<boost::detail::variant::copy_into, const void*, boost::variant<boost::shared_ptr<void>, boost::signals2::detail::foreign_void_shared_ptr>::has_fallback_type_>"(i32 %arg0, i32 %arg1, i8* %arg2, i32 %arg3, %has_fallback_type_ %arg4, i32 %arg5) local_unnamed_addr {
dec_label_pc_e0:
  ret void
}

define void @"visitation_impl_invoke<boost::detail::variant::destroyer, void*, boost::variant<boost::shared_ptr<void>, boost::signals2::detail::foreign_void_shared_ptr>::has_fallback_type_>"(i32 %arg0, i32 %arg1, i8* %arg2, i32 %arg3, %has_fallback_type_.0 %arg4, i32 %arg5) local_unnamed_addr {
dec_label_pc_120:
  ret void
}

define void @"visitation_impl_invoke<boost::detail::variant::invoke_visitor<const boost::signals2::detail::expired_weak_ptr_visitor>, const void*, boost::variant<boost::weak_ptr<void>, boost::signals2::detail::foreign_void_weak_ptr>::has_fallback_type_>"(i32 %arg0, i32 %arg1, i8* %arg2, i32 %arg3, %has_fallback_type__1.1 %arg4, i32 %arg5) local_unnamed_addr {
dec_label_pc_160:
  ret void
}

define void @_ZNK5boost10shared_ptrINS_8signals26detail12signal1_implISsPKcNS1_19optional_last_valueISsEEiSt4lessIiENS_8functionIFSsS5_EEENSA_IFSsRKNS1_10connectionES5_EEENS1_5mutexEE16invocation_stateEEptEv(i32 %this) local_unnamed_addr {
dec_label_pc_16a:
  ret void
}

define void @_ZNK5boost10shared_ptrINS_8signals26detail12signal3_implIbRKSsS5_jNS1_10last_valueIbEEiSt4lessIiENS_8functionIFbS5_S5_jEEENSA_IFbRKNS1_10connectionES5_S5_jEEENS1_5mutexEE16invocation_stateEEptEv(i32 %this) local_unnamed_addr {
dec_label_pc_19e:
  %eax.global-to-local = alloca i32, align 4
  %v2_19e = load i8, i8* bitcast (i32* @eax to i8*), align 4
  %v3_19e = load i32, i32* %eax.global-to-local, align 4
  %v4_19e = trunc i32 %v3_19e to i8
  %v5_19e = add i8 %v4_19e, %v2_19e
  %v21_19e = inttoptr i32 %v3_19e to i8*
  store i8 %v5_19e, i8* %v21_19e, align 1
  ret void
}

define void @"visitation_impl_invoke<boost::detail::variant::destroyer, void*, boost::variant<CNoDestination, CKeyID, CScriptID>::has_fallback_type_>"(i32 %arg0, i32 %arg1, i8* %arg2, i32 %arg3, %has_fallback_type__2 %arg4, i32 %arg5) local_unnamed_addr {
dec_label_pc_1a0:
  ret void
}

define void @_ZNK5boost10shared_ptrINS_8signals26detail12signal1_implIvRKSsNS1_19optional_last_valueIvEEiSt4lessIiENS_8functionIFvS5_EEENSA_IFvRKNS1_10connectionES5_EEENS1_5mutexEE16invocation_stateEEptEv(i32 %this) local_unnamed_addr {
dec_label_pc_1d2:
  %eax.global-to-local = alloca i32, align 4
  %ebp.global-to-local = alloca i32, align 4
  %ecx.global-to-local = alloca i32, align 4
  %tmp91 = call i32 @__decompiler_undefined_function_0()
  %v1_1d2 = add i32 %tmp91, ptrtoint (i32* @global_var_b6.3266 to i32)
  %v2_1d2 = inttoptr i32 %v1_1d2 to i32*
  %v3_1d2 = load i32, i32* %v2_1d2, align 4
  %v4_1d2 = sub i32 %v3_1d2, ptrtoint (i8** @global_var_1.3274 to i32)
  store i32 %v4_1d2, i32* %v2_1d2, align 4
  %v0_1d8 = load i32, i32* %ebp.global-to-local, align 4
  %v1_1d8 = add i32 %v0_1d8, ptrtoint (i8** @global_var_27bc.3275 to i32)
  %v2_1d8 = inttoptr i32 %v1_1d8 to i8*
  %v3_1d8 = load i8, i8* %v2_1d8, align 1
  %v4_1d8 = load i32, i32* %ecx.global-to-local, align 4
  %v5_1d8 = trunc i32 %v4_1d8 to i8
  %v6_1d8 = add i8 %v5_1d8, %v3_1d8
  store i8 %v6_1d8, i8* %v2_1d8, align 1
  %v2_1de = load i8, i8* bitcast (i32* @eax to i8*), align 4
  %v3_1de = load i32, i32* %eax.global-to-local, align 4
  %v4_1de = trunc i32 %v3_1de to i8
  %v5_1de = add i8 %v4_1de, %v2_1de
  %v21_1de = inttoptr i32 %v3_1de to i8*
  store i8 %v5_1de, i8* %v21_1de, align 1
  ret void
}

define void @"__uninitialized_move_a<uint256*, uint256*, std::allocator<uint256> >"(i32 %__first, i32 %__last, i32 %__result, i32 %__alloc) local_unnamed_addr {
dec_label_pc_1e0:
  ret void
}

define void @_ZN5boost8signals26detail12signal1_implISsPKcNS0_19optional_last_valueISsEEiSt4lessIiENS_8functionIFSsS4_EEENS9_IFSsRKNS0_10connectionES4_EEENS0_5mutexEE16invocation_state17connection_bodiesEv(i32 %this) local_unnamed_addr {
dec_label_pc_206:
  %ecx.global-to-local = alloca i32, align 4
  %edi.global-to-local = alloca i32, align 4
  %esi.global-to-local = alloca i32, align 4
  %tmp93 = call i32 @__decompiler_undefined_function_0()
  %v0_206 = load i32, i32* %ecx.global-to-local, align 4
  %v2_206 = inttoptr i32 %tmp93 to i32*
  store i32 %v0_206, i32* %v2_206, align 4
  %v0_208 = load i32, i32* %esi.global-to-local, align 4
  %v1_208 = add i32 %v0_208, ptrtoint (i16** @global_var_4.3276 to i32)
  %v2_208 = inttoptr i32 %v1_208 to i32*
  %v3_208 = load i32, i32* %v2_208, align 4
  store i32 %v3_208, i32* %ecx.global-to-local, align 4
  %v1_20b = load i32, i32* %edi.global-to-local, align 4
  %v2_20b = add i32 %v1_20b, ptrtoint (i16** @global_var_4.3276 to i32)
  %v3_20b = inttoptr i32 %v2_20b to i32*
  store i32 %v3_208, i32* %v3_20b, align 4
  %v0_20e = load i32, i32* %esi.global-to-local, align 4
  %v1_20e = add i32 %v0_20e, ptrtoint (i8** @global_var_8.3277 to i32)
  %v2_20e = inttoptr i32 %v1_20e to i32*
  %v3_20e = load i32, i32* %v2_20e, align 4
  store i32 %v3_20e, i32* %ecx.global-to-local, align 4
  %v1_211 = load i32, i32* %edi.global-to-local, align 4
  %v2_211 = add i32 %v1_211, ptrtoint (i8** @global_var_8.3277 to i32)
  %v3_211 = inttoptr i32 %v2_211 to i32*
  store i32 %v3_20e, i32* %v3_211, align 4
  %v0_214 = load i32, i32* %esi.global-to-local, align 4
  %v1_214 = add i32 %v0_214, 12
  %v2_214 = inttoptr i32 %v1_214 to i32*
  %v3_214 = load i32, i32* %v2_214, align 4
  store i32 %v3_214, i32* %ecx.global-to-local, align 4
  %v1_217 = load i32, i32* %edi.global-to-local, align 4
  %v2_217 = add i32 %v1_217, 12
  %v3_217 = inttoptr i32 %v2_217 to i32*
  store i32 %v3_214, i32* %v3_217, align 4
  %v0_21a = load i32, i32* %esi.global-to-local, align 4
  %v1_21a = add i32 %v0_21a, 16
  %v2_21a = inttoptr i32 %v1_21a to i32*
  %v3_21a = load i32, i32* %v2_21a, align 4
  store i32 %v3_21a, i32* %ecx.global-to-local, align 4
  %v1_21d = load i32, i32* %edi.global-to-local, align 4
  %v2_21d = add i32 %v1_21d, 16
  %v3_21d = inttoptr i32 %v2_21d to i32*
  store i32 %v3_21a, i32* %v3_21d, align 4
  %v0_220 = load i32, i32* %esi.global-to-local, align 4
  %v1_220 = add i32 %v0_220, 20
  %v2_220 = inttoptr i32 %v1_220 to i32*
  %v3_220 = load i32, i32* %v2_220, align 4
  store i32 %v3_220, i32* %ecx.global-to-local, align 4
  %v1_223 = load i32, i32* %edi.global-to-local, align 4
  %v2_223 = add i32 %v1_223, 20
  %v3_223 = inttoptr i32 %v2_223 to i32*
  store i32 %v3_220, i32* %v3_223, align 4
  %v0_226 = load i32, i32* %esi.global-to-local, align 4
  %v1_226 = add i32 %v0_226, ptrtoint (i32* @global_var_18.3278 to i32)
  %v2_226 = inttoptr i32 %v1_226 to i32*
  %v3_226 = load i32, i32* %v2_226, align 4
  %v1_229 = load i32, i32* %edi.global-to-local, align 4
  %v2_229 = add i32 %v1_229, ptrtoint (i32* @global_var_18.3278 to i32)
  %v3_229 = inttoptr i32 %v2_229 to i32*
  store i32 %v3_226, i32* %v3_229, align 4
  %v0_22c = load i32, i32* %esi.global-to-local, align 4
  %v1_22c = add i32 %v0_22c, ptrtoint (i32* @global_var_1c.3271 to i32)
  %v2_22c = inttoptr i32 %v1_22c to i32*
  %v3_22c = load i32, i32* %v2_22c, align 4
  %v1_22f = load i32, i32* %edi.global-to-local, align 4
  %v2_22f = add i32 %v1_22f, ptrtoint (i32* @global_var_1c.3271 to i32)
  %v3_22f = inttoptr i32 %v2_22f to i32*
  store i32 %v3_22c, i32* %v3_22f, align 4
  ret void
}

define void @_ZNK5boost10shared_ptrINS_8signals26detail15connection_bodyISt4pairINS2_15slot_meta_groupENS_8optionalIiEEENS1_5slot3IbRKSsSB_jNS_8functionIFbSB_SB_jEEEEENS1_5mutexEEEEptEv(i32 %this) local_unnamed_addr {
dec_label_pc_23a:
  %eax.global-to-local = alloca i32, align 4
  %ebx.global-to-local = alloca i32, align 4
  %esi.global-to-local = alloca i32, align 4
  %v0_23c = load i32, i32* %ebx.global-to-local, align 4
  %v1_23c = add i32 %v0_23c, ptrtoint (i32* @global_var_20.3279 to i32)
  store i32 %v1_23c, i32* %ebx.global-to-local, align 4
  %v0_23f = load i32, i32* %esi.global-to-local, align 4
  %v2_23f = sub i32 %v0_23f, %v1_23c
  %v1_241 = and i32 %v2_23f, -32
  store i32 %v1_241, i32* %esi.global-to-local, align 4
  %v0_244 = load i32, i32* %eax.global-to-local, align 4
  %v3_244 = add i32 %v1_241, ptrtoint (i32* @global_var_20.3279 to i32)
  %v4_244 = add i32 %v3_244, %v0_244
  store i32 %v4_244, i32* %eax.global-to-local, align 4
  %v1_24c = load i32, i32* inttoptr (i32 20 to i32*), align 4
  %v3_24c = icmp eq i32 %v1_24c, %this
  %v1_253 = icmp eq i1 %v3_24c, false
  br i1 %v1_253, label %dec_label_pc_25d, label %dec_label_pc_255

dec_label_pc_255:                                 ; preds = %dec_label_pc_23a
  ret void

dec_label_pc_25d:                                 ; preds = %dec_label_pc_23a
  ret void
}

define void @_ZNK5boost10shared_ptrINS_8signals26detail15connection_bodyISt4pairINS2_15slot_meta_groupENS_8optionalIiEEENS1_5slot1IvRKSsNS_8functionIFvSB_EEEEENS1_5mutexEEEEptEv(i32 %this) local_unnamed_addr {
dec_label_pc_26e:
  %eax.global-to-local = alloca i32, align 4
  %v2_26e = load i8, i8* bitcast (i32* @eax to i8*), align 4
  %v3_26e = load i32, i32* %eax.global-to-local, align 4
  %v4_26e = trunc i32 %v3_26e to i8
  %v5_26e = add i8 %v4_26e, %v2_26e
  %v21_26e = inttoptr i32 %v3_26e to i8*
  store i8 %v5_26e, i8* %v21_26e, align 1
  ret void
}

define void @_ZNK5boost8signals26detail14group_key_lessIiSt4lessIiEEclERKSt4pairINS1_15slot_meta_groupENS_8optionalIiEEESC_(i32 %this, i32 %key1, i32 %key2) local_unnamed_addr {
dec_label_pc_270:
  %eax.global-to-local = alloca i32, align 4
  %ebx.global-to-local = alloca i32, align 4
  %edx.global-to-local = alloca i32, align 4
  %v0_270 = load i32, i32* %ebx.global-to-local, align 4
  %v0_271 = load i32, i32* %eax.global-to-local, align 4
  store i32 %v0_271, i32* %ebx.global-to-local, align 4
  store i32 0, i32* %eax.global-to-local, align 4
  %v3_284 = load i32, i32* %edx.global-to-local, align 4
  %v4_284 = sub i32 %v0_271, %v3_284
  %v14_284 = icmp eq i32 %v4_284, 0
  br i1 %v14_284, label %dec_label_pc_2a0, label %dec_label_pc_288

dec_label_pc_288:                                 ; preds = %dec_label_pc_270
  %v15_284 = icmp slt i32 %v4_284, 0
  %v11_284 = xor i32 %v4_284, %v0_271
  %v10_284 = xor i32 %v3_284, %v0_271
  %v12_284 = and i32 %v11_284, %v10_284
  %v13_284 = icmp slt i32 %v12_284, 0
  %v2_288 = icmp ne i1 %v15_284, %v13_284
  %v3_288 = zext i1 %v2_288 to i32
  store i32 %v3_288, i32* %eax.global-to-local, align 4
  store i32 0, i32* %edx.global-to-local, align 4
  store i32 %v0_270, i32* %ebx.global-to-local, align 4
  ret void

dec_label_pc_2a0:                                 ; preds = %dec_label_pc_270
  store i32 0, i32* %eax.global-to-local, align 4
  ret void

; uselistorder directives
  uselistorder i32 %v0_271, { 1, 0, 2, 3 }
}

define void @_ZNK5boost10shared_ptrINS_8signals26detail15connection_bodyISt4pairINS2_15slot_meta_groupENS_8optionalIiEEENS1_5slot1ISsPKcNS_8functionIFSsSB_EEEEENS1_5mutexEEEEptEv(i32 %this) local_unnamed_addr {
dec_label_pc_2a2:
  %ecx.global-to-local = alloca i32, align 4
  %edx.global-to-local = alloca i32, align 4
  %v0_2a7 = load i32, i32* %edx.global-to-local, align 4
  %v1_2a7 = add i32 %v0_2a7, ptrtoint (i16** @global_var_4.3276 to i32)
  %v2_2a7 = inttoptr i32 %v1_2a7 to i8*
  %v3_2a7 = load i8, i8* %v2_2a7, align 1
  %v10_2a7 = icmp eq i8 %v3_2a7, 0
  br i1 %v10_2a7, label %bb, label %dec_label_pc_2ad

bb:                                               ; preds = %dec_label_pc_2a2
  %v1_2ab = call i32 @function_2c3()
  store i32 %v1_2ab, i32* @eax, align 4
  br label %dec_label_pc_2ad

dec_label_pc_2ad:                                 ; preds = %bb, %dec_label_pc_2a2
  %v0_2ad = load i32, i32* %ecx.global-to-local, align 4
  %v1_2ad = add i32 %v0_2ad, ptrtoint (i16** @global_var_4.3276 to i32)
  %v2_2ad = inttoptr i32 %v1_2ad to i8*
  %v3_2ad = load i8, i8* %v2_2ad, align 1
  %v10_2ad = icmp eq i8 %v3_2ad, 0
  br i1 %v10_2ad, label %bb98, label %dec_label_pc_2b3

bb98:                                             ; preds = %dec_label_pc_2ad
  %v1_2b1 = call i32 @function_2c3()
  br label %dec_label_pc_2b3

dec_label_pc_2b3:                                 ; preds = %bb98, %dec_label_pc_2ad
  ret void

; uselistorder directives
  uselistorder i32 ()* @function_2c3, { 1, 0 }
}

define i32 @function_2c3() local_unnamed_addr {
dec_label_pc_2c3:
  %v3_2cb = load i32, i32* @eax, align 4
  ret i32 %v3_2cb
}

define void @_ZN5boost8signals26detail12signal3_implIbRKSsS4_jNS0_10last_valueIbEEiSt4lessIiENS_8functionIFbS4_S4_jEEENS9_IFbRKNS0_10connectionES4_S4_jEEENS0_5mutexEE16invocation_state17connection_bodiesEv(i32 %this) local_unnamed_addr {
dec_label_pc_2d6:
  %df.global-to-local = alloca i1, align 1
  %eax.global-to-local = alloca i32, align 4
  %edi.global-to-local = alloca i32, align 4
  %v0_2d6 = load i32, i32* %eax.global-to-local, align 4
  %v1_2d6 = trunc i32 %v0_2d6 to i8
  %v2_2d6 = add i8 %v1_2d6, ptrtoint (i8* @global_var_70.3282 to i8)
  %v15_2d6 = zext i8 %v2_2d6 to i32
  %v17_2d6 = and i32 %v0_2d6, -256
  %v18_2d6 = or i32 %v15_2d6, %v17_2d6
  store i32 %v18_2d6, i32* %eax.global-to-local, align 4
  %v2_2d8 = load i32, i32* %edi.global-to-local, align 4
  %v3_2d8 = inttoptr i32 %v2_2d8 to i8*
  store i8 %v2_2d6, i8* %v3_2d8, align 1
  %v4_2d8 = load i32, i32* %edi.global-to-local, align 4
  %v5_2d8 = load i1, i1* %df.global-to-local, align 1
  %v6_2d8 = select i1 %v5_2d8, i32 -1, i32 ptrtoint (i8** @global_var_1.3274 to i32)
  %v7_2d8 = add i32 %v6_2d8, %v4_2d8
  store i32 %v7_2d8, i32* %edi.global-to-local, align 4
  %v0_2d9 = load i32, i32* %eax.global-to-local, align 4
  %v1_2d9 = inttoptr i32 %v0_2d9 to i8*
  %v2_2d9 = load i8, i8* %v1_2d9, align 1
  %v4_2d9 = trunc i32 %v0_2d9 to i8
  %v5_2d9 = add i8 %v2_2d9, %v4_2d9
  store i8 %v5_2d9, i8* %v1_2d9, align 1
  ret void
}

define void @"operator+<char, std::char_traits<char>, std::allocator<char> >"(i8* %__lhs, i32 %__rhs) local_unnamed_addr {
dec_label_pc_2f0:
  ret void
}

define void @_ZN5boost8signals26detail12signal1_implIvRKSsNS0_19optional_last_valueIvEEiSt4lessIiENS_8functionIFvS4_EEENS9_IFvRKNS0_10connectionES4_EEENS0_5mutexEE16invocation_state17connection_bodiesEv(i32 %this) local_unnamed_addr {
dec_label_pc_30a:
  ret void
}

define i32 @function_353(i32 %arg1, i32 %arg2, i32 %arg3, i32 %arg4) local_unnamed_addr {
dec_label_pc_353:
  %ebx.global-to-local = alloca i32, align 4
  %edx.global-to-local = alloca i32, align 4
  %v0_353 = load i32, i32* %ebx.global-to-local, align 4
  %v1_353 = add i32 %v0_353, 1696343124
  %v2_353 = inttoptr i32 %v1_353 to i32*
  %v3_353 = load i32, i32* %v2_353, align 4
  %v4_353 = add i32 %v3_353, -1
  store i32 %v4_353, i32* %v2_353, align 4
  %v0_359 = load i32, i32* %edx.global-to-local, align 4
  %v1_359 = load i32, i32* inttoptr (i32 20 to i32*), align 4
  %v2_359 = xor i32 %v1_359, %v0_359
  %v3_359 = icmp eq i32 %v2_359, 0
  store i32 %v2_359, i32* %edx.global-to-local, align 4
  %v0_35f = load i32, i32* %ebx.global-to-local, align 4
  %v1_361 = icmp eq i1 %v3_359, false
  br i1 %v1_361, label %dec_label_pc_377, label %dec_label_pc_363

dec_label_pc_363:                                 ; preds = %dec_label_pc_353
  store i32 %arg1, i32* %ebx.global-to-local, align 4
  ret i32 %v0_35f

dec_label_pc_377:                                 ; preds = %dec_label_pc_353
  ret i32 %v0_35f

; uselistorder directives
  uselistorder i32 %v0_35f, { 1, 0 }
}

define i32 @function_38d() local_unnamed_addr {
dec_label_pc_38d:
  %eax.global-to-local = alloca i32, align 4
  %v0_38d = load i32, i32* %eax.global-to-local, align 4
  ret i32 %v0_38d
}

define void @"path<std::basic_string<char> >"(i32 %this, i32 %source, i8* %arg2) local_unnamed_addr {
dec_label_pc_390:
  ret void
}

define void @_ZN11CDataStream5writeEPKci(i32 %this, i8* %pch, i32 %nSize) local_unnamed_addr {
dec_label_pc_3da:
  %eax.global-to-local = alloca i32, align 4
  %v0_3da = load i32, i32* %eax.global-to-local, align 4
  %v2_3da = add i32 %v0_3da, zext (i8 ptrtoint (i32* @global_var_e8.3284 to i8) to i32)
  %v16_3da = and i32 %v2_3da, 255
  %v18_3da = and i32 %v0_3da, -256
  %v19_3da = or i32 %v16_3da, %v18_3da
  store i32 %v19_3da, i32* %eax.global-to-local, align 4
  ret void

; uselistorder directives
  uselistorder i32 %v0_3da, { 1, 0 }
}

define i32 @function_3df(i32 %arg1, i32 %arg2) local_unnamed_addr {
dec_label_pc_3df:
  %eax.global-to-local = alloca i32, align 4
  %ebx.global-to-local = alloca i32, align 4
  %v0_3df = load i32, i32* %ebx.global-to-local, align 4
  %v1_3df = add i32 %v0_3df, 1697391684
  %v2_3df = inttoptr i32 %v1_3df to i32*
  %v3_3df = load i32, i32* %v2_3df, align 4
  %v4_3df = add i32 %v3_3df, -1
  store i32 %v4_3df, i32* %v2_3df, align 4
  %v0_3e5 = load i32, i32* %eax.global-to-local, align 4
  %v1_3e5 = load i32, i32* inttoptr (i32 20 to i32*), align 4
  %v2_3e5 = xor i32 %v1_3e5, %v0_3e5
  %v3_3e5 = icmp eq i32 %v2_3e5, 0
  store i32 %v2_3e5, i32* %eax.global-to-local, align 4
  %v1_3eb = icmp eq i1 %v3_3e5, false
  br i1 %v1_3eb, label %dec_label_pc_3f9, label %dec_label_pc_3ed

dec_label_pc_3ed:                                 ; preds = %dec_label_pc_3df
  store i32 %arg1, i32* %ebx.global-to-local, align 4
  ret i32 %v2_3e5

dec_label_pc_3f9:                                 ; preds = %dec_label_pc_3df
  ret i32 %v2_3e5

; uselistorder directives
  uselistorder i32 %v2_3e5, { 1, 0, 2, 3 }
}

define i32 @function_3ff() local_unnamed_addr {
dec_label_pc_3ff:
  %eax.global-to-local = alloca i32, align 4
  %v0_3ff = load i32, i32* %eax.global-to-local, align 4
  ret i32 %v0_3ff
}

define void @_Z12ThreadImportSt6vectorIN5boost11filesystem34pathESaIS2_EE(%"vector<boost::filesystem3::path,std::allocator<boost::filesystem3::path>>" %vImportFiles) local_unnamed_addr {
dec_label_pc_410:
  ret void
}

define void @auto_buffer(i32 %this) local_unnamed_addr {
dec_label_pc_57a:
  ret void
}

define void @_ZN5boost8signals26detail11auto_bufferINS_7variantINS_10shared_ptrIvEENS1_23foreign_void_shared_ptrENS_6detail7variant5void_ES9_S9_S9_S9_S9_S9_S9_S9_S9_S9_S9_S9_S9_S9_S9_S9_S9_EENS1_15store_n_objectsILj10EEENS1_19default_grow_policyESaISA_EE14destroy_back_nEjRKNS_17integral_constantIbLb0EEE(i32 %this, i32 %n, i32 %arg2) local_unnamed_addr {
dec_label_pc_5ae:
  %cf.global-to-local = alloca i1, align 1
  %eax.global-to-local = alloca i32, align 4
  %v0_5ae = load i32, i32* %eax.global-to-local, align 4
  %v1_5ae = trunc i32 %v0_5ae to i8
  %v2_5ae = load i1, i1* %cf.global-to-local, align 1
  %v3_5ae = zext i1 %v2_5ae to i32
  %v4_5ae = add i32 %v0_5ae, 220
  %v5_5ae = add i32 %v4_5ae, %v3_5ae
  %v17_5ae = icmp ult i8 %v1_5ae, 36
  %v18_5ae = or i1 %v2_5ae, %v17_5ae
  store i1 %v18_5ae, i1* %cf.global-to-local, align 1
  %v31_5ae = and i32 %v5_5ae, 255
  %v33_5ae = and i32 %v0_5ae, -256
  %v34_5ae = or i32 %v31_5ae, %v33_5ae
  store i32 %v34_5ae, i32* %eax.global-to-local, align 4
  ret void

; uselistorder directives
  uselistorder i1 %v2_5ae, { 1, 0 }
  uselistorder i32 %v0_5ae, { 1, 0, 2 }
}

define void @_ZN5boost8signals26detail11auto_bufferINS_7variantINS_10shared_ptrIvEENS1_23foreign_void_shared_ptrENS_6detail7variant5void_ES9_S9_S9_S9_S9_S9_S9_S9_S9_S9_S9_S9_S9_S9_S9_S9_S9_EENS1_15store_n_objectsILj10EEENS1_19default_grow_policyESaISA_EE5clearEv(i32 %this) local_unnamed_addr {
dec_label_pc_5e2:
  %eax.global-to-local = alloca i32, align 4
  %v0_5e2 = load i32, i32* %eax.global-to-local, align 4
  %v11_5e2 = xor i32 %v0_5e2, 36
  store i32 %v11_5e2, i32* %eax.global-to-local, align 4
  ret void
}

define void @"~auto_buffer"(i32 %this, i32 %__in_chrg) local_unnamed_addr {
dec_label_pc_616:
  %eax.global-to-local = alloca i32, align 4
  %v0_617 = load i32, i32* %eax.global-to-local, align 4
  %v11_617 = and i32 %v0_617, -220
  store i32 %v11_617, i32* %eax.global-to-local, align 4
  ret void
}

define void @_ZN5boost8signals26detail11auto_bufferINS_7variantINS_10shared_ptrIvEENS1_23foreign_void_shared_ptrENS_6detail7variant5void_ES9_S9_S9_S9_S9_S9_S9_S9_S9_S9_S9_S9_S9_S9_S9_S9_S9_EENS1_15store_n_objectsILj10EEENS1_19default_grow_policyESaISA_EE19unchecked_push_backERKSA_(i32 %this, i32 %x) local_unnamed_addr {
dec_label_pc_64a:
  %eax.global-to-local = alloca i32, align 4
  %v0_64c = load i32, i32* %eax.global-to-local, align 4
  %v1_64c = trunc i32 %v0_64c to i8
  %v2_64c = add i8 %v1_64c, ptrtoint (i8* @global_var_89.3286 to i8)
  %v6_64c = icmp ult i8 %v2_64c, %v1_64c
  %v3_64e = zext i1 %v6_64c to i32
  %v4_64e = add i32 %v0_64c, zext (i8 add (i8 ptrtoint (i8* @global_var_89.3286 to i8), i8 -36) to i32)
  %v5_64e = add i32 %v3_64e, %v4_64e
  %v31_64e = and i32 %v5_64e, 255
  %v33_64e = and i32 %v0_64c, -256
  %v34_64e = or i32 %v31_64e, %v33_64e
  store i32 %v34_64e, i32* %eax.global-to-local, align 4
  ret void

; uselistorder directives
  uselistorder i32 %v0_64c, { 1, 0, 2 }
}

define i32 @function_6a9() local_unnamed_addr {
dec_label_pc_6a9:
  %eax.global-to-local = alloca i32, align 4
  %v0_6a9 = load i32, i32* %eax.global-to-local, align 4
  ret i32 %v0_6a9
}

define i32 @function_6af() local_unnamed_addr {
dec_label_pc_6af:
  %eax.global-to-local = alloca i32, align 4
  %tmp96 = load i32, i32* %eax.global-to-local, align 4
  ret i32 %tmp96
}

define void @_ZN5boost2CV23simple_exception_policyItLt1ELt31ENS_9gregorian16bad_day_of_monthEE8on_errorEttNS0_14violation_enumE(i16 %arg0, i16 %arg1, i32 %arg2) local_unnamed_addr {
dec_label_pc_6b1:
  %eax.global-to-local = alloca i32, align 4
  %v0_6b1 = load i32, i32* %eax.global-to-local, align 4
  %v11_6b1 = and i32 %v0_6b1, or (i32 zext (i8 ptrtoint (i32* @global_var_e8.3284 to i8) to i32), i32 -256)
  store i32 %v11_6b1, i32* %eax.global-to-local, align 4
  ret void
}

define i32 @function_6b6(i32 %arg1, i32 %arg2, i32 %arg3, i32 %arg4) local_unnamed_addr {
dec_label_pc_6b6:
  %eax.global-to-local = alloca i32, align 4
  %ebx.global-to-local = alloca i32, align 4
  %v0_6b6 = load i32, i32* %ebx.global-to-local, align 4
  %v1_6b6 = add i32 %v0_6b6, 1701585988
  %v2_6b6 = inttoptr i32 %v1_6b6 to i32*
  %v3_6b6 = load i32, i32* %v2_6b6, align 4
  %v4_6b6 = add i32 %v3_6b6, -1
  store i32 %v4_6b6, i32* %v2_6b6, align 4
  %v0_6bc = load i32, i32* %eax.global-to-local, align 4
  %v1_6bc = load i32, i32* inttoptr (i32 20 to i32*), align 4
  %v2_6bc = xor i32 %v1_6bc, %v0_6bc
  %v3_6bc = icmp eq i32 %v2_6bc, 0
  store i32 %v2_6bc, i32* @eax, align 4
  %v1_6c2 = icmp eq i1 %v3_6bc, false
  br i1 %v1_6c2, label %bb, label %dec_label_pc_6c8

bb:                                               ; preds = %dec_label_pc_6b6
  %v2_6c2 = call i32 @function_850()
  store i32 %v2_6c2, i32* %eax.global-to-local, align 4
  br label %dec_label_pc_6c8

dec_label_pc_6c8:                                 ; preds = %bb, %dec_label_pc_6b6
  %v0_6cf = phi i32 [ %v2_6c2, %bb ], [ %v2_6bc, %dec_label_pc_6b6 ]
  store i32 %arg1, i32* %ebx.global-to-local, align 4
  ret i32 %v0_6cf
}

define void @_ZN5boost2CV23simple_exception_policyItLt1400ELt10000ENS_9gregorian8bad_yearEE8on_errorEttNS0_14violation_enumE(i16 %arg0, i16 %arg1, i32 %arg2) local_unnamed_addr {
dec_label_pc_739:
  %df.global-to-local = alloca i1, align 1
  %eax.global-to-local = alloca i32, align 4
  %edi.global-to-local = alloca i32, align 4
  %zf.global-to-local = alloca i1, align 1
  %v0_739 = load i1, i1* %zf.global-to-local, align 1
  br i1 %v0_739, label %bb, label %dec_label_pc_739.dec_label_pc_73b_crit_edge

dec_label_pc_739.dec_label_pc_73b_crit_edge:      ; preds = %dec_label_pc_739
  %v0_73b.pre = load i32, i32* @eax, align 4
  br label %dec_label_pc_73b

bb:                                               ; preds = %dec_label_pc_739
  %v1_739 = call i32 @function_75f()
  store i32 %v1_739, i32* %eax.global-to-local, align 4
  br label %dec_label_pc_73b

dec_label_pc_73b:                                 ; preds = %dec_label_pc_739.dec_label_pc_73b_crit_edge, %bb
  %v17_73b = phi i32 [ %v0_73b.pre, %dec_label_pc_739.dec_label_pc_73b_crit_edge ], [ %v1_739, %bb ]
  %v1_73b = trunc i32 %v17_73b to i8
  %v2_73d = add i8 %v1_73b, add (i8 ptrtoint (i8* @global_var_c7.3287 to i8), i8 36)
  %v11_73d = icmp eq i8 %v2_73d, 0
  store i1 %v11_73d, i1* %zf.global-to-local, align 1
  %v16_73d = zext i8 %v2_73d to i32
  %v18_73d = and i32 %v17_73b, -256
  %v19_73d = or i32 %v16_73d, %v18_73d
  store i32 %v19_73d, i32* %eax.global-to-local, align 4
  %v2_740 = load i32, i32* %edi.global-to-local, align 4
  %v3_740 = inttoptr i32 %v2_740 to i8*
  store i8 %v2_73d, i8* %v3_740, align 1
  %v4_740 = load i32, i32* %edi.global-to-local, align 4
  %v5_740 = load i1, i1* %df.global-to-local, align 1
  %v6_740 = select i1 %v5_740, i32 -1, i32 ptrtoint (i8** @global_var_1.3274 to i32)
  %v7_740 = add i32 %v6_740, %v4_740
  store i32 %v7_740, i32* %edi.global-to-local, align 4
  %v0_741 = load i32, i32* %eax.global-to-local, align 4
  %v1_741 = inttoptr i32 %v0_741 to i8*
  %v2_741 = load i8, i8* %v1_741, align 1
  %v4_741 = trunc i32 %v0_741 to i8
  %v5_741 = add i8 %v2_741, %v4_741
  %v15_741 = icmp eq i8 %v5_741, 0
  store i1 %v15_741, i1* %zf.global-to-local, align 1
  store i8 %v5_741, i8* %v1_741, align 1
  ret void

; uselistorder directives
  uselistorder i32* %eax.global-to-local, { 1, 2, 0 }
  uselistorder label %dec_label_pc_73b, { 1, 0 }
}

define i32 @function_75f() local_unnamed_addr {
dec_label_pc_75f:
  %v2_75f = load i8, i8* bitcast (i32* @eax to i8*), align 4
  %v3_75f = load i32, i32* @eax, align 4
  %v4_75f = trunc i32 %v3_75f to i8
  %v5_75f = add i8 %v4_75f, %v2_75f
  %v21_75f = inttoptr i32 %v3_75f to i8*
  store i8 %v5_75f, i8* %v21_75f, align 1
  %v2_761 = load i8, i8* bitcast (i32* @eax to i8*), align 4
  %v3_761 = load i32, i32* @eax, align 4
  %v4_761 = trunc i32 %v3_761 to i8
  %v5_761 = add i8 %v4_761, %v2_761
  %v21_761 = inttoptr i32 %v3_761 to i8*
  store i8 %v5_761, i8* %v21_761, align 1
  %v3_76b = load i32, i32* @eax, align 4
  ret i32 %v3_76b
}

define void @_ZN5boost2CV23simple_exception_policyItLt1ELt12ENS_9gregorian9bad_monthEE8on_errorEttNS0_14violation_enumE(i16 %arg0, i16 %arg1, i32 %arg2) local_unnamed_addr {
dec_label_pc_7c1:
  %eax.global-to-local = alloca i32, align 4
  %ebx.global-to-local = alloca i32, align 4
  %ecx.global-to-local = alloca i32, align 4
  %edx.global-to-local = alloca i32, align 4
  %v0_7c1 = load i32, i32* %eax.global-to-local, align 4
  %v1_7c1 = trunc i32 %v0_7c1 to i8
  %v0_7c3 = load i32, i32* %edx.global-to-local, align 4
  %v3_7c3 = udiv i32 %v0_7c3, 4
  %v9_7c3 = urem i32 %v3_7c3, 64
  %v11_7c3 = and i32 %v0_7c3, -256
  %v12_7c3 = or i32 %v9_7c3, %v11_7c3
  store i32 %v12_7c3, i32* %edx.global-to-local, align 4
  %v0_7c6 = load i32, i32* %ebx.global-to-local, align 4
  %v2_7c1 = mul i32 %v0_7c1, 256
  %v5_7c63 = and i32 %v2_7c1, 3072
  %v1_7c64 = add i32 %v0_7c6, %v5_7c63
  %v22_7c6 = and i32 %v1_7c64, 65280
  %v23_7c6 = and i32 %v0_7c6, -65281
  %v24_7c6 = or i32 %v22_7c6, %v23_7c6
  store i32 %v24_7c6, i32* %ebx.global-to-local, align 4
  %v2_7c9 = and i8 %v1_7c1, 8
  %v8_7c9 = zext i8 %v2_7c9 to i32
  %v10_7c9 = and i32 %v0_7c1, -256
  %v11_7c9 = or i32 %v8_7c9, %v10_7c9
  store i32 %v11_7c9, i32* %eax.global-to-local, align 4
  %v2_7cb = load i8, i8* bitcast (i32* @ecx to i8*), align 4
  %v5_7cb = or i8 %v2_7cb, %v2_7c9
  %v11_7cb = load i32, i32* %ecx.global-to-local, align 4
  %v12_7cb = inttoptr i32 %v11_7cb to i8*
  store i8 %v5_7cb, i8* %v12_7cb, align 1
  %v0_7cd = load i32, i32* %eax.global-to-local, align 4
  %v1_7cd = inttoptr i32 %v0_7cd to i8*
  %v2_7cd = load i8, i8* %v1_7cd, align 1
  %v4_7cd = trunc i32 %v0_7cd to i8
  %v5_7cd = add i8 %v2_7cd, %v4_7cd
  store i8 %v5_7cd, i8* %v1_7cd, align 1
  ret void

; uselistorder directives
  uselistorder i32 %v0_7c6, { 1, 0 }
  uselistorder i32 %v0_7c3, { 1, 0 }
  uselistorder i32 %v0_7c1, { 1, 0, 2 }
}

define i32 @function_7ee() local_unnamed_addr {
dec_label_pc_7ee:
  %tmp = load i32, i32* @eax, align 4
  ret i32 %tmp
}

define i32 @function_7f8() local_unnamed_addr {
dec_label_pc_7f8:
  %tmp = load i32, i32* @eax, align 4
  ret i32 %tmp
}

define i32 @function_7fd() local_unnamed_addr {
dec_label_pc_7fd:
  %tmp = load i32, i32* @eax, align 4
  ret i32 %tmp
}

define i32 @function_811() local_unnamed_addr {
dec_label_pc_811:
  %tmp = load i32, i32* @eax, align 4
  ret i32 %tmp
}

define i32 @function_813() local_unnamed_addr {
dec_label_pc_813:
  %tmp = load i32, i32* @eax, align 4
  ret i32 %tmp
}

define i32 @function_82d() local_unnamed_addr {
dec_label_pc_82d:
  %v0_82f = call i32 @function_811()
  ret i32 %v0_82f
}

define i32 @function_831() local_unnamed_addr {
dec_label_pc_831:
  %v0_837 = call i32 @function_813()
  ret i32 %v0_837
}

define i32 @function_839() local_unnamed_addr {
dec_label_pc_839:
  %v0_83b = call i32 @function_7fd()
  ret i32 %v0_83b
}

define i32 @function_840() local_unnamed_addr {
dec_label_pc_840:
  %v0_840 = call i32 @function_811()
  ret i32 %v0_840

; uselistorder directives
  uselistorder i32 ()* @function_811, { 1, 0 }
}

define i32 @function_84e() local_unnamed_addr {
dec_label_pc_84e:
  %v0_84e = call i32 @function_813()
  ret i32 %v0_84e

; uselistorder directives
  uselistorder i32 ()* @function_813, { 1, 0 }
}

define i32 @function_850() local_unnamed_addr {
dec_label_pc_850:
  %tmp = load i32, i32* @eax, align 4
  ret i32 %tmp
}

define i32 @function_854() local_unnamed_addr {
dec_label_pc_854:
  %eax.global-to-local = alloca i32, align 4
  %ecx.global-to-local = alloca i32, align 4
  %v0_854 = load i32, i32* %ecx.global-to-local, align 4
  %v1_854 = add i32 %v0_854, -1986008125
  %v2_854 = inttoptr i32 %v1_854 to i32*
  %v3_854 = load i32, i32* %v2_854, align 4
  %v4_854 = sub i32 %v3_854, ptrtoint (i8** @global_var_1.3274 to i32)
  store i32 %v4_854, i32* %v2_854, align 4
  %v0_85a = load i32, i32* %eax.global-to-local, align 4
  ret i32 %v0_85a
}

define i32 @function_878() local_unnamed_addr {
dec_label_pc_878:
  %eax.global-to-local = alloca i32, align 4
  %ebx.global-to-local = alloca i32, align 4
  %v0_878 = load i32, i32* %ebx.global-to-local, align 4
  %v1_878 = add i32 %v0_878, -1994382268
  %v2_878 = inttoptr i32 %v1_878 to i32*
  %v3_878 = load i32, i32* %v2_878, align 4
  %v4_878 = sub i32 %v3_878, ptrtoint (i8** @global_var_1.3274 to i32)
  store i32 %v4_878, i32* %v2_878, align 4
  %v0_87e = load i32, i32* %eax.global-to-local, align 4
  ret i32 %v0_87e
}

define i32 @function_87f() local_unnamed_addr {
dec_label_pc_87f:
  %tmp = load i32, i32* @eax, align 4
  ret i32 %tmp
}

define i32 @function_887() local_unnamed_addr {
dec_label_pc_887:
  %tmp = load i32, i32* @eax, align 4
  ret i32 %tmp
}

define i32 @function_88f() local_unnamed_addr {
dec_label_pc_88f:
  %v0_88f = call i32 @function_7f8()
  ret i32 %v0_88f
}

define i32 @function_894() local_unnamed_addr {
dec_label_pc_894:
  %v0_896 = call i32 @function_87f()
  ret i32 %v0_896
}

define i32 @function_898() local_unnamed_addr {
dec_label_pc_898:
  %v0_8a0 = call i32 @function_887()
  ret i32 %v0_8a0
}

define i32 @function_8ae() local_unnamed_addr {
dec_label_pc_8ae:
  %v0_8ae = call i32 @function_7ee()
  ret i32 %v0_8ae
}

define i32 @function_8b3() local_unnamed_addr {
dec_label_pc_8b3:
  %v0_8b5 = call i32 @function_7ee()
  ret i32 %v0_8b5

; uselistorder directives
  uselistorder i32 ()* @function_7ee, { 1, 0 }
}

define i32 @function_8c3(i32 %arg1) local_unnamed_addr {
dec_label_pc_8c3:
  %eax.global-to-local = alloca i32, align 4
  %ecx.global-to-local = alloca i32, align 4
  %v0_8c3 = load i32, i32* %ecx.global-to-local, align 4
  %v1_8c3 = add i32 %v0_8c3, -1913918472
  %v2_8c3 = inttoptr i32 %v1_8c3 to i32*
  %v3_8c3 = load i32, i32* %v2_8c3, align 4
  %v4_8c3 = sub i32 %v3_8c3, ptrtoint (i8** @global_var_1.3274 to i32)
  store i32 %v4_8c3, i32* %v2_8c3, align 4
  %v0_8ca = load i32, i32* %eax.global-to-local, align 4
  %v11_8ca = and i32 %v0_8ca, or (i32 zext (i8 ptrtoint (i32* @global_var_4c.3290 to i8) to i32), i32 -256)
  store i32 %v11_8ca, i32* @eax, align 4
  %v0_8cc = call i32 @function_8b3()
  store i32 %v0_8cc, i32* %eax.global-to-local, align 4
  ret i32 %v0_8cc
}

define void @_Z13StartShutdownv() local_unnamed_addr {
dec_label_pc_8d0:
  store i8 ptrtoint (i8** @global_var_1.3274 to i8), i8* bitcast (i1* @global_var_96e0.3291 to i8*), align 1
  br i1 false, label %dec_label_pc_8f7, label %dec_label_pc_8f3

dec_label_pc_8f3:                                 ; preds = %dec_label_pc_8d0
  ret void

dec_label_pc_8f7:                                 ; preds = %dec_label_pc_8d0
  ret void
}

define i1 @_Z17ShutdownRequestedv() local_unnamed_addr {
dec_label_pc_900:
  br i1 false, label %dec_label_pc_927, label %dec_label_pc_923

dec_label_pc_923:                                 ; preds = %dec_label_pc_900
  %v0_90f = load i8, i8* bitcast (i1* @global_var_96e0.3291 to i8*), align 1
  %tmp102 = urem i8 %v0_90f, 2
  %v1_926 = icmp ne i8 %tmp102, 0
  ret i1 %v1_926

dec_label_pc_927:                                 ; preds = %dec_label_pc_900
  ret i1 undef

; uselistorder directives
  uselistorder i8* bitcast (i1* @global_var_96e0.3291 to i8*), { 1, 0 }
}

define void @_Z8Shutdownv() local_unnamed_addr {
dec_label_pc_930:
  %ebx.global-to-local = alloca i32, align 4
  %esi.global-to-local = alloca i32, align 4
  %v0_930 = load i32, i32* %esi.global-to-local, align 4
  %v0_931 = load i32, i32* %ebx.global-to-local, align 4
  %v0_935 = load i32, i32* inttoptr (i32 20 to i32*), align 4
  store i32 0, i32* @eax, align 4
  %v5_948 = call i32 @function_95e(i32 %v0_935, i32 %v0_931, i32 %v0_930)
  ret void
}

define i32 @function_95e(i32 %arg1, i32 %arg2, i32 %arg3) local_unnamed_addr {
dec_label_pc_95e:
  %v3_96b = load i32, i32* @eax, align 4
  ret i32 %v3_96b
}

define i32 @function_991() local_unnamed_addr {
dec_label_pc_991:
  %tmp = load i32, i32* @eax, align 4
  ret i32 %tmp
}

define i32 @function_9a9() local_unnamed_addr {
dec_label_pc_9a9:
  %tmp = load i32, i32* @eax, align 4
  ret i32 %tmp
}

define i32 @function_a61() local_unnamed_addr {
dec_label_pc_a61:
  %eax.global-to-local = alloca i32, align 4
  %v0_a61 = load i32, i32* %eax.global-to-local, align 4
  ret i32 %v0_a61
}

define i32 @function_a83() local_unnamed_addr {
dec_label_pc_a83:
  %eax.global-to-local = alloca i32, align 4
  %tmp96 = load i32, i32* %eax.global-to-local, align 4
  ret i32 %tmp96
}

define i32 @function_aa5() local_unnamed_addr {
dec_label_pc_aa5:
  ret i32 1713388861
}

define i32 @function_ae4() local_unnamed_addr {
dec_label_pc_ae4:
  %eax.global-to-local = alloca i32, align 4
  %tmp96 = load i32, i32* %eax.global-to-local, align 4
  ret i32 %tmp96
}

define i32 @function_b35() local_unnamed_addr {
dec_label_pc_b35:
  %eax.global-to-local = alloca i32, align 4
  %v0_b35 = load i32, i32* %eax.global-to-local, align 4
  ret i32 %v0_b35
}

define i32 @function_b3b(i32 %arg1, i32 %arg2, i32 %arg3) local_unnamed_addr {
dec_label_pc_b3b:
  %eax.global-to-local = alloca i32, align 4
  %stack_var_56 = alloca i32, align 4
  %v0_b3b = load i32, i32* %eax.global-to-local, align 4
  %v1_b3b = icmp eq i32 %v0_b3b, 0
  br i1 %v1_b3b, label %dec_label_pc_b47, label %dec_label_pc_b3f

dec_label_pc_b3f:                                 ; preds = %dec_label_pc_b3b
  br label %dec_label_pc_b47

dec_label_pc_b47:                                 ; preds = %dec_label_pc_b3f, %dec_label_pc_b3b
  %v2_b47 = ptrtoint i32* %stack_var_56 to i32
  store i32 %v2_b47, i32* %eax.global-to-local, align 4
  %v2_b4e = call i32 @_ZN5boost11unique_lockI14AnnotatedMixinINS_15recursive_mutexEEED1Ev(i32* nonnull %stack_var_56)
  store i32 %arg1, i32* %eax.global-to-local, align 4
  %v1_b57 = load i32, i32* inttoptr (i32 20 to i32*), align 4
  %v2_b57 = xor i32 %v1_b57, %arg1
  %v3_b57 = icmp eq i32 %v2_b57, 0
  store i32 %v2_b57, i32* @eax, align 4
  %v1_b5e = icmp eq i1 %v3_b57, false
  br i1 %v1_b5e, label %bb, label %dec_label_pc_b60

bb:                                               ; preds = %dec_label_pc_b47
  %v2_b5e = call i32 @function_bb9()
  store i32 %v2_b5e, i32* %eax.global-to-local, align 4
  br label %dec_label_pc_b60

dec_label_pc_b60:                                 ; preds = %bb, %dec_label_pc_b47
  %v0_b65 = phi i32 [ %v2_b5e, %bb ], [ %v2_b57, %dec_label_pc_b47 ]
  ret i32 %v0_b65
}

define i32 @function_b6d() local_unnamed_addr {
dec_label_pc_b6d:
  %v0_b6d = load i32, i32* @eax, align 4
  %v12_b6d = icmp eq i32 %v0_b6d, 1953656688
  br i1 %v12_b6d, label %bb, label %dec_label_pc_b79

bb:                                               ; preds = %dec_label_pc_b6d
  %v1_b73 = call i32 @function_991()
  store i32 %v1_b73, i32* @eax, align 4
  br label %dec_label_pc_b79

dec_label_pc_b79:                                 ; preds = %bb, %dec_label_pc_b6d
  %v0_b7b = call i32 @function_9a9()
  ret i32 %v0_b7b
}

define i32 @function_bb4() local_unnamed_addr {
dec_label_pc_bb4:
  %v3_bb4 = call i32 @function_95e(i32 ptrtoint (i32* @0 to i32), i32 ptrtoint (i32* @0 to i32), i32 ptrtoint (i32* @0 to i32))
  ret i32 %v3_bb4

; uselistorder directives
  uselistorder i32 (i32, i32, i32)* @function_95e, { 1, 0 }
}

define i32 @function_bb9() local_unnamed_addr {
dec_label_pc_bb9:
  %tmp = load i32, i32* @eax, align 4
  ret i32 %tmp
}

define i32 @function_bbd() local_unnamed_addr {
dec_label_pc_bbd:
  %eax.global-to-local = alloca i32, align 4
  %v0_bbd = load i32, i32* %eax.global-to-local, align 4
  ret i32 %v0_bbd
}

define i32 @function_bcb() local_unnamed_addr {
dec_label_pc_bcb:
  %eax.global-to-local = alloca i32, align 4
  %v0_bcb = load i32, i32* %eax.global-to-local, align 4
  ret i32 %v0_bcb
}

define i32 @function_be1() local_unnamed_addr {
dec_label_pc_be1:
  %eax.global-to-local = alloca i32, align 4
  %v0_be1 = load i32, i32* %eax.global-to-local, align 4
  ret i32 %v0_be1
}

define i32 @function_be2() local_unnamed_addr {
dec_label_pc_be2:
  %tmp = load i32, i32* @eax, align 4
  ret i32 %tmp
}

define i32 @function_bf5() local_unnamed_addr {
dec_label_pc_bf5:
  %ecx.global-to-local = alloca i32, align 4
  %v0_bf5 = load i32, i32* %ecx.global-to-local, align 4
  %v1_bf5 = add i32 %v0_bf5, 607422915
  %v2_bf5 = inttoptr i32 %v1_bf5 to i32*
  %v3_bf5 = load i32, i32* %v2_bf5, align 4
  %v4_bf5 = add i32 %v3_bf5, -1
  store i32 %v4_bf5, i32* %v2_bf5, align 4
  %v2_bfb = call i32 @_ZN5boost11unique_lockI14AnnotatedMixinINS_15recursive_mutexEEED1Ev(i32* nonnull @0)
  store i32 %v2_bfb, i32* @eax, align 4
  %v0_c00 = call i32 @function_be2()
  ret i32 %v0_c00
}

define i32 @function_c02() local_unnamed_addr {
dec_label_pc_c02:
  %v0_c02 = load i32, i32* @ebx, align 4
  %v0_c05 = load i32, i32* @eax, align 4
  %v1_c09 = inttoptr i32 %v0_c02 to i32*
  %v2_c09 = call i32 @_ZNSt6vectorI7uint256SaIS0_EED1Ev(i32* %v1_c09)
  store i32 %v0_c05, i32* @ebx, align 4
  %v0_c14 = load i32, i32* @esi, align 4
  %v1_c17 = inttoptr i32 %v0_c14 to i32*
  %v2_c17 = call i32 @_ZN5boost11unique_lockI14AnnotatedMixinINS_15recursive_mutexEEED1Ev(i32* %v1_c17)
  store i32 %v2_c17, i32* @eax, align 4
  %v0_c1c = call i32 @function_be2()
  ret i32 %v0_c1c
}

define i32 @function_c1e() local_unnamed_addr {
dec_label_pc_c1e:
  %v0_c1e = call i32 @function_c02()
  ret i32 %v0_c1e
}

define i32 @function_c20() local_unnamed_addr {
dec_label_pc_c20:
  %eax.global-to-local = alloca i32, align 4
  %v0_c20 = load i32, i32* %eax.global-to-local, align 4
  ret i32 %v0_c20
}

define i32 @function_c30() local_unnamed_addr {
dec_label_pc_c30:
  %v0_c30 = call i32 @function_be2()
  ret i32 %v0_c30

; uselistorder directives
  uselistorder i32 ()* @function_be2, { 2, 1, 0 }
}

define void @"__uninitialized_move_a<boost::filesystem3::path*, boost::filesystem3::path*, std::allocator<boost::filesystem3::path> >"(i32 %__first, i32 %__last, i32 %__result, i32 %__alloc) local_unnamed_addr {
dec_label_pc_c40:
  %eax.global-to-local = alloca i32, align 4
  %ecx.global-to-local = alloca i32, align 4
  %edx.global-to-local = alloca i32, align 4
  %v0_c41 = load i32, i32* %ecx.global-to-local, align 4
  %v0_c44 = load i32, i32* %edx.global-to-local, align 4
  store i32 %v0_c44, i32* @edi, align 4
  %v0_c47 = load i32, i32* %eax.global-to-local, align 4
  store i32 %v0_c47, i32* @esi, align 4
  store i32 %v0_c41, i32* @ebx, align 4
  %v0_c4f = load i32, i32* inttoptr (i32 20 to i32*), align 4
  store i32 0, i32* @eax, align 4
  %v12_c5b = icmp eq i32 %v0_c44, %v0_c47
  br i1 %v12_c5b, label %bb, label %dec_label_pc_c5f

bb:                                               ; preds = %dec_label_pc_c40
  %v2_c5d = call i32 @function_c7a(i32 %v0_c4f)
  store i32 %v2_c5d, i32* @eax, align 4
  br label %dec_label_pc_c5f

dec_label_pc_c5f:                                 ; preds = %bb, %dec_label_pc_c40
  %v1_c60 = icmp eq i32 %v0_c41, 0
  br i1 %v1_c60, label %bb104, label %dec_label_pc_c64

bb104:                                            ; preds = %dec_label_pc_c5f
  %v1_c62 = call i32 @function_c70()
  store i32 %v1_c62, i32* %eax.global-to-local, align 4
  br label %dec_label_pc_c64

dec_label_pc_c64:                                 ; preds = %bb104, %dec_label_pc_c5f
  ret void

; uselistorder directives
  uselistorder i32 %v0_c41, { 1, 0 }
}

define i32 @function_c70() local_unnamed_addr {
dec_label_pc_c70:
  %v0_c78 = load i32, i32* @eax, align 4
  ret i32 %v0_c78
}

define i32 @function_c7a(i32 %arg1) local_unnamed_addr {
dec_label_pc_c7a:
  %v1_c7e = load i32, i32* inttoptr (i32 20 to i32*), align 4
  %v3_c7e = icmp eq i32 %v1_c7e, %arg1
  %v0_c85 = load i32, i32* @ebx, align 4
  store i32 %v0_c85, i32* @eax, align 4
  %v1_c87 = icmp eq i1 %v3_c7e, false
  br i1 %v1_c87, label %bb, label %dec_label_pc_c89

bb:                                               ; preds = %dec_label_pc_c7a
  %v2_c87 = call i32 @function_caa()
  br label %dec_label_pc_c89

dec_label_pc_c89:                                 ; preds = %bb, %dec_label_pc_c7a
  %v0_c90 = phi i32 [ %v2_c87, %bb ], [ %v0_c85, %dec_label_pc_c7a ]
  ret i32 %v0_c90
}

define i32 @function_caa() local_unnamed_addr {
dec_label_pc_caa:
  %tmp = load i32, i32* @eax, align 4
  ret i32 %tmp
}

define i32 @function_cb0() local_unnamed_addr {
dec_label_pc_cb0:
  %eax.global-to-local = alloca i32, align 4
  %v0_cb0 = load i32, i32* %eax.global-to-local, align 4
  ret i32 %v0_cb0
}

define i32 @function_cbd() local_unnamed_addr {
dec_label_pc_cbd:
  %eax.global-to-local = alloca i32, align 4
  %v0_cbd = load i32, i32* %eax.global-to-local, align 4
  ret i32 %v0_cbd
}

define i32 @_Z11HelpMessagev() local_unnamed_addr {
dec_label_pc_cc0:
  %stack_var_-852 = alloca i32, align 4
  %v2_cca = ptrtoint i32* %stack_var_-852 to i32
  %v3_cef = call i32 @_Z1_PKc(i32 %v2_cca, i32 ptrtoint ([9 x i8]* @global_var_9a2c.3296 to i32))
  ret i32 %v3_cef
}

define i32 @function_136e() local_unnamed_addr {
dec_label_pc_136e:
  %v0_136e = call i32 @function_8900009b()
  ret i32 %v0_136e
}

define i32 @function_1644() local_unnamed_addr {
dec_label_pc_1644:
  %eax.global-to-local = alloca i32, align 4
  %v0_1647 = load i32, i32* %eax.global-to-local, align 4
  %v11_164f = and i32 %v0_1647, or (i32 zext (i8 and (i8 ptrtoint (i16** @global_var_4.3276 to i8), i8 ptrtoint (i32* @global_var_e8.3284 to i8)) to i32), i32 -256)
  store i32 %v11_164f, i32* @eax, align 4
  %v0_1651 = call i32 @function_16ac()
  store i32 %v0_1651, i32* %eax.global-to-local, align 4
  ret i32 %v0_1651
}

define i32 @function_1653() local_unnamed_addr {
dec_label_pc_1653:
  %edi.global-to-local = alloca i32, align 4
  %stack_var_272 = alloca i32, align 4
  %v0_1658 = load i32, i32* %edi.global-to-local, align 4
  store i32 %v0_1658, i32* @ecx, align 4
  %v2_165a = ptrtoint i32* %stack_var_272 to i32
  store i32 %v2_165a, i32* @eax, align 4
  call void @"operator+<char, std::char_traits<char>, std::allocator<char> >"(i8* bitcast (i32* @0 to i8*), i32 ptrtoint (i32* @0 to i32))
  ret i32 ptrtoint (i32* @0 to i32)
}

define i32 @function_16ac() local_unnamed_addr {
dec_label_pc_16ac:
  %v3_16b7 = load i32, i32* @eax, align 4
  ret i32 %v3_16b7
}

define i32 @function_1766() local_unnamed_addr {
dec_label_pc_1766:
  %eax.global-to-local = alloca i32, align 4
  %ebp.global-to-local = alloca i32, align 4
  %v0_1768 = load i32, i32* %ebp.global-to-local, align 4
  %v1_1768 = add i32 %v0_1768, 19932316
  %v2_1768 = inttoptr i32 %v1_1768 to i32*
  %v3_1768 = load i32, i32* %v2_1768, align 4
  %v4_1768 = add i32 %v3_1768, -1
  store i32 %v4_1768, i32* %v2_1768, align 4
  %v2_176e = load i8, i8* bitcast (i32* @eax to i8*), align 4
  %v3_176e = load i32, i32* %eax.global-to-local, align 4
  %v4_176e = trunc i32 %v3_176e to i8
  %v5_176e = add i8 %v4_176e, %v2_176e
  %v21_176e = inttoptr i32 %v3_176e to i8*
  store i8 %v5_176e, i8* %v21_176e, align 1
  %v3_17b3 = load i32, i32* %eax.global-to-local, align 4
  ret i32 %v3_17b3
}

define i32 @function_17e4() local_unnamed_addr {
dec_label_pc_17e4:
  %eax.global-to-local = alloca i32, align 4
  %ebp.global-to-local = alloca i32, align 4
  %v0_17e6 = load i32, i32* %ebp.global-to-local, align 4
  %v1_17e6 = add i32 %v0_17e6, 20718748
  %v2_17e6 = inttoptr i32 %v1_17e6 to i32*
  %v3_17e6 = load i32, i32* %v2_17e6, align 4
  %v4_17e6 = add i32 %v3_17e6, -1
  store i32 %v4_17e6, i32* %v2_17e6, align 4
  %v2_17ec = load i8, i8* bitcast (i32* @eax to i8*), align 4
  %v3_17ec = load i32, i32* %eax.global-to-local, align 4
  %v4_17ec = trunc i32 %v3_17ec to i8
  %v5_17ec = add i8 %v4_17ec, %v2_17ec
  %v21_17ec = inttoptr i32 %v3_17ec to i8*
  store i8 %v5_17ec, i8* %v21_17ec, align 1
  %v3_17f2 = load i32, i32* %eax.global-to-local, align 4
  ret i32 %v3_17f2
}

define i32 @function_1862() local_unnamed_addr {
dec_label_pc_1862:
  %v0_1862 = call i32 @function_9c8dffff()
  ret i32 %v0_1862
}

define i32 @function_18e0() local_unnamed_addr {
dec_label_pc_18e0:
  %v0_18e0 = call i32 @function_9c8dffff()
  ret i32 %v0_18e0

; uselistorder directives
  uselistorder i32 ()* @function_9c8dffff, { 1, 0 }
}

define i32 @function_195e() local_unnamed_addr {
dec_label_pc_195e:
  %v0_195e = call i32 @function_9c8e1962()
  ret i32 %v0_195e
}

define i32 @function_19dc() local_unnamed_addr {
dec_label_pc_19dc:
  %v0_19dc = call i32 @function_9c8e19e0()
  ret i32 %v0_19dc
}

define i32 @function_29aa() local_unnamed_addr {
dec_label_pc_29aa:
  %eax.global-to-local = alloca i32, align 4
  %v0_29aa = load i32, i32* %eax.global-to-local, align 4
  ret i32 %v0_29aa
}

define i32 @function_2d75(i32 %arg1, i32 %arg2, i32 %arg3, i32 %arg4, i32 %arg5) local_unnamed_addr {
dec_label_pc_2d75:
  %cf.global-to-local = alloca i1, align 1
  %eax.global-to-local = alloca i32, align 4
  %ebp.global-to-local = alloca i32, align 4
  %ecx.global-to-local = alloca i32, align 4
  %v0_2d75 = load i32, i32* %ecx.global-to-local, align 4
  %v1_2d75 = add i32 %v0_2d75, 613714920
  %v2_2d75 = inttoptr i32 %v1_2d75 to i32*
  %v3_2d75 = load i32, i32* %v2_2d75, align 4
  %v4_2d75 = add i32 %v3_2d75, -1
  store i32 %v4_2d75, i32* %v2_2d75, align 4
  %v0_2d7c = load i32, i32* %eax.global-to-local, align 4
  %v4_2d7c = mul i32 %v0_2d7c, 2
  %v9_2d7c = icmp ult i32 %v4_2d7c, %v0_2d7c
  store i1 %v9_2d7c, i1* %cf.global-to-local, align 1
  store i32 %v4_2d7c, i32* %eax.global-to-local, align 4
  %v0_2d7e = load i32, i32* %ebp.global-to-local, align 4
  %v1_2d7e = add i32 %v0_2d7e, 51
  %v2_2d7e = inttoptr i32 %v1_2d7e to i8*
  %v3_2d7e = load i8, i8* %v2_2d7e, align 1
  %tmp104 = udiv i32 %v0_2d7c, 128
  %v6_2d7e = trunc i32 %tmp104 to i8
  %v7_2d7e = add i8 %v3_2d7e, %v6_2d7e
  %v12_2d7e = icmp ult i8 %v7_2d7e, %v3_2d7e
  store i1 %v12_2d7e, i1* %cf.global-to-local, align 1
  store i8 %v7_2d7e, i8* %v2_2d7e, align 1
  %v0_2d81 = load i32, i32* %eax.global-to-local, align 4
  %v1_2d81 = load i1, i1* %cf.global-to-local, align 1
  %v2_2d81 = zext i1 %v1_2d81 to i32
  %v3_2d81 = add i32 %v0_2d81, 20
  %v4_2d81 = add i32 %v3_2d81, %v2_2d81
  %v14_2d81 = icmp eq i32 %v4_2d81, 0
  %v22_2d81 = icmp ule i32 %v4_2d81, %v0_2d81
  %v23_2d81 = icmp ugt i32 %v0_2d81, -21
  %v24_2d81 = select i1 %v1_2d81, i1 %v22_2d81, i1 %v23_2d81
  store i1 %v24_2d81, i1* %cf.global-to-local, align 1
  store i32 %v4_2d81, i32* @eax, align 4
  %v1_2d86 = icmp eq i1 %v14_2d81, false
  br i1 %v1_2d86, label %bb, label %dec_label_pc_2d8c

bb:                                               ; preds = %dec_label_pc_2d75
  %v2_2d86 = call i32 @function_2eae()
  store i32 %v2_2d86, i32* %eax.global-to-local, align 4
  br label %dec_label_pc_2d8c

dec_label_pc_2d8c:                                ; preds = %bb, %dec_label_pc_2d75
  %v0_2d96 = phi i32 [ %v2_2d86, %bb ], [ %v4_2d81, %dec_label_pc_2d75 ]
  %v0_2d8c = load i32, i32* @esp, align 4
  %v5_2d8c = icmp ugt i32 %v0_2d8c, -877
  store i1 %v5_2d8c, i1* %cf.global-to-local, align 1
  store i32 %arg5, i32* %ebp.global-to-local, align 4
  ret i32 %v0_2d96

; uselistorder directives
  uselistorder i32 %v4_2d81, { 0, 2, 1, 3 }
  uselistorder i8 %v3_2d7e, { 1, 0 }
  uselistorder i32 %v0_2d7c, { 1, 2, 0 }
}

define i32 @function_2ea9() local_unnamed_addr {
dec_label_pc_2ea9:
  %eax.global-to-local = alloca i32, align 4
  %v0_2ea9 = load i32, i32* %eax.global-to-local, align 4
  ret i32 %v0_2ea9
}

define i32 @function_2eae() local_unnamed_addr {
dec_label_pc_2eae:
  %v0_2eae = load i32, i32* @eax, align 4
  ret i32 %v0_2eae
}

define i32 @function_2eb7() local_unnamed_addr {
dec_label_pc_2eb7:
  %tmp = load i32, i32* @eax, align 4
  ret i32 %tmp
}

define i32 @function_2ec8() local_unnamed_addr {
dec_label_pc_2ec8:
  %eax.global-to-local = alloca i32, align 4
  %v0_2ec8 = load i32, i32* %eax.global-to-local, align 4
  ret i32 %v0_2ec8
}

define i32 @function_2ec9() local_unnamed_addr {
dec_label_pc_2ec9:
  %tmp = load i32, i32* @eax, align 4
  ret i32 %tmp
}

define i32 @function_2ee3() local_unnamed_addr {
dec_label_pc_2ee3:
  %v0_2ee3 = call i32 @function_2eb7()
  ret i32 %v0_2ee3
}

define i32 @function_2ee5() local_unnamed_addr {
dec_label_pc_2ee5:
  %tmp = load i32, i32* @eax, align 4
  ret i32 %tmp
}

define i32 @function_2ef0() local_unnamed_addr {
dec_label_pc_2ef0:
  %eax.global-to-local = alloca i32, align 4
  %ebx.global-to-local = alloca i32, align 4
  %v0_2ef0 = load i32, i32* %ebx.global-to-local, align 4
  %v1_2ef0 = add i32 %v0_2ef0, -1994644412
  %v2_2ef0 = inttoptr i32 %v1_2ef0 to i32*
  %v3_2ef0 = load i32, i32* %v2_2ef0, align 4
  %v4_2ef0 = sub i32 %v3_2ef0, ptrtoint (i8** @global_var_1.3274 to i32)
  store i32 %v4_2ef0, i32* %v2_2ef0, align 4
  %v0_2ef6 = load i32, i32* %eax.global-to-local, align 4
  ret i32 %v0_2ef6
}

define i32 @function_2ef7() local_unnamed_addr {
dec_label_pc_2ef7:
  %tmp = load i32, i32* @eax, align 4
  ret i32 %tmp
}

define i32 @function_2eff(i32 %arg1) local_unnamed_addr {
dec_label_pc_2eff:
  %tmp = load i32, i32* @eax, align 4
  ret i32 %tmp
}

define i32 @function_2f07() local_unnamed_addr {
dec_label_pc_2f07:
  %v0_2f07 = call i32 @function_2ec9()
  ret i32 %v0_2f07
}

define i32 @function_2f09() local_unnamed_addr {
dec_label_pc_2f09:
  %v0_2f09 = call i32 @function_2ee5()
  ret i32 %v0_2f09
}

define i32 @function_2f0b() local_unnamed_addr {
dec_label_pc_2f0b:
  %v0_2f10 = call i32 @function_2ef7()
  ret i32 %v0_2f10
}

define i32 @function_2f12() local_unnamed_addr {
dec_label_pc_2f12:
  %v1_2f14 = call i32 @function_2eff(i32 ptrtoint (i32* @0 to i32))
  ret i32 %v1_2f14
}

define i32 @function_2f16() local_unnamed_addr {
dec_label_pc_2f16:
  %tmp = load i32, i32* @eax, align 4
  ret i32 %tmp
}

define i32 @function_2f21() local_unnamed_addr {
dec_label_pc_2f21:
  %eax.global-to-local = alloca i32, align 4
  %ebx.global-to-local = alloca i32, align 4
  %v0_2f21 = load i32, i32* %ebx.global-to-local, align 4
  %v1_2f21 = add i32 %v0_2f21, -1994644412
  %v2_2f21 = inttoptr i32 %v1_2f21 to i32*
  %v3_2f21 = load i32, i32* %v2_2f21, align 4
  %v4_2f21 = sub i32 %v3_2f21, ptrtoint (i8** @global_var_1.3274 to i32)
  store i32 %v4_2f21, i32* %v2_2f21, align 4
  %v0_2f27 = load i32, i32* %eax.global-to-local, align 4
  ret i32 %v0_2f27
}

define i32 @function_2f28() local_unnamed_addr {
dec_label_pc_2f28:
  %tmp = load i32, i32* @eax, align 4
  ret i32 %tmp
}

define i32 @function_2f30() local_unnamed_addr {
dec_label_pc_2f30:
  %v1_2f30 = call i32 @function_2eff(i32 ptrtoint (i32* @0 to i32))
  ret i32 %v1_2f30
}

define i32 @function_2f32() local_unnamed_addr {
dec_label_pc_2f32:
  %v0_2f32 = call i32 @function_2f16()
  ret i32 %v0_2f32
}

define i32 @function_2f34() local_unnamed_addr {
dec_label_pc_2f34:
  %v0_2f36 = call i32 @function_2f28()
  ret i32 %v0_2f36
}

define i32 @function_2f38() local_unnamed_addr {
dec_label_pc_2f38:
  %v1_2f40 = call i32 @function_2eff(i32 ptrtoint (i32* @0 to i32))
  ret i32 %v1_2f40
}

define i32 @function_2f42() local_unnamed_addr {
dec_label_pc_2f42:
  %tmp = load i32, i32* @eax, align 4
  ret i32 %tmp
}

define i32 @function_2f4d() local_unnamed_addr {
dec_label_pc_2f4d:
  %eax.global-to-local = alloca i32, align 4
  %ebx.global-to-local = alloca i32, align 4
  %v0_2f4d = load i32, i32* %ebx.global-to-local, align 4
  %v1_2f4d = add i32 %v0_2f4d, -1994644412
  %v2_2f4d = inttoptr i32 %v1_2f4d to i32*
  %v3_2f4d = load i32, i32* %v2_2f4d, align 4
  %v4_2f4d = sub i32 %v3_2f4d, ptrtoint (i8** @global_var_1.3274 to i32)
  store i32 %v4_2f4d, i32* %v2_2f4d, align 4
  %v0_2f53 = load i32, i32* %eax.global-to-local, align 4
  ret i32 %v0_2f53
}

define i32 @function_2f54() local_unnamed_addr {
dec_label_pc_2f54:
  %v0_2f54 = load i32, i32* @esi, align 4
  %v1_2f5c = call i32 @function_2eff(i32 %v0_2f54)
  ret i32 %v1_2f5c
}

define i32 @function_2f5e() local_unnamed_addr {
dec_label_pc_2f5e:
  %v0_2f5e = call i32 @function_2f42()
  ret i32 %v0_2f5e
}

define i32 @function_2f60() local_unnamed_addr {
dec_label_pc_2f60:
  %v0_2f62 = call i32 @function_2f54()
  ret i32 %v0_2f62
}

define i32 @function_2f64() local_unnamed_addr {
dec_label_pc_2f64:
  %v1_2f66 = call i32 @function_2eff(i32 ptrtoint (i32* @0 to i32))
  ret i32 %v1_2f66
}

define i32 @function_2f68() local_unnamed_addr {
dec_label_pc_2f68:
  %tmp = load i32, i32* @eax, align 4
  ret i32 %tmp
}

define i32 @function_2f73() local_unnamed_addr {
dec_label_pc_2f73:
  %eax.global-to-local = alloca i32, align 4
  %ebx.global-to-local = alloca i32, align 4
  %v0_2f73 = load i32, i32* %ebx.global-to-local, align 4
  %v1_2f73 = add i32 %v0_2f73, -1994644412
  %v2_2f73 = inttoptr i32 %v1_2f73 to i32*
  %v3_2f73 = load i32, i32* %v2_2f73, align 4
  %v4_2f73 = sub i32 %v3_2f73, ptrtoint (i8** @global_var_1.3274 to i32)
  store i32 %v4_2f73, i32* %v2_2f73, align 4
  %v0_2f79 = load i32, i32* %eax.global-to-local, align 4
  ret i32 %v0_2f79
}

define i32 @function_2f7a() local_unnamed_addr {
dec_label_pc_2f7a:
  %tmp = load i32, i32* @eax, align 4
  ret i32 %tmp
}

define i32 @function_2f82() local_unnamed_addr {
dec_label_pc_2f82:
  %v1_2f82 = call i32 @function_2eff(i32 ptrtoint (i32* @0 to i32))
  ret i32 %v1_2f82
}

define i32 @function_2f87() local_unnamed_addr {
dec_label_pc_2f87:
  %v0_2f87 = call i32 @function_2f68()
  ret i32 %v0_2f87
}

define i32 @function_2f89() local_unnamed_addr {
dec_label_pc_2f89:
  %v0_2f90 = call i32 @function_2f7a()
  ret i32 %v0_2f90
}

define i32 @function_2f92() local_unnamed_addr {
dec_label_pc_2f92:
  %v1_2f94 = call i32 @function_2eff(i32 ptrtoint (i32* @0 to i32))
  ret i32 %v1_2f94
}

define i32 @function_2f99() local_unnamed_addr {
dec_label_pc_2f99:
  %tmp = load i32, i32* @eax, align 4
  ret i32 %tmp
}

define i32 @function_2fa4() local_unnamed_addr {
dec_label_pc_2fa4:
  %eax.global-to-local = alloca i32, align 4
  %ebx.global-to-local = alloca i32, align 4
  %v0_2fa4 = load i32, i32* %ebx.global-to-local, align 4
  %v1_2fa4 = add i32 %v0_2fa4, -1994644412
  %v2_2fa4 = inttoptr i32 %v1_2fa4 to i32*
  %v3_2fa4 = load i32, i32* %v2_2fa4, align 4
  %v4_2fa4 = sub i32 %v3_2fa4, ptrtoint (i8** @global_var_1.3274 to i32)
  store i32 %v4_2fa4, i32* %v2_2fa4, align 4
  %v0_2faa = load i32, i32* %eax.global-to-local, align 4
  ret i32 %v0_2faa
}

define i32 @function_2fab() local_unnamed_addr {
dec_label_pc_2fab:
  %tmp = load i32, i32* @eax, align 4
  ret i32 %tmp
}

define i32 @function_2fb3() local_unnamed_addr {
dec_label_pc_2fb3:
  %v1_2fb3 = call i32 @function_2eff(i32 ptrtoint (i32* @0 to i32))
  ret i32 %v1_2fb3
}

define i32 @function_2fb8() local_unnamed_addr {
dec_label_pc_2fb8:
  %v0_2fb8 = call i32 @function_2f99()
  ret i32 %v0_2fb8
}

define i32 @function_2fba() local_unnamed_addr {
dec_label_pc_2fba:
  %v0_2fc0 = call i32 @function_2fab()
  ret i32 %v0_2fc0
}

define i32 @function_2fc2() local_unnamed_addr {
dec_label_pc_2fc2:
  %v1_2fc4 = call i32 @function_2eff(i32 ptrtoint (i32* @0 to i32))
  ret i32 %v1_2fc4
}

define i32 @function_2fc9() local_unnamed_addr {
dec_label_pc_2fc9:
  %tmp = load i32, i32* @eax, align 4
  ret i32 %tmp
}

define i32 @function_2fd4() local_unnamed_addr {
dec_label_pc_2fd4:
  %eax.global-to-local = alloca i32, align 4
  %ebx.global-to-local = alloca i32, align 4
  %v0_2fd4 = load i32, i32* %ebx.global-to-local, align 4
  %v1_2fd4 = add i32 %v0_2fd4, -1994644412
  %v2_2fd4 = inttoptr i32 %v1_2fd4 to i32*
  %v3_2fd4 = load i32, i32* %v2_2fd4, align 4
  %v4_2fd4 = sub i32 %v3_2fd4, ptrtoint (i8** @global_var_1.3274 to i32)
  store i32 %v4_2fd4, i32* %v2_2fd4, align 4
  %v0_2fda = load i32, i32* %eax.global-to-local, align 4
  ret i32 %v0_2fda
}

define i32 @function_2fdb() local_unnamed_addr {
dec_label_pc_2fdb:
  %tmp = load i32, i32* @eax, align 4
  ret i32 %tmp
}

define i32 @function_2fe3() local_unnamed_addr {
dec_label_pc_2fe3:
  %v1_2fe3 = call i32 @function_2eff(i32 ptrtoint (i32* @0 to i32))
  ret i32 %v1_2fe3
}

define i32 @function_2fe8() local_unnamed_addr {
dec_label_pc_2fe8:
  %v0_2fe8 = call i32 @function_2fc9()
  ret i32 %v0_2fe8
}

define i32 @function_2fea() local_unnamed_addr {
dec_label_pc_2fea:
  %v0_2ff0 = call i32 @function_2fdb()
  ret i32 %v0_2ff0
}

define i32 @function_2ff2() local_unnamed_addr {
dec_label_pc_2ff2:
  %v1_2ff4 = call i32 @function_2eff(i32 ptrtoint (i32* @0 to i32))
  ret i32 %v1_2ff4
}

define i32 @function_2ff9() local_unnamed_addr {
dec_label_pc_2ff9:
  %tmp = load i32, i32* @eax, align 4
  ret i32 %tmp
}

define i32 @function_3004() local_unnamed_addr {
dec_label_pc_3004:
  %eax.global-to-local = alloca i32, align 4
  %ebx.global-to-local = alloca i32, align 4
  %v0_3004 = load i32, i32* %ebx.global-to-local, align 4
  %v1_3004 = add i32 %v0_3004, -1994644412
  %v2_3004 = inttoptr i32 %v1_3004 to i32*
  %v3_3004 = load i32, i32* %v2_3004, align 4
  %v4_3004 = sub i32 %v3_3004, ptrtoint (i8** @global_var_1.3274 to i32)
  store i32 %v4_3004, i32* %v2_3004, align 4
  %v0_300a = load i32, i32* %eax.global-to-local, align 4
  ret i32 %v0_300a
}

define i32 @function_300b() local_unnamed_addr {
dec_label_pc_300b:
  %tmp = load i32, i32* @eax, align 4
  ret i32 %tmp
}

define i32 @function_3013() local_unnamed_addr {
dec_label_pc_3013:
  %v1_3013 = call i32 @function_2eff(i32 ptrtoint (i32* @0 to i32))
  ret i32 %v1_3013
}

define i32 @function_3018() local_unnamed_addr {
dec_label_pc_3018:
  %v0_3018 = call i32 @function_2ff9()
  ret i32 %v0_3018
}

define i32 @function_301a() local_unnamed_addr {
dec_label_pc_301a:
  %v0_3020 = call i32 @function_300b()
  ret i32 %v0_3020
}

define i32 @function_3022() local_unnamed_addr {
dec_label_pc_3022:
  %v1_3024 = call i32 @function_2eff(i32 ptrtoint (i32* @0 to i32))
  ret i32 %v1_3024
}

define i32 @function_3029() local_unnamed_addr {
dec_label_pc_3029:
  %tmp = load i32, i32* @eax, align 4
  ret i32 %tmp
}

define i32 @function_3034() local_unnamed_addr {
dec_label_pc_3034:
  %eax.global-to-local = alloca i32, align 4
  %ebx.global-to-local = alloca i32, align 4
  %v0_3034 = load i32, i32* %ebx.global-to-local, align 4
  %v1_3034 = add i32 %v0_3034, -1994644412
  %v2_3034 = inttoptr i32 %v1_3034 to i32*
  %v3_3034 = load i32, i32* %v2_3034, align 4
  %v4_3034 = sub i32 %v3_3034, ptrtoint (i8** @global_var_1.3274 to i32)
  store i32 %v4_3034, i32* %v2_3034, align 4
  %v0_303a = load i32, i32* %eax.global-to-local, align 4
  ret i32 %v0_303a
}

define i32 @function_303b() local_unnamed_addr {
dec_label_pc_303b:
  %tmp = load i32, i32* @eax, align 4
  ret i32 %tmp
}

define i32 @function_3043() local_unnamed_addr {
dec_label_pc_3043:
  %v1_3043 = call i32 @function_2eff(i32 ptrtoint (i32* @0 to i32))
  ret i32 %v1_3043
}

define i32 @function_3048() local_unnamed_addr {
dec_label_pc_3048:
  %v0_3048 = call i32 @function_3029()
  ret i32 %v0_3048
}

define i32 @function_304a() local_unnamed_addr {
dec_label_pc_304a:
  %v0_3050 = call i32 @function_303b()
  ret i32 %v0_3050
}

define i32 @function_3052() local_unnamed_addr {
dec_label_pc_3052:
  %v1_3054 = call i32 @function_2eff(i32 ptrtoint (i32* @0 to i32))
  ret i32 %v1_3054
}

define i32 @function_3059() local_unnamed_addr {
dec_label_pc_3059:
  %tmp = load i32, i32* @eax, align 4
  ret i32 %tmp
}

define i32 @function_3064() local_unnamed_addr {
dec_label_pc_3064:
  %eax.global-to-local = alloca i32, align 4
  %ebx.global-to-local = alloca i32, align 4
  %v0_3064 = load i32, i32* %ebx.global-to-local, align 4
  %v1_3064 = add i32 %v0_3064, -1994644412
  %v2_3064 = inttoptr i32 %v1_3064 to i32*
  %v3_3064 = load i32, i32* %v2_3064, align 4
  %v4_3064 = sub i32 %v3_3064, ptrtoint (i8** @global_var_1.3274 to i32)
  store i32 %v4_3064, i32* %v2_3064, align 4
  %v0_306a = load i32, i32* %eax.global-to-local, align 4
  ret i32 %v0_306a
}

define i32 @function_306b() local_unnamed_addr {
dec_label_pc_306b:
  %tmp = load i32, i32* @eax, align 4
  ret i32 %tmp
}

define i32 @function_3073() local_unnamed_addr {
dec_label_pc_3073:
  %v1_3073 = call i32 @function_2eff(i32 ptrtoint (i32* @0 to i32))
  ret i32 %v1_3073
}

define i32 @function_3078() local_unnamed_addr {
dec_label_pc_3078:
  %v0_3078 = call i32 @function_3059()
  ret i32 %v0_3078
}

define i32 @function_307a() local_unnamed_addr {
dec_label_pc_307a:
  %v0_3080 = call i32 @function_306b()
  ret i32 %v0_3080
}

define i32 @function_3082() local_unnamed_addr {
dec_label_pc_3082:
  %v1_3084 = call i32 @function_2eff(i32 ptrtoint (i32* @0 to i32))
  ret i32 %v1_3084
}

define i32 @function_3089() local_unnamed_addr {
dec_label_pc_3089:
  %tmp = load i32, i32* @eax, align 4
  ret i32 %tmp
}

define i32 @function_3094() local_unnamed_addr {
dec_label_pc_3094:
  %eax.global-to-local = alloca i32, align 4
  %ebx.global-to-local = alloca i32, align 4
  %v0_3094 = load i32, i32* %ebx.global-to-local, align 4
  %v1_3094 = add i32 %v0_3094, -1994644412
  %v2_3094 = inttoptr i32 %v1_3094 to i32*
  %v3_3094 = load i32, i32* %v2_3094, align 4
  %v4_3094 = sub i32 %v3_3094, ptrtoint (i8** @global_var_1.3274 to i32)
  store i32 %v4_3094, i32* %v2_3094, align 4
  %v0_309a = load i32, i32* %eax.global-to-local, align 4
  ret i32 %v0_309a
}

define i32 @function_309b() local_unnamed_addr {
dec_label_pc_309b:
  %tmp = load i32, i32* @eax, align 4
  ret i32 %tmp
}

define i32 @function_30a3() local_unnamed_addr {
dec_label_pc_30a3:
  %v1_30a3 = call i32 @function_2eff(i32 ptrtoint (i32* @0 to i32))
  ret i32 %v1_30a3
}

define i32 @function_30a8() local_unnamed_addr {
dec_label_pc_30a8:
  %v0_30a8 = call i32 @function_3089()
  ret i32 %v0_30a8
}

define i32 @function_30aa() local_unnamed_addr {
dec_label_pc_30aa:
  %v0_30b0 = call i32 @function_309b()
  ret i32 %v0_30b0
}

define i32 @function_30b2() local_unnamed_addr {
dec_label_pc_30b2:
  %v1_30b4 = call i32 @function_2eff(i32 ptrtoint (i32* @0 to i32))
  ret i32 %v1_30b4
}

define i32 @function_30b9() local_unnamed_addr {
dec_label_pc_30b9:
  %tmp = load i32, i32* @eax, align 4
  ret i32 %tmp
}

define i32 @function_30c4() local_unnamed_addr {
dec_label_pc_30c4:
  %eax.global-to-local = alloca i32, align 4
  %ebx.global-to-local = alloca i32, align 4
  %v0_30c4 = load i32, i32* %ebx.global-to-local, align 4
  %v1_30c4 = add i32 %v0_30c4, -1994644412
  %v2_30c4 = inttoptr i32 %v1_30c4 to i32*
  %v3_30c4 = load i32, i32* %v2_30c4, align 4
  %v4_30c4 = sub i32 %v3_30c4, ptrtoint (i8** @global_var_1.3274 to i32)
  store i32 %v4_30c4, i32* %v2_30c4, align 4
  %v0_30ca = load i32, i32* %eax.global-to-local, align 4
  ret i32 %v0_30ca
}

define i32 @function_30cb() local_unnamed_addr {
dec_label_pc_30cb:
  %tmp = load i32, i32* @eax, align 4
  ret i32 %tmp
}

define i32 @function_30d3() local_unnamed_addr {
dec_label_pc_30d3:
  %v1_30d3 = call i32 @function_2eff(i32 ptrtoint (i32* @0 to i32))
  ret i32 %v1_30d3
}

define i32 @function_30d8() local_unnamed_addr {
dec_label_pc_30d8:
  %v0_30d8 = call i32 @function_30b9()
  ret i32 %v0_30d8
}

define i32 @function_30da() local_unnamed_addr {
dec_label_pc_30da:
  %v0_30e0 = call i32 @function_30cb()
  ret i32 %v0_30e0
}

define i32 @function_30e2() local_unnamed_addr {
dec_label_pc_30e2:
  %v1_30e4 = call i32 @function_2eff(i32 ptrtoint (i32* @0 to i32))
  ret i32 %v1_30e4
}

define i32 @function_30e9() local_unnamed_addr {
dec_label_pc_30e9:
  %tmp = load i32, i32* @eax, align 4
  ret i32 %tmp
}

define i32 @function_30f4() local_unnamed_addr {
dec_label_pc_30f4:
  %eax.global-to-local = alloca i32, align 4
  %ebx.global-to-local = alloca i32, align 4
  %v0_30f4 = load i32, i32* %ebx.global-to-local, align 4
  %v1_30f4 = add i32 %v0_30f4, -1994644412
  %v2_30f4 = inttoptr i32 %v1_30f4 to i32*
  %v3_30f4 = load i32, i32* %v2_30f4, align 4
  %v4_30f4 = sub i32 %v3_30f4, ptrtoint (i8** @global_var_1.3274 to i32)
  store i32 %v4_30f4, i32* %v2_30f4, align 4
  %v0_30fa = load i32, i32* %eax.global-to-local, align 4
  ret i32 %v0_30fa
}

define i32 @function_30fb() local_unnamed_addr {
dec_label_pc_30fb:
  %tmp = load i32, i32* @eax, align 4
  ret i32 %tmp
}

define i32 @function_3103() local_unnamed_addr {
dec_label_pc_3103:
  %v1_3103 = call i32 @function_2eff(i32 ptrtoint (i32* @0 to i32))
  ret i32 %v1_3103
}

define i32 @function_3108() local_unnamed_addr {
dec_label_pc_3108:
  %v0_3108 = call i32 @function_30e9()
  ret i32 %v0_3108
}

define i32 @function_310a() local_unnamed_addr {
dec_label_pc_310a:
  %v0_3110 = call i32 @function_30fb()
  ret i32 %v0_3110
}

define i32 @function_3112() local_unnamed_addr {
dec_label_pc_3112:
  %v1_3114 = call i32 @function_2eff(i32 ptrtoint (i32* @0 to i32))
  ret i32 %v1_3114
}

define i32 @function_3119() local_unnamed_addr {
dec_label_pc_3119:
  %tmp = load i32, i32* @eax, align 4
  ret i32 %tmp
}

define i32 @function_3124() local_unnamed_addr {
dec_label_pc_3124:
  %eax.global-to-local = alloca i32, align 4
  %ebx.global-to-local = alloca i32, align 4
  %v0_3124 = load i32, i32* %ebx.global-to-local, align 4
  %v1_3124 = add i32 %v0_3124, -1994644412
  %v2_3124 = inttoptr i32 %v1_3124 to i32*
  %v3_3124 = load i32, i32* %v2_3124, align 4
  %v4_3124 = sub i32 %v3_3124, ptrtoint (i8** @global_var_1.3274 to i32)
  store i32 %v4_3124, i32* %v2_3124, align 4
  %v0_312a = load i32, i32* %eax.global-to-local, align 4
  ret i32 %v0_312a
}

define i32 @function_312b() local_unnamed_addr {
dec_label_pc_312b:
  %tmp = load i32, i32* @eax, align 4
  ret i32 %tmp
}

define i32 @function_3133() local_unnamed_addr {
dec_label_pc_3133:
  %v1_3133 = call i32 @function_2eff(i32 ptrtoint (i32* @0 to i32))
  ret i32 %v1_3133
}

define i32 @function_3138() local_unnamed_addr {
dec_label_pc_3138:
  %v0_3138 = call i32 @function_3119()
  ret i32 %v0_3138
}

define i32 @function_313a() local_unnamed_addr {
dec_label_pc_313a:
  %v0_3140 = call i32 @function_312b()
  ret i32 %v0_3140
}

define i32 @function_3142() local_unnamed_addr {
dec_label_pc_3142:
  %v1_3144 = call i32 @function_2eff(i32 ptrtoint (i32* @0 to i32))
  ret i32 %v1_3144
}

define i32 @function_3149() local_unnamed_addr {
dec_label_pc_3149:
  %tmp = load i32, i32* @eax, align 4
  ret i32 %tmp
}

define i32 @function_3154() local_unnamed_addr {
dec_label_pc_3154:
  %eax.global-to-local = alloca i32, align 4
  %ebx.global-to-local = alloca i32, align 4
  %v0_3154 = load i32, i32* %ebx.global-to-local, align 4
  %v1_3154 = add i32 %v0_3154, -1994644412
  %v2_3154 = inttoptr i32 %v1_3154 to i32*
  %v3_3154 = load i32, i32* %v2_3154, align 4
  %v4_3154 = sub i32 %v3_3154, ptrtoint (i8** @global_var_1.3274 to i32)
  store i32 %v4_3154, i32* %v2_3154, align 4
  %v0_315a = load i32, i32* %eax.global-to-local, align 4
  ret i32 %v0_315a
}

define i32 @function_315b() local_unnamed_addr {
dec_label_pc_315b:
  %tmp = load i32, i32* @eax, align 4
  ret i32 %tmp
}

define i32 @function_3163() local_unnamed_addr {
dec_label_pc_3163:
  %v1_3163 = call i32 @function_2eff(i32 ptrtoint (i32* @0 to i32))
  ret i32 %v1_3163
}

define i32 @function_3168() local_unnamed_addr {
dec_label_pc_3168:
  %v0_3168 = call i32 @function_3149()
  ret i32 %v0_3168
}

define i32 @function_316a() local_unnamed_addr {
dec_label_pc_316a:
  %v0_3170 = call i32 @function_315b()
  ret i32 %v0_3170
}

define i32 @function_3172() local_unnamed_addr {
dec_label_pc_3172:
  %v1_3174 = call i32 @function_2eff(i32 ptrtoint (i32* @0 to i32))
  ret i32 %v1_3174
}

define i32 @function_3179() local_unnamed_addr {
dec_label_pc_3179:
  %tmp = load i32, i32* @eax, align 4
  ret i32 %tmp
}

define i32 @function_3184() local_unnamed_addr {
dec_label_pc_3184:
  %eax.global-to-local = alloca i32, align 4
  %ebx.global-to-local = alloca i32, align 4
  %v0_3184 = load i32, i32* %ebx.global-to-local, align 4
  %v1_3184 = add i32 %v0_3184, -1994644412
  %v2_3184 = inttoptr i32 %v1_3184 to i32*
  %v3_3184 = load i32, i32* %v2_3184, align 4
  %v4_3184 = sub i32 %v3_3184, ptrtoint (i8** @global_var_1.3274 to i32)
  store i32 %v4_3184, i32* %v2_3184, align 4
  %v0_318a = load i32, i32* %eax.global-to-local, align 4
  ret i32 %v0_318a
}

define i32 @function_318b() local_unnamed_addr {
dec_label_pc_318b:
  %tmp = load i32, i32* @eax, align 4
  ret i32 %tmp
}

define i32 @function_3193() local_unnamed_addr {
dec_label_pc_3193:
  %v1_3193 = call i32 @function_2eff(i32 ptrtoint (i32* @0 to i32))
  ret i32 %v1_3193
}

define i32 @function_3198() local_unnamed_addr {
dec_label_pc_3198:
  %v0_3198 = call i32 @function_3179()
  ret i32 %v0_3198
}

define i32 @function_319a() local_unnamed_addr {
dec_label_pc_319a:
  %v0_31a0 = call i32 @function_318b()
  ret i32 %v0_31a0
}

define i32 @function_31a2() local_unnamed_addr {
dec_label_pc_31a2:
  %v1_31a4 = call i32 @function_2eff(i32 ptrtoint (i32* @0 to i32))
  ret i32 %v1_31a4
}

define i32 @function_31a9() local_unnamed_addr {
dec_label_pc_31a9:
  %tmp = load i32, i32* @eax, align 4
  ret i32 %tmp
}

define i32 @function_31b4() local_unnamed_addr {
dec_label_pc_31b4:
  %eax.global-to-local = alloca i32, align 4
  %ebx.global-to-local = alloca i32, align 4
  %v0_31b4 = load i32, i32* %ebx.global-to-local, align 4
  %v1_31b4 = add i32 %v0_31b4, -1994644412
  %v2_31b4 = inttoptr i32 %v1_31b4 to i32*
  %v3_31b4 = load i32, i32* %v2_31b4, align 4
  %v4_31b4 = sub i32 %v3_31b4, ptrtoint (i8** @global_var_1.3274 to i32)
  store i32 %v4_31b4, i32* %v2_31b4, align 4
  %v0_31ba = load i32, i32* %eax.global-to-local, align 4
  ret i32 %v0_31ba
}

define i32 @function_31bb() local_unnamed_addr {
dec_label_pc_31bb:
  %tmp = load i32, i32* @eax, align 4
  ret i32 %tmp
}

define i32 @function_31c3() local_unnamed_addr {
dec_label_pc_31c3:
  %v1_31c3 = call i32 @function_2eff(i32 ptrtoint (i32* @0 to i32))
  ret i32 %v1_31c3
}

define i32 @function_31c8() local_unnamed_addr {
dec_label_pc_31c8:
  %v0_31c8 = call i32 @function_31a9()
  ret i32 %v0_31c8
}

define i32 @function_31ca() local_unnamed_addr {
dec_label_pc_31ca:
  %v0_31d0 = call i32 @function_31bb()
  ret i32 %v0_31d0
}

define i32 @function_31d2() local_unnamed_addr {
dec_label_pc_31d2:
  %v1_31d4 = call i32 @function_2eff(i32 ptrtoint (i32* @0 to i32))
  ret i32 %v1_31d4
}

define i32 @function_31d9() local_unnamed_addr {
dec_label_pc_31d9:
  %tmp = load i32, i32* @eax, align 4
  ret i32 %tmp
}

define i32 @function_31e4() local_unnamed_addr {
dec_label_pc_31e4:
  %eax.global-to-local = alloca i32, align 4
  %ebx.global-to-local = alloca i32, align 4
  %v0_31e4 = load i32, i32* %ebx.global-to-local, align 4
  %v1_31e4 = add i32 %v0_31e4, -1994644412
  %v2_31e4 = inttoptr i32 %v1_31e4 to i32*
  %v3_31e4 = load i32, i32* %v2_31e4, align 4
  %v4_31e4 = sub i32 %v3_31e4, ptrtoint (i8** @global_var_1.3274 to i32)
  store i32 %v4_31e4, i32* %v2_31e4, align 4
  %v0_31ea = load i32, i32* %eax.global-to-local, align 4
  ret i32 %v0_31ea
}

define i32 @function_31eb() local_unnamed_addr {
dec_label_pc_31eb:
  %tmp = load i32, i32* @eax, align 4
  ret i32 %tmp
}

define i32 @function_31f3() local_unnamed_addr {
dec_label_pc_31f3:
  %v1_31f3 = call i32 @function_2eff(i32 ptrtoint (i32* @0 to i32))
  ret i32 %v1_31f3
}

define i32 @function_31f8() local_unnamed_addr {
dec_label_pc_31f8:
  %v0_31f8 = call i32 @function_31d9()
  ret i32 %v0_31f8
}

define i32 @function_31fa() local_unnamed_addr {
dec_label_pc_31fa:
  %v0_3200 = call i32 @function_31eb()
  ret i32 %v0_3200
}

define i32 @function_3202() local_unnamed_addr {
dec_label_pc_3202:
  %v1_3204 = call i32 @function_2eff(i32 ptrtoint (i32* @0 to i32))
  ret i32 %v1_3204
}

define i32 @function_3209() local_unnamed_addr {
dec_label_pc_3209:
  %tmp = load i32, i32* @eax, align 4
  ret i32 %tmp
}

define i32 @function_3214() local_unnamed_addr {
dec_label_pc_3214:
  %eax.global-to-local = alloca i32, align 4
  %ebx.global-to-local = alloca i32, align 4
  %v0_3214 = load i32, i32* %ebx.global-to-local, align 4
  %v1_3214 = add i32 %v0_3214, -1994644412
  %v2_3214 = inttoptr i32 %v1_3214 to i32*
  %v3_3214 = load i32, i32* %v2_3214, align 4
  %v4_3214 = sub i32 %v3_3214, ptrtoint (i8** @global_var_1.3274 to i32)
  store i32 %v4_3214, i32* %v2_3214, align 4
  %v0_321a = load i32, i32* %eax.global-to-local, align 4
  ret i32 %v0_321a
}

define i32 @function_321b() local_unnamed_addr {
dec_label_pc_321b:
  %tmp = load i32, i32* @eax, align 4
  ret i32 %tmp
}

define i32 @function_3223() local_unnamed_addr {
dec_label_pc_3223:
  %v1_3223 = call i32 @function_2eff(i32 ptrtoint (i32* @0 to i32))
  ret i32 %v1_3223
}

define i32 @function_3228() local_unnamed_addr {
dec_label_pc_3228:
  %v0_3228 = call i32 @function_3209()
  ret i32 %v0_3228
}

define i32 @function_322a() local_unnamed_addr {
dec_label_pc_322a:
  %v0_3230 = call i32 @function_321b()
  ret i32 %v0_3230
}

define i32 @function_3232() local_unnamed_addr {
dec_label_pc_3232:
  %v1_3234 = call i32 @function_2eff(i32 ptrtoint (i32* @0 to i32))
  ret i32 %v1_3234
}

define i32 @function_3239() local_unnamed_addr {
dec_label_pc_3239:
  %tmp = load i32, i32* @eax, align 4
  ret i32 %tmp
}

define i32 @function_3244() local_unnamed_addr {
dec_label_pc_3244:
  %eax.global-to-local = alloca i32, align 4
  %ebx.global-to-local = alloca i32, align 4
  %v0_3244 = load i32, i32* %ebx.global-to-local, align 4
  %v1_3244 = add i32 %v0_3244, -1994644412
  %v2_3244 = inttoptr i32 %v1_3244 to i32*
  %v3_3244 = load i32, i32* %v2_3244, align 4
  %v4_3244 = sub i32 %v3_3244, ptrtoint (i8** @global_var_1.3274 to i32)
  store i32 %v4_3244, i32* %v2_3244, align 4
  %v0_324a = load i32, i32* %eax.global-to-local, align 4
  ret i32 %v0_324a
}

define i32 @function_324b() local_unnamed_addr {
dec_label_pc_324b:
  %tmp = load i32, i32* @eax, align 4
  ret i32 %tmp
}

define i32 @function_3253() local_unnamed_addr {
dec_label_pc_3253:
  %v1_3253 = call i32 @function_2eff(i32 ptrtoint (i32* @0 to i32))
  ret i32 %v1_3253
}

define i32 @function_3258() local_unnamed_addr {
dec_label_pc_3258:
  %v0_3258 = call i32 @function_3239()
  ret i32 %v0_3258
}

define i32 @function_325a() local_unnamed_addr {
dec_label_pc_325a:
  %v0_3260 = call i32 @function_324b()
  ret i32 %v0_3260
}

define i32 @function_3262() local_unnamed_addr {
dec_label_pc_3262:
  %v1_3264 = call i32 @function_2eff(i32 ptrtoint (i32* @0 to i32))
  ret i32 %v1_3264
}

define i32 @function_3269() local_unnamed_addr {
dec_label_pc_3269:
  %tmp = load i32, i32* @eax, align 4
  ret i32 %tmp
}

define i32 @function_3274() local_unnamed_addr {
dec_label_pc_3274:
  %eax.global-to-local = alloca i32, align 4
  %ebx.global-to-local = alloca i32, align 4
  %v0_3274 = load i32, i32* %ebx.global-to-local, align 4
  %v1_3274 = add i32 %v0_3274, -1994644412
  %v2_3274 = inttoptr i32 %v1_3274 to i32*
  %v3_3274 = load i32, i32* %v2_3274, align 4
  %v4_3274 = sub i32 %v3_3274, ptrtoint (i8** @global_var_1.3274 to i32)
  store i32 %v4_3274, i32* %v2_3274, align 4
  %v0_327a = load i32, i32* %eax.global-to-local, align 4
  ret i32 %v0_327a
}

define i32 @function_327b() local_unnamed_addr {
dec_label_pc_327b:
  %tmp = load i32, i32* @eax, align 4
  ret i32 %tmp
}

define i32 @function_3283() local_unnamed_addr {
dec_label_pc_3283:
  %v1_3283 = call i32 @function_2eff(i32 ptrtoint (i32* @0 to i32))
  ret i32 %v1_3283
}

define i32 @function_3288() local_unnamed_addr {
dec_label_pc_3288:
  %v0_3288 = call i32 @function_3269()
  ret i32 %v0_3288
}

define i32 @function_328a() local_unnamed_addr {
dec_label_pc_328a:
  %v0_3290 = call i32 @function_327b()
  ret i32 %v0_3290
}

define i32 @function_3292() local_unnamed_addr {
dec_label_pc_3292:
  %v1_3294 = call i32 @function_2eff(i32 ptrtoint (i32* @0 to i32))
  ret i32 %v1_3294
}

define i32 @function_3299() local_unnamed_addr {
dec_label_pc_3299:
  %tmp = load i32, i32* @eax, align 4
  ret i32 %tmp
}

define i32 @function_32a4() local_unnamed_addr {
dec_label_pc_32a4:
  %eax.global-to-local = alloca i32, align 4
  %ebx.global-to-local = alloca i32, align 4
  %v0_32a4 = load i32, i32* %ebx.global-to-local, align 4
  %v1_32a4 = add i32 %v0_32a4, -1994644412
  %v2_32a4 = inttoptr i32 %v1_32a4 to i32*
  %v3_32a4 = load i32, i32* %v2_32a4, align 4
  %v4_32a4 = sub i32 %v3_32a4, ptrtoint (i8** @global_var_1.3274 to i32)
  store i32 %v4_32a4, i32* %v2_32a4, align 4
  %v0_32aa = load i32, i32* %eax.global-to-local, align 4
  ret i32 %v0_32aa
}

define i32 @function_32ab() local_unnamed_addr {
dec_label_pc_32ab:
  %tmp = load i32, i32* @eax, align 4
  ret i32 %tmp
}

define i32 @function_32b3() local_unnamed_addr {
dec_label_pc_32b3:
  %v1_32b3 = call i32 @function_2eff(i32 ptrtoint (i32* @0 to i32))
  ret i32 %v1_32b3
}

define i32 @function_32b8() local_unnamed_addr {
dec_label_pc_32b8:
  %v0_32b8 = call i32 @function_3299()
  ret i32 %v0_32b8
}

define i32 @function_32ba() local_unnamed_addr {
dec_label_pc_32ba:
  %v0_32c0 = call i32 @function_32ab()
  ret i32 %v0_32c0
}

define i32 @function_32c2() local_unnamed_addr {
dec_label_pc_32c2:
  %v1_32c4 = call i32 @function_2eff(i32 ptrtoint (i32* @0 to i32))
  ret i32 %v1_32c4
}

define i32 @function_32c9() local_unnamed_addr {
dec_label_pc_32c9:
  %tmp = load i32, i32* @eax, align 4
  ret i32 %tmp
}

define i32 @function_32d4() local_unnamed_addr {
dec_label_pc_32d4:
  %eax.global-to-local = alloca i32, align 4
  %ebx.global-to-local = alloca i32, align 4
  %v0_32d4 = load i32, i32* %ebx.global-to-local, align 4
  %v1_32d4 = add i32 %v0_32d4, -1994644412
  %v2_32d4 = inttoptr i32 %v1_32d4 to i32*
  %v3_32d4 = load i32, i32* %v2_32d4, align 4
  %v4_32d4 = sub i32 %v3_32d4, ptrtoint (i8** @global_var_1.3274 to i32)
  store i32 %v4_32d4, i32* %v2_32d4, align 4
  %v0_32da = load i32, i32* %eax.global-to-local, align 4
  ret i32 %v0_32da
}

define i32 @function_32db() local_unnamed_addr {
dec_label_pc_32db:
  %tmp = load i32, i32* @eax, align 4
  ret i32 %tmp
}

define i32 @function_32e3() local_unnamed_addr {
dec_label_pc_32e3:
  %v1_32e3 = call i32 @function_2eff(i32 ptrtoint (i32* @0 to i32))
  ret i32 %v1_32e3
}

define i32 @function_32e8() local_unnamed_addr {
dec_label_pc_32e8:
  %v0_32e8 = call i32 @function_32c9()
  ret i32 %v0_32e8
}

define i32 @function_32ea() local_unnamed_addr {
dec_label_pc_32ea:
  %v0_32f0 = call i32 @function_32db()
  ret i32 %v0_32f0
}

define i32 @function_32f2() local_unnamed_addr {
dec_label_pc_32f2:
  %v1_32f4 = call i32 @function_2eff(i32 ptrtoint (i32* @0 to i32))
  ret i32 %v1_32f4
}

define i32 @function_32f9() local_unnamed_addr {
dec_label_pc_32f9:
  %tmp = load i32, i32* @eax, align 4
  ret i32 %tmp
}

define i32 @function_3304() local_unnamed_addr {
dec_label_pc_3304:
  %eax.global-to-local = alloca i32, align 4
  %ebx.global-to-local = alloca i32, align 4
  %v0_3304 = load i32, i32* %ebx.global-to-local, align 4
  %v1_3304 = add i32 %v0_3304, -1994644412
  %v2_3304 = inttoptr i32 %v1_3304 to i32*
  %v3_3304 = load i32, i32* %v2_3304, align 4
  %v4_3304 = sub i32 %v3_3304, ptrtoint (i8** @global_var_1.3274 to i32)
  store i32 %v4_3304, i32* %v2_3304, align 4
  %v0_330a = load i32, i32* %eax.global-to-local, align 4
  ret i32 %v0_330a
}

define i32 @function_330b() local_unnamed_addr {
dec_label_pc_330b:
  %tmp = load i32, i32* @eax, align 4
  ret i32 %tmp
}

define i32 @function_3313() local_unnamed_addr {
dec_label_pc_3313:
  %v1_3313 = call i32 @function_2eff(i32 ptrtoint (i32* @0 to i32))
  ret i32 %v1_3313
}

define i32 @function_3318() local_unnamed_addr {
dec_label_pc_3318:
  %v0_3318 = call i32 @function_32f9()
  ret i32 %v0_3318
}

define i32 @function_331a() local_unnamed_addr {
dec_label_pc_331a:
  %v0_3320 = call i32 @function_330b()
  ret i32 %v0_3320
}

define i32 @function_3322() local_unnamed_addr {
dec_label_pc_3322:
  %v1_3324 = call i32 @function_2eff(i32 ptrtoint (i32* @0 to i32))
  ret i32 %v1_3324
}

define i32 @function_3329() local_unnamed_addr {
dec_label_pc_3329:
  %tmp = load i32, i32* @eax, align 4
  ret i32 %tmp
}

define i32 @function_3334() local_unnamed_addr {
dec_label_pc_3334:
  %eax.global-to-local = alloca i32, align 4
  %ebx.global-to-local = alloca i32, align 4
  %v0_3334 = load i32, i32* %ebx.global-to-local, align 4
  %v1_3334 = add i32 %v0_3334, -1994644412
  %v2_3334 = inttoptr i32 %v1_3334 to i32*
  %v3_3334 = load i32, i32* %v2_3334, align 4
  %v4_3334 = sub i32 %v3_3334, ptrtoint (i8** @global_var_1.3274 to i32)
  store i32 %v4_3334, i32* %v2_3334, align 4
  %v0_333a = load i32, i32* %eax.global-to-local, align 4
  ret i32 %v0_333a
}

define i32 @function_333b() local_unnamed_addr {
dec_label_pc_333b:
  %tmp = load i32, i32* @eax, align 4
  ret i32 %tmp
}

define i32 @function_3343() local_unnamed_addr {
dec_label_pc_3343:
  %v1_3343 = call i32 @function_2eff(i32 ptrtoint (i32* @0 to i32))
  ret i32 %v1_3343
}

define i32 @function_3348() local_unnamed_addr {
dec_label_pc_3348:
  %v0_3348 = call i32 @function_3329()
  ret i32 %v0_3348
}

define i32 @function_334a() local_unnamed_addr {
dec_label_pc_334a:
  %v0_3350 = call i32 @function_333b()
  ret i32 %v0_3350
}

define i32 @function_3352() local_unnamed_addr {
dec_label_pc_3352:
  %v1_3354 = call i32 @function_2eff(i32 ptrtoint (i32* @0 to i32))
  ret i32 %v1_3354
}

define i32 @function_3359() local_unnamed_addr {
dec_label_pc_3359:
  %tmp = load i32, i32* @eax, align 4
  ret i32 %tmp
}

define i32 @function_3364() local_unnamed_addr {
dec_label_pc_3364:
  %eax.global-to-local = alloca i32, align 4
  %ebx.global-to-local = alloca i32, align 4
  %v0_3364 = load i32, i32* %ebx.global-to-local, align 4
  %v1_3364 = add i32 %v0_3364, -1994644412
  %v2_3364 = inttoptr i32 %v1_3364 to i32*
  %v3_3364 = load i32, i32* %v2_3364, align 4
  %v4_3364 = sub i32 %v3_3364, ptrtoint (i8** @global_var_1.3274 to i32)
  store i32 %v4_3364, i32* %v2_3364, align 4
  %v0_336a = load i32, i32* %eax.global-to-local, align 4
  ret i32 %v0_336a
}

define i32 @function_336b() local_unnamed_addr {
dec_label_pc_336b:
  %tmp = load i32, i32* @eax, align 4
  ret i32 %tmp
}

define i32 @function_3373() local_unnamed_addr {
dec_label_pc_3373:
  %v1_3373 = call i32 @function_2eff(i32 ptrtoint (i32* @0 to i32))
  ret i32 %v1_3373
}

define i32 @function_3378() local_unnamed_addr {
dec_label_pc_3378:
  %v0_3378 = call i32 @function_3359()
  ret i32 %v0_3378
}

define i32 @function_337a() local_unnamed_addr {
dec_label_pc_337a:
  %v0_3380 = call i32 @function_336b()
  ret i32 %v0_3380
}

define i32 @function_3382() local_unnamed_addr {
dec_label_pc_3382:
  %v1_3384 = call i32 @function_2eff(i32 ptrtoint (i32* @0 to i32))
  ret i32 %v1_3384
}

define i32 @function_3389() local_unnamed_addr {
dec_label_pc_3389:
  %tmp = load i32, i32* @eax, align 4
  ret i32 %tmp
}

define i32 @function_3394() local_unnamed_addr {
dec_label_pc_3394:
  %eax.global-to-local = alloca i32, align 4
  %ebx.global-to-local = alloca i32, align 4
  %v0_3394 = load i32, i32* %ebx.global-to-local, align 4
  %v1_3394 = add i32 %v0_3394, -1994644412
  %v2_3394 = inttoptr i32 %v1_3394 to i32*
  %v3_3394 = load i32, i32* %v2_3394, align 4
  %v4_3394 = sub i32 %v3_3394, ptrtoint (i8** @global_var_1.3274 to i32)
  store i32 %v4_3394, i32* %v2_3394, align 4
  %v0_339a = load i32, i32* %eax.global-to-local, align 4
  ret i32 %v0_339a
}

define i32 @function_339b() local_unnamed_addr {
dec_label_pc_339b:
  %tmp = load i32, i32* @eax, align 4
  ret i32 %tmp
}

define i32 @function_33a3() local_unnamed_addr {
dec_label_pc_33a3:
  %v1_33a3 = call i32 @function_2eff(i32 ptrtoint (i32* @0 to i32))
  ret i32 %v1_33a3
}

define i32 @function_33a8() local_unnamed_addr {
dec_label_pc_33a8:
  %v0_33a8 = call i32 @function_3389()
  ret i32 %v0_33a8
}

define i32 @function_33aa() local_unnamed_addr {
dec_label_pc_33aa:
  %v0_33b0 = call i32 @function_339b()
  ret i32 %v0_33b0
}

define i32 @function_33b2() local_unnamed_addr {
dec_label_pc_33b2:
  %v1_33b4 = call i32 @function_2eff(i32 ptrtoint (i32* @0 to i32))
  ret i32 %v1_33b4
}

define i32 @function_33b9() local_unnamed_addr {
dec_label_pc_33b9:
  %tmp = load i32, i32* @eax, align 4
  ret i32 %tmp
}

define i32 @function_33c4() local_unnamed_addr {
dec_label_pc_33c4:
  %eax.global-to-local = alloca i32, align 4
  %ebx.global-to-local = alloca i32, align 4
  %v0_33c4 = load i32, i32* %ebx.global-to-local, align 4
  %v1_33c4 = add i32 %v0_33c4, -1994644412
  %v2_33c4 = inttoptr i32 %v1_33c4 to i32*
  %v3_33c4 = load i32, i32* %v2_33c4, align 4
  %v4_33c4 = sub i32 %v3_33c4, ptrtoint (i8** @global_var_1.3274 to i32)
  store i32 %v4_33c4, i32* %v2_33c4, align 4
  %v0_33ca = load i32, i32* %eax.global-to-local, align 4
  ret i32 %v0_33ca
}

define i32 @function_33cb() local_unnamed_addr {
dec_label_pc_33cb:
  %tmp = load i32, i32* @eax, align 4
  ret i32 %tmp
}

define i32 @function_33d3() local_unnamed_addr {
dec_label_pc_33d3:
  %v1_33d3 = call i32 @function_2eff(i32 ptrtoint (i32* @0 to i32))
  ret i32 %v1_33d3
}

define i32 @function_33d8() local_unnamed_addr {
dec_label_pc_33d8:
  %v0_33d8 = call i32 @function_33b9()
  ret i32 %v0_33d8
}

define i32 @function_33da() local_unnamed_addr {
dec_label_pc_33da:
  %v0_33e0 = call i32 @function_33cb()
  ret i32 %v0_33e0
}

define i32 @function_33e2() local_unnamed_addr {
dec_label_pc_33e2:
  %v1_33e4 = call i32 @function_2eff(i32 ptrtoint (i32* @0 to i32))
  ret i32 %v1_33e4
}

define i32 @function_33e9() local_unnamed_addr {
dec_label_pc_33e9:
  %tmp = load i32, i32* @eax, align 4
  ret i32 %tmp
}

define i32 @function_33f4() local_unnamed_addr {
dec_label_pc_33f4:
  %eax.global-to-local = alloca i32, align 4
  %ebx.global-to-local = alloca i32, align 4
  %v0_33f4 = load i32, i32* %ebx.global-to-local, align 4
  %v1_33f4 = add i32 %v0_33f4, -1994644412
  %v2_33f4 = inttoptr i32 %v1_33f4 to i32*
  %v3_33f4 = load i32, i32* %v2_33f4, align 4
  %v4_33f4 = sub i32 %v3_33f4, ptrtoint (i8** @global_var_1.3274 to i32)
  store i32 %v4_33f4, i32* %v2_33f4, align 4
  %v0_33fa = load i32, i32* %eax.global-to-local, align 4
  ret i32 %v0_33fa
}

define i32 @function_33fb() local_unnamed_addr {
dec_label_pc_33fb:
  %tmp = load i32, i32* @eax, align 4
  ret i32 %tmp
}

define i32 @function_3403() local_unnamed_addr {
dec_label_pc_3403:
  %v1_3403 = call i32 @function_2eff(i32 ptrtoint (i32* @0 to i32))
  ret i32 %v1_3403
}

define i32 @function_3408() local_unnamed_addr {
dec_label_pc_3408:
  %v0_3408 = call i32 @function_33e9()
  ret i32 %v0_3408
}

define i32 @function_340a() local_unnamed_addr {
dec_label_pc_340a:
  %v0_3410 = call i32 @function_33fb()
  ret i32 %v0_3410
}

define i32 @function_3412() local_unnamed_addr {
dec_label_pc_3412:
  %v1_3414 = call i32 @function_2eff(i32 ptrtoint (i32* @0 to i32))
  ret i32 %v1_3414
}

define i32 @function_3419() local_unnamed_addr {
dec_label_pc_3419:
  %tmp = load i32, i32* @eax, align 4
  ret i32 %tmp
}

define i32 @function_3424() local_unnamed_addr {
dec_label_pc_3424:
  %eax.global-to-local = alloca i32, align 4
  %ebx.global-to-local = alloca i32, align 4
  %v0_3424 = load i32, i32* %ebx.global-to-local, align 4
  %v1_3424 = add i32 %v0_3424, -1994644412
  %v2_3424 = inttoptr i32 %v1_3424 to i32*
  %v3_3424 = load i32, i32* %v2_3424, align 4
  %v4_3424 = sub i32 %v3_3424, ptrtoint (i8** @global_var_1.3274 to i32)
  store i32 %v4_3424, i32* %v2_3424, align 4
  %v0_342a = load i32, i32* %eax.global-to-local, align 4
  ret i32 %v0_342a
}

define i32 @function_342b() local_unnamed_addr {
dec_label_pc_342b:
  %tmp = load i32, i32* @eax, align 4
  ret i32 %tmp
}

define i32 @function_3433() local_unnamed_addr {
dec_label_pc_3433:
  %v1_3433 = call i32 @function_2eff(i32 ptrtoint (i32* @0 to i32))
  ret i32 %v1_3433
}

define i32 @function_3438() local_unnamed_addr {
dec_label_pc_3438:
  %v0_3438 = call i32 @function_3419()
  ret i32 %v0_3438
}

define i32 @function_343a() local_unnamed_addr {
dec_label_pc_343a:
  %v0_3440 = call i32 @function_342b()
  ret i32 %v0_3440
}

define i32 @function_3442() local_unnamed_addr {
dec_label_pc_3442:
  %v1_3444 = call i32 @function_2eff(i32 ptrtoint (i32* @0 to i32))
  ret i32 %v1_3444
}

define i32 @function_3449() local_unnamed_addr {
dec_label_pc_3449:
  %tmp = load i32, i32* @eax, align 4
  ret i32 %tmp
}

define i32 @function_3454() local_unnamed_addr {
dec_label_pc_3454:
  %eax.global-to-local = alloca i32, align 4
  %ebx.global-to-local = alloca i32, align 4
  %v0_3454 = load i32, i32* %ebx.global-to-local, align 4
  %v1_3454 = add i32 %v0_3454, -1994644412
  %v2_3454 = inttoptr i32 %v1_3454 to i32*
  %v3_3454 = load i32, i32* %v2_3454, align 4
  %v4_3454 = sub i32 %v3_3454, ptrtoint (i8** @global_var_1.3274 to i32)
  store i32 %v4_3454, i32* %v2_3454, align 4
  %v0_345a = load i32, i32* %eax.global-to-local, align 4
  ret i32 %v0_345a
}

define i32 @function_345b() local_unnamed_addr {
dec_label_pc_345b:
  %tmp = load i32, i32* @eax, align 4
  ret i32 %tmp
}

define i32 @function_3463() local_unnamed_addr {
dec_label_pc_3463:
  %v1_3463 = call i32 @function_2eff(i32 ptrtoint (i32* @0 to i32))
  ret i32 %v1_3463
}

define i32 @function_3468() local_unnamed_addr {
dec_label_pc_3468:
  %v0_3468 = call i32 @function_3449()
  ret i32 %v0_3468
}

define i32 @function_346a() local_unnamed_addr {
dec_label_pc_346a:
  %v0_3470 = call i32 @function_345b()
  ret i32 %v0_3470
}

define i32 @function_3472() local_unnamed_addr {
dec_label_pc_3472:
  %v1_3474 = call i32 @function_2eff(i32 ptrtoint (i32* @0 to i32))
  ret i32 %v1_3474
}

define i32 @function_3479() local_unnamed_addr {
dec_label_pc_3479:
  %tmp = load i32, i32* @eax, align 4
  ret i32 %tmp
}

define i32 @function_3484() local_unnamed_addr {
dec_label_pc_3484:
  %eax.global-to-local = alloca i32, align 4
  %ebx.global-to-local = alloca i32, align 4
  %v0_3484 = load i32, i32* %ebx.global-to-local, align 4
  %v1_3484 = add i32 %v0_3484, -1994644412
  %v2_3484 = inttoptr i32 %v1_3484 to i32*
  %v3_3484 = load i32, i32* %v2_3484, align 4
  %v4_3484 = sub i32 %v3_3484, ptrtoint (i8** @global_var_1.3274 to i32)
  store i32 %v4_3484, i32* %v2_3484, align 4
  %v0_348a = load i32, i32* %eax.global-to-local, align 4
  ret i32 %v0_348a
}

define i32 @function_348b() local_unnamed_addr {
dec_label_pc_348b:
  %tmp = load i32, i32* @eax, align 4
  ret i32 %tmp
}

define i32 @function_3493() local_unnamed_addr {
dec_label_pc_3493:
  %v1_3493 = call i32 @function_2eff(i32 ptrtoint (i32* @0 to i32))
  ret i32 %v1_3493
}

define i32 @function_3498() local_unnamed_addr {
dec_label_pc_3498:
  %v0_3498 = call i32 @function_3479()
  ret i32 %v0_3498
}

define i32 @function_349a() local_unnamed_addr {
dec_label_pc_349a:
  %v0_34a0 = call i32 @function_348b()
  ret i32 %v0_34a0
}

define i32 @function_34a2() local_unnamed_addr {
dec_label_pc_34a2:
  %v1_34a4 = call i32 @function_2eff(i32 ptrtoint (i32* @0 to i32))
  ret i32 %v1_34a4
}

define i32 @function_34a9() local_unnamed_addr {
dec_label_pc_34a9:
  %tmp = load i32, i32* @eax, align 4
  ret i32 %tmp
}

define i32 @function_34b4() local_unnamed_addr {
dec_label_pc_34b4:
  %eax.global-to-local = alloca i32, align 4
  %ebx.global-to-local = alloca i32, align 4
  %v0_34b4 = load i32, i32* %ebx.global-to-local, align 4
  %v1_34b4 = add i32 %v0_34b4, -1994644412
  %v2_34b4 = inttoptr i32 %v1_34b4 to i32*
  %v3_34b4 = load i32, i32* %v2_34b4, align 4
  %v4_34b4 = sub i32 %v3_34b4, ptrtoint (i8** @global_var_1.3274 to i32)
  store i32 %v4_34b4, i32* %v2_34b4, align 4
  %v0_34ba = load i32, i32* %eax.global-to-local, align 4
  ret i32 %v0_34ba
}

define i32 @function_34bb() local_unnamed_addr {
dec_label_pc_34bb:
  %tmp = load i32, i32* @eax, align 4
  ret i32 %tmp
}

define i32 @function_34c3() local_unnamed_addr {
dec_label_pc_34c3:
  %v1_34c3 = call i32 @function_2eff(i32 ptrtoint (i32* @0 to i32))
  ret i32 %v1_34c3
}

define i32 @function_34c8() local_unnamed_addr {
dec_label_pc_34c8:
  %v0_34c8 = call i32 @function_34a9()
  ret i32 %v0_34c8
}

define i32 @function_34ca() local_unnamed_addr {
dec_label_pc_34ca:
  %v0_34d0 = call i32 @function_34bb()
  ret i32 %v0_34d0
}

define i32 @function_34d2() local_unnamed_addr {
dec_label_pc_34d2:
  %v1_34d4 = call i32 @function_2eff(i32 ptrtoint (i32* @0 to i32))
  ret i32 %v1_34d4
}

define i32 @function_34d9() local_unnamed_addr {
dec_label_pc_34d9:
  %tmp = load i32, i32* @eax, align 4
  ret i32 %tmp
}

define i32 @function_34e4() local_unnamed_addr {
dec_label_pc_34e4:
  %eax.global-to-local = alloca i32, align 4
  %ebx.global-to-local = alloca i32, align 4
  %v0_34e4 = load i32, i32* %ebx.global-to-local, align 4
  %v1_34e4 = add i32 %v0_34e4, -1994644412
  %v2_34e4 = inttoptr i32 %v1_34e4 to i32*
  %v3_34e4 = load i32, i32* %v2_34e4, align 4
  %v4_34e4 = sub i32 %v3_34e4, ptrtoint (i8** @global_var_1.3274 to i32)
  store i32 %v4_34e4, i32* %v2_34e4, align 4
  %v0_34ea = load i32, i32* %eax.global-to-local, align 4
  ret i32 %v0_34ea
}

define i32 @function_34eb() local_unnamed_addr {
dec_label_pc_34eb:
  %tmp = load i32, i32* @eax, align 4
  ret i32 %tmp
}

define i32 @function_34f3() local_unnamed_addr {
dec_label_pc_34f3:
  %v1_34f3 = call i32 @function_2eff(i32 ptrtoint (i32* @0 to i32))
  ret i32 %v1_34f3
}

define i32 @function_34f8() local_unnamed_addr {
dec_label_pc_34f8:
  %v0_34f8 = call i32 @function_34d9()
  ret i32 %v0_34f8
}

define i32 @function_34fa() local_unnamed_addr {
dec_label_pc_34fa:
  %v0_3500 = call i32 @function_34eb()
  ret i32 %v0_3500
}

define i32 @function_3502() local_unnamed_addr {
dec_label_pc_3502:
  %v1_3504 = call i32 @function_2eff(i32 ptrtoint (i32* @0 to i32))
  ret i32 %v1_3504
}

define i32 @function_3509() local_unnamed_addr {
dec_label_pc_3509:
  %tmp = load i32, i32* @eax, align 4
  ret i32 %tmp
}

define i32 @function_3514() local_unnamed_addr {
dec_label_pc_3514:
  %eax.global-to-local = alloca i32, align 4
  %ebx.global-to-local = alloca i32, align 4
  %v0_3514 = load i32, i32* %ebx.global-to-local, align 4
  %v1_3514 = add i32 %v0_3514, -1994644412
  %v2_3514 = inttoptr i32 %v1_3514 to i32*
  %v3_3514 = load i32, i32* %v2_3514, align 4
  %v4_3514 = sub i32 %v3_3514, ptrtoint (i8** @global_var_1.3274 to i32)
  store i32 %v4_3514, i32* %v2_3514, align 4
  %v0_351a = load i32, i32* %eax.global-to-local, align 4
  ret i32 %v0_351a
}

define i32 @function_351b() local_unnamed_addr {
dec_label_pc_351b:
  %tmp = load i32, i32* @eax, align 4
  ret i32 %tmp
}

define i32 @function_3523() local_unnamed_addr {
dec_label_pc_3523:
  %v1_3523 = call i32 @function_2eff(i32 ptrtoint (i32* @0 to i32))
  ret i32 %v1_3523
}

define i32 @function_3528() local_unnamed_addr {
dec_label_pc_3528:
  %v0_3528 = call i32 @function_3509()
  ret i32 %v0_3528
}

define i32 @function_352a() local_unnamed_addr {
dec_label_pc_352a:
  %v0_3530 = call i32 @function_351b()
  ret i32 %v0_3530
}

define i32 @function_3532() local_unnamed_addr {
dec_label_pc_3532:
  %v1_3534 = call i32 @function_2eff(i32 ptrtoint (i32* @0 to i32))
  ret i32 %v1_3534
}

define i32 @function_3539() local_unnamed_addr {
dec_label_pc_3539:
  %tmp = load i32, i32* @eax, align 4
  ret i32 %tmp
}

define i32 @function_3544() local_unnamed_addr {
dec_label_pc_3544:
  %eax.global-to-local = alloca i32, align 4
  %ebx.global-to-local = alloca i32, align 4
  %v0_3544 = load i32, i32* %ebx.global-to-local, align 4
  %v1_3544 = add i32 %v0_3544, -1994644412
  %v2_3544 = inttoptr i32 %v1_3544 to i32*
  %v3_3544 = load i32, i32* %v2_3544, align 4
  %v4_3544 = sub i32 %v3_3544, ptrtoint (i8** @global_var_1.3274 to i32)
  store i32 %v4_3544, i32* %v2_3544, align 4
  %v0_354a = load i32, i32* %eax.global-to-local, align 4
  ret i32 %v0_354a
}

define i32 @function_354b() local_unnamed_addr {
dec_label_pc_354b:
  %tmp = load i32, i32* @eax, align 4
  ret i32 %tmp
}

define i32 @function_3553() local_unnamed_addr {
dec_label_pc_3553:
  %v1_3553 = call i32 @function_2eff(i32 ptrtoint (i32* @0 to i32))
  ret i32 %v1_3553
}

define i32 @function_3558() local_unnamed_addr {
dec_label_pc_3558:
  %v0_3558 = call i32 @function_3539()
  ret i32 %v0_3558
}

define i32 @function_355a() local_unnamed_addr {
dec_label_pc_355a:
  %v0_3560 = call i32 @function_354b()
  ret i32 %v0_3560
}

define i32 @function_3562() local_unnamed_addr {
dec_label_pc_3562:
  %v1_3564 = call i32 @function_2eff(i32 ptrtoint (i32* @0 to i32))
  ret i32 %v1_3564
}

define i32 @function_3569() local_unnamed_addr {
dec_label_pc_3569:
  %tmp = load i32, i32* @eax, align 4
  ret i32 %tmp
}

define i32 @function_3574() local_unnamed_addr {
dec_label_pc_3574:
  %eax.global-to-local = alloca i32, align 4
  %ebx.global-to-local = alloca i32, align 4
  %v0_3574 = load i32, i32* %ebx.global-to-local, align 4
  %v1_3574 = add i32 %v0_3574, -1994644412
  %v2_3574 = inttoptr i32 %v1_3574 to i32*
  %v3_3574 = load i32, i32* %v2_3574, align 4
  %v4_3574 = sub i32 %v3_3574, ptrtoint (i8** @global_var_1.3274 to i32)
  store i32 %v4_3574, i32* %v2_3574, align 4
  %v0_357a = load i32, i32* %eax.global-to-local, align 4
  ret i32 %v0_357a
}

define i32 @function_357b() local_unnamed_addr {
dec_label_pc_357b:
  %tmp = load i32, i32* @eax, align 4
  ret i32 %tmp
}

define i32 @function_3583() local_unnamed_addr {
dec_label_pc_3583:
  %v1_3583 = call i32 @function_2eff(i32 ptrtoint (i32* @0 to i32))
  ret i32 %v1_3583
}

define i32 @function_3588() local_unnamed_addr {
dec_label_pc_3588:
  %v0_3588 = call i32 @function_3569()
  ret i32 %v0_3588
}

define i32 @function_358a() local_unnamed_addr {
dec_label_pc_358a:
  %v0_3590 = call i32 @function_357b()
  ret i32 %v0_3590
}

define i32 @function_3592() local_unnamed_addr {
dec_label_pc_3592:
  %v1_3594 = call i32 @function_2eff(i32 ptrtoint (i32* @0 to i32))
  ret i32 %v1_3594
}

define i32 @function_3599() local_unnamed_addr {
dec_label_pc_3599:
  %tmp = load i32, i32* @eax, align 4
  ret i32 %tmp
}

define i32 @function_35a4() local_unnamed_addr {
dec_label_pc_35a4:
  %eax.global-to-local = alloca i32, align 4
  %ebx.global-to-local = alloca i32, align 4
  %v0_35a4 = load i32, i32* %ebx.global-to-local, align 4
  %v1_35a4 = add i32 %v0_35a4, -1994644412
  %v2_35a4 = inttoptr i32 %v1_35a4 to i32*
  %v3_35a4 = load i32, i32* %v2_35a4, align 4
  %v4_35a4 = sub i32 %v3_35a4, ptrtoint (i8** @global_var_1.3274 to i32)
  store i32 %v4_35a4, i32* %v2_35a4, align 4
  %v0_35aa = load i32, i32* %eax.global-to-local, align 4
  ret i32 %v0_35aa
}

define i32 @function_35ab() local_unnamed_addr {
dec_label_pc_35ab:
  %tmp = load i32, i32* @eax, align 4
  ret i32 %tmp
}

define i32 @function_35b3() local_unnamed_addr {
dec_label_pc_35b3:
  %v1_35b3 = call i32 @function_2eff(i32 ptrtoint (i32* @0 to i32))
  ret i32 %v1_35b3
}

define i32 @function_35b8() local_unnamed_addr {
dec_label_pc_35b8:
  %v0_35b8 = call i32 @function_3599()
  ret i32 %v0_35b8
}

define i32 @function_35ba() local_unnamed_addr {
dec_label_pc_35ba:
  %v0_35c0 = call i32 @function_35ab()
  ret i32 %v0_35c0
}

define i32 @function_35c2() local_unnamed_addr {
dec_label_pc_35c2:
  %v1_35c4 = call i32 @function_2eff(i32 ptrtoint (i32* @0 to i32))
  ret i32 %v1_35c4
}

define i32 @function_35c9() local_unnamed_addr {
dec_label_pc_35c9:
  %tmp = load i32, i32* @eax, align 4
  ret i32 %tmp
}

define i32 @function_35d4() local_unnamed_addr {
dec_label_pc_35d4:
  %eax.global-to-local = alloca i32, align 4
  %ebx.global-to-local = alloca i32, align 4
  %v0_35d4 = load i32, i32* %ebx.global-to-local, align 4
  %v1_35d4 = add i32 %v0_35d4, -1994644412
  %v2_35d4 = inttoptr i32 %v1_35d4 to i32*
  %v3_35d4 = load i32, i32* %v2_35d4, align 4
  %v4_35d4 = sub i32 %v3_35d4, ptrtoint (i8** @global_var_1.3274 to i32)
  store i32 %v4_35d4, i32* %v2_35d4, align 4
  %v0_35da = load i32, i32* %eax.global-to-local, align 4
  ret i32 %v0_35da
}

define i32 @function_35db() local_unnamed_addr {
dec_label_pc_35db:
  %tmp = load i32, i32* @eax, align 4
  ret i32 %tmp
}

define i32 @function_35e3() local_unnamed_addr {
dec_label_pc_35e3:
  %v1_35e3 = call i32 @function_2eff(i32 ptrtoint (i32* @0 to i32))
  ret i32 %v1_35e3
}

define i32 @function_35e8() local_unnamed_addr {
dec_label_pc_35e8:
  %v0_35e8 = call i32 @function_35c9()
  ret i32 %v0_35e8
}

define i32 @function_35ea() local_unnamed_addr {
dec_label_pc_35ea:
  %v0_35f0 = call i32 @function_35db()
  ret i32 %v0_35f0
}

define i32 @function_35f2() local_unnamed_addr {
dec_label_pc_35f2:
  %v1_35f4 = call i32 @function_2eff(i32 ptrtoint (i32* @0 to i32))
  ret i32 %v1_35f4
}

define i32 @function_35f9() local_unnamed_addr {
dec_label_pc_35f9:
  %tmp = load i32, i32* @eax, align 4
  ret i32 %tmp
}

define i32 @function_3604() local_unnamed_addr {
dec_label_pc_3604:
  %eax.global-to-local = alloca i32, align 4
  %ebx.global-to-local = alloca i32, align 4
  %v0_3604 = load i32, i32* %ebx.global-to-local, align 4
  %v1_3604 = add i32 %v0_3604, -1994644412
  %v2_3604 = inttoptr i32 %v1_3604 to i32*
  %v3_3604 = load i32, i32* %v2_3604, align 4
  %v4_3604 = sub i32 %v3_3604, ptrtoint (i8** @global_var_1.3274 to i32)
  store i32 %v4_3604, i32* %v2_3604, align 4
  %v0_360a = load i32, i32* %eax.global-to-local, align 4
  ret i32 %v0_360a
}

define i32 @function_360b() local_unnamed_addr {
dec_label_pc_360b:
  %tmp = load i32, i32* @eax, align 4
  ret i32 %tmp
}

define i32 @function_3613() local_unnamed_addr {
dec_label_pc_3613:
  %v1_3613 = call i32 @function_2eff(i32 ptrtoint (i32* @0 to i32))
  ret i32 %v1_3613
}

define i32 @function_3618() local_unnamed_addr {
dec_label_pc_3618:
  %v0_3618 = call i32 @function_35f9()
  ret i32 %v0_3618
}

define i32 @function_361a() local_unnamed_addr {
dec_label_pc_361a:
  %v0_3620 = call i32 @function_360b()
  ret i32 %v0_3620
}

define i32 @function_3622() local_unnamed_addr {
dec_label_pc_3622:
  %v1_3624 = call i32 @function_2eff(i32 ptrtoint (i32* @0 to i32))
  ret i32 %v1_3624
}

define i32 @function_3629() local_unnamed_addr {
dec_label_pc_3629:
  %tmp = load i32, i32* @eax, align 4
  ret i32 %tmp
}

define i32 @function_3634() local_unnamed_addr {
dec_label_pc_3634:
  %eax.global-to-local = alloca i32, align 4
  %ebx.global-to-local = alloca i32, align 4
  %v0_3634 = load i32, i32* %ebx.global-to-local, align 4
  %v1_3634 = add i32 %v0_3634, -1994644412
  %v2_3634 = inttoptr i32 %v1_3634 to i32*
  %v3_3634 = load i32, i32* %v2_3634, align 4
  %v4_3634 = sub i32 %v3_3634, ptrtoint (i8** @global_var_1.3274 to i32)
  store i32 %v4_3634, i32* %v2_3634, align 4
  %v0_363a = load i32, i32* %eax.global-to-local, align 4
  ret i32 %v0_363a
}

define i32 @function_363b() local_unnamed_addr {
dec_label_pc_363b:
  %tmp = load i32, i32* @eax, align 4
  ret i32 %tmp
}

define i32 @function_3643() local_unnamed_addr {
dec_label_pc_3643:
  %v1_3643 = call i32 @function_2eff(i32 ptrtoint (i32* @0 to i32))
  ret i32 %v1_3643
}

define i32 @function_3648() local_unnamed_addr {
dec_label_pc_3648:
  %v0_3648 = call i32 @function_3629()
  ret i32 %v0_3648
}

define i32 @function_364a() local_unnamed_addr {
dec_label_pc_364a:
  %v0_3650 = call i32 @function_363b()
  ret i32 %v0_3650
}

define i32 @function_3652() local_unnamed_addr {
dec_label_pc_3652:
  %v1_3654 = call i32 @function_2eff(i32 ptrtoint (i32* @0 to i32))
  ret i32 %v1_3654
}

define i32 @function_3659() local_unnamed_addr {
dec_label_pc_3659:
  %tmp = load i32, i32* @eax, align 4
  ret i32 %tmp
}

define i32 @function_3664() local_unnamed_addr {
dec_label_pc_3664:
  %eax.global-to-local = alloca i32, align 4
  %ebx.global-to-local = alloca i32, align 4
  %v0_3664 = load i32, i32* %ebx.global-to-local, align 4
  %v1_3664 = add i32 %v0_3664, -1994644412
  %v2_3664 = inttoptr i32 %v1_3664 to i32*
  %v3_3664 = load i32, i32* %v2_3664, align 4
  %v4_3664 = sub i32 %v3_3664, ptrtoint (i8** @global_var_1.3274 to i32)
  store i32 %v4_3664, i32* %v2_3664, align 4
  %v0_366a = load i32, i32* %eax.global-to-local, align 4
  ret i32 %v0_366a
}

define i32 @function_366b() local_unnamed_addr {
dec_label_pc_366b:
  %tmp = load i32, i32* @eax, align 4
  ret i32 %tmp
}

define i32 @function_3673() local_unnamed_addr {
dec_label_pc_3673:
  %v1_3673 = call i32 @function_2eff(i32 ptrtoint (i32* @0 to i32))
  ret i32 %v1_3673
}

define i32 @function_3678() local_unnamed_addr {
dec_label_pc_3678:
  %v0_3678 = call i32 @function_3659()
  ret i32 %v0_3678
}

define i32 @function_367a() local_unnamed_addr {
dec_label_pc_367a:
  %v0_3680 = call i32 @function_366b()
  ret i32 %v0_3680
}

define i32 @function_3682() local_unnamed_addr {
dec_label_pc_3682:
  %v1_3684 = call i32 @function_2eff(i32 ptrtoint (i32* @0 to i32))
  ret i32 %v1_3684
}

define i32 @function_3689() local_unnamed_addr {
dec_label_pc_3689:
  %tmp = load i32, i32* @eax, align 4
  ret i32 %tmp
}

define i32 @function_3694() local_unnamed_addr {
dec_label_pc_3694:
  %eax.global-to-local = alloca i32, align 4
  %ebx.global-to-local = alloca i32, align 4
  %v0_3694 = load i32, i32* %ebx.global-to-local, align 4
  %v1_3694 = add i32 %v0_3694, -1994644412
  %v2_3694 = inttoptr i32 %v1_3694 to i32*
  %v3_3694 = load i32, i32* %v2_3694, align 4
  %v4_3694 = sub i32 %v3_3694, ptrtoint (i8** @global_var_1.3274 to i32)
  store i32 %v4_3694, i32* %v2_3694, align 4
  %v0_369a = load i32, i32* %eax.global-to-local, align 4
  ret i32 %v0_369a
}

define i32 @function_369b() local_unnamed_addr {
dec_label_pc_369b:
  %tmp = load i32, i32* @eax, align 4
  ret i32 %tmp
}

define i32 @function_36a3() local_unnamed_addr {
dec_label_pc_36a3:
  %v1_36a3 = call i32 @function_2eff(i32 ptrtoint (i32* @0 to i32))
  ret i32 %v1_36a3
}

define i32 @function_36a8() local_unnamed_addr {
dec_label_pc_36a8:
  %v0_36a8 = call i32 @function_3689()
  ret i32 %v0_36a8
}

define i32 @function_36aa() local_unnamed_addr {
dec_label_pc_36aa:
  %v0_36b0 = call i32 @function_369b()
  ret i32 %v0_36b0
}

define i32 @function_36b2() local_unnamed_addr {
dec_label_pc_36b2:
  %v1_36b4 = call i32 @function_2eff(i32 ptrtoint (i32* @0 to i32))
  ret i32 %v1_36b4
}

define i32 @function_36b9() local_unnamed_addr {
dec_label_pc_36b9:
  %tmp = load i32, i32* @eax, align 4
  ret i32 %tmp
}

define i32 @function_36c4() local_unnamed_addr {
dec_label_pc_36c4:
  %eax.global-to-local = alloca i32, align 4
  %ebx.global-to-local = alloca i32, align 4
  %v0_36c4 = load i32, i32* %ebx.global-to-local, align 4
  %v1_36c4 = add i32 %v0_36c4, -1994644412
  %v2_36c4 = inttoptr i32 %v1_36c4 to i32*
  %v3_36c4 = load i32, i32* %v2_36c4, align 4
  %v4_36c4 = sub i32 %v3_36c4, ptrtoint (i8** @global_var_1.3274 to i32)
  store i32 %v4_36c4, i32* %v2_36c4, align 4
  %v0_36ca = load i32, i32* %eax.global-to-local, align 4
  ret i32 %v0_36ca
}

define i32 @function_36cb() local_unnamed_addr {
dec_label_pc_36cb:
  %tmp = load i32, i32* @eax, align 4
  ret i32 %tmp
}

define i32 @function_36d3() local_unnamed_addr {
dec_label_pc_36d3:
  %v1_36d3 = call i32 @function_2eff(i32 ptrtoint (i32* @0 to i32))
  ret i32 %v1_36d3
}

define i32 @function_36d8() local_unnamed_addr {
dec_label_pc_36d8:
  %v0_36d8 = call i32 @function_36b9()
  ret i32 %v0_36d8
}

define i32 @function_36da() local_unnamed_addr {
dec_label_pc_36da:
  %v0_36e0 = call i32 @function_36cb()
  ret i32 %v0_36e0
}

define i32 @function_36e2() local_unnamed_addr {
dec_label_pc_36e2:
  %v1_36e4 = call i32 @function_2eff(i32 ptrtoint (i32* @0 to i32))
  ret i32 %v1_36e4
}

define i32 @function_36e9() local_unnamed_addr {
dec_label_pc_36e9:
  %tmp = load i32, i32* @eax, align 4
  ret i32 %tmp
}

define i32 @function_36f4() local_unnamed_addr {
dec_label_pc_36f4:
  %eax.global-to-local = alloca i32, align 4
  %ebx.global-to-local = alloca i32, align 4
  %v0_36f4 = load i32, i32* %ebx.global-to-local, align 4
  %v1_36f4 = add i32 %v0_36f4, -1994644412
  %v2_36f4 = inttoptr i32 %v1_36f4 to i32*
  %v3_36f4 = load i32, i32* %v2_36f4, align 4
  %v4_36f4 = sub i32 %v3_36f4, ptrtoint (i8** @global_var_1.3274 to i32)
  store i32 %v4_36f4, i32* %v2_36f4, align 4
  %v0_36fa = load i32, i32* %eax.global-to-local, align 4
  ret i32 %v0_36fa
}

define i32 @function_36fb() local_unnamed_addr {
dec_label_pc_36fb:
  %tmp = load i32, i32* @eax, align 4
  ret i32 %tmp
}

define i32 @function_3703() local_unnamed_addr {
dec_label_pc_3703:
  %v1_3703 = call i32 @function_2eff(i32 ptrtoint (i32* @0 to i32))
  ret i32 %v1_3703
}

define i32 @function_3708() local_unnamed_addr {
dec_label_pc_3708:
  %v0_3708 = call i32 @function_36e9()
  ret i32 %v0_3708
}

define i32 @function_370a() local_unnamed_addr {
dec_label_pc_370a:
  %v0_3710 = call i32 @function_36fb()
  ret i32 %v0_3710
}

define i32 @function_3712() local_unnamed_addr {
dec_label_pc_3712:
  %v1_3714 = call i32 @function_2eff(i32 ptrtoint (i32* @0 to i32))
  ret i32 %v1_3714
}

define i32 @function_3719() local_unnamed_addr {
dec_label_pc_3719:
  %tmp = load i32, i32* @eax, align 4
  ret i32 %tmp
}

define i32 @function_3724() local_unnamed_addr {
dec_label_pc_3724:
  %eax.global-to-local = alloca i32, align 4
  %ebx.global-to-local = alloca i32, align 4
  %v0_3724 = load i32, i32* %ebx.global-to-local, align 4
  %v1_3724 = add i32 %v0_3724, -1994644412
  %v2_3724 = inttoptr i32 %v1_3724 to i32*
  %v3_3724 = load i32, i32* %v2_3724, align 4
  %v4_3724 = sub i32 %v3_3724, ptrtoint (i8** @global_var_1.3274 to i32)
  store i32 %v4_3724, i32* %v2_3724, align 4
  %v0_372a = load i32, i32* %eax.global-to-local, align 4
  ret i32 %v0_372a
}

define i32 @function_372b() local_unnamed_addr {
dec_label_pc_372b:
  %tmp = load i32, i32* @eax, align 4
  ret i32 %tmp
}

define i32 @function_3733() local_unnamed_addr {
dec_label_pc_3733:
  %v1_3733 = call i32 @function_2eff(i32 ptrtoint (i32* @0 to i32))
  ret i32 %v1_3733
}

define i32 @function_3738() local_unnamed_addr {
dec_label_pc_3738:
  %v0_3738 = call i32 @function_3719()
  ret i32 %v0_3738
}

define i32 @function_373a() local_unnamed_addr {
dec_label_pc_373a:
  %v0_3740 = call i32 @function_372b()
  ret i32 %v0_3740
}

define i32 @function_3742() local_unnamed_addr {
dec_label_pc_3742:
  %v1_3744 = call i32 @function_2eff(i32 ptrtoint (i32* @0 to i32))
  ret i32 %v1_3744
}

define i32 @function_3749() local_unnamed_addr {
dec_label_pc_3749:
  %tmp = load i32, i32* @eax, align 4
  ret i32 %tmp
}

define i32 @function_3754() local_unnamed_addr {
dec_label_pc_3754:
  %eax.global-to-local = alloca i32, align 4
  %ebx.global-to-local = alloca i32, align 4
  %v0_3754 = load i32, i32* %ebx.global-to-local, align 4
  %v1_3754 = add i32 %v0_3754, -1994644412
  %v2_3754 = inttoptr i32 %v1_3754 to i32*
  %v3_3754 = load i32, i32* %v2_3754, align 4
  %v4_3754 = sub i32 %v3_3754, ptrtoint (i8** @global_var_1.3274 to i32)
  store i32 %v4_3754, i32* %v2_3754, align 4
  %v0_375a = load i32, i32* %eax.global-to-local, align 4
  ret i32 %v0_375a
}

define i32 @function_375b() local_unnamed_addr {
dec_label_pc_375b:
  %tmp = load i32, i32* @eax, align 4
  ret i32 %tmp
}

define i32 @function_3763() local_unnamed_addr {
dec_label_pc_3763:
  %v1_3763 = call i32 @function_2eff(i32 ptrtoint (i32* @0 to i32))
  ret i32 %v1_3763
}

define i32 @function_3768() local_unnamed_addr {
dec_label_pc_3768:
  %v0_3768 = call i32 @function_3749()
  ret i32 %v0_3768
}

define i32 @function_376a() local_unnamed_addr {
dec_label_pc_376a:
  %v0_3770 = call i32 @function_375b()
  ret i32 %v0_3770
}

define i32 @function_3772() local_unnamed_addr {
dec_label_pc_3772:
  %v1_3774 = call i32 @function_2eff(i32 ptrtoint (i32* @0 to i32))
  ret i32 %v1_3774
}

define i32 @function_3779() local_unnamed_addr {
dec_label_pc_3779:
  %tmp = load i32, i32* @eax, align 4
  ret i32 %tmp
}

define i32 @function_3784() local_unnamed_addr {
dec_label_pc_3784:
  %eax.global-to-local = alloca i32, align 4
  %ebx.global-to-local = alloca i32, align 4
  %v0_3784 = load i32, i32* %ebx.global-to-local, align 4
  %v1_3784 = add i32 %v0_3784, -1994644412
  %v2_3784 = inttoptr i32 %v1_3784 to i32*
  %v3_3784 = load i32, i32* %v2_3784, align 4
  %v4_3784 = sub i32 %v3_3784, ptrtoint (i8** @global_var_1.3274 to i32)
  store i32 %v4_3784, i32* %v2_3784, align 4
  %v0_378a = load i32, i32* %eax.global-to-local, align 4
  ret i32 %v0_378a
}

define i32 @function_378b() local_unnamed_addr {
dec_label_pc_378b:
  %tmp = load i32, i32* @eax, align 4
  ret i32 %tmp
}

define i32 @function_3793() local_unnamed_addr {
dec_label_pc_3793:
  %v1_3793 = call i32 @function_2eff(i32 ptrtoint (i32* @0 to i32))
  ret i32 %v1_3793
}

define i32 @function_3798() local_unnamed_addr {
dec_label_pc_3798:
  %v0_3798 = call i32 @function_3779()
  ret i32 %v0_3798
}

define i32 @function_379a() local_unnamed_addr {
dec_label_pc_379a:
  %v0_37a0 = call i32 @function_378b()
  ret i32 %v0_37a0
}

define i32 @function_37a2() local_unnamed_addr {
dec_label_pc_37a2:
  %v1_37a4 = call i32 @function_2eff(i32 ptrtoint (i32* @0 to i32))
  ret i32 %v1_37a4
}

define i32 @function_37a9() local_unnamed_addr {
dec_label_pc_37a9:
  %tmp = load i32, i32* @eax, align 4
  ret i32 %tmp
}

define i32 @function_37b4() local_unnamed_addr {
dec_label_pc_37b4:
  %eax.global-to-local = alloca i32, align 4
  %ebx.global-to-local = alloca i32, align 4
  %v0_37b4 = load i32, i32* %ebx.global-to-local, align 4
  %v1_37b4 = add i32 %v0_37b4, -1994644412
  %v2_37b4 = inttoptr i32 %v1_37b4 to i32*
  %v3_37b4 = load i32, i32* %v2_37b4, align 4
  %v4_37b4 = sub i32 %v3_37b4, ptrtoint (i8** @global_var_1.3274 to i32)
  store i32 %v4_37b4, i32* %v2_37b4, align 4
  %v0_37ba = load i32, i32* %eax.global-to-local, align 4
  ret i32 %v0_37ba
}

define i32 @function_37bb() local_unnamed_addr {
dec_label_pc_37bb:
  %tmp = load i32, i32* @eax, align 4
  ret i32 %tmp
}

define i32 @function_37c3() local_unnamed_addr {
dec_label_pc_37c3:
  %v1_37c3 = call i32 @function_2eff(i32 ptrtoint (i32* @0 to i32))
  ret i32 %v1_37c3
}

define i32 @function_37c8() local_unnamed_addr {
dec_label_pc_37c8:
  %v0_37c8 = call i32 @function_37a9()
  ret i32 %v0_37c8
}

define i32 @function_37ca() local_unnamed_addr {
dec_label_pc_37ca:
  %v0_37d0 = call i32 @function_37bb()
  ret i32 %v0_37d0
}

define i32 @function_37d2() local_unnamed_addr {
dec_label_pc_37d2:
  %v1_37d4 = call i32 @function_2eff(i32 ptrtoint (i32* @0 to i32))
  ret i32 %v1_37d4
}

define i32 @function_37d9() local_unnamed_addr {
dec_label_pc_37d9:
  %tmp = load i32, i32* @eax, align 4
  ret i32 %tmp
}

define i32 @function_37e4() local_unnamed_addr {
dec_label_pc_37e4:
  %eax.global-to-local = alloca i32, align 4
  %ebx.global-to-local = alloca i32, align 4
  %v0_37e4 = load i32, i32* %ebx.global-to-local, align 4
  %v1_37e4 = add i32 %v0_37e4, -1994644412
  %v2_37e4 = inttoptr i32 %v1_37e4 to i32*
  %v3_37e4 = load i32, i32* %v2_37e4, align 4
  %v4_37e4 = sub i32 %v3_37e4, ptrtoint (i8** @global_var_1.3274 to i32)
  store i32 %v4_37e4, i32* %v2_37e4, align 4
  %v0_37ea = load i32, i32* %eax.global-to-local, align 4
  ret i32 %v0_37ea
}

define i32 @function_37eb() local_unnamed_addr {
dec_label_pc_37eb:
  %tmp = load i32, i32* @eax, align 4
  ret i32 %tmp
}

define i32 @function_37f3() local_unnamed_addr {
dec_label_pc_37f3:
  %v1_37f3 = call i32 @function_2eff(i32 ptrtoint (i32* @0 to i32))
  ret i32 %v1_37f3
}

define i32 @function_37f8() local_unnamed_addr {
dec_label_pc_37f8:
  %v0_37f8 = call i32 @function_37d9()
  ret i32 %v0_37f8
}

define i32 @function_37fa() local_unnamed_addr {
dec_label_pc_37fa:
  %v0_3800 = call i32 @function_37eb()
  ret i32 %v0_3800
}

define i32 @function_3802() local_unnamed_addr {
dec_label_pc_3802:
  %v1_3804 = call i32 @function_2eff(i32 ptrtoint (i32* @0 to i32))
  ret i32 %v1_3804
}

define i32 @function_3809() local_unnamed_addr {
dec_label_pc_3809:
  %tmp = load i32, i32* @eax, align 4
  ret i32 %tmp
}

define i32 @function_3814() local_unnamed_addr {
dec_label_pc_3814:
  %eax.global-to-local = alloca i32, align 4
  %ebx.global-to-local = alloca i32, align 4
  %v0_3814 = load i32, i32* %ebx.global-to-local, align 4
  %v1_3814 = add i32 %v0_3814, -1994644412
  %v2_3814 = inttoptr i32 %v1_3814 to i32*
  %v3_3814 = load i32, i32* %v2_3814, align 4
  %v4_3814 = sub i32 %v3_3814, ptrtoint (i8** @global_var_1.3274 to i32)
  store i32 %v4_3814, i32* %v2_3814, align 4
  %v0_381a = load i32, i32* %eax.global-to-local, align 4
  ret i32 %v0_381a
}

define i32 @function_381b() local_unnamed_addr {
dec_label_pc_381b:
  %tmp = load i32, i32* @eax, align 4
  ret i32 %tmp
}

define i32 @function_3823() local_unnamed_addr {
dec_label_pc_3823:
  %v1_3823 = call i32 @function_2eff(i32 ptrtoint (i32* @0 to i32))
  ret i32 %v1_3823
}

define i32 @function_3828() local_unnamed_addr {
dec_label_pc_3828:
  %v0_3828 = call i32 @function_3809()
  ret i32 %v0_3828
}

define i32 @function_382a() local_unnamed_addr {
dec_label_pc_382a:
  %v0_3830 = call i32 @function_381b()
  ret i32 %v0_3830
}

define i32 @function_3832() local_unnamed_addr {
dec_label_pc_3832:
  %v1_3834 = call i32 @function_2eff(i32 ptrtoint (i32* @0 to i32))
  ret i32 %v1_3834
}

define i32 @function_3839() local_unnamed_addr {
dec_label_pc_3839:
  %tmp = load i32, i32* @eax, align 4
  ret i32 %tmp
}

define i32 @function_3844() local_unnamed_addr {
dec_label_pc_3844:
  %eax.global-to-local = alloca i32, align 4
  %ebx.global-to-local = alloca i32, align 4
  %v0_3844 = load i32, i32* %ebx.global-to-local, align 4
  %v1_3844 = add i32 %v0_3844, -1994644412
  %v2_3844 = inttoptr i32 %v1_3844 to i32*
  %v3_3844 = load i32, i32* %v2_3844, align 4
  %v4_3844 = sub i32 %v3_3844, ptrtoint (i8** @global_var_1.3274 to i32)
  store i32 %v4_3844, i32* %v2_3844, align 4
  %v0_384a = load i32, i32* %eax.global-to-local, align 4
  ret i32 %v0_384a
}

define i32 @function_384b() local_unnamed_addr {
dec_label_pc_384b:
  %tmp = load i32, i32* @eax, align 4
  ret i32 %tmp
}

define i32 @function_3853() local_unnamed_addr {
dec_label_pc_3853:
  %v1_3853 = call i32 @function_2eff(i32 ptrtoint (i32* @0 to i32))
  ret i32 %v1_3853
}

define i32 @function_3858() local_unnamed_addr {
dec_label_pc_3858:
  %v0_3858 = call i32 @function_3839()
  ret i32 %v0_3858
}

define i32 @function_385a() local_unnamed_addr {
dec_label_pc_385a:
  %v0_3860 = call i32 @function_384b()
  ret i32 %v0_3860
}

define i32 @function_3862() local_unnamed_addr {
dec_label_pc_3862:
  %v1_3864 = call i32 @function_2eff(i32 ptrtoint (i32* @0 to i32))
  ret i32 %v1_3864
}

define i32 @function_3869() local_unnamed_addr {
dec_label_pc_3869:
  %tmp = load i32, i32* @eax, align 4
  ret i32 %tmp
}

define i32 @function_3874() local_unnamed_addr {
dec_label_pc_3874:
  %eax.global-to-local = alloca i32, align 4
  %ebx.global-to-local = alloca i32, align 4
  %v0_3874 = load i32, i32* %ebx.global-to-local, align 4
  %v1_3874 = add i32 %v0_3874, -1994644412
  %v2_3874 = inttoptr i32 %v1_3874 to i32*
  %v3_3874 = load i32, i32* %v2_3874, align 4
  %v4_3874 = sub i32 %v3_3874, ptrtoint (i8** @global_var_1.3274 to i32)
  store i32 %v4_3874, i32* %v2_3874, align 4
  %v0_387a = load i32, i32* %eax.global-to-local, align 4
  ret i32 %v0_387a
}

define i32 @function_387b() local_unnamed_addr {
dec_label_pc_387b:
  %tmp = load i32, i32* @eax, align 4
  ret i32 %tmp
}

define i32 @function_3883() local_unnamed_addr {
dec_label_pc_3883:
  %v1_3883 = call i32 @function_2eff(i32 ptrtoint (i32* @0 to i32))
  ret i32 %v1_3883
}

define i32 @function_3888() local_unnamed_addr {
dec_label_pc_3888:
  %v0_3888 = call i32 @function_3869()
  ret i32 %v0_3888
}

define i32 @function_388a() local_unnamed_addr {
dec_label_pc_388a:
  %v0_3890 = call i32 @function_387b()
  ret i32 %v0_3890
}

define i32 @function_3892() local_unnamed_addr {
dec_label_pc_3892:
  %v1_3894 = call i32 @function_2eff(i32 ptrtoint (i32* @0 to i32))
  ret i32 %v1_3894
}

define i32 @function_3899() local_unnamed_addr {
dec_label_pc_3899:
  %tmp = load i32, i32* @eax, align 4
  ret i32 %tmp
}

define i32 @function_38a4() local_unnamed_addr {
dec_label_pc_38a4:
  %eax.global-to-local = alloca i32, align 4
  %ebx.global-to-local = alloca i32, align 4
  %v0_38a4 = load i32, i32* %ebx.global-to-local, align 4
  %v1_38a4 = add i32 %v0_38a4, -1994644412
  %v2_38a4 = inttoptr i32 %v1_38a4 to i32*
  %v3_38a4 = load i32, i32* %v2_38a4, align 4
  %v4_38a4 = sub i32 %v3_38a4, ptrtoint (i8** @global_var_1.3274 to i32)
  store i32 %v4_38a4, i32* %v2_38a4, align 4
  %v0_38aa = load i32, i32* %eax.global-to-local, align 4
  ret i32 %v0_38aa
}

define i32 @function_38ab() local_unnamed_addr {
dec_label_pc_38ab:
  %tmp = load i32, i32* @eax, align 4
  ret i32 %tmp
}

define i32 @function_38b3() local_unnamed_addr {
dec_label_pc_38b3:
  %v1_38b3 = call i32 @function_2eff(i32 ptrtoint (i32* @0 to i32))
  ret i32 %v1_38b3
}

define i32 @function_38b8() local_unnamed_addr {
dec_label_pc_38b8:
  %v0_38b8 = call i32 @function_3899()
  ret i32 %v0_38b8
}

define i32 @function_38ba() local_unnamed_addr {
dec_label_pc_38ba:
  %v0_38c0 = call i32 @function_38ab()
  ret i32 %v0_38c0
}

define i32 @function_38c2() local_unnamed_addr {
dec_label_pc_38c2:
  %v1_38c4 = call i32 @function_2eff(i32 ptrtoint (i32* @0 to i32))
  ret i32 %v1_38c4
}

define i32 @function_38c9() local_unnamed_addr {
dec_label_pc_38c9:
  %tmp = load i32, i32* @eax, align 4
  ret i32 %tmp
}

define i32 @function_38d4() local_unnamed_addr {
dec_label_pc_38d4:
  %eax.global-to-local = alloca i32, align 4
  %ebx.global-to-local = alloca i32, align 4
  %v0_38d4 = load i32, i32* %ebx.global-to-local, align 4
  %v1_38d4 = add i32 %v0_38d4, -1994644412
  %v2_38d4 = inttoptr i32 %v1_38d4 to i32*
  %v3_38d4 = load i32, i32* %v2_38d4, align 4
  %v4_38d4 = sub i32 %v3_38d4, ptrtoint (i8** @global_var_1.3274 to i32)
  store i32 %v4_38d4, i32* %v2_38d4, align 4
  %v0_38da = load i32, i32* %eax.global-to-local, align 4
  ret i32 %v0_38da
}

define i32 @function_38db() local_unnamed_addr {
dec_label_pc_38db:
  %tmp = load i32, i32* @eax, align 4
  ret i32 %tmp
}

define i32 @function_38e3() local_unnamed_addr {
dec_label_pc_38e3:
  %v1_38e3 = call i32 @function_2eff(i32 ptrtoint (i32* @0 to i32))
  ret i32 %v1_38e3
}

define i32 @function_38e8() local_unnamed_addr {
dec_label_pc_38e8:
  %v0_38e8 = call i32 @function_38c9()
  ret i32 %v0_38e8
}

define i32 @function_38ea() local_unnamed_addr {
dec_label_pc_38ea:
  %v0_38f0 = call i32 @function_38db()
  ret i32 %v0_38f0
}

define i32 @function_38f2() local_unnamed_addr {
dec_label_pc_38f2:
  %v1_38f4 = call i32 @function_2eff(i32 ptrtoint (i32* @0 to i32))
  ret i32 %v1_38f4
}

define i32 @function_38f9() local_unnamed_addr {
dec_label_pc_38f9:
  %tmp = load i32, i32* @eax, align 4
  ret i32 %tmp
}

define i32 @function_3904() local_unnamed_addr {
dec_label_pc_3904:
  %eax.global-to-local = alloca i32, align 4
  %ebx.global-to-local = alloca i32, align 4
  %v0_3904 = load i32, i32* %ebx.global-to-local, align 4
  %v1_3904 = add i32 %v0_3904, -1994644412
  %v2_3904 = inttoptr i32 %v1_3904 to i32*
  %v3_3904 = load i32, i32* %v2_3904, align 4
  %v4_3904 = sub i32 %v3_3904, ptrtoint (i8** @global_var_1.3274 to i32)
  store i32 %v4_3904, i32* %v2_3904, align 4
  %v0_390a = load i32, i32* %eax.global-to-local, align 4
  ret i32 %v0_390a
}

define i32 @function_390b() local_unnamed_addr {
dec_label_pc_390b:
  %tmp = load i32, i32* @eax, align 4
  ret i32 %tmp
}

define i32 @function_3913() local_unnamed_addr {
dec_label_pc_3913:
  %v1_3913 = call i32 @function_2eff(i32 ptrtoint (i32* @0 to i32))
  ret i32 %v1_3913
}

define i32 @function_3918() local_unnamed_addr {
dec_label_pc_3918:
  %v0_3918 = call i32 @function_38f9()
  ret i32 %v0_3918
}

define i32 @function_391a() local_unnamed_addr {
dec_label_pc_391a:
  %v0_3920 = call i32 @function_390b()
  ret i32 %v0_3920
}

define i32 @function_3922() local_unnamed_addr {
dec_label_pc_3922:
  %v1_3924 = call i32 @function_2eff(i32 ptrtoint (i32* @0 to i32))
  ret i32 %v1_3924
}

define i32 @function_3929() local_unnamed_addr {
dec_label_pc_3929:
  %tmp = load i32, i32* @eax, align 4
  ret i32 %tmp
}

define i32 @function_3934() local_unnamed_addr {
dec_label_pc_3934:
  %eax.global-to-local = alloca i32, align 4
  %ebx.global-to-local = alloca i32, align 4
  %v0_3934 = load i32, i32* %ebx.global-to-local, align 4
  %v1_3934 = add i32 %v0_3934, -1994644412
  %v2_3934 = inttoptr i32 %v1_3934 to i32*
  %v3_3934 = load i32, i32* %v2_3934, align 4
  %v4_3934 = sub i32 %v3_3934, ptrtoint (i8** @global_var_1.3274 to i32)
  store i32 %v4_3934, i32* %v2_3934, align 4
  %v0_393a = load i32, i32* %eax.global-to-local, align 4
  ret i32 %v0_393a
}

define i32 @function_393b() local_unnamed_addr {
dec_label_pc_393b:
  %tmp = load i32, i32* @eax, align 4
  ret i32 %tmp
}

define i32 @function_3943() local_unnamed_addr {
dec_label_pc_3943:
  %v1_3943 = call i32 @function_2eff(i32 ptrtoint (i32* @0 to i32))
  ret i32 %v1_3943
}

define i32 @function_3948() local_unnamed_addr {
dec_label_pc_3948:
  %v0_3948 = call i32 @function_3929()
  ret i32 %v0_3948
}

define i32 @function_394a() local_unnamed_addr {
dec_label_pc_394a:
  %v0_3950 = call i32 @function_393b()
  ret i32 %v0_3950
}

define i32 @function_3952() local_unnamed_addr {
dec_label_pc_3952:
  %v1_3954 = call i32 @function_2eff(i32 ptrtoint (i32* @0 to i32))
  ret i32 %v1_3954
}

define i32 @function_3959() local_unnamed_addr {
dec_label_pc_3959:
  %tmp = load i32, i32* @eax, align 4
  ret i32 %tmp
}

define i32 @function_3964() local_unnamed_addr {
dec_label_pc_3964:
  %eax.global-to-local = alloca i32, align 4
  %ebx.global-to-local = alloca i32, align 4
  %v0_3964 = load i32, i32* %ebx.global-to-local, align 4
  %v1_3964 = add i32 %v0_3964, -1994644412
  %v2_3964 = inttoptr i32 %v1_3964 to i32*
  %v3_3964 = load i32, i32* %v2_3964, align 4
  %v4_3964 = sub i32 %v3_3964, ptrtoint (i8** @global_var_1.3274 to i32)
  store i32 %v4_3964, i32* %v2_3964, align 4
  %v0_396a = load i32, i32* %eax.global-to-local, align 4
  ret i32 %v0_396a
}

define i32 @function_396b() local_unnamed_addr {
dec_label_pc_396b:
  %tmp = load i32, i32* @eax, align 4
  ret i32 %tmp
}

define i32 @function_3973() local_unnamed_addr {
dec_label_pc_3973:
  %v1_3973 = call i32 @function_2eff(i32 ptrtoint (i32* @0 to i32))
  ret i32 %v1_3973
}

define i32 @function_3978() local_unnamed_addr {
dec_label_pc_3978:
  %v0_3978 = call i32 @function_3959()
  ret i32 %v0_3978
}

define i32 @function_397a() local_unnamed_addr {
dec_label_pc_397a:
  %v0_3980 = call i32 @function_396b()
  ret i32 %v0_3980
}

define i32 @function_3982() local_unnamed_addr {
dec_label_pc_3982:
  %v1_3984 = call i32 @function_2eff(i32 ptrtoint (i32* @0 to i32))
  ret i32 %v1_3984
}

define i32 @function_3989() local_unnamed_addr {
dec_label_pc_3989:
  %tmp = load i32, i32* @eax, align 4
  ret i32 %tmp
}

define i32 @function_3994() local_unnamed_addr {
dec_label_pc_3994:
  %eax.global-to-local = alloca i32, align 4
  %ebx.global-to-local = alloca i32, align 4
  %v0_3994 = load i32, i32* %ebx.global-to-local, align 4
  %v1_3994 = add i32 %v0_3994, -1994644412
  %v2_3994 = inttoptr i32 %v1_3994 to i32*
  %v3_3994 = load i32, i32* %v2_3994, align 4
  %v4_3994 = sub i32 %v3_3994, ptrtoint (i8** @global_var_1.3274 to i32)
  store i32 %v4_3994, i32* %v2_3994, align 4
  %v0_399a = load i32, i32* %eax.global-to-local, align 4
  ret i32 %v0_399a
}

define i32 @function_399b() local_unnamed_addr {
dec_label_pc_399b:
  %tmp = load i32, i32* @eax, align 4
  ret i32 %tmp
}

define i32 @function_39a3() local_unnamed_addr {
dec_label_pc_39a3:
  %v1_39a3 = call i32 @function_2eff(i32 ptrtoint (i32* @0 to i32))
  ret i32 %v1_39a3
}

define i32 @function_39a8() local_unnamed_addr {
dec_label_pc_39a8:
  %v0_39a8 = call i32 @function_3989()
  ret i32 %v0_39a8
}

define i32 @function_39aa() local_unnamed_addr {
dec_label_pc_39aa:
  %v0_39b0 = call i32 @function_399b()
  ret i32 %v0_39b0
}

define i32 @function_39b2() local_unnamed_addr {
dec_label_pc_39b2:
  %v1_39b4 = call i32 @function_2eff(i32 ptrtoint (i32* @0 to i32))
  ret i32 %v1_39b4
}

define i32 @function_39b9() local_unnamed_addr {
dec_label_pc_39b9:
  %tmp = load i32, i32* @eax, align 4
  ret i32 %tmp
}

define i32 @function_39c4() local_unnamed_addr {
dec_label_pc_39c4:
  %eax.global-to-local = alloca i32, align 4
  %ebx.global-to-local = alloca i32, align 4
  %v0_39c4 = load i32, i32* %ebx.global-to-local, align 4
  %v1_39c4 = add i32 %v0_39c4, -1994644412
  %v2_39c4 = inttoptr i32 %v1_39c4 to i32*
  %v3_39c4 = load i32, i32* %v2_39c4, align 4
  %v4_39c4 = sub i32 %v3_39c4, ptrtoint (i8** @global_var_1.3274 to i32)
  store i32 %v4_39c4, i32* %v2_39c4, align 4
  %v0_39ca = load i32, i32* %eax.global-to-local, align 4
  ret i32 %v0_39ca
}

define i32 @function_39cb() local_unnamed_addr {
dec_label_pc_39cb:
  %tmp = load i32, i32* @eax, align 4
  ret i32 %tmp
}

define i32 @function_39d3() local_unnamed_addr {
dec_label_pc_39d3:
  %v1_39d3 = call i32 @function_2eff(i32 ptrtoint (i32* @0 to i32))
  ret i32 %v1_39d3
}

define i32 @function_39d8() local_unnamed_addr {
dec_label_pc_39d8:
  %v0_39d8 = call i32 @function_39b9()
  ret i32 %v0_39d8
}

define i32 @function_39da() local_unnamed_addr {
dec_label_pc_39da:
  %v0_39e0 = call i32 @function_39cb()
  ret i32 %v0_39e0
}

define i32 @function_39e2() local_unnamed_addr {
dec_label_pc_39e2:
  %v1_39e4 = call i32 @function_2eff(i32 ptrtoint (i32* @0 to i32))
  ret i32 %v1_39e4
}

define i32 @function_39e9() local_unnamed_addr {
dec_label_pc_39e9:
  %tmp = load i32, i32* @eax, align 4
  ret i32 %tmp
}

define i32 @function_39f4() local_unnamed_addr {
dec_label_pc_39f4:
  %eax.global-to-local = alloca i32, align 4
  %ebx.global-to-local = alloca i32, align 4
  %v0_39f4 = load i32, i32* %ebx.global-to-local, align 4
  %v1_39f4 = add i32 %v0_39f4, -1994644412
  %v2_39f4 = inttoptr i32 %v1_39f4 to i32*
  %v3_39f4 = load i32, i32* %v2_39f4, align 4
  %v4_39f4 = sub i32 %v3_39f4, ptrtoint (i8** @global_var_1.3274 to i32)
  store i32 %v4_39f4, i32* %v2_39f4, align 4
  %v0_39fa = load i32, i32* %eax.global-to-local, align 4
  ret i32 %v0_39fa
}

define i32 @function_39fb() local_unnamed_addr {
dec_label_pc_39fb:
  %tmp = load i32, i32* @eax, align 4
  ret i32 %tmp
}

define i32 @function_3a03() local_unnamed_addr {
dec_label_pc_3a03:
  %v1_3a03 = call i32 @function_2eff(i32 ptrtoint (i32* @0 to i32))
  ret i32 %v1_3a03
}

define i32 @function_3a08() local_unnamed_addr {
dec_label_pc_3a08:
  %v0_3a08 = call i32 @function_39e9()
  ret i32 %v0_3a08
}

define i32 @function_3a0a() local_unnamed_addr {
dec_label_pc_3a0a:
  %v0_3a10 = call i32 @function_39fb()
  ret i32 %v0_3a10
}

define i32 @function_3a12() local_unnamed_addr {
dec_label_pc_3a12:
  %v1_3a14 = call i32 @function_2eff(i32 ptrtoint (i32* @0 to i32))
  ret i32 %v1_3a14
}

define i32 @function_3a19() local_unnamed_addr {
dec_label_pc_3a19:
  %tmp = load i32, i32* @eax, align 4
  ret i32 %tmp
}

define i32 @function_3a24() local_unnamed_addr {
dec_label_pc_3a24:
  %eax.global-to-local = alloca i32, align 4
  %ebx.global-to-local = alloca i32, align 4
  %v0_3a24 = load i32, i32* %ebx.global-to-local, align 4
  %v1_3a24 = add i32 %v0_3a24, -1994644412
  %v2_3a24 = inttoptr i32 %v1_3a24 to i32*
  %v3_3a24 = load i32, i32* %v2_3a24, align 4
  %v4_3a24 = sub i32 %v3_3a24, ptrtoint (i8** @global_var_1.3274 to i32)
  store i32 %v4_3a24, i32* %v2_3a24, align 4
  %v0_3a2a = load i32, i32* %eax.global-to-local, align 4
  ret i32 %v0_3a2a
}

define i32 @function_3a2b() local_unnamed_addr {
dec_label_pc_3a2b:
  %tmp = load i32, i32* @eax, align 4
  ret i32 %tmp
}

define i32 @function_3a33() local_unnamed_addr {
dec_label_pc_3a33:
  %v1_3a33 = call i32 @function_2eff(i32 ptrtoint (i32* @0 to i32))
  ret i32 %v1_3a33
}

define i32 @function_3a38() local_unnamed_addr {
dec_label_pc_3a38:
  %v0_3a38 = call i32 @function_3a19()
  ret i32 %v0_3a38
}

define i32 @function_3a3a() local_unnamed_addr {
dec_label_pc_3a3a:
  %v0_3a40 = call i32 @function_3a2b()
  ret i32 %v0_3a40
}

define i32 @function_3a42() local_unnamed_addr {
dec_label_pc_3a42:
  %v1_3a44 = call i32 @function_2eff(i32 ptrtoint (i32* @0 to i32))
  ret i32 %v1_3a44
}

define i32 @function_3a49() local_unnamed_addr {
dec_label_pc_3a49:
  %tmp = load i32, i32* @eax, align 4
  ret i32 %tmp
}

define i32 @function_3a54() local_unnamed_addr {
dec_label_pc_3a54:
  %eax.global-to-local = alloca i32, align 4
  %ebx.global-to-local = alloca i32, align 4
  %v0_3a54 = load i32, i32* %ebx.global-to-local, align 4
  %v1_3a54 = add i32 %v0_3a54, -1994644412
  %v2_3a54 = inttoptr i32 %v1_3a54 to i32*
  %v3_3a54 = load i32, i32* %v2_3a54, align 4
  %v4_3a54 = sub i32 %v3_3a54, ptrtoint (i8** @global_var_1.3274 to i32)
  store i32 %v4_3a54, i32* %v2_3a54, align 4
  %v0_3a5a = load i32, i32* %eax.global-to-local, align 4
  ret i32 %v0_3a5a
}

define i32 @function_3a5b() local_unnamed_addr {
dec_label_pc_3a5b:
  %tmp = load i32, i32* @eax, align 4
  ret i32 %tmp
}

define i32 @function_3a63() local_unnamed_addr {
dec_label_pc_3a63:
  %v1_3a63 = call i32 @function_2eff(i32 ptrtoint (i32* @0 to i32))
  ret i32 %v1_3a63
}

define i32 @function_3a68() local_unnamed_addr {
dec_label_pc_3a68:
  %v0_3a68 = call i32 @function_3a49()
  ret i32 %v0_3a68
}

define i32 @function_3a6a() local_unnamed_addr {
dec_label_pc_3a6a:
  %v0_3a70 = call i32 @function_3a5b()
  ret i32 %v0_3a70
}

define i32 @function_3a72() local_unnamed_addr {
dec_label_pc_3a72:
  %v1_3a74 = call i32 @function_2eff(i32 ptrtoint (i32* @0 to i32))
  ret i32 %v1_3a74
}

define i32 @function_3a79() local_unnamed_addr {
dec_label_pc_3a79:
  %tmp = load i32, i32* @eax, align 4
  ret i32 %tmp
}

define i32 @function_3a84() local_unnamed_addr {
dec_label_pc_3a84:
  %eax.global-to-local = alloca i32, align 4
  %ebx.global-to-local = alloca i32, align 4
  %v0_3a84 = load i32, i32* %ebx.global-to-local, align 4
  %v1_3a84 = add i32 %v0_3a84, -1994644412
  %v2_3a84 = inttoptr i32 %v1_3a84 to i32*
  %v3_3a84 = load i32, i32* %v2_3a84, align 4
  %v4_3a84 = sub i32 %v3_3a84, ptrtoint (i8** @global_var_1.3274 to i32)
  store i32 %v4_3a84, i32* %v2_3a84, align 4
  %v0_3a8a = load i32, i32* %eax.global-to-local, align 4
  ret i32 %v0_3a8a
}

define i32 @function_3a8b() local_unnamed_addr {
dec_label_pc_3a8b:
  %tmp = load i32, i32* @eax, align 4
  ret i32 %tmp
}

define i32 @function_3a93() local_unnamed_addr {
dec_label_pc_3a93:
  %v1_3a93 = call i32 @function_2eff(i32 ptrtoint (i32* @0 to i32))
  ret i32 %v1_3a93
}

define i32 @function_3a98() local_unnamed_addr {
dec_label_pc_3a98:
  %v0_3a98 = call i32 @function_3a79()
  ret i32 %v0_3a98
}

define i32 @function_3a9a() local_unnamed_addr {
dec_label_pc_3a9a:
  %v0_3aa0 = call i32 @function_3a8b()
  ret i32 %v0_3aa0
}

define i32 @function_3aa2() local_unnamed_addr {
dec_label_pc_3aa2:
  %v1_3aa4 = call i32 @function_2eff(i32 ptrtoint (i32* @0 to i32))
  ret i32 %v1_3aa4
}

define i32 @function_3aa9() local_unnamed_addr {
dec_label_pc_3aa9:
  %tmp = load i32, i32* @eax, align 4
  ret i32 %tmp
}

define i32 @function_3ab4() local_unnamed_addr {
dec_label_pc_3ab4:
  %eax.global-to-local = alloca i32, align 4
  %ebx.global-to-local = alloca i32, align 4
  %v0_3ab4 = load i32, i32* %ebx.global-to-local, align 4
  %v1_3ab4 = add i32 %v0_3ab4, -1994644412
  %v2_3ab4 = inttoptr i32 %v1_3ab4 to i32*
  %v3_3ab4 = load i32, i32* %v2_3ab4, align 4
  %v4_3ab4 = sub i32 %v3_3ab4, ptrtoint (i8** @global_var_1.3274 to i32)
  store i32 %v4_3ab4, i32* %v2_3ab4, align 4
  %v0_3aba = load i32, i32* %eax.global-to-local, align 4
  ret i32 %v0_3aba
}

define i32 @function_3abb() local_unnamed_addr {
dec_label_pc_3abb:
  %tmp = load i32, i32* @eax, align 4
  ret i32 %tmp
}

define i32 @function_3ac3() local_unnamed_addr {
dec_label_pc_3ac3:
  %v1_3ac3 = call i32 @function_2eff(i32 ptrtoint (i32* @0 to i32))
  ret i32 %v1_3ac3
}

define i32 @function_3ac8() local_unnamed_addr {
dec_label_pc_3ac8:
  %v0_3ac8 = call i32 @function_3aa9()
  ret i32 %v0_3ac8
}

define i32 @function_3aca() local_unnamed_addr {
dec_label_pc_3aca:
  %v0_3ad0 = call i32 @function_3abb()
  ret i32 %v0_3ad0
}

define i32 @function_3ad2() local_unnamed_addr {
dec_label_pc_3ad2:
  %v1_3ad4 = call i32 @function_2eff(i32 ptrtoint (i32* @0 to i32))
  ret i32 %v1_3ad4
}

define i32 @function_3ad9() local_unnamed_addr {
dec_label_pc_3ad9:
  %tmp = load i32, i32* @eax, align 4
  ret i32 %tmp
}

define i32 @function_3ae4() local_unnamed_addr {
dec_label_pc_3ae4:
  %eax.global-to-local = alloca i32, align 4
  %ebx.global-to-local = alloca i32, align 4
  %v0_3ae4 = load i32, i32* %ebx.global-to-local, align 4
  %v1_3ae4 = add i32 %v0_3ae4, -1994644412
  %v2_3ae4 = inttoptr i32 %v1_3ae4 to i32*
  %v3_3ae4 = load i32, i32* %v2_3ae4, align 4
  %v4_3ae4 = sub i32 %v3_3ae4, ptrtoint (i8** @global_var_1.3274 to i32)
  store i32 %v4_3ae4, i32* %v2_3ae4, align 4
  %v0_3aea = load i32, i32* %eax.global-to-local, align 4
  ret i32 %v0_3aea
}

define i32 @function_3aeb() local_unnamed_addr {
dec_label_pc_3aeb:
  %tmp = load i32, i32* @eax, align 4
  ret i32 %tmp
}

define i32 @function_3af3() local_unnamed_addr {
dec_label_pc_3af3:
  %v1_3af3 = call i32 @function_2eff(i32 ptrtoint (i32* @0 to i32))
  ret i32 %v1_3af3
}

define i32 @function_3af8() local_unnamed_addr {
dec_label_pc_3af8:
  %v0_3af8 = call i32 @function_3ad9()
  ret i32 %v0_3af8
}

define i32 @function_3afa() local_unnamed_addr {
dec_label_pc_3afa:
  %v0_3b00 = call i32 @function_3aeb()
  ret i32 %v0_3b00
}

define i32 @function_3b02() local_unnamed_addr {
dec_label_pc_3b02:
  %v1_3b04 = call i32 @function_2eff(i32 ptrtoint (i32* @0 to i32))
  ret i32 %v1_3b04
}

define i32 @function_3b09() local_unnamed_addr {
dec_label_pc_3b09:
  %tmp = load i32, i32* @eax, align 4
  ret i32 %tmp
}

define i32 @function_3b14() local_unnamed_addr {
dec_label_pc_3b14:
  %eax.global-to-local = alloca i32, align 4
  %ebx.global-to-local = alloca i32, align 4
  %v0_3b14 = load i32, i32* %ebx.global-to-local, align 4
  %v1_3b14 = add i32 %v0_3b14, -1994644412
  %v2_3b14 = inttoptr i32 %v1_3b14 to i32*
  %v3_3b14 = load i32, i32* %v2_3b14, align 4
  %v4_3b14 = sub i32 %v3_3b14, ptrtoint (i8** @global_var_1.3274 to i32)
  store i32 %v4_3b14, i32* %v2_3b14, align 4
  %v0_3b1a = load i32, i32* %eax.global-to-local, align 4
  ret i32 %v0_3b1a
}

define i32 @function_3b1b() local_unnamed_addr {
dec_label_pc_3b1b:
  %tmp = load i32, i32* @eax, align 4
  ret i32 %tmp
}

define i32 @function_3b23() local_unnamed_addr {
dec_label_pc_3b23:
  %v1_3b23 = call i32 @function_2eff(i32 ptrtoint (i32* @0 to i32))
  ret i32 %v1_3b23
}

define i32 @function_3b28() local_unnamed_addr {
dec_label_pc_3b28:
  %v0_3b28 = call i32 @function_3b09()
  ret i32 %v0_3b28
}

define i32 @function_3b2a() local_unnamed_addr {
dec_label_pc_3b2a:
  %v0_3b30 = call i32 @function_3b1b()
  ret i32 %v0_3b30
}

define i32 @function_3b32() local_unnamed_addr {
dec_label_pc_3b32:
  %v1_3b34 = call i32 @function_2eff(i32 ptrtoint (i32* @0 to i32))
  ret i32 %v1_3b34
}

define i32 @function_3b39() local_unnamed_addr {
dec_label_pc_3b39:
  %v1_3b40 = call i32 @function_2eff(i32 ptrtoint (i32* @0 to i32))
  ret i32 %v1_3b40
}

define i32 @function_3b46() local_unnamed_addr {
dec_label_pc_3b46:
  %eax.global-to-local = alloca i32, align 4
  %v0_3b46 = load i32, i32* %eax.global-to-local, align 4
  ret i32 %v0_3b46
}

define i32 @function_3b47(i32 %arg1) local_unnamed_addr {
dec_label_pc_3b47:
  %tmp = load i32, i32* @eax, align 4
  ret i32 %tmp
}

define i32 @function_3b4f() local_unnamed_addr {
dec_label_pc_3b4f:
  %v1_3b4f = call i32 @function_2eff(i32 ptrtoint (i32* @0 to i32))
  ret i32 %v1_3b4f
}

define i32 @function_3b54() local_unnamed_addr {
dec_label_pc_3b54:
  %v0_3b54 = load i32, i32* @ebx, align 4
  %v1_3b66 = call i32 @function_3b47(i32 %v0_3b54)
  ret i32 %v1_3b66
}

define i32 @function_3b68() local_unnamed_addr {
dec_label_pc_3b68:
  %v0_3b68 = call i32 @function_3b54()
  ret i32 %v0_3b68
}

define i32 @function_3b6a() local_unnamed_addr {
dec_label_pc_3b6a:
  %v1_3b6c = call i32 @function_2eff(i32 ptrtoint (i32* @0 to i32))
  ret i32 %v1_3b6c
}

define i32 @function_3b72() local_unnamed_addr {
dec_label_pc_3b72:
  %eax.global-to-local = alloca i32, align 4
  %v0_3b72 = load i32, i32* %eax.global-to-local, align 4
  ret i32 %v0_3b72
}

define i32 @function_3b73(i32 %arg1) local_unnamed_addr {
dec_label_pc_3b73:
  %tmp = load i32, i32* @eax, align 4
  ret i32 %tmp
}

define i32 @function_3b7b() local_unnamed_addr {
dec_label_pc_3b7b:
  %v1_3b7b = call i32 @function_2eff(i32 ptrtoint (i32* @0 to i32))
  ret i32 %v1_3b7b

; uselistorder directives
  uselistorder i32 (i32)* @function_2eff, { 134, 133, 132, 131, 130, 129, 128, 127, 126, 125, 124, 123, 122, 121, 120, 119, 118, 117, 116, 115, 114, 113, 112, 111, 110, 109, 108, 107, 106, 105, 104, 103, 102, 101, 100, 99, 98, 97, 96, 95, 94, 93, 92, 91, 90, 89, 88, 87, 86, 85, 84, 83, 82, 81, 80, 79, 78, 77, 76, 75, 74, 73, 72, 71, 70, 69, 68, 67, 66, 65, 64, 63, 62, 61, 60, 59, 58, 57, 56, 55, 54, 53, 52, 51, 50, 49, 48, 47, 46, 45, 44, 43, 42, 41, 40, 39, 38, 37, 36, 35, 34, 33, 32, 31, 30, 29, 28, 27, 26, 25, 24, 23, 22, 21, 20, 19, 18, 17, 16, 15, 14, 13, 12, 11, 10, 9, 8, 7, 6, 5, 4, 3, 2, 1, 0 }
}

define i32 @function_3b80() local_unnamed_addr {
dec_label_pc_3b80:
  %v0_3b80 = load i32, i32* @ebx, align 4
  %v1_3b92 = call i32 @function_3b73(i32 %v0_3b80)
  ret i32 %v1_3b92
}

define i32 @function_3b94() local_unnamed_addr {
dec_label_pc_3b94:
  %v0_3b94 = call i32 @function_3b80()
  ret i32 %v0_3b94
}

define i1 @InitWarning(i32 %str) local_unnamed_addr {
dec_label_pc_3ba0:
  ret i1 false
}

define i32 @function_3bf9(i32 %arg1, i32 %arg2, i32 %arg3) local_unnamed_addr {
dec_label_pc_3bf9:
  %v1_3c02 = load i32, i32* inttoptr (i32 20 to i32*), align 4
  %v3_3c02 = icmp eq i32 %v1_3c02, %arg1
  %v1_3c09 = icmp eq i1 %v3_3c02, false
  br i1 %v1_3c09, label %dec_label_pc_3c11, label %dec_label_pc_3c0b

dec_label_pc_3c0b:                                ; preds = %dec_label_pc_3bf9
  ret i32 ptrtoint (i8** @global_var_1.3274 to i32)

dec_label_pc_3c11:                                ; preds = %dec_label_pc_3bf9
  ret i32 ptrtoint (i8** @global_var_1.3274 to i32)
}

define i1 @InitError(i32 %str) local_unnamed_addr {
dec_label_pc_3c50:
  %stack_var_-24 = alloca i32, align 4
  %v2_3c5b = ptrtoint i32* %stack_var_-24 to i32
  store i32 %v2_3c5b, i32* @ebx, align 4
  ret i1 false
}

define i32 @function_3ca8(i32 %arg1, i32 %arg2) local_unnamed_addr {
dec_label_pc_3ca8:
  %eax.global-to-local = alloca i32, align 4
  %v0_3cb1 = load i32, i32* %eax.global-to-local, align 4
  %v4_3cb1 = add i32 %v0_3cb1, 20
  %v14_3cb1 = icmp eq i32 %v4_3cb1, 0
  store i32 %v4_3cb1, i32* %eax.global-to-local, align 4
  %v1_3cb6 = icmp eq i1 %v14_3cb1, false
  br i1 %v1_3cb6, label %dec_label_pc_3cbe, label %dec_label_pc_3cb8

dec_label_pc_3cb8:                                ; preds = %dec_label_pc_3ca8
  ret i32 %v4_3cb1

dec_label_pc_3cbe:                                ; preds = %dec_label_pc_3ca8
  ret i32 %v4_3cb1

; uselistorder directives
  uselistorder i32 %v4_3cb1, { 1, 0, 2, 3 }
}

define i1 @Bind(i32 %addr, i32 %flags) local_unnamed_addr {
dec_label_pc_3d00:
  %v0_3d07 = load i32, i32* @eax, align 4
  store i32 %v0_3d07, i32* @edi, align 4
  %v0_3d09 = load i32, i32* inttoptr (i32 20 to i32*), align 4
  store i32 0, i32* @eax, align 4
  %v0_3d15 = load i32, i32* @edx, align 4
  %v2_3d15 = urem i32 %v0_3d15, 2
  %v3_3d15 = icmp eq i32 %v2_3d15, 0
  br i1 %v3_3d15, label %bb, label %dec_label_pc_3d28

bb:                                               ; preds = %dec_label_pc_3d00
  %v2_3d26 = call i32 @function_3d78(i32 %v0_3d09)
  %phitmp = urem i32 %v2_3d26, 2
  %phitmp3 = icmp ne i32 %phitmp, 0
  br label %dec_label_pc_3d28

dec_label_pc_3d28:                                ; preds = %bb, %dec_label_pc_3d00
  %v3_3d38 = phi i1 [ %phitmp3, %bb ], [ false, %dec_label_pc_3d00 ]
  ret i1 %v3_3d38
}

define i32 @function_3d4b() local_unnamed_addr {
dec_label_pc_3d4b:
  %tmp = load i32, i32* @eax, align 4
  ret i32 %tmp
}

define i32 @function_3d52(i32 %arg1, i32 %arg2, i32 %arg3, i32 %arg4) local_unnamed_addr {
dec_label_pc_3d52:
  %ebp.global-to-local = alloca i32, align 4
  %ebx.global-to-local = alloca i32, align 4
  %edx.global-to-local = alloca i32, align 4
  %v0_3d52 = load i32, i32* %ebx.global-to-local, align 4
  %v1_3d52 = add i32 %v0_3d52, 1696343124
  %v2_3d52 = inttoptr i32 %v1_3d52 to i32*
  %v3_3d52 = load i32, i32* %v2_3d52, align 4
  %v4_3d52 = add i32 %v3_3d52, -1
  store i32 %v4_3d52, i32* %v2_3d52, align 4
  %v0_3d58 = load i32, i32* %edx.global-to-local, align 4
  %v1_3d58 = load i32, i32* inttoptr (i32 20 to i32*), align 4
  %v2_3d58 = xor i32 %v1_3d58, %v0_3d58
  %v3_3d58 = icmp eq i32 %v2_3d58, 0
  store i32 %v2_3d58, i32* %edx.global-to-local, align 4
  %v0_3d5e = load i32, i32* %ebp.global-to-local, align 4
  store i32 %v0_3d5e, i32* @eax, align 4
  %v1_3d60 = icmp eq i1 %v3_3d58, false
  br i1 %v1_3d60, label %bb, label %dec_label_pc_3d62

bb:                                               ; preds = %dec_label_pc_3d52
  %v2_3d60 = call i32 @function_3da3()
  br label %dec_label_pc_3d62

dec_label_pc_3d62:                                ; preds = %bb, %dec_label_pc_3d52
  %v0_3d75 = phi i32 [ %v2_3d60, %bb ], [ %v0_3d5e, %dec_label_pc_3d52 ]
  store i32 %arg1, i32* %ebx.global-to-local, align 4
  store i32 %arg4, i32* %ebp.global-to-local, align 4
  ret i32 %v0_3d75
}

define i32 @function_3d78(i32 %arg1) local_unnamed_addr {
dec_label_pc_3d78:
  %v6_3d7b = load i32, i32* @eax, align 4
  ret i32 %v6_3d7b
}

define i32 @function_3d81() local_unnamed_addr {
dec_label_pc_3d81:
  %v0_3d81 = load i32, i32* @eax, align 4
  %v2_3d81 = mul i32 %v0_3d81, ptrtoint (i8** @global_var_8.3277 to i32)
  %v3_3d81 = add i32 %v0_3d81, -1595159179
  %v4_3d81 = add i32 %v3_3d81, %v2_3d81
  %v5_3d81 = inttoptr i32 %v4_3d81 to i32*
  %v6_3d81 = load i32, i32* %v5_3d81, align 4
  %v7_3d81 = add i32 %v6_3d81, ptrtoint (i8** @global_var_1.3274 to i32)
  store i32 %v7_3d81, i32* %v5_3d81, align 4
  %v0_3d90 = call i32 @function_3d4b()
  ret i32 %v0_3d90

; uselistorder directives
  uselistorder i32 %v0_3d81, { 1, 0 }
}

define i32 @function_3d98() local_unnamed_addr {
dec_label_pc_3d98:
  %ebx.global-to-local = alloca i32, align 4
  %v0_3d98 = load i32, i32* %ebx.global-to-local, align 4
  store i32 %v0_3d98, i32* @eax, align 4
  %v1_3d9a = call i1 @InitError(i32 ptrtoint (i32* @0 to i32))
  %v3_3d9a = sext i1 %v1_3d9a to i32
  store i32 %v3_3d9a, i32* @eax, align 4
  %v0_3da1 = call i32 @function_3d4b()
  ret i32 %v0_3da1

; uselistorder directives
  uselistorder i32 ()* @function_3d4b, { 1, 0 }
}

define i32 @function_3da3() local_unnamed_addr {
dec_label_pc_3da3:
  %v0_3da8 = load i32, i32* @eax, align 4
  ret i32 %v0_3da8
}

define i1 @_Z8AppInit2RN5boost12thread_groupE(i32 %threadGroup) local_unnamed_addr {
dec_label_pc_3dc0:
  %tmp104 = urem i32 %threadGroup, 2
  %tmp105 = icmp ne i32 %tmp104, 0
  ret i1 %tmp105
}

define i32 @function_3eeb() local_unnamed_addr {
dec_label_pc_3eeb:
  %ebp.global-to-local = alloca i32, align 4
  %ebx.global-to-local = alloca i32, align 4
  %v0_3eeb = load i32, i32* %ebx.global-to-local, align 4
  store i32 %v0_3eeb, i32* @eax, align 4
  %v1_3eed = call i1 @InitError(i32 ptrtoint (i32* @0 to i32))
  %v3_3eed = sext i1 %v1_3eed to i32
  %v0_3ef4 = load i32, i32* @ebx, align 4
  %v0_3efc = load i32, i32* %ebp.global-to-local, align 4
  %v1_3efc = add i32 %v0_3efc, -28
  %v2_3efc = inttoptr i32 %v1_3efc to i32*
  %v3_3efc = load i32, i32* %v2_3efc, align 4
  %v1_3eff = load i32, i32* inttoptr (i32 20 to i32*), align 4
  %v3_3eff = icmp eq i32 %v1_3eff, %v3_3efc
  store i32 %v3_3eed, i32* @eax, align 4
  %v1_3f08 = icmp eq i1 %v3_3eff, false
  br i1 %v1_3f08, label %bb, label %dec_label_pc_3f0e

bb:                                               ; preds = %dec_label_pc_3eeb
  %v3_3f08 = call i32 @function_6eb0(i32 %v0_3ef4)
  %v0_3f0e.pre = load i32, i32* %ebp.global-to-local, align 4
  br label %dec_label_pc_3f0e

dec_label_pc_3f0e:                                ; preds = %bb, %dec_label_pc_3eeb
  %v0_3f15 = phi i32 [ %v3_3f08, %bb ], [ %v3_3eed, %dec_label_pc_3eeb ]
  %v0_3f0e = phi i32 [ %v0_3f0e.pre, %bb ], [ %v0_3efc, %dec_label_pc_3eeb ]
  %v1_3f0e = add i32 %v0_3f0e, -12
  %v1_3f11 = inttoptr i32 %v1_3f0e to i32*
  %v2_3f11 = load i32, i32* %v1_3f11, align 4
  store i32 %v2_3f11, i32* %ebx.global-to-local, align 4
  %v1_3f14 = inttoptr i32 %v0_3f0e to i32*
  %v2_3f14 = load i32, i32* %v1_3f14, align 4
  store i32 %v2_3f14, i32* %ebp.global-to-local, align 4
  ret i32 %v0_3f15

; uselistorder directives
  uselistorder i32 %v0_3f0e, { 1, 0 }
}

define i32 @function_3fd6() local_unnamed_addr {
dec_label_pc_3fd6:
  %tmp = load i32, i32* @eax, align 4
  ret i32 %tmp
}

define i32 @function_4046() local_unnamed_addr {
dec_label_pc_4046:
  %tmp = load i32, i32* @eax, align 4
  ret i32 %tmp
}

define i32 @function_4226(i32 %arg1) local_unnamed_addr {
dec_label_pc_4226:
  %tmp = load i32, i32* @eax, align 4
  ret i32 %tmp
}

define i32 @function_42f3() local_unnamed_addr {
dec_label_pc_42f3:
  %tmp = load i32, i32* @eax, align 4
  ret i32 %tmp
}

define i32 @function_430e() local_unnamed_addr {
dec_label_pc_430e:
  %v0_430e = call i32 @function_f8a0f8a0()
  ret i32 %v0_430e
}

define i32 @function_43fe() local_unnamed_addr {
dec_label_pc_43fe:
  %ebx.global-to-local = alloca i32, align 4
  %ecx.global-to-local = alloca i32, align 4
  %v0_43fe = load i32, i32* %ebx.global-to-local, align 4
  %v1_43fe = add i32 %v0_43fe, -565115
  %v2_43fe = inttoptr i32 %v1_43fe to i8*
  %v3_43fe = load i8, i8* %v2_43fe, align 1
  %v4_43fe = load i32, i32* %ecx.global-to-local, align 4
  %v5_43fe = trunc i32 %v4_43fe to i8
  %v6_43fe = add i8 %v5_43fe, %v3_43fe
  store i8 %v6_43fe, i8* %v2_43fe, align 1
  %v1_4404 = call i32 @function_8dfffffffce8()
  ret i32 %v1_4404
}

define i32 @function_4495(i16 %arg1) local_unnamed_addr {
dec_label_pc_4495:
  %eax.global-to-local = alloca i32, align 4
  %ebp.global-to-local = alloca i32, align 4
  %ecx.global-to-local = alloca i32, align 4
  %v0_4495 = load i32, i32* %ebp.global-to-local, align 4
  %v1_4495 = add i32 %v0_4495, -305275
  %v2_4495 = inttoptr i32 %v1_4495 to i32*
  %v3_4495 = load i32, i32* %v2_4495, align 4
  %v4_4495 = sub i32 %v3_4495, ptrtoint (i8** @global_var_1.3274 to i32)
  store i32 %v4_4495, i32* %v2_4495, align 4
  %v0_449b = load i32, i32* %ecx.global-to-local, align 4
  %v1_449b = add i32 %v0_449b, -955767740
  %v2_449b = inttoptr i32 %v1_449b to i32*
  %v3_449b = load i32, i32* %v2_449b, align 4
  %v4_449b = sub i32 %v3_449b, ptrtoint (i8** @global_var_1.3274 to i32)
  store i32 %v4_449b, i32* %v2_449b, align 4
  %v0_44a2 = load i32, i32* %eax.global-to-local, align 4
  %v11_44a2 = and i32 %v0_44a2, or (i32 zext (i8 ptrtoint (i16** @global_var_4.3276 to i8) to i32), i32 -256)
  store i32 %v11_44a2, i32* %eax.global-to-local, align 4
  ret i32 %v11_44a2

; uselistorder directives
  uselistorder i32 %v11_44a2, { 1, 0 }
}

define i32 @function_4501() local_unnamed_addr {
dec_label_pc_4501:
  %eax.global-to-local = alloca i32, align 4
  %tmp96 = load i32, i32* %eax.global-to-local, align 4
  ret i32 %tmp96
}

define i32 @function_451c() local_unnamed_addr {
dec_label_pc_451c:
  %tmp = load i32, i32* @eax, align 4
  ret i32 %tmp
}

define i32 @function_4622() local_unnamed_addr {
dec_label_pc_4622:
  %eax.global-to-local = alloca i32, align 4
  %v2_4622 = load i32, i32* %eax.global-to-local, align 4
  ret i32 %v2_4622
}

define i32 @function_462f() local_unnamed_addr {
dec_label_pc_462f:
  %eax.global-to-local = alloca i32, align 4
  %v0_462f = load i32, i32* %eax.global-to-local, align 4
  ret i32 %v0_462f
}

define i32 @function_46af() local_unnamed_addr {
dec_label_pc_46af:
  %ebp.global-to-local = alloca i32, align 4
  %v0_46af = load i32, i32* %ebp.global-to-local, align 4
  %v1_46af = add i32 %v0_46af, -1185
  ret i32 %v1_46af
}

define i32 @function_4777() local_unnamed_addr {
dec_label_pc_4777:
  %eax.global-to-local = alloca i32, align 4
  %ebp.global-to-local = alloca i32, align 4
  %ebx.global-to-local = alloca i32, align 4
  %ecx.global-to-local = alloca i32, align 4
  %v0_4777 = load i32, i32* %eax.global-to-local, align 4
  %v1_4777 = load i32, i32* %ebp.global-to-local, align 4
  store i32 %v0_4777, i32* %ebp.global-to-local, align 4
  %v10_4778 = and i32 %v1_4777, or (i32 ptrtoint (i8* @global_var_ff.3305 to i32), i32 -256)
  store i32 %v10_4778, i32* %eax.global-to-local, align 4
  %v0_477a = load i32, i32* %ebx.global-to-local, align 4
  %v1_477a = add i32 %v0_477a, -507771
  %v2_477a = inttoptr i32 %v1_477a to i8*
  %v3_477a = load i8, i8* %v2_477a, align 1
  %v4_477a = load i32, i32* %ecx.global-to-local, align 4
  %v5_477a = trunc i32 %v4_477a to i8
  %v6_477a = add i8 %v5_477a, %v3_477a
  store i8 %v6_477a, i8* %v2_477a, align 1
  %v0_4780 = load i32, i32* %ebx.global-to-local, align 4
  %v1_4780 = add i32 %v0_4780, -506731
  %v2_4780 = inttoptr i32 %v1_4780 to i32*
  %v3_4780 = load i32, i32* %v2_4780, align 4
  %v4_4780 = sub i32 %v3_4780, ptrtoint (i8** @global_var_1.3274 to i32)
  store i32 %v4_4780, i32* %v2_4780, align 4
  %v0_4786 = load i32, i32* %eax.global-to-local, align 4
  ret i32 %v0_4786
}

define i32 @function_485d() local_unnamed_addr {
dec_label_pc_485d:
  %eax.global-to-local = alloca i32, align 4
  %ebx.global-to-local = alloca i32, align 4
  %ecx.global-to-local = alloca i32, align 4
  %v0_485d = load i32, i32* %ebx.global-to-local, align 4
  %v1_485d = add i32 %v0_485d, -507771
  %v2_485d = inttoptr i32 %v1_485d to i8*
  %v3_485d = load i8, i8* %v2_485d, align 1
  %v4_485d = load i32, i32* %ecx.global-to-local, align 4
  %v5_485d = trunc i32 %v4_485d to i8
  %v6_485d = add i8 %v5_485d, %v3_485d
  store i8 %v6_485d, i8* %v2_485d, align 1
  %v0_4863 = load i32, i32* %ebx.global-to-local, align 4
  %v1_4863 = add i32 %v0_4863, -506731
  %v2_4863 = inttoptr i32 %v1_4863 to i32*
  %v3_4863 = load i32, i32* %v2_4863, align 4
  %v4_4863 = sub i32 %v3_4863, ptrtoint (i8** @global_var_1.3274 to i32)
  store i32 %v4_4863, i32* %v2_4863, align 4
  %v0_4869 = load i32, i32* %eax.global-to-local, align 4
  ret i32 %v0_4869
}

define i32 @function_4875() local_unnamed_addr {
dec_label_pc_4875:
  %ebp.global-to-local = alloca i32, align 4
  %v0_4875 = load i32, i32* %ebp.global-to-local, align 4
  %v1_4875 = add i32 %v0_4875, -1179
  ret i32 %v1_4875
}

define i32 @function_48b7() local_unnamed_addr {
dec_label_pc_48b7:
  %v0_48b7 = load i32, i32* @ebp, align 4
  %v1_48b7 = add i32 %v0_48b7, -1175
  ret i32 %v1_48b7
}

define i32 @function_496a() local_unnamed_addr {
dec_label_pc_496a:
  %eax.global-to-local = alloca i32, align 4
  %v0_496a = load i32, i32* %eax.global-to-local, align 4
  ret i32 %v0_496a
}

define i32 @function_49e5() local_unnamed_addr {
dec_label_pc_49e5:
  %eax.global-to-local = alloca i32, align 4
  %v0_49e5 = load i32, i32* %eax.global-to-local, align 4
  ret i32 %v0_49e5
}

define i32 @function_4a95(i32 %arg1, i32 %arg2, i32 %arg3) local_unnamed_addr {
dec_label_pc_4a95:
  %tmp = load i32, i32* @eax, align 4
  ret i32 %tmp
}

define i32 @function_4bd6() local_unnamed_addr {
dec_label_pc_4bd6:
  %tmp = load i32, i32* @eax, align 4
  ret i32 %tmp
}

define i32 @function_4c66() local_unnamed_addr {
dec_label_pc_4c66:
  %eax.global-to-local = alloca i32, align 4
  %v0_4c66 = load i32, i32* %eax.global-to-local, align 4
  ret i32 %v0_4c66
}

define i32 @function_4c87() local_unnamed_addr {
dec_label_pc_4c87:
  %tmp = load i32, i32* @eax, align 4
  ret i32 %tmp
}

define i32 @function_4d7c() local_unnamed_addr {
dec_label_pc_4d7c:
  %tmp = load i32, i32* @eax, align 4
  ret i32 %tmp
}

define i32 @function_4ea0() local_unnamed_addr {
dec_label_pc_4ea0:
  %st0.global-to-local = alloca x86_fp80, align 4
  %v1_4ea0 = load x86_fp80, x86_fp80* %st0.global-to-local, align 4
  %v3_4ea0 = fsub x86_fp80 %v1_4ea0, %v1_4ea0
  store x86_fp80 %v3_4ea0, x86_fp80* %st0.global-to-local, align 4
  %v0_4ea2 = call i32 @function_c7ffffb4()
  ret i32 %v0_4ea2
}

define i32 @function_4f15() local_unnamed_addr {
dec_label_pc_4f15:
  %tmp = load i32, i32* @eax, align 4
  ret i32 %tmp
}

define i32 @function_4f48() local_unnamed_addr {
dec_label_pc_4f48:
  %eax.global-to-local = alloca i32, align 4
  %v0_4f48 = load i32, i32* %eax.global-to-local, align 4
  %v2_4f48 = add i32 %v0_4f48, 188
  %v2_4f4f = and i32 %v2_4f48, zext (i8 ptrtoint (i32* @global_var_e8.3284 to i8) to i32)
  %v2_4f75 = add nuw nsw i32 %v2_4f4f, 173
  %v16_4f75 = and i32 %v2_4f75, 253
  %v18_4f75 = and i32 %v0_4f48, -256
  %v19_4f75 = or i32 %v16_4f75, %v18_4f75
  store i32 %v19_4f75, i32* %eax.global-to-local, align 4
  ret i32 %v19_4f75

; uselistorder directives
  uselistorder i32 %v0_4f48, { 1, 0 }
}

define i32 @function_4fb8(i32 %arg1) local_unnamed_addr {
dec_label_pc_4fb8:
  %tmp = load i32, i32* @eax, align 4
  ret i32 %tmp
}

define i32 @function_502f() local_unnamed_addr {
dec_label_pc_502f:
  %tmp = load i32, i32* @eax, align 4
  ret i32 %tmp
}

define i32 @function_503d() local_unnamed_addr {
dec_label_pc_503d:
  %v0_503d = call i32 @function_52d7()
  ret i32 %v0_503d
}

define i32 @function_5078() local_unnamed_addr {
dec_label_pc_5078:
  %ebx.global-to-local = alloca i32, align 4
  %v0_5078 = load i32, i32* %ebx.global-to-local, align 4
  %v1_5080 = call i32 @function_4226(i32 %v0_5078)
  ret i32 %v1_5080
}

define i32 @function_5088() local_unnamed_addr {
dec_label_pc_5088:
  %v0_508f = call i32 @function_42f3()
  ret i32 %v0_508f
}

define i32 @function_50a8() local_unnamed_addr {
dec_label_pc_50a8:
  %tmp91 = call i32 @__decompiler_undefined_function_0()
  %v1_50a8 = add i32 %tmp91, -2208
  %v2_50a8 = inttoptr i32 %v1_50a8 to i32*
  %v3_50a8 = load i32, i32* %v2_50a8, align 4
  %v1_50ae = sub i32 %v3_50a8, ptrtoint (i32* @global_var_96.3308 to i32)
  ret i32 %v1_50ae
}

define i32 @function_50c0() local_unnamed_addr {
dec_label_pc_50c0:
  %ebp.global-to-local = alloca i32, align 4
  %v0_50c0 = load i32, i32* %ebp.global-to-local, align 4
  %v1_50c0 = add i32 %v0_50c0, -1211
  ret i32 %v1_50c0
}

define i32 @function_510f() local_unnamed_addr {
dec_label_pc_510f:
  %tmp94 = call i32 @__decompiler_undefined_function_0()
  %v4_5111 = trunc i32 %tmp94 to i8
  %v5_5111 = icmp eq i8 %v4_5111, 0
  br i1 %v5_5111, label %bb, label %dec_label_pc_5119

bb:                                               ; preds = %dec_label_pc_510f
  %v1_5113 = call i32 @function_4046()
  store i32 %v1_5113, i32* @eax, align 4
  br label %dec_label_pc_5119

dec_label_pc_5119:                                ; preds = %bb, %dec_label_pc_510f
  %v0_5119 = call i32 @function_3fd6()
  ret i32 %v0_5119
}

define i32 @function_51b4() local_unnamed_addr {
dec_label_pc_51b4:
  %v0_51b4 = call i32 @function_48b7()
  ret i32 %v0_51b4
}

define i32 @function_51c0() local_unnamed_addr {
dec_label_pc_51c0:
  %eax.global-to-local = alloca i32, align 4
  %tmp96 = load i32, i32* %eax.global-to-local, align 4
  ret i32 %tmp96
}

define i32 @function_525e() local_unnamed_addr {
dec_label_pc_525e:
  %v0_525e = call i32 @function_451c()
  ret i32 %v0_525e
}

define i32 @function_52c2() local_unnamed_addr {
dec_label_pc_52c2:
  %v0_52c2 = call i32 @function_c68a52c6()
  ret i32 %v0_52c2
}

define i32 @function_52d7() local_unnamed_addr {
dec_label_pc_52d7:
  %v3_52dd = load i32, i32* @eax, align 4
  ret i32 %v3_52dd
}

define i32 @function_52e5() local_unnamed_addr {
dec_label_pc_52e5:
  %tmp = load i32, i32* @eax, align 4
  ret i32 %tmp
}

define i32 @function_52f3() local_unnamed_addr {
dec_label_pc_52f3:
  %eax.global-to-local = alloca i32, align 4
  %v0_52f3 = load i32, i32* %eax.global-to-local, align 4
  ret i32 %v0_52f3
}

define i32 @function_52f8() local_unnamed_addr {
dec_label_pc_52f8:
  %ebp.global-to-local = alloca i32, align 4
  %ecx.global-to-local = alloca i32, align 4
  %edx.global-to-local = alloca i32, align 4
  %v0_52f8 = load i32, i32* %ecx.global-to-local, align 4
  %v0_52fc = load i32, i32* %edx.global-to-local, align 4
  %v0_5300 = load i32, i32* @eax, align 4
  %v1_5308 = icmp eq i32 %v0_5300, 0
  %v1_530a = zext i1 %v1_5308 to i8
  %v2_530a = load i32, i32* %ebp.global-to-local, align 4
  %v3_530a = add i32 %v2_530a, -2192
  %v4_530a = inttoptr i32 %v3_530a to i8*
  store i8 %v1_530a, i8* %v4_530a, align 1
  %v3_5311 = call i32 @function_4a95(i32 %v0_5300, i32 %v0_52fc, i32 %v0_52f8)
  ret i32 %v3_5311
}

define i32 @function_5335() local_unnamed_addr {
dec_label_pc_5335:
  %v0_5335 = call i32 @function_c68a5339()
  ret i32 %v0_5335
}

define i32 @function_5342() local_unnamed_addr {
dec_label_pc_5342:
  %v0_5342 = call i32 @function_52e5()
  ret i32 %v0_5342
}

define i32 @function_5400() local_unnamed_addr {
dec_label_pc_5400:
  %eax.global-to-local = alloca i32, align 4
  %tmp96 = load i32, i32* %eax.global-to-local, align 4
  ret i32 %tmp96
}

define i32 @function_548f() local_unnamed_addr {
dec_label_pc_548f:
  %tmp = load i32, i32* @eax, align 4
  ret i32 %tmp
}

define i32 @function_54a7() local_unnamed_addr {
dec_label_pc_54a7:
  %v0_54a7 = call i32 @function_52e5()
  ret i32 %v0_54a7

; uselistorder directives
  uselistorder i32 ()* @function_52e5, { 1, 0 }
}

define i32 @function_5506() local_unnamed_addr {
dec_label_pc_5506:
  %tmp = load i32, i32* @eax, align 4
  ret i32 %tmp
}

define i32 @function_55ce() local_unnamed_addr {
dec_label_pc_55ce:
  %tmp = load i32, i32* @eax, align 4
  ret i32 %tmp
}

define i32 @function_5631(i32 %arg1) local_unnamed_addr {
dec_label_pc_5631:
  %eax.global-to-local = alloca i32, align 4
  %esi.global-to-local = alloca i32, align 4
  %v12_5636 = and i32 %arg1, 1024
  %v22_5636 = icmp ne i32 %v12_5636, 0
  %v2_5637 = load i8, i8* bitcast (i32* @esi to i8*), align 4
  %v3_5637 = zext i8 %v2_5637 to i32
  %v4_5637 = load i32, i32* %eax.global-to-local, align 4
  %v5_5637 = and i32 %v4_5637, -256
  %v6_5637 = or i32 %v5_5637, %v3_5637
  store i32 %v6_5637, i32* %eax.global-to-local, align 4
  %v7_5637 = load i32, i32* %esi.global-to-local, align 4
  %v9_5637 = select i1 %v22_5636, i32 -1, i32 ptrtoint (i8** @global_var_1.3274 to i32)
  %v10_5637 = add i32 %v7_5637, %v9_5637
  store i32 %v10_5637, i32* %esi.global-to-local, align 4
  ret i32 %v6_5637
}

define i32 @function_568e() local_unnamed_addr {
dec_label_pc_568e:
  %v1_568e = call i32 @function_4fb8(i32 ptrtoint (i32* @0 to i32))
  ret i32 %v1_568e
}

define i32 @function_5693() local_unnamed_addr {
dec_label_pc_5693:
  %eax.global-to-local = alloca i32, align 4
  %v3_5697 = load i32, i32* %eax.global-to-local, align 4
  ret i32 %v3_5697
}

define i32 @function_5757() local_unnamed_addr {
dec_label_pc_5757:
  %eax.global-to-local = alloca i32, align 4
  %v0_5757 = load i32, i32* %eax.global-to-local, align 4
  ret i32 %v0_5757
}

define i32 @function_5765() local_unnamed_addr {
dec_label_pc_5765:
  %v0_5765 = call i32 @function_4c87()
  ret i32 %v0_5765
}

define i32 @function_5797() local_unnamed_addr {
dec_label_pc_5797:
  %cf.global-to-local = alloca i1, align 1
  %eax.global-to-local = alloca i32, align 4
  %ecx.global-to-local = alloca i32, align 4
  %edi.global-to-local = alloca i32, align 4
  %v0_5797 = load i32, i32* %ecx.global-to-local, align 4
  %v1_5797 = add i32 %v0_5797, -1980354105
  %v2_5797 = inttoptr i32 %v1_5797 to i32*
  %v3_5797 = load i32, i32* %v2_5797, align 4
  %v4_5797 = sub i32 %v3_5797, ptrtoint (i8** @global_var_1.3274 to i32)
  store i32 %v4_5797, i32* %v2_5797, align 4
  %v0_579d = load i32, i32* %eax.global-to-local, align 4
  %v2_579d = load i1, i1* %cf.global-to-local, align 1
  %v3_579d = zext i1 %v2_579d to i32
  %v4_579d = add i32 %v0_579d, 220
  %v5_579d = add i32 %v4_579d, %v3_579d
  %v31_579d = urem i32 %v5_579d, 256
  %v33_579d = and i32 %v0_579d, -256
  %v34_579d = or i32 %v31_579d, %v33_579d
  store i32 %v34_579d, i32* @eax, align 4
  %v0_57a4 = load i32, i32* %edi.global-to-local, align 4
  %v4_57a6 = trunc i32 %v0_57a4 to i8
  store i1 false, i1* %cf.global-to-local, align 1
  %v5_57a6 = icmp eq i8 %v4_57a6, 0
  br i1 %v5_57a6, label %bb, label %dec_label_pc_57ae

bb:                                               ; preds = %dec_label_pc_5797
  %v2_57a8 = call i32 @function_4fb8(i32 ptrtoint (i32* @0 to i32))
  store i32 %v2_57a8, i32* @eax, align 4
  br label %dec_label_pc_57ae

dec_label_pc_57ae:                                ; preds = %bb, %dec_label_pc_5797
  %v0_57ae = call i32 @function_5506()
  store i32 %v0_57ae, i32* %eax.global-to-local, align 4
  ret i32 %v0_57ae

; uselistorder directives
  uselistorder i32 %v0_579d, { 1, 0 }
}

define i32 @function_57b3() local_unnamed_addr {
dec_label_pc_57b3:
  %eax.global-to-local = alloca i32, align 4
  %tmp96 = load i32, i32* %eax.global-to-local, align 4
  ret i32 %tmp96
}

define i32 @function_5836() local_unnamed_addr {
dec_label_pc_5836:
  %v0_5836 = call i32 @function_502f()
  ret i32 %v0_5836
}

define i32 @function_58a4() local_unnamed_addr {
dec_label_pc_58a4:
  %ebp.global-to-local = alloca i32, align 4
  %tmp91 = call i32 @__decompiler_undefined_function_0()
  %v1_58a7 = add i32 %tmp91, -1788
  store i32 %v1_58a7, i32* @eax, align 4
  %v1_58ad = call i1 @InitError(i32 ptrtoint (i32* @0 to i32))
  %v0_58b4 = load i32, i32* %ebp.global-to-local, align 4
  %v1_58b4 = add i32 %v0_58b4, -1788
  store i32 %v1_58b4, i32* @eax, align 4
  %v0_58ba = call i32 @function_548f()
  ret i32 %v0_58ba
}

define i32 @function_5928() local_unnamed_addr {
dec_label_pc_5928:
  %ebp.global-to-local = alloca i32, align 4
  %tmp91 = call i32 @__decompiler_undefined_function_0()
  %v1_592b = add i32 %tmp91, -1768
  store i32 %v1_592b, i32* @eax, align 4
  %v1_5931 = call i1 @InitError(i32 ptrtoint (i32* @0 to i32))
  %v0_5938 = load i32, i32* %ebp.global-to-local, align 4
  %v1_5938 = add i32 %v0_5938, -1768
  store i32 %v1_5938, i32* @eax, align 4
  %v0_593e = call i32 @function_548f()
  ret i32 %v0_593e

; uselistorder directives
  uselistorder i32 ()* @function_548f, { 1, 0 }
}

define i32 @function_5968() local_unnamed_addr {
dec_label_pc_5968:
  %v0_5968 = call i32 @function_4d7c()
  ret i32 %v0_5968
}

define i32 @function_59ab() local_unnamed_addr {
dec_label_pc_59ab:
  %v0_59ab = call i32 @function_4bd6()
  ret i32 %v0_59ab
}

define i32 @function_59c4() local_unnamed_addr {
dec_label_pc_59c4:
  %eax.global-to-local = alloca i32, align 4
  %v0_59c4 = load i32, i32* %eax.global-to-local, align 4
  ret i32 %v0_59c4
}

define i32 @function_59d3() local_unnamed_addr {
dec_label_pc_59d3:
  %tmp = load i32, i32* @eax, align 4
  ret i32 %tmp
}

define i32 @function_59ee() local_unnamed_addr {
dec_label_pc_59ee:
  %eax.global-to-local = alloca i32, align 4
  %v0_59ee = load i32, i32* %eax.global-to-local, align 4
  ret i32 %v0_59ee
}

define i32 @function_5b41() local_unnamed_addr {
dec_label_pc_5b41:
  %eax.global-to-local = alloca i32, align 4
  %ecx.global-to-local = alloca i32, align 4
  %v0_5b41 = load i32, i32* @ebx, align 4
  %v1_5b41 = add i32 %v0_5b41, -410475
  %v2_5b41 = inttoptr i32 %v1_5b41 to i32*
  %v3_5b41 = load i32, i32* %v2_5b41, align 4
  %v4_5b41 = sub i32 %v3_5b41, ptrtoint (i8** @global_var_1.3274 to i32)
  store i32 %v4_5b41, i32* %v2_5b41, align 4
  %v0_5b47 = load i32, i32* @ebp, align 4
  %v1_5b47 = add i32 %v0_5b47, 813961170
  %v2_5b47 = inttoptr i32 %v1_5b47 to i32*
  %v3_5b47 = load i32, i32* %v2_5b47, align 4
  %v4_5b47 = add i32 %v3_5b47, 1
  store i32 %v4_5b47, i32* %v2_5b47, align 4
  %v0_5b4d = load i32, i32* %eax.global-to-local, align 4
  %v5_5b4d = mul i32 %v0_5b4d, 2
  %v20_5b4d = and i32 %v5_5b4d, 254
  %v22_5b4d = and i32 %v0_5b4d, -256
  %v23_5b4d = or i32 %v20_5b4d, %v22_5b4d
  store i32 %v23_5b4d, i32* %eax.global-to-local, align 4
  %v0_5b4f = load i32, i32* @ebp, align 4
  %v1_5b4f = add i32 %v0_5b4f, -410491
  %v2_5b4f = inttoptr i32 %v1_5b4f to i8*
  %v3_5b4f = load i8, i8* %v2_5b4f, align 1
  %v4_5b4f = load i32, i32* %ecx.global-to-local, align 4
  %v5_5b4f = trunc i32 %v4_5b4f to i8
  %v6_5b4f = add i8 %v5_5b4f, %v3_5b4f
  store i8 %v6_5b4f, i8* %v2_5b4f, align 1
  %v0_5b55 = load i32, i32* @ebp, align 4
  %v1_5b55 = add i32 %v0_5b55, -558963
  %v2_5b55 = inttoptr i32 %v1_5b55 to i32*
  %v3_5b55 = load i32, i32* %v2_5b55, align 4
  %v4_5b55 = sub i32 %v3_5b55, ptrtoint (i8** @global_var_1.3274 to i32)
  store i32 %v4_5b55, i32* %v2_5b55, align 4
  %v0_5b5b = load i32, i32* %ecx.global-to-local, align 4
  %v1_5b5b = add i32 %v0_5b5b, -1995955132
  %v2_5b5b = inttoptr i32 %v1_5b5b to i32*
  %v3_5b5b = load i32, i32* %v2_5b5b, align 4
  %v4_5b5b = inttoptr i32 %v3_5b5b to i8*
  %v6_5b5b = sub i32 %v3_5b5b, ptrtoint (i8** @global_var_1.3274 to i32)
  store i32 %v6_5b5b, i32* %v2_5b5b, align 4
  %v7_5b61 = icmp slt i8* %v4_5b5b, bitcast (i8** @global_var_1.3274 to i8*)
  br i1 %v7_5b61, label %dec_label_pc_5b87, label %dec_label_pc_5b63

dec_label_pc_5b63:                                ; preds = %dec_label_pc_5b41
  %v0_5b63 = load i32, i32* %eax.global-to-local, align 4
  %v2_5b63 = add i32 %v0_5b63, zext (i8 ptrtoint (i8* @global_var_89.3286 to i8) to i32)
  %v2_5b65 = and i32 %v2_5b63, 219
  %v10_5b65 = and i32 %v0_5b63, -256
  %v8_5b65 = or i32 %v2_5b65, %v10_5b65
  %v11_5b65 = or i32 %v8_5b65, 36
  store i32 %v11_5b65, i32* %eax.global-to-local, align 4
  %v0_5b67 = call i32 @_ZNSt8_Rb_treeI7NetworkS0_St9_IdentityIS0_ESt4lessIS0_ESaIS0_EE16_M_insert_uniqueERKS0_()
  store i32 %v0_5b67, i32* %eax.global-to-local, align 4
  %v0_5b6c = load i32, i32* @ebp, align 4
  %v1_5b6c = add i32 %v0_5b6c, -2188
  %v2_5b6c = inttoptr i32 %v1_5b6c to i32*
  %v3_5b6c = load i32, i32* %v2_5b6c, align 4
  store i32 %v3_5b6c, i32* %eax.global-to-local, align 4
  ret i32 %v3_5b6c

dec_label_pc_5b87:                                ; preds = %dec_label_pc_5b41
  %v0_5b87 = load i32, i32* @ebx, align 4
  %v1_5b87 = add i32 %v0_5b87, -550763
  %v2_5b87 = inttoptr i32 %v1_5b87 to i8*
  %v3_5b87 = load i8, i8* %v2_5b87, align 1
  %v4_5b87 = or i8 %v3_5b87, ptrtoint (i8* @global_var_ff.3305 to i8)
  store i8 %v4_5b87, i8* %v2_5b87, align 1
  store i32 0, i32* @ebx, align 4
  %v0_5b90 = load i32, i32* @edx, align 4
  %v1_5b90 = icmp eq i32 %v0_5b90, 0
  br i1 %v1_5b90, label %dec_label_pc_5b87.dec_label_pc_5bbe_crit_edge, label %dec_label_pc_5b94

dec_label_pc_5b87.dec_label_pc_5bbe_crit_edge:    ; preds = %dec_label_pc_5b87
  %v3_5bc6.pre = load i32, i32* %eax.global-to-local, align 4
  br label %dec_label_pc_5bbe

dec_label_pc_5b94:                                ; preds = %dec_label_pc_5b87
  store i32 %v0_5b90, i32* %eax.global-to-local, align 4
  %v0_5b96 = load i32, i32* @ebp, align 4
  %v1_5b96 = add i32 %v0_5b96, -2156
  store i32 %v1_5b96, i32* %ecx.global-to-local, align 4
  br label %dec_label_pc_5ba7

dec_label_pc_5b9e:                                ; preds = %dec_label_pc_5ba7
  store i32 %v0_5ba7, i32* %ecx.global-to-local, align 4
  %v1_5ba0 = add i32 %v0_5ba7, 8
  br label %dec_label_pc_5ba3

dec_label_pc_5ba3:                                ; preds = %dec_label_pc_5b9e, %dec_label_pc_5bac
  %v0_5bb9 = phi i32 [ %v0_5ba7, %dec_label_pc_5b9e ], [ %v0_5bb14, %dec_label_pc_5bac ]
  %storemerge.in.in = phi i32 [ %v1_5ba0, %dec_label_pc_5b9e ], [ %v1_5bac, %dec_label_pc_5bac ]
  %storemerge.in = inttoptr i32 %storemerge.in.in to i32*
  %storemerge = load i32, i32* %storemerge.in, align 4
  store i32 %storemerge, i32* %eax.global-to-local, align 4
  %v1_5ba3 = icmp eq i32 %storemerge, 0
  br i1 %v1_5ba3, label %dec_label_pc_5bb1, label %dec_label_pc_5ba7

dec_label_pc_5ba7:                                ; preds = %dec_label_pc_5ba3, %dec_label_pc_5b94
  %v0_5bb14 = phi i32 [ %v0_5bb9, %dec_label_pc_5ba3 ], [ %v1_5b96, %dec_label_pc_5b94 ]
  %v0_5ba7 = phi i32 [ %storemerge, %dec_label_pc_5ba3 ], [ %v0_5b90, %dec_label_pc_5b94 ]
  %v1_5ba7 = add i32 %v0_5ba7, 16
  %v2_5ba7 = inttoptr i32 %v1_5ba7 to i32*
  %v3_5ba7 = load i32, i32* %v2_5ba7, align 4
  %v5_5baa = icmp slt i32 %v3_5ba7, 0
  br i1 %v5_5baa, label %dec_label_pc_5bac, label %dec_label_pc_5b9e

dec_label_pc_5bac:                                ; preds = %dec_label_pc_5ba7
  %v1_5bac = add i32 %v0_5ba7, 12
  br label %dec_label_pc_5ba3

dec_label_pc_5bb1:                                ; preds = %dec_label_pc_5ba3
  %v2_5bb1 = add i32 %v0_5b96, -2200
  %v3_5bb1 = inttoptr i32 %v2_5bb1 to i32*
  %v4_5bb1 = load i32, i32* %v3_5bb1, align 4
  %v15_5bb1 = icmp eq i32 %v0_5bb9, %v4_5bb1
  br i1 %v15_5bb1, label %dec_label_pc_5bbe, label %dec_label_pc_5bb9

dec_label_pc_5bb9:                                ; preds = %dec_label_pc_5bb1
  %v1_5bb9 = add i32 %v0_5bb9, 16
  %v2_5bb9 = inttoptr i32 %v1_5bb9 to i32*
  %v3_5bb9 = load i32, i32* %v2_5bb9, align 4
  %v7_5bbc = icmp sgt i32 %v3_5bb9, 0
  br i1 %v7_5bbc, label %dec_label_pc_5bbe, label %bb

bb:                                               ; preds = %dec_label_pc_5bb9
  %v8_5bbc = call i32 @function_5bd1()
  store i32 %v8_5bbc, i32* %eax.global-to-local, align 4
  br label %dec_label_pc_5bbe

dec_label_pc_5bbe:                                ; preds = %dec_label_pc_5b87.dec_label_pc_5bbe_crit_edge, %dec_label_pc_5bb9, %bb, %dec_label_pc_5bb1
  %v3_5bc6 = phi i32 [ %v3_5bc6.pre, %dec_label_pc_5b87.dec_label_pc_5bbe_crit_edge ], [ 0, %dec_label_pc_5bb9 ], [ %v8_5bbc, %bb ], [ 0, %dec_label_pc_5bb1 ]
  ret i32 %v3_5bc6

; uselistorder directives
  uselistorder i32 %v0_5ba7, { 4, 1, 2, 3, 0 }
  uselistorder i32 %v0_5bb9, { 1, 0, 2 }
  uselistorder i32 %v0_5b63, { 1, 0 }
  uselistorder i32 %v3_5b5b, { 1, 0 }
  uselistorder i32 %v0_5b4d, { 1, 0 }
  uselistorder i32* %eax.global-to-local, { 0, 2, 1, 6, 3, 4, 5, 7, 8, 9 }
  uselistorder label %dec_label_pc_5bbe, { 2, 1, 3, 0 }
  uselistorder label %dec_label_pc_5ba3, { 1, 0 }
}

define i32 @function_5bd1() local_unnamed_addr {
dec_label_pc_5bd1:
  %v0_5bd1 = load i32, i32* @ebx, align 4
  %v1_5bd1 = add i32 %v0_5bd1, ptrtoint (i8** @global_var_1.3274 to i32)
  store i32 %v1_5bd1, i32* @ebx, align 4
  %v0_5bd9 = load i32, i32* @edx, align 4
  %v0_5bdd = load i32, i32* @edi, align 4
  %v2_5be0 = call i32 @_ZNSt8_Rb_treeI7NetworkS0_St9_IdentityIS0_ESt4lessIS0_ESaIS0_EE8_M_eraseEPSt13_Rb_tree_nodeIS0_E(i32 %v0_5bdd, i32 %v0_5bd9)
  ret i32 %v2_5be0
}

define i32 @function_5c9c() local_unnamed_addr {
dec_label_pc_5c9c:
  %eax.global-to-local = alloca i32, align 4
  %ebx.global-to-local = alloca i32, align 4
  %ecx.global-to-local = alloca i32, align 4
  %edi.global-to-local = alloca i32, align 4
  %edx.global-to-local = alloca i32, align 4
  %v0_5c9c = load i32, i32* %ebx.global-to-local, align 4
  %v1_5c9c = add i32 %v0_5c9c, -84859
  %v2_5c9c = inttoptr i32 %v1_5c9c to i32*
  %v3_5c9c = load i32, i32* %v2_5c9c, align 4
  %v4_5c9c = sub i32 %v3_5c9c, ptrtoint (i8** @global_var_1.3274 to i32)
  store i32 %v4_5c9c, i32* %v2_5c9c, align 4
  %v0_5ca2 = load i32, i32* %ecx.global-to-local, align 4
  %v1_5ca2 = add i32 %v0_5ca2, -89467
  %v2_5ca2 = inttoptr i32 %v1_5ca2 to i32*
  %v3_5ca2 = load i32, i32* %v2_5ca2, align 4
  %v4_5ca2 = sub i32 %v3_5ca2, ptrtoint (i8** @global_var_1.3274 to i32)
  store i32 %v4_5ca2, i32* %v2_5ca2, align 4
  %v0_5ca8 = load i32, i32* %ebx.global-to-local, align 4
  %v1_5ca8 = add i32 %v0_5ca8, -83835
  %v2_5ca8 = inttoptr i32 %v1_5ca8 to i32*
  %v3_5ca8 = load i32, i32* %v2_5ca8, align 4
  %v4_5ca8 = sub i32 %v3_5ca8, ptrtoint (i8** @global_var_1.3274 to i32)
  store i32 %v4_5ca8, i32* %v2_5ca8, align 4
  %v0_5cae = load i32, i32* %ecx.global-to-local, align 4
  %v1_5cae = add i32 %v0_5cae, -88443
  %v2_5cae = inttoptr i32 %v1_5cae to i32*
  %v3_5cae = load i32, i32* %v2_5cae, align 4
  %v4_5cae = sub i32 %v3_5cae, ptrtoint (i8** @global_var_1.3274 to i32)
  store i32 %v4_5cae, i32* %v2_5cae, align 4
  %v0_5cb4 = load i32, i32* %ebx.global-to-local, align 4
  %v1_5cb4 = add i32 %v0_5cb4, -82811
  %v2_5cb4 = inttoptr i32 %v1_5cb4 to i32*
  %v3_5cb4 = load i32, i32* %v2_5cb4, align 4
  %v4_5cb4 = sub i32 %v3_5cb4, ptrtoint (i8** @global_var_1.3274 to i32)
  store i32 %v4_5cb4, i32* %v2_5cb4, align 4
  %v0_5cba = load i32, i32* %ecx.global-to-local, align 4
  %v1_5cba = add i32 %v0_5cba, -87419
  %v2_5cba = inttoptr i32 %v1_5cba to i32*
  %v3_5cba = load i32, i32* %v2_5cba, align 4
  %v4_5cba = sub i32 %v3_5cba, ptrtoint (i8** @global_var_1.3274 to i32)
  store i32 %v4_5cba, i32* %v2_5cba, align 4
  %v2_5cc0 = load i32, i32* %edi.global-to-local, align 4
  %v3_5cc0 = sub i32 %v2_5cc0, ptrtoint (i8** @global_var_1.3274 to i32)
  %v18_5cc0 = inttoptr i32 %v2_5cc0 to i32*
  store i32 %v3_5cc0, i32* %v18_5cc0, align 4
  %v0_5cc2 = load i32, i32* %ebx.global-to-local, align 4
  %v1_5cc2 = and i32 %v0_5cc2, -65281
  %v2_5cc2 = or i32 %v1_5cc2, 34048
  store i32 %v2_5cc2, i32* %ebx.global-to-local, align 4
  %v11_5cc4 = load i32, i32* %edx.global-to-local, align 4
  %v13_5cc4 = and i32 %v11_5cc4, -65281
  store i32 %v13_5cc4, i32* %edx.global-to-local, align 4
  %v0_5cc7 = load i32, i32* %eax.global-to-local, align 4
  ret i32 %v0_5cc7
}

define i32 @function_5d63() local_unnamed_addr {
dec_label_pc_5d63:
  %tmp = load i32, i32* @eax, align 4
  ret i32 %tmp
}

define i32 @function_5d7b() local_unnamed_addr {
dec_label_pc_5d7b:
  %v1_5d7b = call i32 @function_4fb8(i32 ptrtoint (i32* @0 to i32))
  ret i32 %v1_5d7b
}

define i32 @function_5dec() local_unnamed_addr {
dec_label_pc_5dec:
  %eax.global-to-local = alloca i32, align 4
  %ecx.global-to-local = alloca i32, align 4
  %v0_5dec = load i32, i32* @ebx, align 4
  %v1_5dec = add i32 %v0_5dec, -550779
  %v2_5dec = inttoptr i32 %v1_5dec to i32*
  %v3_5dec = load i32, i32* %v2_5dec, align 4
  %v4_5dec = sub i32 %v3_5dec, ptrtoint (i8** @global_var_1.3274 to i32)
  store i32 %v4_5dec, i32* %v2_5dec, align 4
  %v0_5df2 = load i32, i32* %ecx.global-to-local, align 4
  %v1_5df2 = add i32 %v0_5df2, 1149838396
  %v2_5df2 = inttoptr i32 %v1_5df2 to i32*
  %v3_5df2 = load i32, i32* %v2_5df2, align 4
  %v4_5df2 = add i32 %v3_5df2, -1
  store i32 %v4_5df2, i32* %v2_5df2, align 4
  %v0_5df8 = load i32, i32* %eax.global-to-local, align 4
  %v11_5df8 = and i32 %v0_5df8, or (i32 zext (i8 ptrtoint (i16** @global_var_4.3276 to i8) to i32), i32 -256)
  store i32 %v11_5df8, i32* %eax.global-to-local, align 4
  %v2_5dfa = call i32 @_ZNSt8_Rb_treeI7NetworkS0_St9_IdentityIS0_ESt4lessIS0_ESaIS0_EE8_M_eraseEPSt13_Rb_tree_nodeIS0_E(i32 ptrtoint (i32* @0 to i32), i32 ptrtoint (i32* @0 to i32))
  store i32 %v2_5dfa, i32* @eax, align 4
  %v1_5dff = call i32 @function_4fb8(i32 ptrtoint (i32* @0 to i32))
  store i32 %v1_5dff, i32* %eax.global-to-local, align 4
  ret i32 %v1_5dff
}

define i32 @function_5e18() local_unnamed_addr {
dec_label_pc_5e18:
  %tmp = load i32, i32* @eax, align 4
  ret i32 %tmp
}

define i32 @function_5e8c() local_unnamed_addr {
dec_label_pc_5e8c:
  %eax.global-to-local = alloca i32, align 4
  %v0_5e8c = load i32, i32* %eax.global-to-local, align 4
  ret i32 %v0_5e8c
}

define i32 @function_5f0d() local_unnamed_addr {
dec_label_pc_5f0d:
  %eax.global-to-local = alloca i32, align 4
  %v0_5f0d = load i32, i32* %eax.global-to-local, align 4
  ret i32 %v0_5f0d
}

define i32 @function_5f63() local_unnamed_addr {
dec_label_pc_5f63:
  %eax.global-to-local = alloca i32, align 4
  %v0_5f63 = load i32, i32* %eax.global-to-local, align 4
  ret i32 %v0_5f63
}

define i32 @function_5f7b(i16 %arg1) local_unnamed_addr {
dec_label_pc_5f7b:
  %eax.global-to-local = alloca i32, align 4
  %v6_5f7b = load i32, i32* %eax.global-to-local, align 4
  ret i32 %v6_5f7b
}

define i32 @function_5f91() local_unnamed_addr {
dec_label_pc_5f91:
  %eax.global-to-local = alloca i32, align 4
  %v0_5f91 = load i32, i32* %eax.global-to-local, align 4
  ret i32 %v0_5f91
}

define i32 @function_5f99() local_unnamed_addr {
dec_label_pc_5f99:
  %tmp = load i32, i32* @eax, align 4
  ret i32 %tmp
}

define i32 @function_6011() local_unnamed_addr {
dec_label_pc_6011:
  %ebp.global-to-local = alloca i32, align 4
  %ebx.global-to-local = alloca i32, align 4
  %v0_6011 = load i32, i32* %ebx.global-to-local, align 4
  %v1_6011 = add i32 %v0_6011, -259455764
  %v2_6011 = inttoptr i32 %v1_6011 to i32*
  %v3_6011 = load i32, i32* %v2_6011, align 4
  %v4_6011 = add i32 %v3_6011, ptrtoint (i8** @global_var_1.3274 to i32)
  store i32 %v4_6011, i32* %v2_6011, align 4
  %v1_6017 = call i1 @InitError(i32 ptrtoint (i32* @0 to i32))
  %v0_601e = load i32, i32* %ebp.global-to-local, align 4
  %v1_601e = add i32 %v0_601e, -1540
  store i32 %v1_601e, i32* @eax, align 4
  %v0_6024 = call i32 @function_5d63()
  ret i32 %v0_6024
}

define i32 @function_6029() local_unnamed_addr {
dec_label_pc_6029:
  %ebp.global-to-local = alloca i32, align 4
  %v0_6029 = load i32, i32* %ebp.global-to-local, align 4
  %v1_6029 = add i32 %v0_6029, -1628
  %v3_603a = call i32 @_Z1_PKc(i32 %v1_6029, i32 ptrtoint ([35 x i8]* @global_var_c0a8.3311 to i32))
  %v0_6042 = load i32, i32* @ebx, align 4
  store i32 %v0_6042, i32* @eax, align 4
  %v1_6044 = call i1 @InitError(i32 %v1_6029)
  %v3_6044 = sext i1 %v1_6044 to i32
  store i32 %v3_6044, i32* @eax, align 4
  %v0_604b = load i32, i32* @ebx, align 4
  %v1_6053 = call i32 @function_4fb8(i32 %v0_604b)
  ret i32 %v1_6053
}

define i32 @function_60bf() local_unnamed_addr {
dec_label_pc_60bf:
  %v0_60bf = call i32 @function_55ce()
  ret i32 %v0_60bf
}

define i32 @function_60c6() local_unnamed_addr {
dec_label_pc_60c6:
  %eax.global-to-local = alloca i32, align 4
  %v0_60c6 = load i32, i32* %eax.global-to-local, align 4
  ret i32 %v0_60c6
}

define i32 @function_60e9(i16 %arg1) local_unnamed_addr {
dec_label_pc_60e9:
  %eax.global-to-local = alloca i32, align 4
  %v6_60e9 = load i32, i32* %eax.global-to-local, align 4
  ret i32 %v6_60e9
}

define i32 @function_6101() local_unnamed_addr {
dec_label_pc_6101:
  %eax.global-to-local = alloca i32, align 4
  %v0_6101 = load i32, i32* %eax.global-to-local, align 4
  ret i32 %v0_6101
}

define i32 @function_6286() local_unnamed_addr {
dec_label_pc_6286:
  %eax.global-to-local = alloca i32, align 4
  %v0_6286 = load i32, i32* %eax.global-to-local, align 4
  ret i32 %v0_6286
}

define i32 @function_62dd() local_unnamed_addr {
dec_label_pc_62dd:
  %eax.global-to-local = alloca i32, align 4
  %ecx.global-to-local = alloca i32, align 4
  %v2_62dd = load i32, i32* %ecx.global-to-local, align 4
  %v3_62dd = sub i32 %v2_62dd, ptrtoint (i8** @global_var_1.3274 to i32)
  %v18_62dd = inttoptr i32 %v2_62dd to i32*
  store i32 %v3_62dd, i32* %v18_62dd, align 4
  %v0_62df = load i32, i32* %eax.global-to-local, align 4
  ret i32 %v0_62df
}

define i32 @function_62f9() local_unnamed_addr {
dec_label_pc_62f9:
  %tmp = load i32, i32* @eax, align 4
  ret i32 %tmp
}

define i32 @function_63d9() local_unnamed_addr {
dec_label_pc_63d9:
  %eax.global-to-local = alloca i32, align 4
  %v0_63d9 = load i32, i32* %eax.global-to-local, align 4
  ret i32 %v0_63d9
}

define i32 @function_63ea() local_unnamed_addr {
dec_label_pc_63ea:
  %tmp91 = call i32 @__decompiler_undefined_function_0()
  ret i32 %tmp91
}

define i32 @function_6440() local_unnamed_addr {
dec_label_pc_6440:
  %eax.global-to-local = alloca i32, align 4
  %v0_6440 = load i32, i32* %eax.global-to-local, align 4
  %v11_6440 = and i32 %v0_6440, or (i32 zext (i8 ptrtoint (i8* @global_var_83.3312 to i8) to i32), i32 -256)
  store i32 %v11_6440, i32* %eax.global-to-local, align 4
  ret i32 %v11_6440

; uselistorder directives
  uselistorder i32 %v11_6440, { 1, 0 }
}

define i32 @function_64de() local_unnamed_addr {
dec_label_pc_64de:
  %eax.global-to-local = alloca i32, align 4
  %v0_64de = load i32, i32* %eax.global-to-local, align 4
  %v11_64de = and i32 %v0_64de, or (i32 zext (i8 ptrtoint (i8* @global_var_83.3312 to i8) to i32), i32 -256)
  store i32 %v11_64de, i32* %eax.global-to-local, align 4
  ret i32 %v11_64de

; uselistorder directives
  uselistorder i32 %v11_64de, { 1, 0 }
}

define i32 @function_65fb() local_unnamed_addr {
dec_label_pc_65fb:
  %tmp = load i32, i32* @eax, align 4
  ret i32 %tmp
}

define i32 @function_663f(i16 %arg1) local_unnamed_addr {
dec_label_pc_663f:
  %eax.global-to-local = alloca i32, align 4
  %v0_663f = load i32, i32* %eax.global-to-local, align 4
  %v11_663f = and i32 %v0_663f, or (i32 zext (i8 ptrtoint (i32* @global_var_e8.3284 to i8) to i32), i32 -256)
  store i32 %v11_663f, i32* %eax.global-to-local, align 4
  ret i32 %v11_663f

; uselistorder directives
  uselistorder i32 %v11_663f, { 1, 0 }
}

define i32 @function_6683() local_unnamed_addr {
dec_label_pc_6683:
  %tmp = load i32, i32* @eax, align 4
  ret i32 %tmp
}

define i32 @function_6694() local_unnamed_addr {
dec_label_pc_6694:
  %tmp = load i32, i32* @eax, align 4
  ret i32 %tmp
}

define i32 @function_66d4() local_unnamed_addr {
dec_label_pc_66d4:
  %eax.global-to-local = alloca i32, align 4
  %v0_66d4 = load i32, i32* %eax.global-to-local, align 4
  ret i32 %v0_66d4
}

define i32 @function_6752() local_unnamed_addr {
dec_label_pc_6752:
  %tmp = load i32, i32* @eax, align 4
  ret i32 %tmp
}

define i32 @function_6776() local_unnamed_addr {
dec_label_pc_6776:
  %tmp = load i32, i32* @eax, align 4
  ret i32 %tmp
}

define i32 @function_682f() local_unnamed_addr {
dec_label_pc_682f:
  %eax.global-to-local = alloca i32, align 4
  %v3_682f = load i32, i32* %eax.global-to-local, align 4
  ret i32 %v3_682f
}

define i32 @function_683c() local_unnamed_addr {
dec_label_pc_683c:
  %eax.global-to-local = alloca i32, align 4
  %v0_683c = load i32, i32* %eax.global-to-local, align 4
  ret i32 %v0_683c
}

define i32 @function_6875() local_unnamed_addr {
dec_label_pc_6875:
  %eax.global-to-local = alloca i32, align 4
  %v0_6875 = load i32, i32* %eax.global-to-local, align 4
  ret i32 %v0_6875
}

define i32 @function_68ae() local_unnamed_addr {
dec_label_pc_68ae:
  %eax.global-to-local = alloca i32, align 4
  %v0_68ae = load i32, i32* %eax.global-to-local, align 4
  ret i32 %v0_68ae
}

define i32 @function_68ec() local_unnamed_addr {
dec_label_pc_68ec:
  %eax.global-to-local = alloca i32, align 4
  %tmp96 = load i32, i32* %eax.global-to-local, align 4
  ret i32 %tmp96
}

define i32 @function_690f() local_unnamed_addr {
dec_label_pc_690f:
  %eax.global-to-local = alloca i32, align 4
  %tmp96 = load i32, i32* %eax.global-to-local, align 4
  ret i32 %tmp96
}

define i32 @function_694d() local_unnamed_addr {
dec_label_pc_694d:
  %tmp = load i32, i32* @eax, align 4
  ret i32 %tmp
}

define i32 @function_6955() local_unnamed_addr {
dec_label_pc_6955:
  %tmp = load i32, i32* @eax, align 4
  ret i32 %tmp
}

define i32 @function_698b() local_unnamed_addr {
dec_label_pc_698b:
  %eax.global-to-local = alloca i32, align 4
  %v0_698b = load i32, i32* %eax.global-to-local, align 4
  %v2_698b = add i32 %v0_698b, zext (i8 ptrtoint (i32* @global_var_80.3314 to i8) to i32)
  %v15_698b = and i32 %v2_698b, 255
  %v17_698b = and i32 %v0_698b, -256
  %v18_698b = or i32 %v15_698b, %v17_698b
  store i32 %v18_698b, i32* %eax.global-to-local, align 4
  ret i32 %v18_698b

; uselistorder directives
  uselistorder i32 %v0_698b, { 1, 0 }
}

define i32 @function_6a50() local_unnamed_addr {
dec_label_pc_6a50:
  %v0_6a50 = call i32 @function_6776()
  ret i32 %v0_6a50
}

define i32 @function_6b33() local_unnamed_addr {
dec_label_pc_6b33:
  %ebp.global-to-local = alloca i32, align 4
  %ebx.global-to-local = alloca i32, align 4
  %ecx.global-to-local = alloca i32, align 4
  %v0_6b33 = load i32, i32* %ebx.global-to-local, align 4
  %v1_6b33 = add i32 %v0_6b33, -563067
  %v2_6b33 = inttoptr i32 %v1_6b33 to i32*
  %v3_6b33 = load i32, i32* %v2_6b33, align 4
  %v4_6b33 = add i32 %v3_6b33, ptrtoint (i8** @global_var_1.3274 to i32)
  store i32 %v4_6b33, i32* %v2_6b33, align 4
  %v2_6b39 = load i32, i32* %ecx.global-to-local, align 4
  %v3_6b39 = add i32 %v2_6b39, ptrtoint (i8** @global_var_1.3274 to i32)
  %v18_6b39 = inttoptr i32 %v2_6b39 to i32*
  store i32 %v3_6b39, i32* %v18_6b39, align 4
  %v0_6b3b = load i32, i32* %ebp.global-to-local, align 4
  %v1_6b3b = add i32 %v0_6b3b, -2200
  %v2_6b3b = inttoptr i32 %v1_6b3b to i32*
  %v3_6b3b = load i32, i32* %v2_6b3b, align 4
  %v12_6b3b = icmp eq i32 %v3_6b3b, 10000
  br i1 %v12_6b3b, label %bb, label %dec_label_pc_6b4b

bb:                                               ; preds = %dec_label_pc_6b33
  %v1_6b45 = call i32 @function_6694()
  store i32 %v1_6b45, i32* @eax, align 4
  %v0_6b4b.pre = load i32, i32* %ebp.global-to-local, align 4
  br label %dec_label_pc_6b4b

dec_label_pc_6b4b:                                ; preds = %bb, %dec_label_pc_6b33
  %v0_6b4b = phi i32 [ %v0_6b4b.pre, %bb ], [ %v0_6b3b, %dec_label_pc_6b33 ]
  %v1_6b4b = add i32 %v0_6b4b, -2192
  %v2_6b4b = inttoptr i32 %v1_6b4b to i8*
  store i8 ptrtoint (i8** @global_var_1.3274 to i8), i8* %v2_6b4b, align 1
  %v0_6b52 = call i32 @function_65fb()
  ret i32 %v0_6b52

; uselistorder directives
  uselistorder i32* %ebp.global-to-local, { 1, 0 }
}

define i32 @function_6b9e() local_unnamed_addr {
dec_label_pc_6b9e:
  %tmp = load i32, i32* @eax, align 4
  ret i32 %tmp
}

define i32 @function_6bbe() local_unnamed_addr {
dec_label_pc_6bbe:
  %v1_6bbe = call i32 @function_4fb8(i32 ptrtoint (i32* @0 to i32))
  ret i32 %v1_6bbe
}

define i32 @function_6bc3() local_unnamed_addr {
dec_label_pc_6bc3:
  %eax.global-to-local = alloca i32, align 4
  %v3_6bc9 = load i32, i32* %eax.global-to-local, align 4
  ret i32 %v3_6bc9
}

define i32 @function_6bd1() local_unnamed_addr {
dec_label_pc_6bd1:
  %eax.global-to-local = alloca i32, align 4
  %v0_6bd1 = load i32, i32* %eax.global-to-local, align 4
  ret i32 %v0_6bd1
}

define i32 @function_6bd6() local_unnamed_addr {
dec_label_pc_6bd6:
  %ebp.global-to-local = alloca i32, align 4
  %v0_6bd6 = load i32, i32* %ebp.global-to-local, align 4
  %v1_6bd6 = add i32 %v0_6bd6, -1164
  ret i32 %v1_6bd6
}

define i32 @function_6c17() local_unnamed_addr {
dec_label_pc_6c17:
  %eax.global-to-local = alloca i32, align 4
  %v0_6c17 = load i32, i32* %eax.global-to-local, align 4
  ret i32 %v0_6c17
}

define i32 @function_6c1c() local_unnamed_addr {
dec_label_pc_6c1c:
  %ebp.global-to-local = alloca i32, align 4
  %v0_6c1c = load i32, i32* %ebp.global-to-local, align 4
  %v1_6c1c = add i32 %v0_6c1c, -1165
  ret i32 %v1_6c1c
}

define i32 @function_6c5b() local_unnamed_addr {
dec_label_pc_6c5b:
  %eax.global-to-local = alloca i32, align 4
  %edi.global-to-local = alloca i32, align 4
  %edx.global-to-local = alloca i32, align 4
  %tmp91 = call i32 @__decompiler_undefined_function_0()
  %v1_6c5b = add i32 %tmp91, 1887815360
  %v2_6c5b = inttoptr i32 %v1_6c5b to i32*
  %v3_6c5b = load i32, i32* %v2_6c5b, align 4
  %v4_6c5b = add i32 %v3_6c5b, 1
  store i32 %v4_6c5b, i32* %v2_6c5b, align 4
  %v0_6c61 = load i32, i32* %edi.global-to-local, align 4
  %v1_6c61 = load i32, i32* %eax.global-to-local, align 4
  %v2_6c61 = zext i32 %v1_6c61 to i64
  %v3_6c61 = load i32, i32* %edx.global-to-local, align 4
  %v4_6c61 = zext i32 %v3_6c61 to i64
  %v5_6c61 = shl i64 %v4_6c61, ptrtoint (i32* @global_var_20.3279 to i64)
  %v6_6c61 = or i64 %v5_6c61, %v2_6c61
  %v7_6c61 = zext i32 %v0_6c61 to i64
  %v8_6c61 = sdiv i64 %v6_6c61, %v7_6c61
  %v9_6c61 = trunc i64 %v8_6c61 to i32
  store i32 %v9_6c61, i32* %eax.global-to-local, align 4
  %v10_6c61 = srem i64 %v6_6c61, %v7_6c61
  %v11_6c61 = trunc i64 %v10_6c61 to i32
  store i32 %v11_6c61, i32* %edx.global-to-local, align 4
  %v1_6c63 = inttoptr i32 %v9_6c61 to i32*
  %v2_6c63 = load i32, i32* %v1_6c63, align 4
  %v3_6c63 = add i32 %v2_6c63, ptrtoint (i8** @global_var_1.3274 to i32)
  store i32 %v3_6c63, i32* %v1_6c63, align 4
  store i32 ptrtoint (i8** @global_var_1.3274 to i32), i32* %edi.global-to-local, align 4
  %v0_6c70 = load i32, i32* %eax.global-to-local, align 4
  ret i32 %v0_6c70
}

define i32 @function_6ca6() local_unnamed_addr {
dec_label_pc_6ca6:
  %v0_6ca6 = call i32 @function_694d()
  ret i32 %v0_6ca6
}

define i32 @function_6cab() local_unnamed_addr {
dec_label_pc_6cab:
  %tmp91 = call i32 @__decompiler_undefined_function_0()
  %v1_6cab = add i32 %tmp91, -2208
  %v2_6cab = inttoptr i32 %v1_6cab to i32*
  store i32 524288, i32* %v2_6cab, align 4
  %v0_6cba = call i32 @function_6752()
  ret i32 %v0_6cba
}

define i32 @function_6d10() local_unnamed_addr {
dec_label_pc_6d10:
  %eax.global-to-local = alloca i32, align 4
  %ebx.global-to-local = alloca i32, align 4
  %ecx.global-to-local = alloca i32, align 4
  %v0_6d10 = load i32, i32* %ebx.global-to-local, align 4
  %v1_6d10 = add i32 %v0_6d10, -76667
  %v2_6d10 = inttoptr i32 %v1_6d10 to i32*
  %v3_6d10 = load i32, i32* %v2_6d10, align 4
  %v4_6d10 = sub i32 %v3_6d10, ptrtoint (i8** @global_var_1.3274 to i32)
  store i32 %v4_6d10, i32* %v2_6d10, align 4
  %v0_6d16 = load i32, i32* %ecx.global-to-local, align 4
  %v1_6d16 = add i32 %v0_6d16, -2054609892
  %v2_6d16 = inttoptr i32 %v1_6d16 to i32*
  %v3_6d16 = load i32, i32* %v2_6d16, align 4
  %v4_6d16 = sub i32 %v3_6d16, ptrtoint (i8** @global_var_1.3274 to i32)
  store i32 %v4_6d16, i32* %v2_6d16, align 4
  %v0_6d1c = load i32, i32* %eax.global-to-local, align 4
  ret i32 %v0_6d1c
}

define i32 @function_6d34(i16 %arg1) local_unnamed_addr {
dec_label_pc_6d34:
  %eax.global-to-local = alloca i32, align 4
  %v6_6d34 = load i32, i32* %eax.global-to-local, align 4
  ret i32 %v6_6d34
}

define i32 @function_6d4a() local_unnamed_addr {
dec_label_pc_6d4a:
  %eax.global-to-local = alloca i32, align 4
  %v0_6d4a = load i32, i32* %eax.global-to-local, align 4
  ret i32 %v0_6d4a
}

define i32 @function_6d57() local_unnamed_addr {
dec_label_pc_6d57:
  %v0_6d57 = call i32 @function_5f99()
  ret i32 %v0_6d57
}

define i32 @function_6d98() local_unnamed_addr {
dec_label_pc_6d98:
  %ebx.global-to-local = alloca i32, align 4
  %v0_6d98 = load i32, i32* %ebx.global-to-local, align 4
  %v1_6d98 = add i32 %v0_6d98, -125238036
  %v2_6d98 = inttoptr i32 %v1_6d98 to i32*
  %v3_6d98 = load i32, i32* %v2_6d98, align 4
  %v4_6d98 = add i32 %v3_6d98, ptrtoint (i8** @global_var_1.3274 to i32)
  store i32 %v4_6d98, i32* %v2_6d98, align 4
  %v1_6d9e = call i1 @InitError(i32 ptrtoint (i32* @0 to i32))
  %v3_6d9e = sext i1 %v1_6d9e to i32
  store i32 %v3_6d9e, i32* @eax, align 4
  %v0_6da3 = call i32 @function_6b9e()
  ret i32 %v0_6da3
}

define i32 @function_6e0f() local_unnamed_addr {
dec_label_pc_6e0f:
  %eax.global-to-local = alloca i32, align 4
  %v0_6e0f = load i32, i32* %eax.global-to-local, align 4
  %v2_6e0f = add i32 %v0_6e0f, zext (i8 ptrtoint (i32* @global_var_18.3278 to i8) to i32)
  %v16_6e0f = and i32 %v2_6e0f, 255
  %v18_6e0f = and i32 %v0_6e0f, -256
  %v19_6e0f = or i32 %v16_6e0f, %v18_6e0f
  store i32 %v19_6e0f, i32* %eax.global-to-local, align 4
  ret i32 %v19_6e0f

; uselistorder directives
  uselistorder i32 %v0_6e0f, { 1, 0 }
}

define i32 @function_6e37() local_unnamed_addr {
dec_label_pc_6e37:
  %v0_6e37 = call i32 @function_694d()
  ret i32 %v0_6e37
}

define i32 @function_6e9e() local_unnamed_addr {
dec_label_pc_6e9e:
  %ebx.global-to-local = alloca i32, align 4
  %v0_6e9e = load i32, i32* %ebx.global-to-local, align 4
  store i32 %v0_6e9e, i32* @edx, align 4
  %v2_6ea2 = call i1 @Bind(i32 ptrtoint (i32* @0 to i32), i32 ptrtoint (i32* @0 to i32))
  %v4_6ea2 = sext i1 %v2_6ea2 to i32
  store i32 %v4_6ea2, i32* @eax, align 4
  %v1_6ea9 = load i32, i32* @edi, align 4
  %v2_6ea9 = or i32 %v1_6ea9, %v4_6ea2
  store i32 %v2_6ea9, i32* %ebx.global-to-local, align 4
  %v0_6eab = call i32 @function_62f9()
  ret i32 %v0_6eab
}

define i32 @function_6eb0(i32 %arg1) local_unnamed_addr {
dec_label_pc_6eb0:
  %tmp = load i32, i32* @eax, align 4
  ret i32 %tmp
}

define i32 @function_6ef4() local_unnamed_addr {
dec_label_pc_6ef4:
  %eax.global-to-local = alloca i32, align 4
  %v0_6ef4 = load i32, i32* %eax.global-to-local, align 4
  ret i32 %v0_6ef4
}

define i32 @function_6eff() local_unnamed_addr {
dec_label_pc_6eff:
  %v0_6eff = call i32 @function_5e18()
  ret i32 %v0_6eff
}

define i32 @function_6f04() local_unnamed_addr {
dec_label_pc_6f04:
  %tmp = load i32, i32* @eax, align 4
  ret i32 %tmp
}

define i32 @function_6f10() local_unnamed_addr {
dec_label_pc_6f10:
  %v0_6f10 = load i32, i32* @eax, align 4
  ret i32 %v0_6f10
}

define i32 @function_6f20() local_unnamed_addr {
dec_label_pc_6f20:
  %tmp = load i32, i32* @eax, align 4
  ret i32 %tmp
}

define i32 @function_6f2e() local_unnamed_addr {
dec_label_pc_6f2e:
  %tmp = load i32, i32* @eax, align 4
  ret i32 %tmp
}

define i32 @function_6f3c() local_unnamed_addr {
dec_label_pc_6f3c:
  %tmp = load i32, i32* @eax, align 4
  ret i32 %tmp
}

define i32 @function_6f52() local_unnamed_addr {
dec_label_pc_6f52:
  %tmp = load i32, i32* @eax, align 4
  ret i32 %tmp
}

define i32 @function_6f5e() local_unnamed_addr {
dec_label_pc_6f5e:
  %tmp = load i32, i32* @eax, align 4
  ret i32 %tmp
}

define i32 @function_6f66() local_unnamed_addr {
dec_label_pc_6f66:
  %v0_6f66 = call i32 @function_6f2e()
  ret i32 %v0_6f66
}

define i32 @function_6f68() local_unnamed_addr {
dec_label_pc_6f68:
  %v0_6f6a = call i32 @function_6f5e()
  ret i32 %v0_6f6a
}

define i32 @function_6f6c() local_unnamed_addr {
dec_label_pc_6f6c:
  %v0_6f70 = call i32 @function_6f20()
  ret i32 %v0_6f70
}

define i32 @function_6f72() local_unnamed_addr {
dec_label_pc_6f72:
  %tmp = load i32, i32* @eax, align 4
  ret i32 %tmp
}

define i32 @function_6f74() local_unnamed_addr {
dec_label_pc_6f74:
  %tmp = load i32, i32* @eax, align 4
  ret i32 %tmp
}

define i32 @function_6f7e() local_unnamed_addr {
dec_label_pc_6f7e:
  %eax.global-to-local = alloca i32, align 4
  %v0_6f7e = load i32, i32* %eax.global-to-local, align 4
  ret i32 %v0_6f7e
}

define i32 @function_6f80() local_unnamed_addr {
dec_label_pc_6f80:
  %tmp = load i32, i32* @eax, align 4
  ret i32 %tmp
}

define i32 @function_6f81() local_unnamed_addr {
dec_label_pc_6f81:
  %eax.global-to-local = alloca i32, align 4
  %v0_6f81 = load i32, i32* %eax.global-to-local, align 4
  ret i32 %v0_6f81
}

define i32 @function_6f82() local_unnamed_addr {
dec_label_pc_6f82:
  %tmp = load i32, i32* @eax, align 4
  ret i32 %tmp
}

define i32 @function_6f90() local_unnamed_addr {
dec_label_pc_6f90:
  %eax.global-to-local = alloca i32, align 4
  %v0_6f90 = load i32, i32* %eax.global-to-local, align 4
  ret i32 %v0_6f90
}

define i32 @function_6f92() local_unnamed_addr {
dec_label_pc_6f92:
  %tmp = load i32, i32* @eax, align 4
  ret i32 %tmp
}

define i32 @function_6f93() local_unnamed_addr {
dec_label_pc_6f93:
  %eax.global-to-local = alloca i32, align 4
  %v0_6f93 = load i32, i32* %eax.global-to-local, align 4
  ret i32 %v0_6f93
}

define i32 @function_6f9c() local_unnamed_addr {
dec_label_pc_6f9c:
  %v0_6f9c = call i32 @function_6f82()
  ret i32 %v0_6f9c
}

define i32 @function_6fa0() local_unnamed_addr {
dec_label_pc_6fa0:
  %v0_6fa0 = call i32 @function_6f80()
  ret i32 %v0_6fa0
}

define i32 @function_6fa2() local_unnamed_addr {
dec_label_pc_6fa2:
  %v0_6fa2 = call i32 @function_6f72()
  ret i32 %v0_6fa2
}

define i32 @function_6fa4() local_unnamed_addr {
dec_label_pc_6fa4:
  %tmp = load i32, i32* @eax, align 4
  ret i32 %tmp
}

define i32 @function_6fae() local_unnamed_addr {
dec_label_pc_6fae:
  %v0_6fb0 = call i32 @function_6f72()
  ret i32 %v0_6fb0
}

define i32 @function_6fb2() local_unnamed_addr {
dec_label_pc_6fb2:
  %v0_6fb8 = call i32 @function_6f72()
  ret i32 %v0_6fb8
}

define i32 @function_6fba() local_unnamed_addr {
dec_label_pc_6fba:
  %v0_6fc2 = call i32 @function_6f74()
  ret i32 %v0_6fc2
}

define i32 @function_6fc4() local_unnamed_addr {
dec_label_pc_6fc4:
  %v0_6fc4 = call i32 @function_6f04()
  ret i32 %v0_6fc4
}

define i32 @function_6fe5() local_unnamed_addr {
dec_label_pc_6fe5:
  %tmp = load i32, i32* @eax, align 4
  ret i32 %tmp
}

define i32 @function_6fe6() local_unnamed_addr {
dec_label_pc_6fe6:
  %eax.global-to-local = alloca i32, align 4
  %ebx.global-to-local = alloca i32, align 4
  %edx.global-to-local = alloca i32, align 4
  %esi.global-to-local = alloca i32, align 4
  %v0_6fe7 = load i32, i32* %edx.global-to-local, align 4
  %v1_6fe7 = lshr i32 %v0_6fe7, ptrtoint (i8** @global_var_8.3277 to i32)
  %v2_6fe7 = trunc i32 %v1_6fe7 to i8
  %v3_6fe7 = load i32, i32* %ebx.global-to-local, align 4
  %v4_6fe7 = load i32, i32* %esi.global-to-local, align 4
  %v5_6fe7 = mul i32 %v4_6fe7, ptrtoint (i8** @global_var_1.3274 to i32)
  %v6_6fe7 = add i32 %v3_6fe7, -119
  %v7_6fe7 = add i32 %v6_6fe7, %v5_6fe7
  %v8_6fe7 = inttoptr i32 %v7_6fe7 to i8*
  %v9_6fe7 = load i8, i8* %v8_6fe7, align 1
  %v10_6fe7 = add i8 %v9_6fe7, %v2_6fe7
  %v25_6fe7 = zext i8 %v10_6fe7 to i32
  %v27_6fe7 = mul nuw nsw i32 %v25_6fe7, 256
  %v28_6fe7 = and i32 %v0_6fe7, -65281
  %v29_6fe7 = or i32 %v27_6fe7, %v28_6fe7
  store i32 %v29_6fe7, i32* %edx.global-to-local, align 4
  %v0_6feb = load i32, i32* %eax.global-to-local, align 4
  ret i32 %v0_6feb
}

define i32 @function_6fec() local_unnamed_addr {
dec_label_pc_6fec:
  %tmp = load i32, i32* @eax, align 4
  ret i32 %tmp
}

define i32 @function_6ffa() local_unnamed_addr {
dec_label_pc_6ffa:
  %v0_6ffa = call i32 @function_6f82()
  ret i32 %v0_6ffa
}

define i32 @function_700b() local_unnamed_addr {
dec_label_pc_700b:
  %tmp91 = call i32 @__decompiler_undefined_function_0()
  %v1_700f = add i32 %tmp91, -1660
  %v2_7015 = add i32 %tmp91, -2188
  %v3_7015 = inttoptr i32 %v2_7015 to i32*
  store i32 %v1_700f, i32* %v3_7015, align 4
  %v0_701b = call i32 @function_6fe5()
  ret i32 %v0_701b

; uselistorder directives
  uselistorder i32 %tmp91, { 1, 0 }
}

define i32 @function_7067() local_unnamed_addr {
dec_label_pc_7067:
  %v0_7067 = call i32 @function_6955()
  ret i32 %v0_7067
}

define i32 @function_7078() local_unnamed_addr {
dec_label_pc_7078:
  %tmp91 = call i32 @__decompiler_undefined_function_0()
  %v1_7078 = add i32 %tmp91, -1660
  %v2_7082 = add i32 %tmp91, -2188
  %v3_7082 = inttoptr i32 %v2_7082 to i32*
  store i32 %v1_7078, i32* %v3_7082, align 4
  %v0_7088 = call i32 @function_6fe5()
  ret i32 %v0_7088

; uselistorder directives
  uselistorder i32 %tmp91, { 1, 0 }
}

define i32 @function_708d() local_unnamed_addr {
dec_label_pc_708d:
  %tmp91 = call i32 @__decompiler_undefined_function_0()
  %v1_708d = add i32 %tmp91, -1660
  %v2_7093 = add i32 %tmp91, -2188
  %v3_7093 = inttoptr i32 %v2_7093 to i32*
  store i32 %v1_708d, i32* %v3_7093, align 4
  %v0_7099 = call i32 @function_6fe5()
  ret i32 %v0_7099

; uselistorder directives
  uselistorder i32 %tmp91, { 1, 0 }
}

define i32 @function_70a5() local_unnamed_addr {
dec_label_pc_70a5:
  %eax.global-to-local = alloca i32, align 4
  %v0_70a5 = load i32, i32* %eax.global-to-local, align 4
  ret i32 %v0_70a5
}

define i32 @function_70ae() local_unnamed_addr {
dec_label_pc_70ae:
  %tmp = load i32, i32* @eax, align 4
  ret i32 %tmp
}

define i32 @function_70b3() local_unnamed_addr {
dec_label_pc_70b3:
  %v0_70b3 = call i32 @function_6fec()
  ret i32 %v0_70b3
}

define i32 @function_70b8() local_unnamed_addr {
dec_label_pc_70b8:
  %v0_70c0 = call i32 @function_70ae()
  ret i32 %v0_70c0
}

define i32 @function_70c3() local_unnamed_addr {
dec_label_pc_70c3:
  %eax.global-to-local = alloca i32, align 4
  %v0_70c3 = load i32, i32* %eax.global-to-local, align 4
  ret i32 %v0_70c3
}

define i32 @function_70d2() local_unnamed_addr {
dec_label_pc_70d2:
  %tmp91 = call i32 @__decompiler_undefined_function_0()
  %v1_70d2 = add i32 %tmp91, -1660
  %v2_70d8 = add i32 %tmp91, -2188
  %v3_70d8 = inttoptr i32 %v2_70d8 to i32*
  store i32 %v1_70d2, i32* %v3_70d8, align 4
  %v0_70de = call i32 @function_6fec()
  ret i32 %v0_70de

; uselistorder directives
  uselistorder i32 %tmp91, { 1, 0 }
}

define i32 @function_70e3() local_unnamed_addr {
dec_label_pc_70e3:
  %eax.global-to-local = alloca i32, align 4
  %v0_70e3 = load i32, i32* %eax.global-to-local, align 4
  ret i32 %v0_70e3
}

define i32 @function_70e8() local_unnamed_addr {
dec_label_pc_70e8:
  %tmp = load i32, i32* @eax, align 4
  ret i32 %tmp
}

define i32 @function_70e9() local_unnamed_addr {
dec_label_pc_70e9:
  %eax.global-to-local = alloca i32, align 4
  %v0_70e9 = load i32, i32* %eax.global-to-local, align 4
  ret i32 %v0_70e9
}

define i32 @function_70f2() local_unnamed_addr {
dec_label_pc_70f2:
  %ebx.global-to-local = alloca i32, align 4
  %v0_70f2 = load i32, i32* %ebx.global-to-local, align 4
  store i32 %v0_70f2, i32* @eax, align 4
  %v0_70f4 = call i32 @function_6f80()
  ret i32 %v0_70f4
}

define i32 @function_70f9() local_unnamed_addr {
dec_label_pc_70f9:
  %tmp = load i32, i32* @eax, align 4
  ret i32 %tmp
}

define i32 @function_7105() local_unnamed_addr {
dec_label_pc_7105:
  %v0_7109 = call i32 @function_6fe5()
  ret i32 %v0_7109
}

define i32 @function_710e() local_unnamed_addr {
dec_label_pc_710e:
  %v0_710e = call i32 @function_6f10()
  ret i32 %v0_710e
}

define i32 @function_7113() local_unnamed_addr {
dec_label_pc_7113:
  %v0_7113 = call i32 @function_6f04()
  ret i32 %v0_7113
}

define i32 @function_7120() local_unnamed_addr {
dec_label_pc_7120:
  %v0_7120 = call i32 @function_6f10()
  ret i32 %v0_7120
}

define i32 @function_7130() local_unnamed_addr {
dec_label_pc_7130:
  %v0_7130 = call i32 @function_6f04()
  ret i32 %v0_7130
}

define i32 @function_7136() local_unnamed_addr {
dec_label_pc_7136:
  %eax.global-to-local = alloca i32, align 4
  %v0_7136 = load i32, i32* %eax.global-to-local, align 4
  ret i32 %v0_7136
}

define i32 @function_7145() local_unnamed_addr {
dec_label_pc_7145:
  %tmp = load i32, i32* @eax, align 4
  ret i32 %tmp
}

define i32 @function_714d() local_unnamed_addr {
dec_label_pc_714d:
  %v0_714d = call i32 @function_6f82()
  ret i32 %v0_714d
}

define i32 @function_7152() local_unnamed_addr {
dec_label_pc_7152:
  %v0_7154 = call i32 @function_7145()
  ret i32 %v0_7154
}

define i32 @function_7156() local_unnamed_addr {
dec_label_pc_7156:
  %tmp = load i32, i32* @eax, align 4
  ret i32 %tmp
}

define i32 @function_7158() local_unnamed_addr {
dec_label_pc_7158:
  %tmp = load i32, i32* @eax, align 4
  ret i32 %tmp
}

define i32 @function_7162() local_unnamed_addr {
dec_label_pc_7162:
  %v0_7162 = call i32 @function_6f82()
  ret i32 %v0_7162
}

define i32 @function_7169() local_unnamed_addr {
dec_label_pc_7169:
  %eax.global-to-local = alloca i32, align 4
  %v0_7169 = load i32, i32* %eax.global-to-local, align 4
  %v11_7169 = and i32 %v0_7169, -80
  store i32 %v11_7169, i32* %eax.global-to-local, align 4
  ret i32 %v11_7169

; uselistorder directives
  uselistorder i32 %v11_7169, { 1, 0 }
}

define i32 @function_7175() local_unnamed_addr {
dec_label_pc_7175:
  %tmp = load i32, i32* @eax, align 4
  ret i32 %tmp
}

define i32 @function_7183() local_unnamed_addr {
dec_label_pc_7183:
  %v0_7183 = load i32, i32* @ebp, align 4
  %v1_7183 = add i32 %v0_7183, -1472
  ret i32 %v1_7183
}

define i32 @function_7191() local_unnamed_addr {
dec_label_pc_7191:
  %v1_7191 = call i32 @function_4fb8(i32 ptrtoint (i32* @0 to i32))
  ret i32 %v1_7191

; uselistorder directives
  uselistorder i32 (i32)* @function_4fb8, { 6, 5, 4, 3, 2, 1, 0 }
}

define i32 @function_71ab() local_unnamed_addr {
dec_label_pc_71ab:
  %eax.global-to-local = alloca i32, align 4
  %v0_71ab = load i32, i32* %eax.global-to-local, align 4
  ret i32 %v0_71ab
}

define i32 @function_71ac() local_unnamed_addr {
dec_label_pc_71ac:
  %tmp = load i32, i32* @eax, align 4
  ret i32 %tmp
}

define i32 @function_71b4() local_unnamed_addr {
dec_label_pc_71b4:
  %tmp = load i32, i32* @eax, align 4
  ret i32 %tmp
}

define i32 @function_71bc() local_unnamed_addr {
dec_label_pc_71bc:
  %tmp = load i32, i32* @eax, align 4
  ret i32 %tmp
}

define i32 @function_71ca() local_unnamed_addr {
dec_label_pc_71ca:
  %v0_71ca = call i32 @function_6fec()
  ret i32 %v0_71ca

; uselistorder directives
  uselistorder i32 ()* @function_6fec, { 2, 1, 0 }
}

define i32 @function_71cf() local_unnamed_addr {
dec_label_pc_71cf:
  %v0_71d1 = call i32 @function_71ac()
  ret i32 %v0_71d1
}

define i32 @function_71d3() local_unnamed_addr {
dec_label_pc_71d3:
  %v0_71d5 = call i32 @function_71b4()
  ret i32 %v0_71d5
}

define i32 @function_71d7() local_unnamed_addr {
dec_label_pc_71d7:
  %v0_71d9 = call i32 @function_71bc()
  ret i32 %v0_71d9
}

define i32 @function_71e0() local_unnamed_addr {
dec_label_pc_71e0:
  %eax.global-to-local = alloca i32, align 4
  %v0_71e0 = load i32, i32* %eax.global-to-local, align 4
  ret i32 %v0_71e0
}

define i32 @function_71e5() local_unnamed_addr {
dec_label_pc_71e5:
  %tmp91 = call i32 @__decompiler_undefined_function_0()
  %v1_71e5 = add i32 %tmp91, -2188
  %v2_71e5 = inttoptr i32 %v1_71e5 to i32*
  %v3_71e5 = load i32, i32* %v2_71e5, align 4
  store i32 %v3_71e5, i32* @eax, align 4
  %v1_71eb = call i1 @InitError(i32 ptrtoint (i32* @0 to i32))
  %v3_71eb = sext i1 %v1_71eb to i32
  store i32 %v3_71eb, i32* @eax, align 4
  %v0_71f2 = call i32 @function_7175()
  ret i32 %v0_71f2
}

define i32 @function_71fe() local_unnamed_addr {
dec_label_pc_71fe:
  %tmp = load i32, i32* @eax, align 4
  ret i32 %tmp
}

define i32 @function_7208() local_unnamed_addr {
dec_label_pc_7208:
  %tmp = load i32, i32* @eax, align 4
  ret i32 %tmp
}

define i32 @function_7216() local_unnamed_addr {
dec_label_pc_7216:
  %eax.global-to-local = alloca i32, align 4
  %v0_7216 = load i32, i32* %eax.global-to-local, align 4
  ret i32 %v0_7216
}

define i32 @function_721b() local_unnamed_addr {
dec_label_pc_721b:
  %v0_721d = call i32 @function_71fe()
  ret i32 %v0_721d
}

define i32 @function_721f() local_unnamed_addr {
dec_label_pc_721f:
  %eax.global-to-local = alloca i32, align 4
  %tmp96 = load i32, i32* %eax.global-to-local, align 4
  ret i32 %tmp96
}

define i32 @function_723a(i16 %arg1) local_unnamed_addr {
dec_label_pc_723a:
  %eax.global-to-local = alloca i32, align 4
  %v6_723a = load i32, i32* %eax.global-to-local, align 4
  ret i32 %v6_723a
}

define i32 @function_724d() local_unnamed_addr {
dec_label_pc_724d:
  %tmp91 = call i32 @__decompiler_undefined_function_0()
  %v2_724d = add i32 %tmp91, -2188
  %v3_724d = inttoptr i32 %v2_724d to i32*
  %v0_7253 = call i32 @function_7175()
  ret i32 %v0_7253

; uselistorder directives
  uselistorder i32 ()* @function_7175, { 1, 0 }
}

define i32 @function_7258() local_unnamed_addr {
dec_label_pc_7258:
  %v0_7258 = call i32 @function_6f10()
  ret i32 %v0_7258
}

define i32 @function_7269() local_unnamed_addr {
dec_label_pc_7269:
  %tmp91 = call i32 @__decompiler_undefined_function_0()
  %v1_7269 = add i32 %tmp91, -1660
  %v2_7273 = add i32 %tmp91, -2188
  %v3_7273 = inttoptr i32 %v2_7273 to i32*
  store i32 %v1_7269, i32* %v3_7273, align 4
  %v0_7279 = call i32 @function_6fe5()
  ret i32 %v0_7279

; uselistorder directives
  uselistorder i32 %tmp91, { 1, 0 }
}

define i32 @function_7288() local_unnamed_addr {
dec_label_pc_7288:
  %v0_728a = call i32 @function_6f6c()
  ret i32 %v0_728a
}

define i32 @function_728f() local_unnamed_addr {
dec_label_pc_728f:
  %tmp = load i32, i32* @eax, align 4
  ret i32 %tmp
}

define i32 @function_729b() local_unnamed_addr {
dec_label_pc_729b:
  %v0_729b = call i32 @function_6f20()
  ret i32 %v0_729b
}

define i32 @function_72a2() local_unnamed_addr {
dec_label_pc_72a2:
  %tmp = load i32, i32* @eax, align 4
  ret i32 %tmp
}

define i32 @function_72b1() local_unnamed_addr {
dec_label_pc_72b1:
  %eax.global-to-local = alloca i32, align 4
  %ecx.global-to-local = alloca i32, align 4
  %v0_72b1 = load i32, i32* @ebx, align 4
  %v1_72b1 = add i32 %v0_72b1, -550779
  %v2_72b1 = inttoptr i32 %v1_72b1 to i32*
  %v3_72b1 = load i32, i32* %v2_72b1, align 4
  %v4_72b1 = sub i32 %v3_72b1, ptrtoint (i8** @global_var_1.3274 to i32)
  store i32 %v4_72b1, i32* %v2_72b1, align 4
  %v0_72b7 = load i32, i32* %ecx.global-to-local, align 4
  %v1_72b7 = add i32 %v0_72b7, 1149838396
  %v2_72b7 = inttoptr i32 %v1_72b7 to i32*
  %v3_72b7 = load i32, i32* %v2_72b7, align 4
  %v4_72b7 = add i32 %v3_72b7, -1
  store i32 %v4_72b7, i32* %v2_72b7, align 4
  %v0_72bd = load i32, i32* %eax.global-to-local, align 4
  %v11_72bd = and i32 %v0_72bd, or (i32 zext (i8 ptrtoint (i16** @global_var_4.3276 to i8) to i32), i32 -256)
  store i32 %v11_72bd, i32* %eax.global-to-local, align 4
  %v2_72bf = call i32 @_ZNSt8_Rb_treeI7NetworkS0_St9_IdentityIS0_ESt4lessIS0_ESaIS0_EE8_M_eraseEPSt13_Rb_tree_nodeIS0_E(i32 ptrtoint (i32* @0 to i32), i32 ptrtoint (i32* @0 to i32))
  store i32 %v2_72bf, i32* %eax.global-to-local, align 4
  ret i32 %v2_72bf

; uselistorder directives
  uselistorder i32 (i32, i32)* @_ZNSt8_Rb_treeI7NetworkS0_St9_IdentityIS0_ESt4lessIS0_ESaIS0_EE8_M_eraseEPSt13_Rb_tree_nodeIS0_E, { 2, 1, 0 }
}

define i32 @function_72c9() local_unnamed_addr {
dec_label_pc_72c9:
  %eax.global-to-local = alloca i32, align 4
  %v0_72c9 = load i32, i32* %eax.global-to-local, align 4
  ret i32 %v0_72c9
}

define i32 @function_72d7() local_unnamed_addr {
dec_label_pc_72d7:
  %v0_72d7 = call i32 @function_72a2()
  ret i32 %v0_72d7
}

define i32 @function_72d9() local_unnamed_addr {
dec_label_pc_72d9:
  %v0_72d9 = call i32 @function_6f10()
  ret i32 %v0_72d9
}

define i32 @function_72de() local_unnamed_addr {
dec_label_pc_72de:
  %tmp = load i32, i32* @eax, align 4
  ret i32 %tmp
}

define i32 @function_72e8() local_unnamed_addr {
dec_label_pc_72e8:
  %v0_72e8 = load i32, i32* @esi, align 4
  store i32 %v0_72e8, i32* @eax, align 4
  %v0_72ec = call i32 @function_6f3c()
  ret i32 %v0_72ec
}

define i32 @function_72f1() local_unnamed_addr {
dec_label_pc_72f1:
  %eax.global-to-local = alloca i32, align 4
  %v0_72f1 = load i32, i32* %eax.global-to-local, align 4
  ret i32 %v0_72f1
}

define i32 @function_72f4() local_unnamed_addr {
dec_label_pc_72f4:
  %eax.global-to-local = alloca i32, align 4
  %v0_72f4 = load i32, i32* %eax.global-to-local, align 4
  ret i32 %v0_72f4
}

define i32 @function_7303() local_unnamed_addr {
dec_label_pc_7303:
  %tmp = load i32, i32* @eax, align 4
  ret i32 %tmp
}

define i32 @function_730b() local_unnamed_addr {
dec_label_pc_730b:
  %tmp = load i32, i32* @eax, align 4
  ret i32 %tmp
}

define i32 @function_7319() local_unnamed_addr {
dec_label_pc_7319:
  %eax.global-to-local = alloca i32, align 4
