source_filename = "test"
target datalayout = "e-m:e-p:32:32-f64:32:64-f80:32-n8:16:32-S128"

%vtable_eed0_type = type { i32 (i32*)*, i32 (i32*)*, i32 (i32)* }
%vtable_ef28_type = type { i32 (i32*)*, i32 (i32*)*, void (i32, i32, i32)*, i32 ()*, i32 (i32, i32)*, i32 (i32, i32, i32*)*, i32 (i32, i32)*, void (i32, i32, i32)*, void (i32, i32)*, void (i32, i32)*, void (i32, i32, i32)* }
%vtable_efa0_type = type { i32 (i32*)*, i32 (i32*)*, i32 ()* }
%vtable_efb8_type = type { i32 (i32*)*, i32 (i32*)*, i32 ()* }
%vtable_efe8_type = type { i32 (i32*)*, i32 (i32*)*, i32 ()* }
%vtable_f028_type = type { i32 (i32*)*, i32 (i32*)*, i32 ()*, i32 (i32)*, i32 (i32)* }
%vtable_f0c0_type = type { i32 (i32*)*, i32 (i32*)*, i32 (i32*, i32)* }
%vtable_f0d8_type = type { i32 (i32*)*, i32 (i32*)*, i32 ()*, i32 ()* }
%vtable_f0f8_type = type { i32 (i32*)*, i32 (i32*)*, i32 ()* }
%vtable_f128_type = type { i32 (i32*)*, i32 (i32*)*, i32 ()* }
%vtable_f168_type = type { i32 (i32*)*, i32 (i32*)*, i32 ()*, i32 (i32)*, i32 (i32)* }
%vtable_f208_type = type { i32 (i32*)*, i32 (i32*)*, i32 (i32)*, i32 (i32*)*, i32 ()* }
%vtable_f228_type = type { i32 (i32*)*, i32 (i32*)*, i32 (i32)*, i32 (i32*)*, i32 ()* }
%vtable_f248_type = type { i32 (i32*)*, i32 (i32*)* }
%vtable_f288_type = type { i32 (i32*)*, i32 (i32*)*, i32 (i32)*, i32 (i32)* }
%has_fallback_type__1 = type { i32 }
%has_fallback_type_ = type { i32 }
%has_fallback_type_.5 = type { i32 }
%has_fallback_type__1.6 = type { i32 }
%"vector<unsignedchar,secure_allocator<unsignedchar>>" = type { i32 }
%"vector<unsignedchar,secure_allocator<unsignedchar>>.4" = type { i32 }

@cf = internal unnamed_addr global i1 false
@pf = internal unnamed_addr global i1 false
@sf = internal unnamed_addr global i1 false
@tf = internal unnamed_addr global i1 false
@if = internal unnamed_addr global i1 false
@df = internal unnamed_addr global i1 false
@of = internal unnamed_addr global i1 false
@nt = internal unnamed_addr global i1 false
@cs = internal unnamed_addr global i16 0
@fs = internal unnamed_addr global i16 0
@eax = internal unnamed_addr global i32 0
@ecx = internal unnamed_addr global i32 0
@edx = internal unnamed_addr global i32 0
@ebx = internal unnamed_addr global i32 0
@esp = internal unnamed_addr global i32 0
@ebp = internal unnamed_addr global i32 0
@esi = internal unnamed_addr global i32 0
@edi = internal unnamed_addr global i32 0
@global_var_c.559 = constant i32 -1587216384
@global_var_3390.560 = constant [54 x i8] c"/usr/include/boost/variant/detail/visitation_impl.hpp\00"
@global_var_240b.561 = constant [6 x i8] c"false\00"
@global_var_b6.563 = constant i32 -1929379840
@global_var_cf.565 = constant i32 203703495
@global_var_90.566 = constant [6 x i8] c"D$\0C m\00"
@global_var_24a0.572 = constant [13 x i8] c"keystore.cpp\00"
@global_var_24ad.573 = constant [12 x i8] c"cs_KeyStore\00"
@global_var_91.574 = constant [5 x i8] c"$\0C m\00"
@global_var_24b9.575 = constant [11 x i8] c"keystore.h\00"
@global_var_58.576 = constant i32 5141
@global_var_10.578 = constant i32 20
@global_var_1c.579 = constant i32 -1265930204
@global_var_88.581 = constant i32 608471296
@global_var_21.582 = constant i32 132
@global_var_a.584 = constant i32 128
@global_var_e.585 = constant i32 1352037
@global_var_a9.587 = constant [4 x i8] c"$\0B$\00"
@global_var_54.588 = constant i32 862280740
@global_var_25.589 = constant i32 1948548233
@global_var_ba.590 = constant i32 10172
@global_var_f0e4.591 = constant i32 8
@global_var_a4.592 = constant i32 -956301261
@global_var_85.593 = constant i32 20
@global_var_94.594 = constant i32 -956301203
@global_var_b4.595 = constant i32 182
@global_var_f010.596 = constant i32 0
@global_var_236f.597 = constant [18 x i8] c"boost::lock_error\00"
@global_var_f1e8.598 = constant i32 9664
@global_var_eea8.600 = constant i32 9856
@global_var_eee8.628 = constant i32 14256
@global_var_f2a0.631 = constant i32 16704
@global_var_f2b4.632 = constant i32 14688
@global_var_efd0.634 = constant i32 0
@global_var_f044.635 = constant i32 17328
@global_var_f054.637 = constant i32 14848
@global_var_f184.638 = constant i32 16960
@global_var_f194.640 = constant i32 15168
@global_var_effc.643 = constant i32 16128
@global_var_f258.645 = constant i32 16240
@global_var_f13c.647 = constant i32 16336
@global_var_8300.654 = constant [169 x i8] c"boost::exception_ptr boost::exception_detail::get_bad_alloc() [with int Dummy = 42, boost::exception_ptr = boost::shared_ptr<const boost::exception_detail::clone_base>]\00"
@global_var_3428.655 = constant [54 x i8] c"/usr/include/boost/exception/detail/exception_ptr.hpp\00"
@global_var_f560.657 = constant i32 8
@global_var_fb40.658 = constant [90 x i8] c"N5boost6detail17sp_counted_impl_pINS_16exception_detail10clone_implINS2_10bad_alloc_EEEEE\00"
@global_var_f564.659 = local_unnamed_addr constant [90 x i8]* @global_var_fb40.658
@global_var_f565.660 = constant i32 469762299
@global_var_78.661 = constant i32 649366928
@global_var_80.663 = constant i32 1697442947
@global_var_7c.664 = constant i32 0
@global_var_84.665 = constant i32 5281
@global_var_ff.667 = constant i32 753697536
@global_var_ef68.669 = constant i32 42112
@global_var_b0.670 = constant i32 -1912602625
@global_var_b8.671 = constant i32 666668288
@global_var_7d20.673 = constant [861 x i8] c"boost::signals2::detail::grouped_list<Group, GroupCompare, ValueType>::grouped_list(const boost::signals2::detail::grouped_list<Group, GroupCompare, ValueType>&) [with Group = int, GroupCompare = std::less<int>, ValueType = boost::shared_ptr<boost::signals2::detail::connection_body<std::pair<boost::signals2::detail::slot_meta_group, boost::optional<int> >, boost::signals2::slot1<void, CCryptoKeyStore*, boost::function<void(CCryptoKeyStore*)> >, boost::signals2::mutex> >, boost::signals2::detail::grouped_list<Group, GroupCompare, ValueType> = boost::signals2::detail::grouped_list<int, std::less<int>, boost::shared_ptr<boost::signals2::detail::connection_body<std::pair<boost::signals2::detail::slot_meta_group, boost::optional<int> >, boost::signals2::slot1<void, CCryptoKeyStore*, boost::function<void(CCryptoKeyStore*)> >, boost::signals2::mutex> > >]\00"
@global_var_3460.674 = constant [51 x i8] c"/usr/include/boost/signals2/detail/slot_groups.hpp\00"
@global_var_f.676 = constant i32 5281
@global_var_6f40.694 = constant [530 x i8] c"typename Visitor::result_type boost::detail::variant::visitation_impl(int, int, Visitor&, VPCV, mpl_::true_, NBF, W*, S*) [with W = mpl_::int_<20>, S = boost::detail::variant::visitation_impl_step<boost::mpl::l_iter<boost::mpl::l_end>, boost::mpl::l_iter<boost::mpl::l_end> >, Visitor = boost::detail::variant::copy_into, VPCV = const void*, NBF = boost::variant<boost::shared_ptr<void>, boost::signals2::detail::foreign_void_shared_ptr>::has_fallback_type_, typename Visitor::result_type = void, mpl_::true_ = mpl_::bool_<true>]\00"
@0 = external global i32
@1 = internal constant [15 x i8] c"\89D$\5C1\C0\89t$p\8B\B4$\84\00"
@global_var_14.558 = constant i8* getelementptr inbounds ([15 x i8], [15 x i8]* @1, i32 0, i32 0)
@global_var_24.567 = constant i16* inttoptr (i32 612141312 to i16*)
@global_var_5c.577 = constant i8 0
@global_var_20.580 = constant i16* inttoptr (i32 33828 to i16*)
@global_var_6.583 = constant i16* inttoptr (i32 614239084 to i16*)
@global_var_89.586 = constant i8 -119
@global_var_eed0.641 = constant %vtable_eed0_type { i32 (i32*)* @_ZN5boost6system12system_errorD1Ev, i32 (i32*)* @_ZN5boost6system12system_errorD0Ev, i32 (i32)* @_ZNK5boost6system12system_error4whatEv }
@global_var_ef28.662 = constant %vtable_ef28_type { i32 (i32*)* @_ZN14CBasicKeyStoreD1Ev, i32 (i32*)* @_ZN14CBasicKeyStoreD0Ev, void (i32, i32, i32)* @_ZN14CBasicKeyStore12AddKeyPubKeyERK4CKeyRK7CPubKey, i32 ()* @_ZN9CKeyStore6AddKeyERK4CKey, i32 (i32, i32)* @_ZNK14CBasicKeyStore7HaveKeyERK6CKeyID, i32 (i32, i32, i32*)* @_ZNK14CBasicKeyStore6GetKeyERK6CKeyIDR4CKey, i32 (i32, i32)* @_ZNK14CBasicKeyStore7GetKeysERSt3setI6CKeyIDSt4lessIS1_ESaIS1_EE, void (i32, i32, i32)* @_ZNK9CKeyStore9GetPubKeyERK6CKeyIDR7CPubKey, void (i32, i32)* @_ZN14CBasicKeyStore10AddCScriptERK7CScript, void (i32, i32)* @_ZNK14CBasicKeyStore11HaveCScriptERK9CScriptID, void (i32, i32, i32)* @_ZNK14CBasicKeyStore10GetCScriptERK9CScriptIDR7CScript }
@global_var_efa0.602 = constant %vtable_efa0_type { i32 (i32*)* @_ZN5boost16thread_exceptionD1Ev, i32 (i32*)* @_ZN5boost16thread_exceptionD0Ev, i32 ()* @_ZN9CKeyStore6AddKeyERK4CKey }
@global_var_efb8.633 = constant %vtable_efb8_type { i32 (i32*)* @_ZN5boost10lock_errorD1Ev, i32 (i32*)* @_ZN5boost10lock_errorD0Ev, i32 ()* @_ZNK5boost10lock_error4whatEv }
@global_var_efe8.642 = constant %vtable_efe8_type { i32 (i32*)* @_ZN5boost16exception_detail19error_info_injectorINS_10lock_errorEED1Ev, i32 (i32*)* @_ZN5boost16exception_detail19error_info_injectorINS_10lock_errorEED0Ev, i32 ()* @_ZNK5boost10lock_error4whatEv }
@global_var_f028.636 = constant %vtable_f028_type { i32 (i32*)* @_ZN5boost16exception_detail10clone_implINS0_19error_info_injectorINS_10lock_errorEEEED1Ev, i32 (i32*)* @_ZN5boost16exception_detail10clone_implINS0_19error_info_injectorINS_10lock_errorEEEED0Ev, i32 ()* @_ZNK5boost10lock_error4whatEv, i32 (i32)* @_ZNK5boost16exception_detail10clone_implINS0_19error_info_injectorINS_10lock_errorEEEE5cloneEv, i32 (i32)* @_ZNK5boost16exception_detail10clone_implINS0_19error_info_injectorINS_10lock_errorEEEE7rethrowEv }
@global_var_f0c0.668 = constant %vtable_f0c0_type { i32 (i32*)* @_ZN5boost8signals27signal1IvP15CCryptoKeyStoreNS0_19optional_last_valueIvEEiSt4lessIiENS_8functionIFvS3_EEENS8_IFvRKNS0_10connectionES3_EEENS0_5mutexEED1Ev, i32 (i32*)* @_ZN5boost8signals27signal1IvP15CCryptoKeyStoreNS0_19optional_last_valueIvEEiSt4lessIiENS_8functionIFvS3_EEENS8_IFvRKNS0_10connectionES3_EEENS0_5mutexEED0Ev, i32 (i32*, i32)* @_ZNK5boost8signals27signal1IvP15CCryptoKeyStoreNS0_19optional_last_valueIvEEiSt4lessIiENS_8functionIFvS3_EEENS8_IFvRKNS0_10connectionES3_EEENS0_5mutexEE10lock_pimplEv }
@global_var_f0d8.599 = constant %vtable_f0d8_type { i32 (i32*)* @_ZN5boost8signals211signal_baseD1Ev, i32 (i32*)* @_ZN5boost8signals211signal_baseD0Ev, i32 ()* @_ZN9CKeyStore6AddKeyERK4CKey, i32 ()* @function_8 }
@global_var_f0f8.601 = constant %vtable_f0f8_type { i32 (i32*)* @_ZN5boost17bad_function_callD1Ev, i32 (i32*)* @_ZN5boost17bad_function_callD0Ev, i32 ()* @_ZN9CKeyStore6AddKeyERK4CKey }
@global_var_f128.646 = constant %vtable_f128_type { i32 (i32*)* @_ZN5boost16exception_detail19error_info_injectorINS_17bad_function_callEED1Ev, i32 (i32*)* @_ZN5boost16exception_detail19error_info_injectorINS_17bad_function_callEED0Ev, i32 ()* @_ZN9CKeyStore6AddKeyERK4CKey }
@global_var_f168.639 = constant %vtable_f168_type { i32 (i32*)* @_ZN5boost16exception_detail10clone_implINS0_19error_info_injectorINS_17bad_function_callEEEED1Ev, i32 (i32*)* @_ZN5boost16exception_detail10clone_implINS0_19error_info_injectorINS_17bad_function_callEEEED0Ev, i32 ()* @_ZN9CKeyStore6AddKeyERK4CKey, i32 (i32)* @_ZNK5boost16exception_detail10clone_implINS0_19error_info_injectorINS_17bad_function_callEEEE5cloneEv.557, i32 (i32)* @_ZNK5boost16exception_detail10clone_implINS0_19error_info_injectorINS_17bad_function_callEEEE7rethrowEv }
@global_var_f208.672 = constant %vtable_f208_type { i32 (i32*)* @_ZN5boost6detail17sp_counted_impl_pINS_8signals26detail12grouped_listIiSt4lessIiENS_10shared_ptrINS3_15connection_bodyISt4pairINS3_15slot_meta_groupENS_8optionalIiEEENS2_5slot1IvP15CCryptoKeyStoreNS_8functionIFvSG_EEEEENS2_5mutexEEEEEEEED1Ev, i32 (i32*)* @_ZN5boost6detail17sp_counted_impl_pINS_8signals26detail12grouped_listIiSt4lessIiENS_10shared_ptrINS3_15connection_bodyISt4pairINS3_15slot_meta_groupENS_8optionalIiEEENS2_5slot1IvP15CCryptoKeyStoreNS_8functionIFvSG_EEEEENS2_5mutexEEEEEEEED0Ev, i32 (i32)* @_ZN5boost6detail17sp_counted_impl_pINS_8signals26detail12grouped_listIiSt4lessIiENS_10shared_ptrINS3_15connection_bodyISt4pairINS3_15slot_meta_groupENS_8optionalIiEEENS2_5slot1IvP15CCryptoKeyStoreNS_8functionIFvSG_EEEEENS2_5mutexEEEEEEEE7disposeEv, i32 (i32*)* @_ZN5boost6detail15sp_counted_base7destroyEv, i32 ()* @_ZN5boost6detail17sp_counted_impl_pINS_8signals26detail12grouped_listIiSt4lessIiENS_10shared_ptrINS3_15connection_bodyISt4pairINS3_15slot_meta_groupENS_8optionalIiEEENS2_5slot1IvP15CCryptoKeyStoreNS_8functionIFvSG_EEEEENS2_5mutexEEEEEEEE11get_deleterERKSt9type_info }
@global_var_f228.690 = constant %vtable_f228_type { i32 (i32*)* @_ZN5boost6detail17sp_counted_impl_pINS_8signals26detail12signal1_implIvP15CCryptoKeyStoreNS2_19optional_last_valueIvEEiSt4lessIiENS_8functionIFvS6_EEENSB_IFvRKNS2_10connectionES6_EEENS2_5mutexEE16invocation_stateEED1Ev, i32 (i32*)* @_ZN5boost6detail17sp_counted_impl_pINS_8signals26detail12signal1_implIvP15CCryptoKeyStoreNS2_19optional_last_valueIvEEiSt4lessIiENS_8functionIFvS6_EEENSB_IFvRKNS2_10connectionES6_EEENS2_5mutexEE16invocation_stateEED0Ev, i32 (i32)* @_ZN5boost6detail17sp_counted_impl_pINS_8signals26detail12signal1_implIvP15CCryptoKeyStoreNS2_19optional_last_valueIvEEiSt4lessIiENS_8functionIFvS6_EEENSB_IFvRKNS2_10connectionES6_EEENS2_5mutexEE16invocation_stateEE7disposeEv, i32 (i32*)* @_ZN5boost6detail15sp_counted_base7destroyEv, i32 ()* @_ZN5boost6detail17sp_counted_impl_pINS_8signals26detail12signal1_implIvP15CCryptoKeyStoreNS2_19optional_last_valueIvEEiSt4lessIiENS_8functionIFvS6_EEENSB_IFvRKNS2_10connectionES6_EEENS2_5mutexEE16invocation_stateEE11get_deleterERKSt9type_info }
@global_var_f248.644 = constant %vtable_f248_type { i32 (i32*)* @_ZN5boost16exception_detail10bad_alloc_D1Ev, i32 (i32*)* @_ZN5boost16exception_detail10bad_alloc_D0Ev }
@global_var_f288.630 = constant %vtable_f288_type { i32 (i32*)* @_ZN5boost16exception_detail10clone_implINS0_10bad_alloc_EED1Ev, i32 (i32*)* @_ZN5boost16exception_detail10clone_implINS0_10bad_alloc_EED0Ev, i32 (i32)* @_ZNK5boost16exception_detail10clone_implINS0_10bad_alloc_EE5cloneEv, i32 (i32)* @_ZNK5boost16exception_detail10clone_implINS0_10bad_alloc_EE7rethrowEv }

define i32 @_ZN9CKeyStore6AddKeyERK4CKey() {
dec_label_pc_0:
  %eax.global-to-local = alloca i32, align 4
  %v17_0 = load i32, i32* %eax.global-to-local, align 4
  ret i32 %v17_0
}

define i32 @function_8() {
dec_label_pc_8:
  %eax.global-to-local = alloca i32, align 4
  %tmp96 = load i32, i32* %eax.global-to-local, align 4
  ret i32 %tmp96
}

define void @_ZNK5boost16exception_detail10clone_implINS0_19error_info_injectorINS_17bad_function_callEEEE5cloneEv(i32 %this) local_unnamed_addr {
dec_label_pc_10:
  ret void
}

define void @"~pthread_mutex_scoped_lock"(i32 %this, i32 %__in_chrg) local_unnamed_addr {
dec_label_pc_34:
  ret void
}

define void @"visitation_impl_invoke<boost::detail::variant::invoke_visitor<const boost::signals2::detail::lock_weak_ptr_visitor>, const void*, boost::variant<boost::weak_ptr<void>, boost::signals2::detail::foreign_void_weak_ptr>::has_fallback_type_>"(i32 %arg0, i32 %arg1, i8* %arg2, i32 %arg3, %has_fallback_type__1 %arg4, i32 %arg5) local_unnamed_addr {
dec_label_pc_80:
  ret void
}

define void @"visitation_impl_invoke<boost::detail::variant::copy_into, const void*, boost::variant<boost::shared_ptr<void>, boost::signals2::detail::foreign_void_shared_ptr>::has_fallback_type_>"(i32 %arg0, i32 %arg1, i8* %arg2, i32 %arg3, %has_fallback_type_ %arg4, i32 %arg5) local_unnamed_addr {
dec_label_pc_c0:
  ret void
}

define void @_ZNK5boost10shared_ptrINS_8signals26detail12signal1_implIvP15CCryptoKeyStoreNS1_19optional_last_valueIvEEiSt4lessIiENS_8functionIFvS5_EEENSA_IFvRKNS1_10connectionES5_EEENS1_5mutexEE16invocation_stateEEptEv(i32 %this) local_unnamed_addr {
dec_label_pc_d0:
  %eax.global-to-local = alloca i32, align 4
  %ebx.global-to-local = alloca i32, align 4
  %edx.global-to-local = alloca i32, align 4
  %v0_d1 = load i32, i32* %eax.global-to-local, align 4
  %v1_d1 = trunc i32 %v0_d1 to i8
  %v2_d1 = and i32 %v0_d1, zext (i8 ptrtoint (i32* @global_var_c.559 to i8) to i32)
  %v0_d6 = load i32, i32* %ebx.global-to-local, align 4
  %v5_d63 = mul nuw nsw i32 %v2_d1, 256
  %v1_d64 = add i32 %v5_d63, %v0_d6
  %v22_d6 = and i32 %v1_d64, 65280
  %v23_d6 = and i32 %v0_d6, -65281
  %v24_d6 = or i32 %v22_d6, %v23_d6
  store i32 %v24_d6, i32* %ebx.global-to-local, align 4
  %v2_d9 = and i8 %v1_d1, and (i8 ptrtoint (i32* @global_var_c.559 to i8), i8 8)
  %v8_d9 = zext i8 %v2_d9 to i32
  %v10_d9 = and i32 %v0_d1, -256
  %v11_d9 = or i32 %v8_d9, %v10_d9
  store i32 %v11_d9, i32* %eax.global-to-local, align 4
  %v0_db = load i32, i32* %edx.global-to-local, align 4
  %v1_db = and i32 %v0_db, -65281
  store i32 %v1_db, i32* %edx.global-to-local, align 4
  %v1_dd = inttoptr i32 %v11_d9 to i8*
  %v2_dd = load i8, i8* %v1_dd, align 8
  %v5_dd = add i8 %v2_dd, %v2_d9
  store i8 %v5_dd, i8* %v1_dd, align 8
  ret void

; uselistorder directives
  uselistorder i32 %v0_d6, { 1, 0 }
  uselistorder i32 %v0_d1, { 1, 0, 2 }
  uselistorder i32* %edx.global-to-local, { 1, 0 }
  uselistorder i32* %ebx.global-to-local, { 1, 0 }
  uselistorder i32* %eax.global-to-local, { 1, 0 }
  uselistorder i8 ptrtoint (i32* @global_var_c.559 to i8), { 1, 0 }
}

define void @"visitation_impl_invoke<boost::detail::variant::destroyer, void*, boost::variant<boost::shared_ptr<void>, boost::signals2::detail::foreign_void_shared_ptr>::has_fallback_type_>"(i32 %arg0, i32 %arg1, i8* %arg2, i32 %arg3, %has_fallback_type_.5 %arg4, i32 %arg5) local_unnamed_addr {
dec_label_pc_100:
  ret void
}

define void @_ZNK5boost10shared_ptrINS_8signals26detail15connection_bodyISt4pairINS2_15slot_meta_groupENS_8optionalIiEEENS1_5slot1IvP15CCryptoKeyStoreNS_8functionIFvSB_EEEEENS1_5mutexEEEEptEv(i32 %this) local_unnamed_addr {
dec_label_pc_104:
  ret void
}

define void @_ZN5boost8signals26detail12signal1_implIvP15CCryptoKeyStoreNS0_19optional_last_valueIvEEiSt4lessIiENS_8functionIFvS4_EEENS9_IFvRKNS0_10connectionES4_EEENS0_5mutexEE16invocation_state17connection_bodiesEv(i32 %this) local_unnamed_addr {
dec_label_pc_138:
  %eax.global-to-local = alloca i32, align 4
  %ecx.global-to-local = alloca i32, align 4
  %tmp91 = call i32 @__decompiler_undefined_function_0()
  %v1_138 = add i32 %tmp91, 10172
  %v2_138 = inttoptr i32 %v1_138 to i8*
  %v3_138 = load i8, i8* %v2_138, align 1
  %v4_138 = load i32, i32* %ecx.global-to-local, align 4
  %v5_138 = trunc i32 %v4_138 to i8
  %v6_138 = add i8 %v5_138, %v3_138
  store i8 %v6_138, i8* %v2_138, align 1
  %v2_13e = load i8, i8* bitcast (i32* @eax to i8*), align 4
  %v3_13e = load i32, i32* %eax.global-to-local, align 4
  %v4_13e = trunc i32 %v3_13e to i8
  %v5_13e = add i8 %v4_13e, %v2_13e
  %v21_13e = inttoptr i32 %v3_13e to i8*
  store i8 %v5_13e, i8* %v21_13e, align 1
  ret void
}

define void @"visitation_impl_invoke<boost::detail::variant::invoke_visitor<const boost::signals2::detail::expired_weak_ptr_visitor>, const void*, boost::variant<boost::weak_ptr<void>, boost::signals2::detail::foreign_void_weak_ptr>::has_fallback_type_>"(i32 %arg0, i32 %arg1, i8* %arg2, i32 %arg3, %has_fallback_type__1.6 %arg4, i32 %arg5) local_unnamed_addr {
dec_label_pc_140:
  ret void
}

define void @_ZN5boost8signals26detail11auto_bufferINS_7variantINS_10shared_ptrIvEENS1_23foreign_void_shared_ptrENS_6detail7variant5void_ES9_S9_S9_S9_S9_S9_S9_S9_S9_S9_S9_S9_S9_S9_S9_S9_S9_EENS1_15store_n_objectsILj10EEENS1_19default_grow_policyESaISA_EE14destroy_back_nEjRKNS_17integral_constantIbLb0EEE(i32 %this, i32 %n, i32 %arg2) local_unnamed_addr {
dec_label_pc_180:
  %ebx.global-to-local = alloca i32, align 4
  %ecx.global-to-local = alloca i32, align 4
  %esi.global-to-local = alloca i32, align 4
  %v0_180 = load i32, i32* %esi.global-to-local, align 4
  %v0_181 = load i32, i32* %ebx.global-to-local, align 4
  store i32 0, i32* %ebx.global-to-local, align 4
  %v0_192 = load i32, i32* %ecx.global-to-local, align 4
  %v1_192 = icmp eq i32 %v0_192, 0
  br i1 %v1_192, label %bb, label %dec_label_pc_180.dec_label_pc_19a_crit_edge

dec_label_pc_180.dec_label_pc_19a_crit_edge:      ; preds = %dec_label_pc_180
  %v2_19c.pre = load i32, i32* @eax, align 4
  br label %dec_label_pc_19a

bb:                                               ; preds = %dec_label_pc_180
  %v5_194 = call i32 @function_2aa(i32 ptrtoint ([15 x i8]* @1 to i32), i32 %v0_181, i32 %v0_180)
  br label %dec_label_pc_19a

dec_label_pc_19a:                                 ; preds = %dec_label_pc_180.dec_label_pc_19a_crit_edge, %bb
  %v2_19c = phi i32 [ %v2_19c.pre, %dec_label_pc_180.dec_label_pc_19a_crit_edge ], [ %v5_194, %bb ]
  store i32 %v2_19c, i32* %ebx.global-to-local, align 4
  ret void

; uselistorder directives
  uselistorder label %dec_label_pc_19a, { 1, 0 }
}

define void @"~auto_buffer"(i32 %this, i32 %__in_chrg) local_unnamed_addr {
dec_label_pc_1a0:
  %eax.global-to-local = alloca i32, align 4
  %ebx.global-to-local = alloca i32, align 4
  %ecx.global-to-local = alloca i32, align 4
  %edx.global-to-local = alloca i32, align 4
  %v0_1a0 = load i32, i32* %ecx.global-to-local, align 4
  %v1_1a0 = add i32 %v0_1a0, -1
  store i32 %v1_1a0, i32* %ecx.global-to-local, align 4
  %v0_1a1 = load i32, i32* %eax.global-to-local, align 4
  %v2_1a1 = mul i32 %v0_1a1, 4
  store i32 %v2_1a1, i32* %eax.global-to-local, align 4
  %v0_1a4 = load i32, i32* %edx.global-to-local, align 4
  %v2_1a4 = mul i32 %v0_1a4, 2
  %v3_1a4 = add i32 %v0_1a4, -3
  %v4_1a4 = add i32 %v3_1a4, %v2_1a4
  %v0_1a8 = load i32, i32* %ebx.global-to-local, align 4
  %v2_1a8 = mul i32 %v4_1a4, 4
  %v3_1a8 = add i32 %v2_1a8, %v0_1a8
  store i32 %v3_1a8, i32* %edx.global-to-local, align 4
  %v2_1ad = sub i32 %v3_1a8, %v2_1a1
  store i32 %v2_1ad, i32* %ebx.global-to-local, align 4
  %v1_1b3 = inttoptr i32 %v3_1a8 to i32*
  %v2_1b3 = load i32, i32* %v1_1b3, align 4
  store i32 %v2_1b3, i32* %ecx.global-to-local, align 4
  %v2_1b7 = ashr i32 %v2_1b3, 31
  %v2_1ba = xor i32 %v2_1b7, %v2_1b3
  store i32 %v2_1ba, i32* %eax.global-to-local, align 4
  ret void

; uselistorder directives
  uselistorder i32 %v0_1a4, { 1, 0 }
  uselistorder i32 %v2_1a1, { 1, 0 }
  uselistorder i32* %ecx.global-to-local, { 1, 0, 2 }
  uselistorder i32* %eax.global-to-local, { 1, 0, 2 }
}

define void @_ZN5boost8signals26detail11auto_bufferINS_7variantINS_10shared_ptrIvEENS1_23foreign_void_shared_ptrENS_6detail7variant5void_ES9_S9_S9_S9_S9_S9_S9_S9_S9_S9_S9_S9_S9_S9_S9_S9_S9_EENS1_15store_n_objectsILj10EEENS1_19default_grow_policyESaISA_EE19unchecked_push_backERKSA_(i32 %this, i32 %x) local_unnamed_addr {
dec_label_pc_1d4:
  %eax.global-to-local = alloca i32, align 4
  %ebx.global-to-local = alloca i32, align 4
  %ecx.global-to-local = alloca i32, align 4
  %v0_1d4 = load i32, i32* %eax.global-to-local, align 4
  %v2_1d4 = add i32 %v0_1d4, zext (i8 ptrtoint ([6 x i8]* @global_var_90.566 to i8) to i32)
  %v15_1d4 = urem i32 %v2_1d4, 256
  %v17_1d4 = and i32 %v0_1d4, -256
  %v18_1d4 = or i32 %v15_1d4, %v17_1d4
  store i32 %v18_1d4, i32* %eax.global-to-local, align 4
  %v2_1d6 = inttoptr i32 %v18_1d4 to i32*
  %v3_1d6 = load i32, i32* %v2_1d6, align 4
  %v4_1d6 = xor i32 %v18_1d4, %v3_1d6
  %v7_1d6 = trunc i32 %v4_1d6 to i8
  %v0_1d8 = load i32, i32* %ebx.global-to-local, align 4
  %v5_1d81 = mul i32 %v4_1d6, 256
  %v1_1d82 = add i32 %v5_1d81, %v0_1d8
  %v22_1d8 = and i32 %v1_1d82, 65280
  %v23_1d8 = and i32 %v0_1d8, -65281
  %v24_1d8 = or i32 %v22_1d8, %v23_1d8
  store i32 %v24_1d8, i32* %ebx.global-to-local, align 4
  %v2_1da = add i8 %v7_1d6, ptrtoint (i16** @global_var_24.567 to i8)
  %v16_1da = zext i8 %v2_1da to i32
  %v18_1da = and i32 %v4_1d6, -256
  %v19_1da = or i32 %v16_1da, %v18_1da
  store i32 %v19_1da, i32* %eax.global-to-local, align 4
  %v2_1df = load i32, i32* %ecx.global-to-local, align 4
  %v3_1df = udiv i32 %v2_1df, 256
  %v4_1df = trunc i32 %v3_1df to i8
  %v5_1df = add i8 %v4_1df, %v2_1da
  %v20_1df = zext i8 %v5_1df to i32
  %v23_1df = or i32 %v20_1df, %v18_1da
  store i32 %v23_1df, i32* %eax.global-to-local, align 4
  ret void

; uselistorder directives
  uselistorder i32 %v0_1d8, { 1, 0 }
  uselistorder i32 %v4_1d6, { 1, 0, 2 }
  uselistorder i32 %v0_1d4, { 1, 0 }
}

define void @_ZNK5boost8signals26detail14group_key_lessIiSt4lessIiEEclERKSt4pairINS1_15slot_meta_groupENS_8optionalIiEEESC_(i32 %this, i32 %key1, i32 %key2) local_unnamed_addr {
dec_label_pc_208:
  ret void
}

define i32 @function_239() local_unnamed_addr {
dec_label_pc_239:
  %eax.global-to-local = alloca i32, align 4
  %v0_239 = load i32, i32* %eax.global-to-local, align 4
  ret i32 %v0_239
}

define void @_ZN5boost8signals27signal1IvP15CCryptoKeyStoreNS0_19optional_last_valueIvEEiSt4lessIiENS_8functionIFvS3_EEENS8_IFvRKNS0_10connectionES3_EEENS0_5mutexEEclES3_(i32 %this, i32 %arg1) local_unnamed_addr {
dec_label_pc_23c:
  %ebp.global-to-local = alloca i32, align 4
  %edx.global-to-local = alloca i32, align 4
  %v0_23c = load i32, i32* %ebp.global-to-local, align 4
  %v1_23c = add i32 %v0_23c, -914030474
  %v2_23c = inttoptr i32 %v1_23c to i32*
  %v3_23c = load i32, i32* %v2_23c, align 4
  %v4_23c = add i32 %v3_23c, -1
  %v13_23c = icmp slt i32 %v4_23c, 0
  store i32 %v4_23c, i32* %v2_23c, align 4
  br i1 %v13_23c, label %dec_label_pc_278, label %dec_label_pc_244

dec_label_pc_244:                                 ; preds = %dec_label_pc_23c
  ret void

dec_label_pc_278:                                 ; preds = %dec_label_pc_23c
  %v0_278 = load i32, i32* %edx.global-to-local, align 4
  %v1_278 = add i32 %v0_278, 4
  %v2_278 = inttoptr i32 %v1_278 to i32*
  %v3_278 = load i32, i32* %v2_278, align 4
  %v1_27f = inttoptr i32 %v3_278 to i32*
  %v2_27f = load i32, i32* %v1_27f, align 4
  %v1_281 = icmp eq i32 %v2_27f, 0
  br i1 %v1_281, label %dec_label_pc_295, label %dec_label_pc_285

dec_label_pc_285:                                 ; preds = %dec_label_pc_278
  br label %dec_label_pc_295

dec_label_pc_295:                                 ; preds = %dec_label_pc_285, %dec_label_pc_278
  ret void

; uselistorder directives
  uselistorder i32 %v4_23c, { 1, 0 }
}

define i32 @function_2a1(i32 %arg1) local_unnamed_addr {
dec_label_pc_2a1:
  %eax.global-to-local = alloca i32, align 4
  %v0_2a5 = load i32, i32* %eax.global-to-local, align 4
  ret i32 %v0_2a5
}

define i32 @function_2aa(i32 %arg1, i32 %arg2, i32 %arg3) local_unnamed_addr {
dec_label_pc_2aa:
  %v3_2c2 = load i32, i32* @eax, align 4
  ret i32 %v3_2c2
}

define i32 @function_2ce() local_unnamed_addr {
dec_label_pc_2ce:
  %v1_2da = load i32, i32* @eax, align 4
  ret i32 %v1_2da
}

define void @_ZNSt12_Vector_baseIh16secure_allocatorIhEE13_M_deallocateEPhj(i32 %this, i8* %__p, i32 %__n) local_unnamed_addr {
dec_label_pc_2e0:
  %v0_2e7 = load i32, i32* @eax, align 4
  %v1_2f5 = icmp eq i32 %v0_2e7, 0
  br i1 %v1_2f5, label %bb, label %dec_label_pc_2ff

bb:                                               ; preds = %dec_label_pc_2e0
  %v0_2f7 = load i32, i32* @esi, align 4
  %v0_2e3 = load i32, i32* @ebx, align 4
  %v5_2fd = call i32 @function_327(i32 ptrtoint ([15 x i8]* @1 to i32), i32 %v0_2e3, i32 %v0_2f7)
  br label %dec_label_pc_2ff

dec_label_pc_2ff:                                 ; preds = %bb, %dec_label_pc_2e0
  ret void
}

define i32 @function_327(i32 %arg1, i32 %arg2, i32 %arg3) local_unnamed_addr {
dec_label_pc_327:
  %v3_32b = xor i32 %arg1, ptrtoint ([15 x i8]* @1 to i32)
  %v4_32b = icmp eq i32 %v3_32b, 0
  %v1_332 = icmp eq i1 %v4_32b, false
  br i1 %v1_332, label %dec_label_pc_340, label %dec_label_pc_334

dec_label_pc_334:                                 ; preds = %dec_label_pc_327
  ret i32 %v3_32b

dec_label_pc_340:                                 ; preds = %dec_label_pc_327
  ret i32 %v3_32b

; uselistorder directives
  uselistorder i32 %v3_32b, { 1, 0, 2 }
}

define void @_ZN15CCryptoKeyStore10SetCryptedEv(i32 %this) local_unnamed_addr {
dec_label_pc_350:
  %stack_var_-24 = alloca i32, align 4
  %v0_353 = load i32, i32* @ebx, align 4
  store i32 %this, i32* @ebx, align 4
  %v0_367 = load i32, i32* @esi, align 4
  %v2_36b = ptrtoint i32* %stack_var_-24 to i32
  store i32 %v2_36b, i32* @esi, align 4
  %v0_36f = load i32, i32* @edi, align 4
  store i32 1, i32* @edi, align 4
  %v1_378 = add i32 %this, 4
  %v9_3a2 = call i32 @_ZN10CMutexLockI14AnnotatedMixinIN5boost15recursive_mutexEEEC1ERS3_PKcS7_ib(i32* nonnull %stack_var_-24, i32 %v1_378, i32 ptrtoint ([12 x i8]* @global_var_24ad.573 to i32), i32 ptrtoint ([13 x i8]* @global_var_24a0.572 to i32), i32 56, i32 0)
  %v0_3a7 = load i32, i32* @ebx, align 4
  %v1_3a7 = add i32 %v0_3a7, 172
  %v2_3a7 = inttoptr i32 %v1_3a7 to i8*
  %v3_3a7 = load i8, i8* %v2_3a7, align 1
  %v10_3a7 = icmp eq i8 %v3_3a7, 0
  %v1_3ae = icmp eq i1 %v10_3a7, false
  br i1 %v1_3ae, label %dec_label_pc_3b9, label %dec_label_pc_3b0

dec_label_pc_3b0:                                 ; preds = %dec_label_pc_350
  %v1_3b0 = add i32 %v0_3a7, 108
  %v2_3b0 = inttoptr i32 %v1_3b0 to i32*
  %v3_3b0 = load i32, i32* %v2_3b0, align 4
  store i32 0, i32* @edi, align 4
  %v1_3b5 = icmp eq i32 %v3_3b0, 0
  br i1 %v1_3b5, label %dec_label_pc_3e0, label %dec_label_pc_3b9

dec_label_pc_3b9:                                 ; preds = %dec_label_pc_3e0, %dec_label_pc_3b0, %dec_label_pc_350
  %v2_3bc = call i32 @_ZN5boost11unique_lockI14AnnotatedMixinINS_15recursive_mutexEEED1Ev(i32* nonnull %stack_var_-24)
  br i1 icmp ne (i32 xor (i32 ptrtoint ([15 x i8]* @1 to i32), i32 ptrtoint ([15 x i8]* @1 to i32)), i32 0), label %dec_label_pc_3ee, label %dec_label_pc_3d0

dec_label_pc_3d0:                                 ; preds = %dec_label_pc_3b9
  store i32 %v0_353, i32* @ebx, align 4
  store i32 %v0_367, i32* @esi, align 4
  store i32 %v0_36f, i32* @edi, align 4
  ret void

dec_label_pc_3e0:                                 ; preds = %dec_label_pc_3b0
  store i8 1, i8* %v2_3a7, align 1
  store i32 1, i32* @edi, align 4
  br label %dec_label_pc_3b9

dec_label_pc_3ee:                                 ; preds = %dec_label_pc_3b9
  ret void
}

define void @_ZNK14CBasicKeyStore10GetCScriptERK9CScriptIDR7CScript(i32 %this, i32 %hash, i32 %redeemScriptOut) {
dec_label_pc_400:
  %tmp101 = call i32 @__decompiler_undefined_function_0()
  %tmp102 = call i32 @__decompiler_undefined_function_0()
  %stack_var_-48 = alloca i32, align 4
  %stack_var_-40 = alloca i32, align 4
  store i32 %this, i32* @esi, align 4
  store i32 %hash, i32* @ebp, align 4
  %v2_423 = ptrtoint i32* %stack_var_-40 to i32
  store i32 %v2_423, i32* @ebx, align 4
  %v1_427 = add i32 %this, 4
  store i32 %redeemScriptOut, i32* @edi, align 4
  %v10_459 = call i32 @_ZN10CMutexLockI14AnnotatedMixinIN5boost15recursive_mutexEEEC1ERS3_PKcS7_ib(i32* nonnull %stack_var_-40, i32 %v1_427, i32 ptrtoint ([12 x i8]* @global_var_24ad.573 to i32), i32 ptrtoint ([13 x i8]* @global_var_24a0.572 to i32), i32 44, i32 0)
  %v0_462 = load i32, i32* @esi, align 4
  %v1_462 = add i32 %v0_462, 112
  %v1_465 = add i32 %v0_462, 116
  store i32 %v1_465, i32* @esi, align 4
  %v4_473 = call i32 @_ZNKSt8_Rb_treeI9CScriptIDSt4pairIKS0_7CScriptESt10_Select1stIS4_ESt4lessIS0_ESaIS4_EE4findERS2_(i32* nonnull %stack_var_-48, i32 %v1_462)
  %v1_47f = load i32, i32* @esi, align 4
  %v12_47f = icmp eq i32 %tmp102, %v1_47f
  br i1 %v12_47f, label %dec_label_pc_4c8, label %dec_label_pc_483

dec_label_pc_483:                                 ; preds = %dec_label_pc_400
  %v1_483 = add i32 %tmp102, ptrtoint (i16** @global_var_24.567 to i32)
  %v0_48a = load i32, i32* @edi, align 4
  %v3_48d = inttoptr i32 %v0_48a to i32*
  %v4_48d = call i32 @_ZNSt6vectorIhSaIhEEaSERKS1_(i32* %v3_48d, i32 %v1_483)
  br label %dec_label_pc_497

dec_label_pc_497:                                 ; preds = %dec_label_pc_4c8, %dec_label_pc_483
  %v2_49a = call i32 @_ZN5boost11unique_lockI14AnnotatedMixinINS_15recursive_mutexEEED1Ev(i32* nonnull %stack_var_-40)
  %v4_4a5 = icmp eq i32 %tmp101, ptrtoint ([15 x i8]* @1 to i32)
  %v1_4ac = icmp eq i1 %v4_4a5, false
  br i1 %v1_4ac, label %dec_label_pc_4cc, label %dec_label_pc_4ae

dec_label_pc_4ae:                                 ; preds = %dec_label_pc_497
  ret void

dec_label_pc_4c8:                                 ; preds = %dec_label_pc_400
  br label %dec_label_pc_497

dec_label_pc_4cc:                                 ; preds = %dec_label_pc_497
  ret void

; uselistorder directives
  uselistorder i32 %tmp102, { 1, 0 }
}

define void @_ZNK14CBasicKeyStore11HaveCScriptERK9CScriptID(i32 %this, i32 %hash) {
dec_label_pc_4f0:
  %tmp99 = call i32 @__decompiler_undefined_function_0()
  %tmp100 = call i32 @__decompiler_undefined_function_0()
  %stack_var_-32 = alloca i32, align 4
  %stack_var_-24 = alloca i32, align 4
  store i32 %this, i32* @ebx, align 4
  store i32 %hash, i32* @edi, align 4
  %v2_513 = ptrtoint i32* %stack_var_-24 to i32
  store i32 %v2_513, i32* @esi, align 4
  %v1_517 = add i32 %this, 4
  %v9_541 = call i32 @_ZN10CMutexLockI14AnnotatedMixinIN5boost15recursive_mutexEEEC1ERS3_PKcS7_ib(i32* nonnull %stack_var_-24, i32 %v1_517, i32 ptrtoint ([12 x i8]* @global_var_24ad.573 to i32), i32 ptrtoint ([13 x i8]* @global_var_24a0.572 to i32), i32 38, i32 0)
  %v0_546 = load i32, i32* @ebx, align 4
  %v1_546 = add i32 %v0_546, 112
  %v1_549 = add i32 %v0_546, 116
  store i32 %v1_549, i32* @ebx, align 4
  %v5_55b = call i32 @_ZNKSt8_Rb_treeI9CScriptIDSt4pairIKS0_7CScriptESt10_Select1stIS4_ESt4lessIS0_ESaIS4_EE4findERS2_(i32* nonnull %stack_var_-32, i32 %v1_546)
  %v0_563 = load i32, i32* @ebx, align 4
  %v15_563 = icmp eq i32 %v0_563, %tmp100
  %v1_56a = icmp eq i1 %v15_563, false
  %v2_56a = zext i1 %v1_56a to i32
  %v4_56a = and i32 %v0_563, -256
  %v5_56a = or i32 %v2_56a, %v4_56a
  store i32 %v5_56a, i32* @ebx, align 4
  %v2_56d = call i32 @_ZN5boost11unique_lockI14AnnotatedMixinINS_15recursive_mutexEEED1Ev(i32* nonnull %stack_var_-24)
  %v4_578 = icmp eq i32 %tmp99, ptrtoint ([15 x i8]* @1 to i32)
  %v1_57f = icmp eq i1 %v4_578, false
  br i1 %v1_57f, label %dec_label_pc_591, label %dec_label_pc_581

dec_label_pc_581:                                 ; preds = %dec_label_pc_4f0
  ret void

dec_label_pc_591:                                 ; preds = %dec_label_pc_4f0
  ret void

; uselistorder directives
  uselistorder i32 %v0_563, { 1, 0 }
}

define void @_ZNK15CCryptoKeyStore6GetKeyERK6CKeyIDR4CKey(i32 %this, i32 %address, i32 %keyOut) local_unnamed_addr {
dec_label_pc_5a0:
  %eax.global-to-local = alloca i32, align 4
  %ebp.global-to-local = alloca i32, align 4
  %ebx.global-to-local = alloca i32, align 4
  %edi.global-to-local = alloca i32, align 4
  %esi.global-to-local = alloca i32, align 4
  %stack_var_-68 = alloca i32, align 4
  %tmp118 = call i32 @__decompiler_undefined_function_0()
  %tmp120 = call i32 @__decompiler_undefined_function_0()
  %stack_var_-108 = alloca i32, align 4
  %stack_var_-132 = alloca i32, align 4
  %vchSecret_-128 = alloca %"vector<unsignedchar,secure_allocator<unsignedchar>>", align 8
  %stack_var_-104 = alloca i32, align 4
  %stack_var_-112 = alloca i32, align 4
  %v0_5a1 = load i32, i32* %edi.global-to-local, align 4
  %v0_5a2 = load i32, i32* %esi.global-to-local, align 4
  %v0_5a3 = load i32, i32* %ebx.global-to-local, align 4
  store i32 %this, i32* @ebx, align 4
  %v2_5b1 = ptrtoint i32* %stack_var_-112 to i32
  store i32 %v2_5b1, i32* @edi, align 4
  store i32 %address, i32* @ebp, align 4
  store i32 %keyOut, i32* @esi, align 4
  %v1_5da = add i32 %this, 4
  store i32 %v1_5da, i32* %eax.global-to-local, align 4
  %v11_600 = call i32 @_ZN10CMutexLockI14AnnotatedMixinIN5boost15recursive_mutexEEEC1ERS3_PKcS7_ib(i32* nonnull %stack_var_-112, i32 %v1_5da, i32 ptrtoint ([12 x i8]* @global_var_24ad.573 to i32), i32 ptrtoint ([13 x i8]* @global_var_24a0.572 to i32), i32 ptrtoint ([5 x i8]* @global_var_91.574 to i32), i32 0)
  store i32 %v1_5da, i32* %eax.global-to-local, align 4
  %v0_609 = load i32, i32* @ebx, align 4
  %v1_609 = add i32 %v0_609, 172
  %v2_609 = inttoptr i32 %v1_609 to i8*
  %v3_609 = load i8, i8* %v2_609, align 1
  %v10_609 = icmp eq i8 %v3_609, 0
  %v1_610 = icmp eq i1 %v10_609, false
  br i1 %v1_610, label %dec_label_pc_6e8, label %dec_label_pc_616

dec_label_pc_616:                                 ; preds = %dec_label_pc_5a0
  %v11_641 = call i32 @_ZN10CMutexLockI14AnnotatedMixinIN5boost15recursive_mutexEEEC1ERS3_PKcS7_ib(i32* nonnull %stack_var_-104, i32 %v1_5da, i32 ptrtoint ([12 x i8]* @global_var_24ad.573 to i32), i32 ptrtoint ([11 x i8]* @global_var_24b9.575 to i32), i32 76, i32 0)
  %v2_646 = ptrtoint %"vector<unsignedchar,secure_allocator<unsignedchar>>"* %vchSecret_-128 to i32
  store i32 %v2_646, i32* %eax.global-to-local, align 4
  %v0_64a = load i32, i32* @ebx, align 4
  %v1_64a = add i32 %v0_64a, ptrtoint (i32* @global_var_58.576 to i32)
  %v1_64d = add i32 %v0_64a, ptrtoint (i8* @global_var_5c.577 to i32)
  store i32 %v1_64d, i32* @ebx, align 4
  %tmp152 = getelementptr inbounds %"vector<unsignedchar,secure_allocator<unsignedchar>>", %"vector<unsignedchar,secure_allocator<unsignedchar>>"* %vchSecret_-128, i32 0, i32 0
  %v4_65b = call i32 @_ZNKSt8_Rb_treeI6CKeyIDSt4pairIKS0_4CKeyESt10_Select1stIS4_ESt4lessIS0_ESaIS4_EE4findERS2_(i32* %tmp152, i32 %v1_64a)
  %v3_663 = load i32, i32* %stack_var_-132, align 4
  store i32 %v3_663, i32* %eax.global-to-local, align 4
  %v1_667 = load i32, i32* @ebx, align 4
  %v12_667 = icmp eq i32 %v3_663, %v1_667
  br i1 %v12_667, label %bb, label %dec_label_pc_66f

bb:                                               ; preds = %dec_label_pc_616
  %v1_669 = call i32 @function_8d8()
  store i32 %v1_669, i32* %eax.global-to-local, align 4
  br label %dec_label_pc_66f

dec_label_pc_66f:                                 ; preds = %bb, %dec_label_pc_616
  %v0_66f = phi i32 [ %v1_669, %bb ], [ %v3_663, %dec_label_pc_616 ]
  %v1_66f = add i32 %v0_66f, ptrtoint (i16** @global_var_24.567 to i32)
  %v2_66f = inttoptr i32 %v1_66f to i32*
  %v3_66f = load i32, i32* %v2_66f, align 4
  %v1_672 = load i32, i32* @esi, align 4
  %v2_672 = inttoptr i32 %v1_672 to i32*
  store i32 %v3_66f, i32* %v2_672, align 4
  %v0_674 = load i32, i32* %eax.global-to-local, align 4
  %v1_674 = add i32 %v0_674, 40
  %v2_674 = inttoptr i32 %v1_674 to i32*
  %v3_674 = load i32, i32* %v2_674, align 4
  %v1_677 = load i32, i32* @esi, align 4
  %v2_677 = add i32 %v1_677, 4
  %v3_677 = inttoptr i32 %v2_677 to i32*
  store i32 %v3_674, i32* %v3_677, align 4
  %v0_67a = load i32, i32* %eax.global-to-local, align 4
  %v1_67a = add i32 %v0_67a, 44
  %v2_67a = inttoptr i32 %v1_67a to i32*
  %v3_67a = load i32, i32* %v2_67a, align 4
  %v1_67d = load i32, i32* @esi, align 4
  %v2_67d = add i32 %v1_67d, 8
  %v3_67d = inttoptr i32 %v2_67d to i32*
  store i32 %v3_67a, i32* %v3_67d, align 4
  %v0_680 = load i32, i32* %eax.global-to-local, align 4
  %v1_680 = add i32 %v0_680, 48
  %v2_680 = inttoptr i32 %v1_680 to i32*
  %v3_680 = load i32, i32* %v2_680, align 4
  %v1_683 = load i32, i32* @esi, align 4
  %v2_683 = add i32 %v1_683, ptrtoint (i32* @global_var_c.559 to i32)
  %v3_683 = inttoptr i32 %v2_683 to i32*
  store i32 %v3_680, i32* %v3_683, align 4
  %v0_686 = load i32, i32* %eax.global-to-local, align 4
  %v1_686 = add i32 %v0_686, 52
  %v2_686 = inttoptr i32 %v1_686 to i32*
  %v3_686 = load i32, i32* %v2_686, align 4
  %v1_689 = load i32, i32* @esi, align 4
  %v2_689 = add i32 %v1_689, ptrtoint (i32* @global_var_10.578 to i32)
  %v3_689 = inttoptr i32 %v2_689 to i32*
  store i32 %v3_686, i32* %v3_689, align 4
  %v0_68c = load i32, i32* %eax.global-to-local, align 4
  %v1_68c = add i32 %v0_68c, 56
  %v2_68c = inttoptr i32 %v1_68c to i32*
  %v3_68c = load i32, i32* %v2_68c, align 4
  %v1_68f = load i32, i32* @esi, align 4
  %v2_68f = add i32 %v1_68f, ptrtoint (i8** @global_var_14.558 to i32)
  %v3_68f = inttoptr i32 %v2_68f to i32*
  store i32 %v3_68c, i32* %v3_68f, align 4
  %v0_692 = load i32, i32* %eax.global-to-local, align 4
  %v1_692 = add i32 %v0_692, 60
  %v2_692 = inttoptr i32 %v1_692 to i32*
  %v3_692 = load i32, i32* %v2_692, align 4
  %v1_695 = load i32, i32* @esi, align 4
  %v2_695 = add i32 %v1_695, 24
  %v3_695 = inttoptr i32 %v2_695 to i32*
  store i32 %v3_692, i32* %v3_695, align 4
  %v0_698 = load i32, i32* %eax.global-to-local, align 4
  %v1_698 = add i32 %v0_698, 64
  %v2_698 = inttoptr i32 %v1_698 to i32*
  %v3_698 = load i32, i32* %v2_698, align 4
  %v1_69b = load i32, i32* @esi, align 4
  %v2_69b = add i32 %v1_69b, ptrtoint (i32* @global_var_1c.579 to i32)
  %v3_69b = inttoptr i32 %v2_69b to i32*
  store i32 %v3_698, i32* %v3_69b, align 4
  %v0_69e = load i32, i32* %eax.global-to-local, align 4
  %v1_69e = add i32 %v0_69e, 68
  %v2_69e = inttoptr i32 %v1_69e to i16*
  %v3_69e = load i16, i16* %v2_69e, align 2
  %v2_6a2 = load i32, i32* @esi, align 4
  %v3_6a2 = add i32 %v2_6a2, ptrtoint (i16** @global_var_20.580 to i32)
  %v4_6a2 = inttoptr i32 %v3_6a2 to i16*
  store i16 %v3_69e, i16* %v4_6a2, align 2
  %v2_6a6 = ptrtoint i32* %stack_var_-108 to i32
  store i32 %v2_6a6, i32* %eax.global-to-local, align 4
  %v2_6ad = call i32 @_ZN5boost11unique_lockI14AnnotatedMixinINS_15recursive_mutexEEED1Ev(i32* nonnull %stack_var_-108)
  store i32 %v2_6ad, i32* %eax.global-to-local, align 4
  %v2_6ba = call i32 @_ZN5boost11unique_lockI14AnnotatedMixinINS_15recursive_mutexEEED1Ev(i32* nonnull %stack_var_-112)
  %v4_6c6 = icmp eq i32 %tmp120, ptrtoint ([15 x i8]* @1 to i32)
  store i32 1, i32* @eax, align 4
  %v1_6d2 = icmp eq i1 %v4_6c6, false
  br i1 %v1_6d2, label %bb153, label %dec_label_pc_6d8

bb153:                                            ; preds = %dec_label_pc_66f
  %v2_6d2 = call i32 @function_988()
  store i32 %v2_6d2, i32* %eax.global-to-local, align 4
  br label %dec_label_pc_6d8

dec_label_pc_6d8:                                 ; preds = %bb153, %dec_label_pc_66f
  store i32 %v0_5a3, i32* %esi.global-to-local, align 4
  store i32 %v0_5a2, i32* %edi.global-to-local, align 4
  store i32 %v0_5a1, i32* %ebp.global-to-local, align 4
  ret void

dec_label_pc_6e8:                                 ; preds = %dec_label_pc_5a0
  %v2_6e8 = ptrtoint i32* %stack_var_-132 to i32
  store i32 %v2_6e8, i32* %eax.global-to-local, align 4
  %v1_6ec = add i32 %v0_609, ptrtoint (i32* @global_var_88.581 to i32)
  %v4_6fd = call i32 @_ZNKSt8_Rb_treeI6CKeyIDSt4pairIKS0_S1_I7CPubKeySt6vectorIhSaIhEEEESt10_Select1stIS8_ESt4lessIS0_ESaIS8_EE4findERS2_(i32* nonnull %stack_var_-132, i32 %v1_6ec)
  %v0_702 = load i32, i32* @ebx, align 4
  %v1_702 = add i32 %v0_702, 140
  store i32 %v1_702, i32* %eax.global-to-local, align 4
  %v12_70f = icmp eq i32 %tmp118, %v1_702
  br i1 %v12_70f, label %bb156, label %dec_label_pc_717

bb156:                                            ; preds = %dec_label_pc_6e8
  %v1_711 = call i32 @function_8f0()
  store i32 %v1_711, i32* %eax.global-to-local, align 4
  %v0_717.pre = load i32, i32* %ebp.global-to-local, align 4
  br label %dec_label_pc_717

dec_label_pc_717:                                 ; preds = %bb156, %dec_label_pc_6e8
  %v0_717 = phi i32 [ %v0_717.pre, %bb156 ], [ %tmp118, %dec_label_pc_6e8 ]
  %v1_717 = add i32 %v0_717, ptrtoint (i16** @global_var_24.567 to i32)
  %v2_717 = inttoptr i32 %v1_717 to i8*
  %v3_717 = load i8, i8* %v2_717, align 1
  %v4_717 = zext i8 %v3_717 to i32
  store i32 %v4_717, i32* @eax, align 4
  store i32 ptrtoint (i32* @global_var_21.582 to i32), i32* @ecx, align 4
  store %"vector<unsignedchar,secure_allocator<unsignedchar>>" zeroinitializer, %"vector<unsignedchar,secure_allocator<unsignedchar>>"* %vchSecret_-128, align 8
  %tmp163 = or i8 %v3_717, 1
  %tmp164 = icmp eq i8 %tmp163, 3
  br i1 %tmp164, label %dec_label_pc_75c, label %dec_label_pc_740

dec_label_pc_740:                                 ; preds = %dec_label_pc_717
  %v11_740 = icmp eq i8 %v3_717, 6
  br i1 %v11_740, label %bb159, label %dec_label_pc_748

bb159:                                            ; preds = %dec_label_pc_740
  %v4_742 = getelementptr inbounds %"vector<unsignedchar,secure_allocator<unsignedchar>>", %"vector<unsignedchar,secure_allocator<unsignedchar>>"* %vchSecret_-128, i32 0, i32 0
  %v5_742 = load i32, i32* %v4_742, align 8
  %v6_742 = call i32 @function_8c8(i32 %v5_742, i32 0, i32 0)
  store i32 %v6_742, i32* @eax, align 4
  br label %dec_label_pc_748

dec_label_pc_748:                                 ; preds = %bb159, %dec_label_pc_740
  %v0_748 = phi i32 [ %v6_742, %bb159 ], [ %v4_717, %dec_label_pc_740 ]
  %v1_748 = trunc i32 %v0_748 to i8
  %v11_748 = icmp eq i8 %v1_748, 4
  br i1 %v11_748, label %bb161, label %dec_label_pc_750

bb161:                                            ; preds = %dec_label_pc_748
  %v4_74a = call i32 @function_8c8(i32 0, i32 ptrtoint (i32* @0 to i32), i32 ptrtoint (i32* @0 to i32))
  store i32 %v4_74a, i32* %eax.global-to-local, align 4
  br label %dec_label_pc_750

dec_label_pc_750:                                 ; preds = %bb161, %dec_label_pc_748
  store i32 0, i32* %eax.global-to-local, align 4
  br label %dec_label_pc_75c

dec_label_pc_75c:                                 ; preds = %dec_label_pc_750, %dec_label_pc_717
  %v2_776 = ptrtoint i32* %stack_var_-68 to i32
  store i32 %v2_776, i32* %eax.global-to-local, align 4
  ret void

; uselistorder directives
  uselistorder i32 %v3_663, { 1, 0, 2 }
  uselistorder %"vector<unsignedchar,secure_allocator<unsignedchar>>"* %vchSecret_-128, { 0, 2, 1, 3 }
  uselistorder i32 %tmp118, { 1, 0 }
  uselistorder i32* %eax.global-to-local, { 4, 5, 0, 1, 6, 7, 2, 8, 9, 10, 11, 12, 13, 14, 15, 16, 17, 3, 18, 19, 20, 21 }
  uselistorder i32 (i32, i32, i32)* @function_8c8, { 1, 0 }
}

define i32 @function_843() local_unnamed_addr {
dec_label_pc_843:
  %eax.global-to-local = alloca i32, align 4
  %tmp91 = call i32 @__decompiler_undefined_function_0()
  %v1_843 = add i32 %tmp91, -2124667836
  %v2_843 = inttoptr i32 %v1_843 to i32*
  %v3_843 = load i32, i32* %v2_843, align 4
  %v4_843 = add i32 %v3_843, -1
  store i32 %v4_843, i32* %v2_843, align 4
  %v0_849 = load i32, i32* %eax.global-to-local, align 4
  ret i32 %v0_849
}

define i32 @function_88d(i32 %arg1) local_unnamed_addr {
dec_label_pc_88d:
  %tmp = load i32, i32* @eax, align 4
  ret i32 %tmp
}

define i32 @function_898() local_unnamed_addr {
dec_label_pc_898:
  %eax.global-to-local = alloca i32, align 4
  %v4_898 = load i32, i32* %eax.global-to-local, align 4
  ret i32 %v4_898
}

define i32 @function_8c3() local_unnamed_addr {
dec_label_pc_8c3:
  %eax.global-to-local = alloca i32, align 4
  %v0_8c3 = load i32, i32* %eax.global-to-local, align 4
  ret i32 %v0_8c3
}

define i32 @function_8c8(i32 %arg1, i32 %arg2, i32 %arg3) local_unnamed_addr {
dec_label_pc_8c8:
  store i32 65, i32* @ecx, align 4
  %v0_8cd = load i32, i32* @eax, align 4
  ret i32 %v0_8cd
}

define i32 @function_8d8() local_unnamed_addr {
dec_label_pc_8d8:
  %stack_var_84 = alloca i32, align 4
  %v2_8df = call i32 @_ZN5boost11unique_lockI14AnnotatedMixinINS_15recursive_mutexEEED1Ev(i32* nonnull %stack_var_84)
  ret i32 %v2_8df
}

define i32 @function_8f0() local_unnamed_addr {
dec_label_pc_8f0:
  %v0_8f0 = load i32, i32* @edi, align 4
  %v1_8f3 = inttoptr i32 %v0_8f0 to i32*
  %v2_8f3 = call i32 @_ZN5boost11unique_lockI14AnnotatedMixinINS_15recursive_mutexEEED1Ev(i32* %v1_8f3)
  ret i32 %v2_8f3
}

define i32 @function_908() local_unnamed_addr {
dec_label_pc_908:
  %v2_90d = call i32 @function_88d(i32 0)
  ret i32 %v2_90d
}

define i32 @function_91e() local_unnamed_addr {
dec_label_pc_91e:
  %eax.global-to-local = alloca i32, align 4
  %esi.global-to-local = alloca i32, align 4
  %v0_91e = load i32, i32* %eax.global-to-local, align 4
  %v11_91e = and i32 %v0_91e, -125
  store i32 %v11_91e, i32* %eax.global-to-local, align 4
  %v0_920 = call i32 @unknown_f014527()
  %v1_925 = load i32, i32* %esi.global-to-local, align 4
  store i32 %v1_925, i32* %eax.global-to-local, align 4
  store i32 %v0_920, i32* %esi.global-to-local, align 4
  ret i32 %v1_925
}

define i32 @function_92e(i32 %arg1) local_unnamed_addr {
dec_label_pc_92e:
  %ebp.global-to-local = alloca i32, align 4
  %ebx.global-to-local = alloca i32, align 4
  %edx.global-to-local = alloca i32, align 4
  %esi.global-to-local = alloca i32, align 4
  %v0_92e = load i32, i32* @eax, align 4
  %v4_92e = trunc i32 %v0_92e to i8
  %v5_92e = icmp eq i8 %v4_92e, 0
  %v1_930 = icmp eq i1 %v5_92e, false
  br i1 %v1_930, label %dec_label_pc_943, label %dec_label_pc_932

dec_label_pc_932:                                 ; preds = %dec_label_pc_92e
  %v0_932 = load i32, i32* %esi.global-to-local, align 4
  %v1_932 = inttoptr i32 %v0_932 to i8*
  store i8 0, i8* %v1_932, align 1
  store i32 %arg1, i32* %ebx.global-to-local, align 4
  %v2_93e = call i32 @function_88d(i32 1)
  ret i32 %v2_93e

dec_label_pc_943:                                 ; preds = %dec_label_pc_92e
  %v2_943 = load i32, i32* %ebx.global-to-local, align 4
  store i32 %v2_943, i32* %edx.global-to-local, align 4
  %v0_945 = load i32, i32* %ebp.global-to-local, align 4
  store i32 %v0_945, i32* @eax, align 4
  %v1_947 = load i32, i32* %esi.global-to-local, align 4
  %v2_947 = add i32 %v1_947, 2
  %v3_947 = inttoptr i32 %v2_947 to i32*
  store i32 %v2_943, i32* %v3_947, align 4
  %v0_94a = load i32, i32* %ebx.global-to-local, align 4
  %v1_94a = add i32 %v0_94a, 4
  %v2_94a = inttoptr i32 %v1_94a to i32*
  %v3_94a = load i32, i32* %v2_94a, align 4
  store i32 %v3_94a, i32* %edx.global-to-local, align 4
  %v1_94d = load i32, i32* %esi.global-to-local, align 4
  %v2_94d = add i32 %v1_94d, ptrtoint (i16** @global_var_6.583 to i32)
  %v3_94d = inttoptr i32 %v2_94d to i32*
  store i32 %v3_94a, i32* %v3_94d, align 4
  %v0_950 = load i32, i32* %ebx.global-to-local, align 4
  %v1_950 = add i32 %v0_950, 8
  %v2_950 = inttoptr i32 %v1_950 to i32*
  %v3_950 = load i32, i32* %v2_950, align 4
  store i32 %v3_950, i32* %edx.global-to-local, align 4
  %v1_953 = load i32, i32* %esi.global-to-local, align 4
  %v2_953 = add i32 %v1_953, ptrtoint (i32* @global_var_a.584 to i32)
  %v3_953 = inttoptr i32 %v2_953 to i32*
  store i32 %v3_950, i32* %v3_953, align 4
  %v0_956 = load i32, i32* %ebx.global-to-local, align 4
  %v1_956 = add i32 %v0_956, ptrtoint (i32* @global_var_c.559 to i32)
  %v2_956 = inttoptr i32 %v1_956 to i32*
  %v3_956 = load i32, i32* %v2_956, align 4
  store i32 %v3_956, i32* %edx.global-to-local, align 4
  %v1_959 = load i32, i32* %esi.global-to-local, align 4
  %v2_959 = add i32 %v1_959, ptrtoint (i32* @global_var_e.585 to i32)
  %v3_959 = inttoptr i32 %v2_959 to i32*
  store i32 %v3_956, i32* %v3_959, align 4
  %v0_95c = load i32, i32* %ebx.global-to-local, align 4
  %v1_95c = add i32 %v0_95c, ptrtoint (i32* @global_var_10.578 to i32)
  %v2_95c = inttoptr i32 %v1_95c to i32*
  %v3_95c = load i32, i32* %v2_95c, align 4
  store i32 %v3_95c, i32* %edx.global-to-local, align 4
  %v1_95f = load i32, i32* %esi.global-to-local, align 4
  %v2_95f = add i32 %v1_95f, 18
  %v3_95f = inttoptr i32 %v2_95f to i32*
  store i32 %v3_95c, i32* %v3_95f, align 4
  %v0_962 = load i32, i32* %ebx.global-to-local, align 4
  %v1_962 = add i32 %v0_962, ptrtoint (i8** @global_var_14.558 to i32)
  %v2_962 = inttoptr i32 %v1_962 to i32*
  %v3_962 = load i32, i32* %v2_962, align 4
  store i32 %v3_962, i32* %edx.global-to-local, align 4
  %v1_965 = load i32, i32* %esi.global-to-local, align 4
  %v2_965 = add i32 %v1_965, 22
  %v3_965 = inttoptr i32 %v2_965 to i32*
  store i32 %v3_962, i32* %v3_965, align 4
  %v0_968 = load i32, i32* %ebx.global-to-local, align 4
  %v1_968 = add i32 %v0_968, 24
  %v2_968 = inttoptr i32 %v1_968 to i32*
  %v3_968 = load i32, i32* %v2_968, align 4
  store i32 %v3_968, i32* %edx.global-to-local, align 4
  %v1_96b = load i32, i32* %esi.global-to-local, align 4
  %v2_96b = add i32 %v1_96b, 26
  %v3_96b = inttoptr i32 %v2_96b to i32*
  store i32 %v3_968, i32* %v3_96b, align 4
  %v0_96e = load i32, i32* %ebx.global-to-local, align 4
  %v1_96e = add i32 %v0_96e, ptrtoint (i32* @global_var_1c.579 to i32)
  %v2_96e = inttoptr i32 %v1_96e to i32*
  %v3_96e = load i32, i32* %v2_96e, align 4
  store i32 %v3_96e, i32* %edx.global-to-local, align 4
  %v0_971 = load i32, i32* %esi.global-to-local, align 4
  %v1_971 = inttoptr i32 %v0_971 to i8*
  store i8 1, i8* %v1_971, align 1
  %v0_974 = load i32, i32* @eax, align 4
  %v1_974 = trunc i32 %v0_974 to i8
  %v2_974 = load i32, i32* %esi.global-to-local, align 4
  %v3_974 = add i32 %v2_974, 1
  %v4_974 = inttoptr i32 %v3_974 to i8*
  store i8 %v1_974, i8* %v4_974, align 1
  %v0_977 = load i32, i32* %edx.global-to-local, align 4
  %v1_977 = load i32, i32* %esi.global-to-local, align 4
  %v2_977 = add i32 %v1_977, 30
  %v3_977 = inttoptr i32 %v2_977 to i32*
  store i32 %v0_977, i32* %v3_977, align 4
  store i32 %arg1, i32* %ebx.global-to-local, align 4
  %v2_983 = call i32 @function_88d(i32 1)
  ret i32 %v2_983

; uselistorder directives
  uselistorder i32* %ebx.global-to-local, { 0, 2, 3, 4, 5, 6, 7, 8, 9, 1 }
  uselistorder i32 (i32)* @function_88d, { 2, 1, 0 }
  uselistorder i32 %arg1, { 1, 0 }
}

define i32 @function_988() local_unnamed_addr {
dec_label_pc_988:
  %tmp = load i32, i32* @eax, align 4
  ret i32 %tmp
}

define i32 @function_98e() local_unnamed_addr {
dec_label_pc_98e:
  %eax.global-to-local = alloca i32, align 4
  %v0_98e = load i32, i32* %eax.global-to-local, align 4
  ret i32 %v0_98e
}

define i32 @function_98f() local_unnamed_addr {
dec_label_pc_98f:
  %tmp = load i32, i32* @eax, align 4
  ret i32 %tmp
}

define i32 @function_99e() local_unnamed_addr {
dec_label_pc_99e:
  %eax.global-to-local = alloca i32, align 4
  %ecx.global-to-local = alloca i32, align 4
  %v0_99e = load i32, i32* %ecx.global-to-local, align 4
  %v1_99e = add i32 %v0_99e, 608472003
  %v2_99e = inttoptr i32 %v1_99e to i32*
  %v3_99e = load i32, i32* %v2_99e, align 4
  %v4_99e = add i32 %v3_99e, -1
  store i32 %v4_99e, i32* %v2_99e, align 4
  %v0_9a4 = load i32, i32* %eax.global-to-local, align 4
  %v2_9a4 = xor i32 %v0_9a4, zext (i8 ptrtoint (i8* @global_var_89.586 to i8) to i32)
  %v2_9a6 = add i32 %v2_9a4, zext (i8 ptrtoint (i16** @global_var_24.567 to i8) to i32)
  %v16_9a6 = and i32 %v2_9a6, 255
  %v18_9a6 = and i32 %v0_9a4, -256
  %v19_9a6 = or i32 %v16_9a6, %v18_9a6
  store i32 %v19_9a6, i32* %eax.global-to-local, align 4
  %v2_9a8 = call i32 @_ZNSt6vectorIh16secure_allocatorIhEED1Ev(i32* nonnull @0)
  store i32 %v2_9a8, i32* @eax, align 4
  %v0_9ad = call i32 @function_98f()
  store i32 %v0_9ad, i32* %eax.global-to-local, align 4
  ret i32 %v0_9ad

; uselistorder directives
  uselistorder i32 %v0_9a4, { 1, 0 }
}

define void @_ZNK9CKeyStore9GetPubKeyERK6CKeyIDR7CPubKey(i32 %this, i32 %address, i32 %vchPubKeyOut) {
dec_label_pc_9b0:
  %stack_var_-66 = alloca i32, align 4
  %v2_9dd = ptrtoint i32* %stack_var_-66 to i32
  store i32 %v2_9dd, i32* @ebx, align 4
  ret void
}

define i32 @function_a5f() local_unnamed_addr {
dec_label_pc_a5f:
  %tmp = load i32, i32* @eax, align 4
  ret i32 %tmp
}

define i32 @function_a67() local_unnamed_addr {
dec_label_pc_a67:
  %df.global-to-local = alloca i1, align 1
  %ecx.global-to-local = alloca i32, align 4
  %tmp92 = call i32 @__decompiler_undefined_function_0()
  %v4_a67 = load i1, i1* %df.global-to-local, align 1
  %v5_a67 = select i1 %v4_a67, i32 252, i32 4
  %v6_a67 = add i32 %v5_a67, %tmp92
  %tmp96 = trunc i32 %v6_a67 to i8
  %v4_a68 = trunc i32 %tmp92 to i8
  %v5_a68 = add i8 %tmp96, %v4_a68
  %v21_a68 = inttoptr i32 %tmp92 to i8*
  store i8 %v5_a68, i8* %v21_a68, align 1
  %v0_a6a = load i32, i32* %ecx.global-to-local, align 4
  %v1_a6a = add i32 %v0_a6a, -1043189311
  %v2_a6a = inttoptr i32 %v1_a6a to i8*
  %v3_a6a = load i8, i8* %v2_a6a, align 1
  %v5_a6a = trunc i32 %v0_a6a to i8
  %v6_a6a = add i8 %v3_a6a, %v5_a6a
  store i8 %v6_a6a, i8* %v2_a6a, align 1
  %v0_a70 = call i32 @function_f302b277()
  ret i32 %v0_a70

; uselistorder directives
  uselistorder i32 %tmp92, { 1, 0, 2 }
}

define i32 @function_a80() local_unnamed_addr {
dec_label_pc_a80:
  %tmp = load i32, i32* @eax, align 4
  ret i32 %tmp
}

define i32 @function_a85() local_unnamed_addr {
dec_label_pc_a85:
  %v3_a8d = load i32, i32* @eax, align 4
  ret i32 %v3_a8d
}

define i32 @function_ae8() local_unnamed_addr {
dec_label_pc_ae8:
  %v0_ae8 = load i32, i32* @esi, align 4
  %v1_ae8 = load i32, i32* @edx, align 4
  %v3_ae8 = add i32 %v1_ae8, %v0_ae8
  %v4_ae8 = inttoptr i32 %v3_ae8 to i8*
  %v5_ae8 = load i8, i8* %v4_ae8, align 1
  %v6_ae8 = zext i8 %v5_ae8 to i32
  store i32 %v6_ae8, i32* @eax, align 4
  %v2_aec = load i32, i32* @edi, align 4
  %v5_aec = add i32 %v2_aec, %v1_ae8
  %v6_aec = inttoptr i32 %v5_aec to i8*
  store i8 %v5_ae8, i8* %v6_aec, align 1
  %v0_aef = call i32 @function_a80()
  ret i32 %v0_aef
}

define i32 @function_af8() local_unnamed_addr {
dec_label_pc_af8:
  %v2_af8 = load i16, i16* bitcast (i32* @esi to i16*), align 4
  %v0_afb = load i32, i32* @eax, align 4
  %v2_afb = urem i32 %v0_afb, 2
  %v3_afb = icmp eq i32 %v2_afb, 0
  %v2_afd = load i32, i32* @edi, align 4
  %v3_afd = inttoptr i32 %v2_afd to i16*
  store i16 %v2_af8, i16* %v3_afd, align 2
  store i32 2, i32* @edx, align 4
  br i1 %v3_afb, label %bb, label %dec_label_pc_b0b

bb:                                               ; preds = %dec_label_pc_af8
  %v1_b05 = call i32 @function_a80()
  br label %dec_label_pc_b0b

dec_label_pc_b0b:                                 ; preds = %bb, %dec_label_pc_af8
  %v0_b0b = call i32 @function_ae8()
  ret i32 %v0_b0b

; uselistorder directives
  uselistorder i32 ()* @function_a80, { 1, 0 }
}

define i32 @function_b10() local_unnamed_addr {
dec_label_pc_b10:
  %v0_b12 = call i32 @function_a85()
  ret i32 %v0_b12
}

define i32 @function_b18() local_unnamed_addr {
dec_label_pc_b18:
  %eax.global-to-local = alloca i32, align 4
  %edi.global-to-local = alloca i32, align 4
  %esi.global-to-local = alloca i32, align 4
  %v2_b18 = load i16, i16* bitcast (i32* @esi to i16*), align 4
  %v0_b1b = load i32, i32* %eax.global-to-local, align 4
  %v1_b1b = add i32 %v0_b1b, -2
  store i32 %v1_b1b, i32* %eax.global-to-local, align 4
  %v0_b1e = load i32, i32* %esi.global-to-local, align 4
  %v1_b1e = add i32 %v0_b1e, 2
  store i32 %v1_b1e, i32* %esi.global-to-local, align 4
  %v2_b21 = load i32, i32* %edi.global-to-local, align 4
  %v3_b21 = inttoptr i32 %v2_b21 to i16*
  store i16 %v2_b18, i16* %v3_b21, align 2
  %v0_b24 = load i32, i32* %edi.global-to-local, align 4
  %v1_b24 = add i32 %v0_b24, 2
  store i32 %v1_b24, i32* %edi.global-to-local, align 4
  %v0_b27 = load i32, i32* %eax.global-to-local, align 4
  ret i32 %v0_b27
}

define i32 @function_b30(i8 %arg1) local_unnamed_addr {
dec_label_pc_b30:
  %edi.global-to-local = alloca i32, align 4
  %tmp93 = call i32 @__decompiler_undefined_function_0()
  %v3_b39 = inttoptr i32 %tmp93 to i8*
  store i8 %arg1, i8* %v3_b39, align 1
  %v0_b3b = load i32, i32* %edi.global-to-local, align 4
  %v1_b3b = add i32 %v0_b3b, 1
  store i32 %v1_b3b, i32* %edi.global-to-local, align 4
  store i32 64, i32* @eax, align 4
  %v0_b43 = call i32 @function_a5f()
  ret i32 %v0_b43
}

define i32 @function_b48() local_unnamed_addr {
dec_label_pc_b48:
  %eax.global-to-local = alloca i32, align 4
  %tmp96 = load i32, i32* %eax.global-to-local, align 4
  ret i32 %tmp96
}

define void @_ZNK15CCryptoKeyStore9GetPubKeyERK6CKeyIDR7CPubKey(i32 %this, i32 %address, i32 %vchPubKeyOut) local_unnamed_addr {
dec_label_pc_b60:
  %df.global-to-local = alloca i1, align 1
  %eax.global-to-local = alloca i32, align 4
  %edx.global-to-local = alloca i32, align 4
  %esi.global-to-local = alloca i32, align 4
  %zf.global-to-local = alloca i1, align 1
  %tmp106 = call i32 @__decompiler_undefined_function_0()
  %stack_var_-48 = alloca i32, align 4
  %stack_var_-40 = alloca i32, align 4
  %stack_var_-92 = alloca i32, align 4
  store i32 %this, i32* @esi, align 4
  store i1 true, i1* %zf.global-to-local, align 1
  %v2_b7b = ptrtoint i32* %stack_var_-40 to i32
  store i32 %v2_b7b, i32* @ebx, align 4
  store i32 %vchPubKeyOut, i32* @edi, align 4
  %v1_b87 = add i32 %this, 4
  store i32 %v1_b87, i32* %eax.global-to-local, align 4
  store i32 %address, i32* @ebp, align 4
  store i32 %v2_b7b, i32* %stack_var_-92, align 4
  %v10_bb9 = call i32 @_ZN10CMutexLockI14AnnotatedMixinIN5boost15recursive_mutexEEEC1ERS3_PKcS7_ib(i32* nonnull %stack_var_-40, i32 %v1_b87, i32 ptrtoint ([12 x i8]* @global_var_24ad.573 to i32), i32 ptrtoint ([13 x i8]* @global_var_24a0.572 to i32), i32 ptrtoint ([4 x i8]* @global_var_a9.587 to i32), i32 0)
  store i32 %v10_bb9, i32* %eax.global-to-local, align 4
  %v0_bbe = load i32, i32* @esi, align 4
  %v1_bbe = add i32 %v0_bbe, 172
  %v2_bbe = inttoptr i32 %v1_bbe to i8*
  %v3_bbe = load i8, i8* %v2_bbe, align 1
  %v10_bbe = icmp eq i8 %v3_bbe, 0
  store i1 %v10_bbe, i1* %zf.global-to-local, align 1
  %v1_bc5 = icmp eq i1 %v10_bbe, false
  br i1 %v1_bc5, label %dec_label_pc_c08, label %dec_label_pc_bc7

dec_label_pc_bc7:                                 ; preds = %dec_label_pc_b60
  %v0_bc7 = load i32, i32* @edi, align 4
  store i32 %v0_bbe, i32* %stack_var_-92, align 4
  call void @_ZNK9CKeyStore9GetPubKeyERK6CKeyIDR7CPubKey(i32 %v0_bbe, i32 %v0_bc7, i32 ptrtoint ([13 x i8]* @global_var_24a0.572 to i32))
  store i32 ptrtoint (i32* @0 to i32), i32* %eax.global-to-local, align 4
  br label %dec_label_pc_bd9

dec_label_pc_bd9:                                 ; preds = %dec_label_pc_c63, %dec_label_pc_c67, %dec_label_pc_bc7
  %storemerge = phi i32 [ ptrtoint (i32* @0 to i32), %dec_label_pc_bc7 ], [ 1, %dec_label_pc_c67 ], [ 1, %dec_label_pc_c63 ]
  store i32 %storemerge, i32* %esi.global-to-local, align 4
  %v1_bd9 = load i32, i32* @esp, align 4
  %v2_bd9 = inttoptr i32 %v1_bd9 to i32*
  store i32 %v2_b7b, i32* %v2_bd9, align 4
  %v0_bdc = load i32, i32* %stack_var_-92, align 4
  %v1_bdc = inttoptr i32 %v0_bdc to i32*
  %v2_bdc = call i32 @_ZN5boost11unique_lockI14AnnotatedMixinINS_15recursive_mutexEEED1Ev(i32* %v1_bdc)
  br label %dec_label_pc_be1

dec_label_pc_be1:                                 ; preds = %dec_label_pc_c78, %dec_label_pc_bd9
  %storemerge5 = phi i32 [ %v2_c7d, %dec_label_pc_c78 ], [ %v2_bdc, %dec_label_pc_bd9 ]
  store i32 %storemerge5, i32* %eax.global-to-local, align 4
  %v0_be1 = load i32, i32* @esp, align 4
  %v1_be1 = add i32 %v0_be1, 60
  %v2_be1 = inttoptr i32 %v1_be1 to i32*
  %v3_be1 = load i32, i32* %v2_be1, align 4
  %v3_be5 = xor i32 %v3_be1, ptrtoint ([15 x i8]* @1 to i32)
  %v4_be5 = icmp eq i32 %v3_be5, 0
  store i1 %v4_be5, i1* %zf.global-to-local, align 1
  store i32 %v3_be5, i32* %edx.global-to-local, align 4
  %v0_bec = load i32, i32* %esi.global-to-local, align 4
  store i32 %v0_bec, i32* %eax.global-to-local, align 4
  %v1_bee = icmp eq i1 %v4_be5, false
  br i1 %v1_bee, label %dec_label_pc_cb1, label %dec_label_pc_bf4

dec_label_pc_bf4:                                 ; preds = %dec_label_pc_be1
  %v1_bf8 = add i32 %v0_be1, 80
  %v2_bf8 = inttoptr i32 %v1_bf8 to i32*
  %v3_bf8 = load i32, i32* %v2_bf8, align 4
  store i32 %v3_bf8, i32* %esi.global-to-local, align 4
  %v10_c04 = icmp eq i32 %v0_be1, sub (i32 0, i32 ptrtoint (i8* @global_var_5c.577 to i32))
  store i1 %v10_c04, i1* %zf.global-to-local, align 1
  ret void

dec_label_pc_c08:                                 ; preds = %dec_label_pc_b60
  %v1_c08 = add i32 %v0_bbe, ptrtoint (i32* @global_var_88.581 to i32)
  store i32 %v1_c08, i32* %edx.global-to-local, align 4
  %v1_c0e = add i32 %v0_bbe, 140
  %v10_c0e = icmp eq i32 %v1_c0e, 0
  store i1 %v10_c0e, i1* %zf.global-to-local, align 1
  store i32 %v1_c0e, i32* @esi, align 4
  %v2_c14 = ptrtoint i32* %stack_var_-48 to i32
  store i32 %v2_c14, i32* %eax.global-to-local, align 4
  store i32 %v2_c14, i32* %stack_var_-92, align 4
  %v3_c23 = call i32 @_ZNKSt8_Rb_treeI6CKeyIDSt4pairIKS0_S1_I7CPubKeySt6vectorIhSaIhEEEESt10_Select1stIS8_ESt4lessIS0_ESaIS8_EE4findERS2_(i32* nonnull %stack_var_-48, i32 %v1_c08)
  store i32 %v3_c23, i32* %eax.global-to-local, align 4
  %v1_c2f = load i32, i32* @esi, align 4
  %v12_c2f = icmp eq i32 %tmp106, %v1_c2f
  store i1 %v12_c2f, i1* %zf.global-to-local, align 1
  br i1 %v12_c2f, label %dec_label_pc_c78, label %dec_label_pc_c33

dec_label_pc_c33:                                 ; preds = %dec_label_pc_c08
  %v0_c33 = load i32, i32* @edi, align 4
  %v1_c33 = urem i32 %v0_c33, 2
  %v2_c33 = icmp eq i32 %v1_c33, 0
  store i1 %v2_c33, i1* %zf.global-to-local, align 1
  store i32 65, i32* %eax.global-to-local, align 4
  %v1_c3e = add i32 %tmp106, ptrtoint (i16** @global_var_24.567 to i32)
  store i32 %v1_c3e, i32* %esi.global-to-local, align 4
  %v1_c41 = icmp eq i1 %v2_c33, false
  br i1 %v1_c41, label %dec_label_pc_c88, label %dec_label_pc_c43

dec_label_pc_c43:                                 ; preds = %dec_label_pc_c88, %dec_label_pc_c33
  %v2_ca9 = phi i32 [ %v1_c91, %dec_label_pc_c88 ], [ %v0_c33, %dec_label_pc_c33 ]
  %v0_ca3 = phi i32 [ 64, %dec_label_pc_c88 ], [ 65, %dec_label_pc_c33 ]
  %v1_c43 = and i32 %v2_ca9, 2
  %v2_c43 = icmp eq i32 %v1_c43, 0
  store i1 %v2_c43, i1* %zf.global-to-local, align 1
  %v1_c49 = icmp eq i1 %v2_c43, false
  br i1 %v1_c49, label %dec_label_pc_ca0, label %dec_label_pc_c4b

dec_label_pc_c4b:                                 ; preds = %dec_label_pc_ca0, %dec_label_pc_c43
  %v2_c54 = phi i32 [ %v1_cac, %dec_label_pc_ca0 ], [ %v2_ca9, %dec_label_pc_c43 ]
  %v0_c52 = phi i32 [ %v0_c4b.pre, %dec_label_pc_ca0 ], [ %v0_ca3, %dec_label_pc_c43 ]
  store i32 0, i32* %edx.global-to-local, align 4
  %v2_c4f = udiv i32 %v0_c52, 4
  %v9_c4f = and i32 %v0_c52, 2
  %v3_c52 = icmp eq i32 %v9_c4f, 0
  store i1 %v3_c52, i1* %zf.global-to-local, align 1
  %v0_c54 = load i32, i32* %esi.global-to-local, align 4
  %v1_c54 = inttoptr i32 %v0_c54 to i8*
  %v3_c54 = inttoptr i32 %v2_c54 to i8*
  call void @__asm_rep_movsd_memcpy(i8* %v3_c54, i8* %v1_c54, i32 %v2_c4f)
  %v5_c54 = load i1, i1* %df.global-to-local, align 1
  %v6_c54 = select i1 %v5_c54, i32 -4, i32 4
  %v7_c54 = mul i32 %v6_c54, %v2_c4f
  %v8_c54 = add i32 %v7_c54, %v2_c54
  store i32 %v8_c54, i32* %esi.global-to-local, align 4
  %v0_c56 = load i1, i1* %zf.global-to-local, align 1
  br i1 %v0_c56, label %dec_label_pc_c63, label %dec_label_pc_c58

dec_label_pc_c58:                                 ; preds = %dec_label_pc_c4b
  store i32 2, i32* %edx.global-to-local, align 4
  br label %dec_label_pc_c63

dec_label_pc_c63:                                 ; preds = %dec_label_pc_c58, %dec_label_pc_c4b
  %v0_c63 = load i32, i32* %eax.global-to-local, align 4
  %v2_c63 = urem i32 %v0_c63, 2
  %v3_c63 = icmp eq i32 %v2_c63, 0
  store i1 %v3_c63, i1* %zf.global-to-local, align 1
  br i1 %v3_c63, label %dec_label_pc_bd9, label %dec_label_pc_c67

dec_label_pc_c67:                                 ; preds = %dec_label_pc_c63
  %v1_c67 = load i32, i32* %edx.global-to-local, align 4
  %v3_c67 = add i32 %v1_c67, %v8_c54
  %v4_c67 = inttoptr i32 %v3_c67 to i8*
  %v5_c67 = load i8, i8* %v4_c67, align 1
  %v6_c67 = zext i8 %v5_c67 to i32
  store i32 %v6_c67, i32* %eax.global-to-local, align 4
  store i8 %v5_c67, i8* %v4_c67, align 1
  br label %dec_label_pc_bd9

dec_label_pc_c78:                                 ; preds = %dec_label_pc_c08
  store i1 true, i1* %zf.global-to-local, align 1
  store i32 0, i32* %esi.global-to-local, align 4
  %v2_c7d = call i32 @_ZN5boost11unique_lockI14AnnotatedMixinINS_15recursive_mutexEEED1Ev(i32* nonnull %stack_var_-40)
  br label %dec_label_pc_be1

dec_label_pc_c88:                                 ; preds = %dec_label_pc_c33
  %v2_c88 = inttoptr i32 %v1_c3e to i8*
  %v3_c88 = load i8, i8* %v2_c88, align 1
  %v1_c8c = add i32 %tmp106, ptrtoint (i32* @global_var_25.589 to i32)
  store i32 %v1_c8c, i32* %esi.global-to-local, align 4
  %v3_c8f = inttoptr i32 %v0_c33 to i8*
  store i8 %v3_c88, i8* %v3_c8f, align 1
  %v0_c91 = load i32, i32* @edi, align 4
  %v1_c91 = add i32 %v0_c91, 1
  %v10_c91 = icmp eq i32 %v1_c91, 0
  store i1 %v10_c91, i1* %zf.global-to-local, align 1
  store i32 %v1_c91, i32* @edi, align 4
  store i32 64, i32* %eax.global-to-local, align 4
  br label %dec_label_pc_c43

dec_label_pc_ca0:                                 ; preds = %dec_label_pc_c43
  %v0_ca0 = load i32, i32* %esi.global-to-local, align 4
  %v1_ca0 = inttoptr i32 %v0_ca0 to i16*
  %v2_ca0 = load i16, i16* %v1_ca0, align 2
  %v3_ca0 = zext i16 %v2_ca0 to i32
  store i32 %v3_ca0, i32* %edx.global-to-local, align 4
  %v1_ca3 = add nsw i32 %v0_ca3, -2
  store i32 %v1_ca3, i32* %eax.global-to-local, align 4
  %v1_ca6 = add i32 %v0_ca0, 2
  store i32 %v1_ca6, i32* %esi.global-to-local, align 4
  %v3_ca9 = inttoptr i32 %v2_ca9 to i16*
  store i16 %v2_ca0, i16* %v3_ca9, align 2
  %v0_cac = load i32, i32* @edi, align 4
  %v1_cac = add i32 %v0_cac, 2
  %v10_cac = icmp eq i32 %v1_cac, 0
  store i1 %v10_cac, i1* %zf.global-to-local, align 1
  %v0_c4b.pre = load i32, i32* %eax.global-to-local, align 4
  br label %dec_label_pc_c4b

dec_label_pc_cb1:                                 ; preds = %dec_label_pc_be1
  ret void

; uselistorder directives
  uselistorder i32 %v1_cac, { 1, 0 }
  uselistorder i32 %v1_c91, { 1, 2, 0 }
  uselistorder i1 %v3_c63, { 1, 0 }
  uselistorder i32 %v2_c4f, { 1, 0 }
  uselistorder i32 %v0_c52, { 1, 0 }
  uselistorder i32 %v0_ca3, { 1, 0 }
  uselistorder i32 %v2_ca9, { 1, 0, 2 }
  uselistorder i32 %v0_c33, { 2, 1, 0 }
  uselistorder i1 %v12_c2f, { 1, 0 }
  uselistorder i32 %v0_bbe, { 1, 0, 3, 2, 4 }
  uselistorder i32* %stack_var_-92, { 1, 0, 2, 3 }
  uselistorder i32 %tmp106, { 1, 2, 0 }
  uselistorder i32* %esi.global-to-local, { 0, 5, 1, 2, 3, 4, 6, 9, 7, 8 }
  uselistorder i32* %edx.global-to-local, { 0, 2, 1, 3, 4, 5 }
  uselistorder i32* %eax.global-to-local, { 1, 2, 3, 4, 5, 6, 7, 8, 9, 0, 10, 11, 12 }
  uselistorder label %dec_label_pc_bd9, { 1, 0, 2 }
}

define void @_ZN15CCryptoKeyStore11EncryptKeysERSt6vectorIh16secure_allocatorIhEE(i32 %this, %"vector<unsignedchar,secure_allocator<unsignedchar>>" %vMasterKeyIn) local_unnamed_addr {
dec_label_pc_cd0:
  %eax.global-to-local = alloca i32, align 4
  %edx.global-to-local = alloca i32, align 4
  %stack_var_-172 = alloca i32, align 4
  %v2_d13 = ptrtoint i32* %stack_var_-172 to i32
  store i32 %v2_d13, i32* %edx.global-to-local, align 4
  %v1_d22 = add i32 %this, 4
  store i32 %v1_d22, i32* %eax.global-to-local, align 4
  %v9_d31 = call i32 @_ZN10CMutexLockI14AnnotatedMixinIN5boost15recursive_mutexEEEC1ERS3_PKcS7_ib(i32* nonnull %stack_var_-172, i32 %v1_d22, i32 ptrtoint ([12 x i8]* @global_var_24ad.573 to i32), i32 ptrtoint ([13 x i8]* @global_var_24a0.572 to i32), i32 ptrtoint (i32* @global_var_ba.590 to i32), i32 0)
  store i32 %this, i32* %eax.global-to-local, align 4
  %v1_d3a = add i32 %this, 156
  %v2_d3a = inttoptr i32 %v1_d3a to i32*
  %v3_d3a = load i32, i32* %v2_d3a, align 4
  store i32 %v3_d3a, i32* %edx.global-to-local, align 4
  %v1_d40 = icmp eq i32 %v3_d3a, 0
  %v1_d42 = icmp eq i1 %v1_d40, false
  br i1 %v1_d42, label %bb, label %dec_label_pc_d48

bb:                                               ; preds = %dec_label_pc_cd0
  %v2_d42 = call i32 @function_10ae()
  store i32 %v2_d42, i32* %eax.global-to-local, align 4
  br label %dec_label_pc_d48

dec_label_pc_d48:                                 ; preds = %bb, %dec_label_pc_cd0
  %v0_d48 = phi i32 [ %v2_d42, %bb ], [ %this, %dec_label_pc_cd0 ]
  %v1_d48 = add i32 %v0_d48, 172
  %v2_d48 = inttoptr i32 %v1_d48 to i8*
  %v3_d48 = load i8, i8* %v2_d48, align 1
  %v10_d48 = icmp eq i8 %v3_d48, 0
  %v1_d4f = icmp eq i1 %v10_d48, false
  br i1 %v1_d4f, label %bb126, label %dec_label_pc_d55

bb126:                                            ; preds = %dec_label_pc_d48
  %v2_d4f = call i32 @function_10ae()
  store i32 %v2_d4f, i32* %eax.global-to-local, align 4
  br label %dec_label_pc_d55

dec_label_pc_d55:                                 ; preds = %bb126, %dec_label_pc_d48
  store i32 %this, i32* %edx.global-to-local, align 4
  %v1_d5d = add i32 %this, 100
  %v2_d5d = inttoptr i32 %v1_d5d to i32*
  %v3_d5d = load i32, i32* %v2_d5d, align 4
  store i32 %v3_d5d, i32* %eax.global-to-local, align 4
  %v1_d60 = add i32 %this, 172
  %v2_d60 = inttoptr i32 %v1_d60 to i8*
  store i8 1, i8* %v2_d60, align 1
  %v0_d67 = load i32, i32* %edx.global-to-local, align 4
  %v1_d67 = add i32 %v0_d67, ptrtoint (i8* @global_var_5c.577 to i32)
  store i32 %v1_d67, i32* %edx.global-to-local, align 4
  %v0_d6e = load i32, i32* %eax.global-to-local, align 4
  %v12_d6e = icmp eq i32 %v0_d6e, %v1_d67
  br i1 %v12_d6e, label %bb127, label %dec_label_pc_d7a

bb127:                                            ; preds = %dec_label_pc_d55
  %sext = mul i32 %v1_d67, 16777216
  %v3_d74 = sdiv i32 %sext, 16777216
  %v4_d74 = call i32 @function_101e(i32 %v0_d6e, i32 %v3_d74)
  store i32 %v4_d74, i32* %eax.global-to-local, align 4
  br label %dec_label_pc_d7a

dec_label_pc_d7a:                                 ; preds = %bb127, %dec_label_pc_d55
  ret void

; uselistorder directives
  uselistorder i32 %v0_d6e, { 1, 0 }
  uselistorder i32 %v1_d67, { 1, 0, 2 }
  uselistorder i32* %eax.global-to-local, { 0, 3, 4, 2, 1, 5, 6 }
  uselistorder i32 ()* @function_10ae, { 1, 0 }
  uselistorder i32 10172, { 1, 0 }
  uselistorder i32 %this, { 0, 3, 2, 1, 5, 4, 6 }
}

define i32 @function_dc2() local_unnamed_addr {
dec_label_pc_dc2:
  %eax.global-to-local = alloca i32, align 4
  %v0_dc2 = load i32, i32* %eax.global-to-local, align 4
  ret i32 %v0_dc2
}

define i32 @function_101e(i32 %arg1, i32 %arg2) local_unnamed_addr {
dec_label_pc_101e:
  %eax.global-to-local = alloca i32, align 4
  %edx.global-to-local = alloca i32, align 4
  %stack_var_96 = alloca i32, align 4
  store i32 %arg1, i32* %edx.global-to-local, align 4
  %v1_1022 = add i32 %arg1, 96
  %v2_1022 = inttoptr i32 %v1_1022 to i32*
  %v3_1022 = load i32, i32* %v2_1022, align 4
  %v1_102b = add i32 %arg1, ptrtoint (i32* @global_var_58.576 to i32)
  store i32 %v1_102b, i32* %eax.global-to-local, align 4
  %v2_1031 = call i32 @_ZNSt8_Rb_treeI6CKeyIDSt4pairIKS0_4CKeyESt10_Select1stIS4_ESt4lessIS0_ESaIS4_EE8_M_eraseEPSt13_Rb_tree_nodeIS4_E(i32 %v1_102b, i32 %v3_1022)
  store i32 %arg1, i32* %eax.global-to-local, align 4
  store i32 %arg2, i32* %edx.global-to-local, align 4
  store i32 0, i32* %v2_1022, align 4
  %v0_1045 = load i32, i32* %edx.global-to-local, align 4
  %v1_1045 = load i32, i32* %eax.global-to-local, align 4
  %v2_1045 = add i32 %v1_1045, 100
  %v3_1045 = inttoptr i32 %v2_1045 to i32*
  store i32 %v0_1045, i32* %v3_1045, align 4
  %v0_1048 = load i32, i32* %edx.global-to-local, align 4
  %v1_1048 = load i32, i32* %eax.global-to-local, align 4
  %v2_1048 = add i32 %v1_1048, 104
  %v3_1048 = inttoptr i32 %v2_1048 to i32*
  store i32 %v0_1048, i32* %v3_1048, align 4
  %v0_104b = load i32, i32* %eax.global-to-local, align 4
  %v1_104b = add i32 %v0_104b, 108
  %v2_104b = inttoptr i32 %v1_104b to i32*
  store i32 0, i32* %v2_104b, align 4
  %v2_1052 = ptrtoint i32* %stack_var_96 to i32
  store i32 %v2_1052, i32* %eax.global-to-local, align 4
  %v2_1059 = call i32 @_ZN5boost11unique_lockI14AnnotatedMixinINS_15recursive_mutexEEED1Ev(i32* nonnull %stack_var_96)
  store i32 1, i32* @eax, align 4
  %v0_1063 = call i32 @function_10bc()
  store i32 %v0_1063, i32* %eax.global-to-local, align 4
  ret i32 %v0_1063
}

define i32 @function_10ae() local_unnamed_addr {
dec_label_pc_10ae:
  %stack_var_96 = alloca i32, align 4
  %v2_10b5 = call i32 @_ZN5boost11unique_lockI14AnnotatedMixinINS_15recursive_mutexEEED1Ev(i32* nonnull %stack_var_96)
  ret i32 0
}

define i32 @function_10bc() local_unnamed_addr {
dec_label_pc_10bc:
  %tmp10 = call i32 @__decompiler_undefined_function_0()
  %v4_10c3 = icmp eq i32 %tmp10, ptrtoint ([15 x i8]* @1 to i32)
  %v1_10ca = icmp eq i1 %v4_10c3, false
  br i1 %v1_10ca, label %bb, label %dec_label_pc_10bc.dec_label_pc_10cc_crit_edge

dec_label_pc_10bc.dec_label_pc_10cc_crit_edge:    ; preds = %dec_label_pc_10bc
  %v0_10d6.pre = load i32, i32* @eax, align 4
  br label %dec_label_pc_10cc

bb:                                               ; preds = %dec_label_pc_10bc
  %v2_10ca = call i32 @function_111d()
  br label %dec_label_pc_10cc

dec_label_pc_10cc:                                ; preds = %dec_label_pc_10bc.dec_label_pc_10cc_crit_edge, %bb
  %v0_10d6 = phi i32 [ %v2_10ca, %bb ], [ %v0_10d6.pre, %dec_label_pc_10bc.dec_label_pc_10cc_crit_edge ]
  ret i32 %v0_10d6

; uselistorder directives
  uselistorder label %dec_label_pc_10cc, { 1, 0 }
}

define i32 @function_10d7() local_unnamed_addr {
dec_label_pc_10d7:
  %eax.global-to-local = alloca i32, align 4
  %v0_10d9 = load i32, i32* %eax.global-to-local, align 4
  ret i32 %v0_10d9
}

define i32 @function_10df() local_unnamed_addr {
dec_label_pc_10df:
  %eax.global-to-local = alloca i32, align 4
  %v0_10df = load i32, i32* %eax.global-to-local, align 4
  ret i32 %v0_10df
}

define i32 @function_10e0() local_unnamed_addr {
dec_label_pc_10e0:
  %tmp = load i32, i32* @eax, align 4
  ret i32 %tmp
}

define i32 @function_10f3(i32 %arg1) local_unnamed_addr {
dec_label_pc_10f3:
  %eax.global-to-local = alloca i32, align 4
  %ecx.global-to-local = alloca i32, align 4
  %edx.global-to-local = alloca i32, align 4
  %v0_10f3 = load i32, i32* %ecx.global-to-local, align 4
  %v1_10f3 = add i32 %v0_10f3, 609520579
  %v2_10f3 = inttoptr i32 %v1_10f3 to i32*
  %v3_10f3 = load i32, i32* %v2_10f3, align 4
  %v4_10f3 = add i32 %v3_10f3, -1
  store i32 %v4_10f3, i32* %v2_10f3, align 4
  %v0_10f9 = load i32, i32* %eax.global-to-local, align 4
  store i32 %arg1, i32* @eax, align 4
  %v0_10fe = load i32, i32* %edx.global-to-local, align 4
  %v2_10fe = sub i32 %v0_10fe, %arg1
  store i32 %v2_10fe, i32* @edx, align 4
  call void @_ZNSt12_Vector_baseIh16secure_allocatorIhEE13_M_deallocateEPhj(i32 %v0_10f9, i8* bitcast (i32* @0 to i8*), i32 ptrtoint (i32* @0 to i32))
  store i32 ptrtoint (i32* @0 to i32), i32* @eax, align 4
  %v0_1105 = call i32 @function_10e0()
  store i32 %v0_1105, i32* %eax.global-to-local, align 4
  ret i32 %v0_1105

; uselistorder directives
  uselistorder i32 %arg1, { 1, 0 }
}

define i32 @function_1107() local_unnamed_addr {
dec_label_pc_1107:
  %eax.global-to-local = alloca i32, align 4
  %ebx.global-to-local = alloca i32, align 4
  %v0_1107 = load i32, i32* %eax.global-to-local, align 4
  %v0_1109 = load i32, i32* %ebx.global-to-local, align 4
  store i32 %v0_1107, i32* @ebx, align 4
  %v1_110e = inttoptr i32 %v0_1109 to i32*
  %v2_110e = call i32 @_ZNSt6vectorIhSaIhEED1Ev(i32* %v1_110e)
  store i32 %v2_110e, i32* %eax.global-to-local, align 4
  %v0_1113 = load i32, i32* @esi, align 4
  %v1_1116 = inttoptr i32 %v0_1113 to i32*
  %v2_1116 = call i32 @_ZNSt6vectorIh16secure_allocatorIhEED1Ev(i32* %v1_1116)
  store i32 %v2_1116, i32* @eax, align 4
  %v0_111b = call i32 @function_10e0()
  store i32 %v0_111b, i32* %eax.global-to-local, align 4
  ret i32 %v0_111b

; uselistorder directives
  uselistorder i32 ()* @function_10e0, { 1, 0 }
}

define i32 @function_111d() local_unnamed_addr {
dec_label_pc_111d:
  %v1_111d = load i32, i32* @eax, align 4
  ret i32 %v1_111d
}

define void @_ZN14CBasicKeyStore12AddKeyPubKeyERK4CKeyRK7CPubKey(i32 %this, i32 %key, i32 %pubkey) {
dec_label_pc_1130:
  %stack_var_-104 = alloca i32, align 4
  %stack_var_-112 = alloca i32, align 4
  %v2_1141 = ptrtoint i32* %stack_var_-112 to i32
  store i32 %v2_1141, i32* @esi, align 4
  store i32 %pubkey, i32* @edi, align 4
  store i32 %key, i32* @ebx, align 4
  %v1_1167 = add i32 %this, 4
  %v9_1189 = call i32 @_ZN10CMutexLockI14AnnotatedMixinIN5boost15recursive_mutexEEEC1ERS3_PKcS7_ib(i32* nonnull %stack_var_-112, i32 %v1_1167, i32 ptrtoint ([12 x i8]* @global_var_24ad.573 to i32), i32 ptrtoint ([13 x i8]* @global_var_24a0.572 to i32), i32 24, i32 0)
  %v0_118e = load i32, i32* @edi, align 4
  %v1_118e = inttoptr i32 %v0_118e to i8*
  %v2_118e = load i8, i8* %v1_118e, align 1
  %v3_118e = zext i8 %v2_118e to i32
  store i32 %v3_118e, i32* @eax, align 4
  store i32 ptrtoint (i32* @global_var_21.582 to i32), i32* @edx, align 4
  %tmp34 = or i8 %v2_118e, 1
  %tmp35 = icmp eq i8 %tmp34, 3
  br i1 %tmp35, label %dec_label_pc_11ab, label %dec_label_pc_119e

dec_label_pc_119e:                                ; preds = %dec_label_pc_1130
  %v11_119e = icmp eq i8 %v2_118e, 6
  %v1_11a0 = icmp eq i1 %v11_119e, false
  br i1 %v1_11a0, label %bb, label %dec_label_pc_11a6

bb:                                               ; preds = %dec_label_pc_119e
  %v2_11a0 = call i32 @function_12e8()
  br label %dec_label_pc_11a6

dec_label_pc_11a6:                                ; preds = %bb, %dec_label_pc_119e
  br label %dec_label_pc_11ab

dec_label_pc_11ab:                                ; preds = %dec_label_pc_11a6, %dec_label_pc_1130
  %v2_11bb = ptrtoint i32* %stack_var_-104 to i32
  store i32 %v2_11bb, i32* @edi, align 4
  ret void
}

define i32 @function_124e(i32 %arg1, i32 %arg2, i32 %arg3, i32 %arg4, i32 %arg5, i32 %arg6, i32 %arg7, i32 %arg8, i32 %arg9) local_unnamed_addr {
dec_label_pc_124e:
  %eax.global-to-local = alloca i32, align 4
  %ebx.global-to-local = alloca i32, align 4
  %stack_var_84 = alloca i32, align 4
  %v0_124e = load i32, i32* %ebx.global-to-local, align 4
  %v1_124e = add i32 %v0_124e, -2090326972
  %v2_124e = inttoptr i32 %v1_124e to i32*
  %v3_124e = load i32, i32* %v2_124e, align 4
  %v4_124e = add i32 %v3_124e, -1
  store i32 %v4_124e, i32* %v2_124e, align 4
  %v0_1254 = load i32, i32* %eax.global-to-local, align 4
  %v1_1254 = add i32 %v0_1254, -119
  %v2_1254 = inttoptr i32 %v1_1254 to i32*
  %v3_1254 = load i32, i32* %v2_1254, align 4
  store i32 %v3_1254, i32* %ebx.global-to-local, align 4
  %v2_1257 = sub i32 %v0_1254, zext (i8 ptrtoint (i16** @global_var_24.567 to i8) to i32)
  %v16_1257 = and i32 %v2_1257, 255
  %v18_1257 = and i32 %v0_1254, -256
  %v19_1257 = or i32 %v16_1257, %v18_1257
  store i32 %v19_1257, i32* %stack_var_84, align 4
  %v2_127d = ptrtoint i32* %stack_var_84 to i32
  store i32 %v2_127d, i32* %eax.global-to-local, align 4
  %v1_1285 = call i32 @_ZNSt3mapI6CKeyID4CKeySt4lessIS0_ESaISt4pairIKS0_S1_EEEixERS5_(i32 %v2_127d)
  store i32 %v1_1285, i32* %eax.global-to-local, align 4
  %v0_128a = load i32, i32* @ebx, align 4
  %v1_128a = inttoptr i32 %v0_128a to i32*
  %v2_128a = load i32, i32* %v1_128a, align 4
  %v2_128c = inttoptr i32 %v1_1285 to i32*
  store i32 %v2_128a, i32* %v2_128c, align 4
  %v0_128e = load i32, i32* @ebx, align 4
  %v1_128e = add i32 %v0_128e, 4
  %v2_128e = inttoptr i32 %v1_128e to i32*
  %v3_128e = load i32, i32* %v2_128e, align 4
  %v1_1291 = load i32, i32* %eax.global-to-local, align 4
  %v2_1291 = add i32 %v1_1291, 4
  %v3_1291 = inttoptr i32 %v2_1291 to i32*
  store i32 %v3_128e, i32* %v3_1291, align 4
  %v0_1294 = load i32, i32* @ebx, align 4
  %v1_1294 = add i32 %v0_1294, 8
  %v2_1294 = inttoptr i32 %v1_1294 to i32*
  %v3_1294 = load i32, i32* %v2_1294, align 4
  %v1_1297 = load i32, i32* %eax.global-to-local, align 4
  %v2_1297 = add i32 %v1_1297, 8
  %v3_1297 = inttoptr i32 %v2_1297 to i32*
  store i32 %v3_1294, i32* %v3_1297, align 4
  %v0_129a = load i32, i32* @ebx, align 4
  %v1_129a = add i32 %v0_129a, ptrtoint (i32* @global_var_c.559 to i32)
  %v2_129a = inttoptr i32 %v1_129a to i32*
  %v3_129a = load i32, i32* %v2_129a, align 4
  %v1_129d = load i32, i32* %eax.global-to-local, align 4
  %v2_129d = add i32 %v1_129d, ptrtoint (i32* @global_var_c.559 to i32)
  %v3_129d = inttoptr i32 %v2_129d to i32*
  store i32 %v3_129a, i32* %v3_129d, align 4
  %v0_12a0 = load i32, i32* @ebx, align 4
  %v1_12a0 = add i32 %v0_12a0, ptrtoint (i32* @global_var_10.578 to i32)
  %v2_12a0 = inttoptr i32 %v1_12a0 to i32*
  %v3_12a0 = load i32, i32* %v2_12a0, align 4
  %v1_12a3 = load i32, i32* %eax.global-to-local, align 4
  %v2_12a3 = add i32 %v1_12a3, ptrtoint (i32* @global_var_10.578 to i32)
  %v3_12a3 = inttoptr i32 %v2_12a3 to i32*
  store i32 %v3_12a0, i32* %v3_12a3, align 4
  %v0_12a6 = load i32, i32* @ebx, align 4
  %v1_12a6 = add i32 %v0_12a6, ptrtoint (i8** @global_var_14.558 to i32)
  %v2_12a6 = inttoptr i32 %v1_12a6 to i32*
  %v3_12a6 = load i32, i32* %v2_12a6, align 4
  %v1_12a9 = load i32, i32* %eax.global-to-local, align 4
  %v2_12a9 = add i32 %v1_12a9, ptrtoint (i8** @global_var_14.558 to i32)
  %v3_12a9 = inttoptr i32 %v2_12a9 to i32*
  store i32 %v3_12a6, i32* %v3_12a9, align 4
  %v0_12ac = load i32, i32* @ebx, align 4
  %v1_12ac = add i32 %v0_12ac, 24
  %v2_12ac = inttoptr i32 %v1_12ac to i32*
  %v3_12ac = load i32, i32* %v2_12ac, align 4
  %v1_12af = load i32, i32* %eax.global-to-local, align 4
  %v2_12af = add i32 %v1_12af, 24
  %v3_12af = inttoptr i32 %v2_12af to i32*
  store i32 %v3_12ac, i32* %v3_12af, align 4
  %v0_12b2 = load i32, i32* @ebx, align 4
  %v1_12b2 = add i32 %v0_12b2, ptrtoint (i32* @global_var_1c.579 to i32)
  %v2_12b2 = inttoptr i32 %v1_12b2 to i32*
  %v3_12b2 = load i32, i32* %v2_12b2, align 4
  %v1_12b5 = load i32, i32* %eax.global-to-local, align 4
  %v2_12b5 = add i32 %v1_12b5, ptrtoint (i32* @global_var_1c.579 to i32)
  %v3_12b5 = inttoptr i32 %v2_12b5 to i32*
  store i32 %v3_12b2, i32* %v3_12b5, align 4
  %v0_12b8 = load i32, i32* @ebx, align 4
  %v1_12b8 = add i32 %v0_12b8, ptrtoint (i16** @global_var_20.580 to i32)
  %v2_12b8 = inttoptr i32 %v1_12b8 to i16*
  %v3_12b8 = load i16, i16* %v2_12b8, align 2
  %v2_12bc = load i32, i32* %eax.global-to-local, align 4
  %v3_12bc = add i32 %v2_12bc, ptrtoint (i16** @global_var_20.580 to i32)
  %v4_12bc = inttoptr i32 %v3_12bc to i16*
  store i16 %v3_12b8, i16* %v4_12bc, align 2
  %v0_12c0 = load i32, i32* @esi, align 4
  %v1_12c3 = inttoptr i32 %v0_12c0 to i32*
  %v2_12c3 = call i32 @_ZN5boost11unique_lockI14AnnotatedMixinINS_15recursive_mutexEEED1Ev(i32* %v1_12c3)
  store i32 1, i32* @eax, align 4
  %v4_12d1 = icmp eq i32 %arg5, ptrtoint ([15 x i8]* @1 to i32)
  %v1_12d8 = icmp eq i1 %v4_12d1, false
  br i1 %v1_12d8, label %bb, label %dec_label_pc_12da

bb:                                               ; preds = %dec_label_pc_124e
  %v2_12d8 = call i32 @function_1301()
  store i32 %v2_12d8, i32* %eax.global-to-local, align 4
  br label %dec_label_pc_12da

dec_label_pc_12da:                                ; preds = %bb, %dec_label_pc_124e
  %v0_12e4 = phi i32 [ %v2_12d8, %bb ], [ 1, %dec_label_pc_124e ]
  store i32 %arg6, i32* %ebx.global-to-local, align 4
  ret i32 %v0_12e4

; uselistorder directives
  uselistorder i32 %v0_1254, { 1, 0, 2 }
}

define i32 @function_12e8() local_unnamed_addr {
dec_label_pc_12e8:
  ret i32 0
}

define i32 @function_1301() local_unnamed_addr {
dec_label_pc_1301:
  %v0_1306 = load i32, i32* @eax, align 4
  store i32 %v0_1306, i32* @ebx, align 4
  %v0_1308 = load i32, i32* @esi, align 4
  %v1_130b = inttoptr i32 %v0_1308 to i32*
  %v2_130b = call i32 @_ZN5boost11unique_lockI14AnnotatedMixinINS_15recursive_mutexEEED1Ev(i32* %v1_130b)
  ret i32 %v2_130b
}

define void @_ZN15CCryptoKeyStore12AddKeyPubKeyERK4CKeyRK7CPubKey(i32 %this, i32 %key, i32 %pubkey) local_unnamed_addr {
dec_label_pc_1320:
  %ebp.global-to-local = alloca i32, align 4
  %ebx.global-to-local = alloca i32, align 4
  %esi.global-to-local = alloca i32, align 4
  %vchSecret_-128 = alloca %"vector<unsignedchar,secure_allocator<unsignedchar>>.4", align 8
  %stack_var_-104 = alloca i32, align 4
  %stack_var_-112 = alloca i32, align 4
  %v0_1320 = load i32, i32* %ebp.global-to-local, align 4
  %v0_1322 = load i32, i32* %esi.global-to-local, align 4
  %v0_1323 = load i32, i32* %ebx.global-to-local, align 4
  store i32 %this, i32* @esi, align 4
  %v2_1331 = ptrtoint i32* %stack_var_-112 to i32
  store i32 %v2_1331, i32* %ebp.global-to-local, align 4
  %v1_134b = add i32 %this, 4
  store i32 %v1_134b, i32* @ebx, align 4
  %v9_1384 = call i32 @_ZN10CMutexLockI14AnnotatedMixinIN5boost15recursive_mutexEEEC1ERS3_PKcS7_ib(i32* nonnull %stack_var_-112, i32 %v1_134b, i32 ptrtoint ([12 x i8]* @global_var_24ad.573 to i32), i32 ptrtoint ([13 x i8]* @global_var_24a0.572 to i32), i32 111, i32 0)
  %v0_1389 = load i32, i32* @esi, align 4
  %v1_1389 = add i32 %v0_1389, 172
  %v2_1389 = inttoptr i32 %v1_1389 to i8*
  %v3_1389 = load i8, i8* %v2_1389, align 1
  %v10_1389 = icmp eq i8 %v3_1389, 0
  br i1 %v10_1389, label %bb, label %dec_label_pc_1396

bb:                                               ; preds = %dec_label_pc_1320
  %v1_1390 = call i32 @function_1660()
  br label %dec_label_pc_1396

dec_label_pc_1396:                                ; preds = %bb, %dec_label_pc_1320
  %v0_1396 = load i32, i32* @ebx, align 4
  %v2_139a = ptrtoint i32* %stack_var_-104 to i32
  store i32 %v2_139a, i32* @ebx, align 4
  %v9_13c1 = call i32 @_ZN10CMutexLockI14AnnotatedMixinIN5boost15recursive_mutexEEEC1ERS3_PKcS7_ib(i32* nonnull %stack_var_-104, i32 %v0_1396, i32 ptrtoint ([12 x i8]* @global_var_24ad.573 to i32), i32 ptrtoint ([11 x i8]* @global_var_24b9.575 to i32), i32 131, i32 0)
  %v0_13c6 = load i32, i32* @esi, align 4
  %v1_13c6 = add i32 %v0_13c6, ptrtoint (i32* @global_var_a4.592 to i32)
  %v2_13c6 = inttoptr i32 %v1_13c6 to i32*
  %v3_13c6 = load i32, i32* %v2_13c6, align 4
  %v1_13cc = add i32 %v0_13c6, 160
  %v2_13cc = inttoptr i32 %v1_13cc to i32*
  %v3_13cc = load i32, i32* %v2_13cc, align 4
  %v2_13d9 = call i32 @_ZN5boost11unique_lockI14AnnotatedMixinINS_15recursive_mutexEEED1Ev(i32* nonnull %stack_var_-104)
  %v15_13de = icmp eq i32 %v3_13c6, %v3_13cc
  %v1_13e2 = icmp eq i1 %v15_13de, false
  br i1 %v1_13e2, label %dec_label_pc_140f, label %dec_label_pc_13e4

dec_label_pc_13e4:                                ; preds = %dec_label_pc_1396
  store i32 0, i32* @ebx, align 4
  %v2_13e9 = call i32 @_ZN5boost11unique_lockI14AnnotatedMixinINS_15recursive_mutexEEED1Ev(i32* nonnull %stack_var_-112)
  %v0_13fc = load i32, i32* @ebx, align 4
  store i32 %v0_13fc, i32* @eax, align 4
  br i1 icmp ne (i32 xor (i32 ptrtoint ([15 x i8]* @1 to i32), i32 ptrtoint ([15 x i8]* @1 to i32)), i32 0), label %bb130, label %dec_label_pc_1404

bb130:                                            ; preds = %dec_label_pc_13e4
  %v2_13fe = call i32 @function_171d()
  br label %dec_label_pc_1404

dec_label_pc_1404:                                ; preds = %bb130, %dec_label_pc_13e4
  store i32 %v0_1323, i32* %ebx.global-to-local, align 4
  store i32 %v0_1322, i32* %esi.global-to-local, align 4
  store i32 %v0_1320, i32* %ebp.global-to-local, align 4
  ret void

dec_label_pc_140f:                                ; preds = %dec_label_pc_1396
  store %"vector<unsignedchar,secure_allocator<unsignedchar>>.4" zeroinitializer, %"vector<unsignedchar,secure_allocator<unsignedchar>>.4"* %vchSecret_-128, align 8
  %v1_1436 = add i32 %key, 2
  store i32 %v1_1436, i32* %ebx.global-to-local, align 4
  store i32 add (i32 or (i32 ptrtoint (i16** @global_var_20.580 to i32), i32 2), i32 -2), i32* @eax, align 4
  br i1 icmp eq (i32 add (i32 or (i32 ptrtoint (i16** @global_var_20.580 to i32), i32 2), i32 -2), i32 0), label %bb132, label %dec_label_pc_1468

bb132:                                            ; preds = %dec_label_pc_140f
  %v8_1462 = getelementptr inbounds %"vector<unsignedchar,secure_allocator<unsignedchar>>.4", %"vector<unsignedchar,secure_allocator<unsignedchar>>.4"* %vchSecret_-128, i32 0, i32 0
  %v9_1462 = load i32, i32* %v8_1462, align 8
  %v10_1462 = call i32 @function_1710(i32 0, i32 0, i32 0, i32 %v9_1462, i32 0, i32 0, i32 0)
  br label %dec_label_pc_1468

dec_label_pc_1468:                                ; preds = %bb132, %dec_label_pc_140f
  ret void
}

define i32 @function_1657() local_unnamed_addr {
dec_label_pc_1657:
  %eax.global-to-local = alloca i32, align 4
  %v0_1657 = load i32, i32* %eax.global-to-local, align 4
  ret i32 %v0_1657
}

define i32 @function_1660() local_unnamed_addr {
dec_label_pc_1660:
  %tmp3 = call i32 @__decompiler_undefined_function_0()
  %tmp4 = call i32 @__decompiler_undefined_function_0()
  %v0_1668 = load i32, i32* @esi, align 4
  call void @_ZN14CBasicKeyStore12AddKeyPubKeyERK4CKeyRK7CPubKey(i32 %v0_1668, i32 %tmp3, i32 %tmp4)
  store i32 ptrtoint (i32* @0 to i32), i32* @ebx, align 4
  ret i32 ptrtoint (i32* @0 to i32)
}

define i32 @function_16e2() local_unnamed_addr {
dec_label_pc_16e2:
  %tmp91 = call i32 @__decompiler_undefined_function_0()
  store i32 1, i32* @ebx, align 4
  %v1_16ea = inttoptr i32 %tmp91 to i32*
  %v2_16ea = call i32 @_ZN5boost11unique_lockI14AnnotatedMixinINS_15recursive_mutexEEED1Ev(i32* %v1_16ea)
  ret i32 %v2_16ea
}

define i32 @function_16f8() local_unnamed_addr {
dec_label_pc_16f8:
  %eax.global-to-local = alloca i32, align 4
  %edx.global-to-local = alloca i32, align 4
  %v0_16f8 = load i32, i32* %eax.global-to-local, align 4
  %v1_16f8 = trunc i32 %v0_16f8 to i8
  %v11_1700 = icmp eq i8 %v1_16f8, 7
  store i32 0, i32* %eax.global-to-local, align 4
  %v1_1707 = icmp eq i1 %v11_1700, false
  %v2_1707 = load i32, i32* %edx.global-to-local, align 4
  %v4_1707 = select i1 %v1_1707, i32 0, i32 %v2_1707
  store i32 %v4_1707, i32* %edx.global-to-local, align 4
  ret i32 0

; uselistorder directives
  uselistorder i32* %edx.global-to-local, { 1, 0 }
  uselistorder i32* %eax.global-to-local, { 1, 0 }
}

define i32 @function_1710(i32 %arg1, i32 %arg2, i32 %arg3, i32 %arg4, i32 %arg5, i32 %arg6, i32 %arg7) local_unnamed_addr {
dec_label_pc_1710:
  %v0_1718 = load i32, i32* @eax, align 4
  ret i32 %v0_1718
}

define i32 @function_171d() local_unnamed_addr {
dec_label_pc_171d:
  %tmp = load i32, i32* @eax, align 4
  ret i32 %tmp
}

define i32 @function_1723() local_unnamed_addr {
dec_label_pc_1723:
  %eax.global-to-local = alloca i32, align 4
  %v0_1723 = load i32, i32* %eax.global-to-local, align 4
  ret i32 %v0_1723
}

define i32 @function_1724() local_unnamed_addr {
dec_label_pc_1724:
  %tmp = load i32, i32* @eax, align 4
  ret i32 %tmp
}

define i32 @function_173b(i32 %arg1) local_unnamed_addr {
dec_label_pc_173b:
  %eax.global-to-local = alloca i32, align 4
  %ecx.global-to-local = alloca i32, align 4
  %edx.global-to-local = alloca i32, align 4
  %stack_var_0 = alloca i8*, align 4
  %v0_173b = load i32, i32* %ecx.global-to-local, align 4
  %v1_173b = add i32 %v0_173b, -1947407421
  %v2_173b = inttoptr i32 %v1_173b to i32*
  %v3_173b = load i32, i32* %v2_173b, align 4
  %v4_173b = add i32 %v3_173b, -1
  store i32 %v4_173b, i32* %v2_173b, align 4
  %v4_1741 = ptrtoint i8** %stack_var_0 to i32
  %v0_1742 = load i32, i32* %eax.global-to-local, align 4
  %v11_1742 = and i32 %v0_1742, -184
  store i32 %v11_1742, i32* @ebx, align 4
  store i32 %arg1, i32* @eax, align 4
  %v0_174e = load i32, i32* %edx.global-to-local, align 4
  %v2_174e = sub i32 %v0_174e, %arg1
  store i32 %v2_174e, i32* @edx, align 4
  %v1_1750 = load i8*, i8** %stack_var_0, align 4
  call void @_ZNSt12_Vector_baseIh16secure_allocatorIhEE13_M_deallocateEPhj(i32 %v4_1741, i8* %v1_1750, i32 ptrtoint (i32* @0 to i32))
  store i32 ptrtoint (i32* @0 to i32), i32* @eax, align 4
  %v0_1755 = call i32 @function_1724()
  store i32 %v0_1755, i32* %eax.global-to-local, align 4
  ret i32 %v0_1755

; uselistorder directives
  uselistorder i8** %stack_var_0, { 1, 0 }
  uselistorder void (i32, i8*, i32)* @_ZNSt12_Vector_baseIh16secure_allocatorIhEE13_M_deallocateEPhj, { 1, 0 }
  uselistorder i32 %arg1, { 1, 0 }
}

define i32 @function_1757() local_unnamed_addr {
dec_label_pc_1757:
  %eax.global-to-local = alloca i32, align 4
  %ebx.global-to-local = alloca i32, align 4
  %v0_1757 = load i32, i32* %eax.global-to-local, align 4
  store i32 %v0_1757, i32* @esi, align 4
  %v0_1759 = load i32, i32* %ebx.global-to-local, align 4
  store i32 %v0_1757, i32* @ebx, align 4
  %v1_175e = inttoptr i32 %v0_1759 to i32*
  %v2_175e = call i32 @_ZNSt6vectorIh16secure_allocatorIhEED1Ev(i32* %v1_175e)
  store i32 %v2_175e, i32* @eax, align 4
  %v0_1763 = call i32 @function_1724()
  store i32 %v0_1763, i32* %eax.global-to-local, align 4
  ret i32 %v0_1763

; uselistorder directives
  uselistorder i32 ()* @function_1724, { 1, 0 }
}

define void @_ZN14CBasicKeyStore10AddCScriptERK7CScript(i32 %this, i32 %redeemScript) {
dec_label_pc_1770:
  %stack_var_-104 = alloca i32, align 4
  %stack_var_-112 = alloca i32, align 4
  %v2_1781 = ptrtoint i32* %stack_var_-112 to i32
  store i32 %v2_1781, i32* @esi, align 4
  store i32 %redeemScript, i32* @ebx, align 4
  %v2_178c = ptrtoint i32* %stack_var_-104 to i32
  store i32 %v2_178c, i32* @edi, align 4
  %v1_17a4 = add i32 %this, 4
  %v9_17c6 = call i32 @_ZN10CMutexLockI14AnnotatedMixinIN5boost15recursive_mutexEEEC1ERS3_PKcS7_ib(i32* nonnull %stack_var_-112, i32 %v1_17a4, i32 ptrtoint ([12 x i8]* @global_var_24ad.573 to i32), i32 ptrtoint ([13 x i8]* @global_var_24a0.572 to i32), i32 31, i32 0)
  ret void
}

define i32 @function_186d(i32 %arg1, i32 %arg2, i32 %arg3, i32 %arg4, i32 %arg5, i32 %arg6, i32 %arg7, i32 %arg8, i32 %arg9) local_unnamed_addr {
dec_label_pc_186d:
  %eax.global-to-local = alloca i32, align 4
  %ebx.global-to-local = alloca i32, align 4
  %stack_var_84 = alloca i32, align 4
  %v0_186d = load i32, i32* %ebx.global-to-local, align 4
  %v1_186d = add i32 %v0_186d, -2090326972
  %v2_186d = inttoptr i32 %v1_186d to i32*
  %v3_186d = load i32, i32* %v2_186d, align 4
  %v4_186d = add i32 %v3_186d, -1
  store i32 %v4_186d, i32* %v2_186d, align 4
  %v0_1873 = load i32, i32* %eax.global-to-local, align 4
  %v2_1876 = sub i32 %v0_1873, zext (i8 ptrtoint (i16** @global_var_24.567 to i8) to i32)
  %v16_1876 = and i32 %v2_1876, 255
  %v18_1876 = and i32 %v0_1873, -256
  %v19_1876 = or i32 %v16_1876, %v18_1876
  store i32 %v19_1876, i32* %stack_var_84, align 4
  %v2_189c = ptrtoint i32* %stack_var_84 to i32
  store i32 %v2_189c, i32* %eax.global-to-local, align 4
  %v1_18a4 = call i32 @_ZNSt3mapI9CScriptID7CScriptSt4lessIS0_ESaISt4pairIKS0_S1_EEEixERS5_(i32 %v2_189c)
  store i32 %v1_18a4, i32* %eax.global-to-local, align 4
  %v0_18a9 = load i32, i32* @ebx, align 4
  %v2_18b0 = inttoptr i32 %v1_18a4 to i32*
  %v3_18b0 = call i32 @_ZNSt6vectorIhSaIhEEaSERKS1_(i32* %v2_18b0, i32 %v0_18a9)
  store i32 %v3_18b0, i32* %eax.global-to-local, align 4
  %v0_18b5 = load i32, i32* @esi, align 4
  %v1_18b8 = inttoptr i32 %v0_18b5 to i32*
  %v2_18b8 = call i32 @_ZN5boost11unique_lockI14AnnotatedMixinINS_15recursive_mutexEEED1Ev(i32* %v1_18b8)
  store i32 1, i32* %eax.global-to-local, align 4
  %v4_18c6 = icmp eq i32 %arg5, ptrtoint ([15 x i8]* @1 to i32)
  %v1_18cd = icmp eq i1 %v4_18c6, false
  br i1 %v1_18cd, label %dec_label_pc_18da, label %dec_label_pc_18cf

dec_label_pc_18cf:                                ; preds = %dec_label_pc_186d
  store i32 %arg6, i32* %ebx.global-to-local, align 4
  ret i32 1

dec_label_pc_18da:                                ; preds = %dec_label_pc_186d
  ret i32 1

; uselistorder directives
  uselistorder i32 %v0_1873, { 1, 0 }
}

define i32 @function_18e0() local_unnamed_addr {
dec_label_pc_18e0:
  %eax.global-to-local = alloca i32, align 4
  %v0_18e0 = load i32, i32* %eax.global-to-local, align 4
  ret i32 %v0_18e0
}

define void @_ZN15CCryptoKeyStore13AddCryptedKeyERK7CPubKeyRKSt6vectorIhSaIhEE(i32 %this, i32 %vchPubKey, i32 %vchCryptedSecret) local_unnamed_addr {
dec_label_pc_1900:
  %df.global-to-local = alloca i1, align 1
  %ebx.global-to-local = alloca i32, align 4
  %esi.global-to-local = alloca i32, align 4
  %zf.global-to-local = alloca i1, align 1
  %stack_var_-104 = alloca i32, align 4
  %stack_var_-184 = alloca i32, align 4
  %stack_var_-252 = alloca i32, align 4
  %stack_var_-169 = alloca i32, align 4
  %stack_var_-260 = alloca i32, align 4
  store i32 %vchPubKey, i32* @ebp, align 4
  store i32 %vchCryptedSecret, i32* @ebx, align 4
  %v1_193b = add i32 %this, 4
  %v10_193b = icmp eq i32 %v1_193b, 0
  store i1 %v10_193b, i1* %zf.global-to-local, align 1
  %v9_1961 = call i32 @_ZN10CMutexLockI14AnnotatedMixinIN5boost15recursive_mutexEEEC1ERS3_PKcS7_ib(i32* nonnull %stack_var_-260, i32 %v1_193b, i32 ptrtoint ([12 x i8]* @global_var_24ad.573 to i32), i32 ptrtoint ([13 x i8]* @global_var_24a0.572 to i32), i32 ptrtoint (i32* @global_var_85.593 to i32), i32 0)
  call void @_ZN15CCryptoKeyStore10SetCryptedEv(i32 %this)
  store i1 icmp eq (i8 and (i8 ptrtoint (i32* @0 to i8), i8 ptrtoint (i32* @0 to i8)), i8 0), i1* %zf.global-to-local, align 1
  br i1 icmp eq (i8 and (i8 ptrtoint (i32* @0 to i8), i8 ptrtoint (i32* @0 to i8)), i8 0), label %bb, label %dec_label_pc_197a

bb:                                               ; preds = %dec_label_pc_1900
  %v1_1974 = call i32 @function_1d28()
  br label %dec_label_pc_197a

dec_label_pc_197a:                                ; preds = %bb, %dec_label_pc_1900
  %v0_197a = load i32, i32* @ebx, align 4
  %v1_197a = inttoptr i32 %v0_197a to i32*
  %v2_197a = load i32, i32* %v1_197a, align 4
  store i32 0, i32* @edx, align 4
  store i32 0, i32* @edi, align 4
  %v1_1980 = add i32 %v0_197a, 4
  %v2_1980 = inttoptr i32 %v1_1980 to i32*
  %v3_1980 = load i32, i32* %v2_1980, align 4
  %v2_199b = sub i32 %v3_1980, %v2_197a
  %v12_199b = icmp eq i32 %v2_199b, 0
  store i32 %v2_199b, i32* @eax, align 4
  store i1 %v12_199b, i1* %zf.global-to-local, align 1
  store i32 %v2_199b, i32* %esi.global-to-local, align 4
  %v1_19a1 = icmp eq i1 %v12_199b, false
  br i1 %v1_19a1, label %bb157, label %dec_label_pc_19a7

bb157:                                            ; preds = %dec_label_pc_197a
  %v5_19a1 = call i32 @function_1cf8(i32 0, i32 0, i32 0)
  store i32 %v5_19a1, i32* @eax, align 4
  %v0_19a7.pre = load i32, i32* %esi.global-to-local, align 4
  %v1_19a7.pre = load i32, i32* @edi, align 4
  br label %dec_label_pc_19a7

dec_label_pc_19a7:                                ; preds = %bb157, %dec_label_pc_197a
  %v0_19a9 = phi i32 [ %v5_19a1, %bb157 ], [ %v2_199b, %dec_label_pc_197a ]
  %v0_19a7 = phi i32 [ %v0_19a7.pre, %bb157 ], [ %v2_199b, %dec_label_pc_197a ]
  %v0_19ab = phi i32 [ %v1_19a7.pre, %bb157 ], [ 0, %dec_label_pc_197a ]
  %v2_19a7 = add i32 %v0_19a7, %v0_19ab
  store i32 %v2_19a7, i32* %esi.global-to-local, align 4
  %v1_19a9 = icmp eq i32 %v0_19a9, 0
  store i1 %v1_19a9, i1* %zf.global-to-local, align 1
  %v1_19bb = icmp eq i1 %v1_19a9, false
  br i1 %v1_19bb, label %bb158, label %dec_label_pc_19c1

bb158:                                            ; preds = %dec_label_pc_19a7
  %v3_19bb = call i32 @function_1cd0(i32 %v0_19ab)
  %v0_19c1.pre = load i32, i32* @edi, align 4
  br label %dec_label_pc_19c1

dec_label_pc_19c1:                                ; preds = %bb158, %dec_label_pc_19a7
  %v0_19c1 = phi i32 [ %v0_19c1.pre, %bb158 ], [ %v0_19ab, %dec_label_pc_19a7 ]
  %v1_19c1 = load i32, i32* @edx, align 4
  %v3_19c1 = add i32 %v1_19c1, %v0_19c1
  store i32 %v3_19c1, i32* %ebx.global-to-local, align 4
  %v0_19c4 = load i32, i32* @ebp, align 4
  store i32 %v0_19c4, i32* %esi.global-to-local, align 4
  %v2_19c6 = ptrtoint i32* %stack_var_-169 to i32
  store i32 65, i32* @eax, align 4
  %tmp159 = bitcast i32* %stack_var_-169 to i8*
  store i1 true, i1* %zf.global-to-local, align 1
  %v1_19f4 = inttoptr i32 %v0_19c4 to i8*
  call void @__asm_rep_movsd_memcpy(i8* %tmp159, i8* %v1_19f4, i32 16)
  %v6_19f4 = load i1, i1* %df.global-to-local, align 1
  %v8_19f4 = select i1 %v6_19f4, i32 -64, i32 64
  %v9_19f4 = add i32 %v8_19f4, %v2_19c6
  store i32 %v9_19f4, i32* @edi, align 4
  store i32 %v9_19f4, i32* @esi, align 4
  store i32 0, i32* @ecx, align 4
  %v0_19f6 = load i1, i1* %zf.global-to-local, align 1
  %v1_19f6 = icmp eq i1 %v0_19f6, false
  br i1 %v1_19f6, label %bb160, label %dec_label_pc_19c1.dec_label_pc_19fc_crit_edge

dec_label_pc_19c1.dec_label_pc_19fc_crit_edge:    ; preds = %dec_label_pc_19c1
  %v0_19fc.pre = load i32, i32* @eax, align 4
  br label %dec_label_pc_19fc

bb160:                                            ; preds = %dec_label_pc_19c1
  %v2_19f6 = call i32 @function_1c70()
  br label %dec_label_pc_19fc

dec_label_pc_19fc:                                ; preds = %dec_label_pc_19c1.dec_label_pc_19fc_crit_edge, %bb160
  %v0_19fc = phi i32 [ %v0_19fc.pre, %dec_label_pc_19c1.dec_label_pc_19fc_crit_edge ], [ %v2_19f6, %bb160 ]
  %v2_19fc = urem i32 %v0_19fc, 2
  %v3_19fc = icmp eq i32 %v2_19fc, 0
  store i1 %v3_19fc, i1* %zf.global-to-local, align 1
  %v1_19fe = icmp eq i1 %v3_19fc, false
  br i1 %v1_19fe, label %bb161, label %dec_label_pc_1a04

bb161:                                            ; preds = %dec_label_pc_19fc
  %v2_19fe = call i32 @function_1c60()
  br label %dec_label_pc_1a04

dec_label_pc_1a04:                                ; preds = %bb161, %dec_label_pc_19fc
  %v2_1a04 = ptrtoint i32* %stack_var_-252 to i32
  store i32 %v2_19c6, i32* %esi.global-to-local, align 4
  %tmp162 = bitcast i32* %stack_var_-252 to i8*
  call void @__asm_rep_movsd_memcpy(i8* %tmp162, i8* %tmp159, i32 ptrtoint (i32* @global_var_10.578 to i32))
  %v7_1a11 = load i1, i1* %df.global-to-local, align 1
  %v9_1a11 = select i1 %v7_1a11, i32 mul (i32 ptrtoint (i32* @global_var_10.578 to i32), i32 -4), i32 mul (i32 ptrtoint (i32* @global_var_10.578 to i32), i32 4)
  %v10_1a11 = add i32 %v9_1a11, %v2_1a04
  store i32 %v10_1a11, i32* %esi.global-to-local, align 4
  %v0_1a13 = load i32, i32* %ebx.global-to-local, align 4
  %v5_1a19 = sub i32 %v0_1a13, %v0_19ab
  %v15_1a19 = icmp eq i32 %v5_1a19, 0
  store i1 %v15_1a19, i1* %zf.global-to-local, align 1
  %v1_1a1d = inttoptr i32 %v10_1a11 to i8*
  %v2_1a1d = load i8, i8* %v1_1a1d, align 4
  %v3_1a1d = zext i8 %v2_1a1d to i32
  store i32 %v3_1a1d, i32* @eax, align 4
  store i32 0, i32* @esi, align 4
  store i32 %v5_1a19, i32* %ebx.global-to-local, align 4
  store i8 %v2_1a1d, i8* %v1_1a1d, align 4
  store i32 0, i32* @edi, align 4
  store i1 %v15_1a19, i1* %zf.global-to-local, align 1
  store i32 0, i32* %stack_var_-184, align 4
  %v1_1a4b = icmp eq i1 %v15_1a19, false
  br i1 %v1_1a4b, label %bb163, label %dec_label_pc_1a51

bb163:                                            ; preds = %dec_label_pc_1a04
  %v3_1a4b = call i32 @function_1ca8(i32 %v2_1a04)
  br label %dec_label_pc_1a51

dec_label_pc_1a51:                                ; preds = %bb163, %dec_label_pc_1a04
  %v0_1a51 = load i32, i32* %ebx.global-to-local, align 4
  %v1_1a51 = load i32, i32* @esi, align 4
  %v2_1a51 = add i32 %v1_1a51, %v0_1a51
  store i32 %v2_1a51, i32* %ebx.global-to-local, align 4
  store i1 %v15_1a19, i1* %zf.global-to-local, align 1
  store i32 %v1_1a51, i32* %stack_var_-184, align 4
  br i1 %v1_1a4b, label %bb164, label %dec_label_pc_1a70

bb164:                                            ; preds = %dec_label_pc_1a51
  %v5_1a6a = call i32 @function_1c88(i32 %v1_1a51, i32 %v1_1a51, i32 %v2_1a51)
  %v0_1a74.pre = load i32, i32* @esi, align 4
  br label %dec_label_pc_1a70

dec_label_pc_1a70:                                ; preds = %bb164, %dec_label_pc_1a51
  %v0_1a74 = phi i32 [ %v0_1a74.pre, %bb164 ], [ %v1_1a51, %dec_label_pc_1a51 ]
  %v0_1a70 = load i32, i32* @ebp, align 4
  %v1_1a70 = inttoptr i32 %v0_1a70 to i8*
  %v2_1a70 = load i8, i8* %v1_1a70, align 1
  %v3_1a70 = zext i8 %v2_1a70 to i32
  store i32 %v3_1a70, i32* @eax, align 4
  %v1_1a74 = load i32, i32* @edi, align 4
  %v2_1a74 = add i32 %v1_1a74, %v0_1a74
  store i32 %v2_1a74, i32* %esi.global-to-local, align 4
  store i32 ptrtoint (i32* @global_var_21.582 to i32), i32* @edx, align 4
  %v11_1a85 = icmp eq i8 %v2_1a70, 3
  store i1 %v11_1a85, i1* %zf.global-to-local, align 1
  %tmp169 = or i8 %v2_1a70, 1
  %tmp170 = icmp eq i8 %tmp169, 3
  br i1 %tmp170, label %dec_label_pc_1a9b, label %dec_label_pc_1a8a

dec_label_pc_1a8a:                                ; preds = %dec_label_pc_1a70
  %v11_1a8a = icmp eq i8 %v2_1a70, 6
  store i1 %v11_1a8a, i1* %zf.global-to-local, align 1
  br i1 %v11_1a8a, label %dec_label_pc_1a96, label %dec_label_pc_1a8e

dec_label_pc_1a8e:                                ; preds = %dec_label_pc_1a8a
  %v11_1a8e = icmp eq i8 %v2_1a70, 4
  store i1 %v11_1a8e, i1* %zf.global-to-local, align 1
  %v1_1a90 = icmp eq i1 %v11_1a8e, false
  br i1 %v1_1a90, label %bb168, label %dec_label_pc_1a96

bb168:                                            ; preds = %dec_label_pc_1a8e
  %v3_1a90 = call i32 @function_1d10(i32 %v2_1a74)
  br label %dec_label_pc_1a96

dec_label_pc_1a96:                                ; preds = %bb168, %dec_label_pc_1a8e, %dec_label_pc_1a8a
  br label %dec_label_pc_1a9b

dec_label_pc_1a9b:                                ; preds = %dec_label_pc_1a96, %dec_label_pc_1a70
  store i1 false, i1* %zf.global-to-local, align 1
  %v2_1aab = ptrtoint i32* %stack_var_-104 to i32
  store i32 %v2_1aab, i32* %esi.global-to-local, align 4
  %v2_1abd = ptrtoint i32* %stack_var_-184 to i32
  store i32 %v2_1abd, i32* %ebx.global-to-local, align 4
  ret void

; uselistorder directives
  uselistorder i1 %v11_1a8e, { 1, 0 }
  uselistorder i1 %v11_1a8a, { 1, 0 }
  uselistorder i32 %v1_1a51, { 1, 3, 4, 2, 0 }
  uselistorder i1 %v15_1a19, { 1, 0, 2, 3 }
  uselistorder i32 %v2_1a04, { 1, 0 }
  uselistorder i1 %v3_19fc, { 1, 0 }
  uselistorder i8* %tmp159, { 1, 0 }
  uselistorder i32 %v2_19c6, { 1, 0 }
  uselistorder i32 %v0_19ab, { 3, 1, 2, 0 }
  uselistorder i32 %v2_199b, { 1, 0, 2, 3, 4 }
  uselistorder i32 65, { 1, 0, 2, 3 }
  uselistorder i32 %this, { 1, 0 }
  uselistorder label %dec_label_pc_19fc, { 1, 0 }
}

define i32 @function_1c3f() local_unnamed_addr {
dec_label_pc_1c3f:
  %tmp10 = call i32 @__decompiler_undefined_function_0()
  %v4_1c46 = icmp eq i32 %tmp10, ptrtoint ([15 x i8]* @1 to i32)
  %v1_1c4d = icmp eq i1 %v4_1c46, false
  br i1 %v1_1c4d, label %bb, label %dec_label_pc_1c3f.dec_label_pc_1c53_crit_edge

dec_label_pc_1c3f.dec_label_pc_1c53_crit_edge:    ; preds = %dec_label_pc_1c3f
  %v0_1c5d.pre = load i32, i32* @eax, align 4
  br label %dec_label_pc_1c53

bb:                                               ; preds = %dec_label_pc_1c3f
  %v2_1c4d = call i32 @function_1d74()
  br label %dec_label_pc_1c53

dec_label_pc_1c53:                                ; preds = %dec_label_pc_1c3f.dec_label_pc_1c53_crit_edge, %bb
  %v0_1c5d = phi i32 [ %v2_1c4d, %bb ], [ %v0_1c5d.pre, %dec_label_pc_1c3f.dec_label_pc_1c53_crit_edge ]
  ret i32 %v0_1c5d

; uselistorder directives
  uselistorder label %dec_label_pc_1c53, { 1, 0 }
}

define i32 @function_1c60() local_unnamed_addr {
dec_label_pc_1c60:
  %eax.global-to-local = alloca i32, align 4
  %v0_1c60 = load i32, i32* @esi, align 4
  %v1_1c60 = load i32, i32* @ecx, align 4
  %v3_1c60 = add i32 %v1_1c60, %v0_1c60
  %v4_1c60 = inttoptr i32 %v3_1c60 to i8*
  %v5_1c60 = load i8, i8* %v4_1c60, align 1
  %v6_1c60 = zext i8 %v5_1c60 to i32
  store i32 %v6_1c60, i32* %eax.global-to-local, align 4
  %v2_1c64 = load i32, i32* @edi, align 4
  %v5_1c64 = add i32 %v2_1c64, %v1_1c60
  %v6_1c64 = inttoptr i32 %v5_1c64 to i8*
  store i8 %v5_1c60, i8* %v6_1c64, align 1
  %v0_1c67 = load i32, i32* %eax.global-to-local, align 4
  ret i32 %v0_1c67
}

define i32 @function_1c70() local_unnamed_addr {
dec_label_pc_1c70:
  %v2_1c70 = load i16, i16* bitcast (i32* @esi to i16*), align 4
  %v2_1c75 = load i32, i32* @edi, align 4
  %v3_1c75 = inttoptr i32 %v2_1c75 to i16*
  store i16 %v2_1c70, i16* %v3_1c75, align 2
  store i32 2, i32* @ecx, align 4
  %v0_1c83 = call i32 @function_1c60()
  ret i32 %v0_1c83

; uselistorder directives
  uselistorder i32 ()* @function_1c60, { 1, 0 }
}

define i32 @function_1c88(i32 %arg1, i32 %arg2, i32 %arg3) local_unnamed_addr {
dec_label_pc_1c88:
  ret i32 %arg1
}

define i32 @function_1c9c() local_unnamed_addr {
dec_label_pc_1c9c:
  %eax.global-to-local = alloca i32, align 4
  %v0_1c9c = load i32, i32* %eax.global-to-local, align 4
  ret i32 %v0_1c9c
}

define i32 @function_1ca8(i32 %arg1) local_unnamed_addr {
dec_label_pc_1ca8:
  %tmp = call i32 @__decompiler_undefined_function_0()
  %v0_1cb4 = load i32, i32* @eax, align 4
  store i32 %v0_1cb4, i32* @esi, align 4
  %v5_1cbe = sub i32 %tmp, %arg1
  store i32 %v5_1cbe, i32* @edi, align 4
  ret i32 %v0_1cb4
}

define i32 @function_1cd0(i32 %arg1) local_unnamed_addr {
dec_label_pc_1cd0:
  %v3_1cdc = load i32, i32* @eax, align 4
  ret i32 %v3_1cdc
}

define i32 @function_1ce3() local_unnamed_addr {
dec_label_pc_1ce3:
  %eax.global-to-local = alloca i32, align 4
  %ebx.global-to-local = alloca i32, align 4
  %v0_1ce3 = load i32, i32* %ebx.global-to-local, align 4
  %v1_1ce3 = add i32 %v0_1ce3, -1958992828
  %v2_1ce3 = inttoptr i32 %v1_1ce3 to i32*
  %v3_1ce3 = load i32, i32* %v2_1ce3, align 4
  %v4_1ce3 = add i32 %v3_1ce3, -1
  store i32 %v4_1ce3, i32* %v2_1ce3, align 4
  %v0_1cea = load i32, i32* %eax.global-to-local, align 4
  %v11_1cea = and i32 %v0_1cea, or (i32 zext (i8 ptrtoint (i16** @global_var_20.580 to i8) to i32), i32 -256)
  store i32 %v11_1cea, i32* %eax.global-to-local, align 4
  ret i32 %v11_1cea

; uselistorder directives
  uselistorder i32 %v11_1cea, { 1, 0 }
}

define i32 @function_1cf8(i32 %arg1, i32 %arg2, i32 %arg3) local_unnamed_addr {
dec_label_pc_1cf8:
  %v0_1d00 = load i32, i32* @eax, align 4
  store i32 %v0_1d00, i32* @edi, align 4
  %v2_1d02 = load i32, i32* @ebx, align 4
  %v1_1d04 = add i32 %v2_1d02, 4
  %v2_1d04 = inttoptr i32 %v1_1d04 to i32*
  %v3_1d04 = load i32, i32* %v2_1d04, align 4
  %v2_1d07 = sub i32 %v3_1d04, %v2_1d02
  store i32 %v2_1d07, i32* @edx, align 4
  ret i32 %v2_1d07
}

define i32 @function_1d10(i32 %arg1) local_unnamed_addr {
dec_label_pc_1d10:
  ret i32 0
}

define i32 @function_1d28() local_unnamed_addr {
dec_label_pc_1d28:
  %stack_var_72 = alloca i32, align 4
  %v2_1d2f = call i32 @_ZN5boost11unique_lockI14AnnotatedMixinINS_15recursive_mutexEEED1Ev(i32* nonnull %stack_var_72)
  store i32 0, i32* @eax, align 4
  %v0_1d36 = call i32 @function_1c3f()
  ret i32 %v0_1d36
}

define i32 @function_1d40(i32 %arg1) local_unnamed_addr {
dec_label_pc_1d40:
  ret i32 64
}

define i32 @function_1d60() local_unnamed_addr {
dec_label_pc_1d60:
  %eax.global-to-local = alloca i32, align 4
  %v2_1d60 = load i16, i16* bitcast (i32* @esi to i16*), align 4
  %v0_1d63 = load i32, i32* @eax, align 4
  %v1_1d63 = add i32 %v0_1d63, -2
  store i32 %v1_1d63, i32* %eax.global-to-local, align 4
  %v2_1d69 = load i32, i32* @edi, align 4
  %v3_1d69 = inttoptr i32 %v2_1d69 to i16*
  store i16 %v2_1d60, i16* %v3_1d69, align 2
  %v0_1d6f = load i32, i32* %eax.global-to-local, align 4
  ret i32 %v0_1d6f

; uselistorder directives
  uselistorder i32 -2, { 1, 0, 2, 3 }
}

define i32 @function_1d74() local_unnamed_addr {
dec_label_pc_1d74:
  %tmp = load i32, i32* @eax, align 4
  ret i32 %tmp
}

define i32 @function_1d85() local_unnamed_addr {
dec_label_pc_1d85:
  %tmp = load i32, i32* @eax, align 4
  ret i32 %tmp
}

define i32 @function_1da4() local_unnamed_addr {
dec_label_pc_1da4:
  %eax.global-to-local = alloca i32, align 4
  %ecx.global-to-local = alloca i32, align 4
  %v0_1da4 = load i32, i32* %ecx.global-to-local, align 4
  %v1_1da4 = add i32 %v0_1da4, -1981223997
  %v2_1da4 = inttoptr i32 %v1_1da4 to i32*
  %v3_1da4 = load i32, i32* %v2_1da4, align 4
  %v4_1da4 = add i32 %v3_1da4, -1
  store i32 %v4_1da4, i32* %v2_1da4, align 4
  %v0_1daa = load i32, i32* %eax.global-to-local, align 4
  ret i32 %v0_1daa
}

define i32 @function_1dab() local_unnamed_addr {
dec_label_pc_1dab:
  %v0_1dab = call i32 @function_1d85()
  ret i32 %v0_1dab
}

define void @_ZN15CCryptoKeyStore6UnlockERKSt6vectorIh16secure_allocatorIhEE(i32 %this, %"vector<unsignedchar,secure_allocator<unsignedchar>>" %vMasterKeyIn) local_unnamed_addr {
dec_label_pc_1db0:
  %stack_var_-204 = alloca i32, align 4
  store i32 %this, i32* @esi, align 4
  %v2_1dc1 = ptrtoint i32* %stack_var_-204 to i32
  store i32 %v2_1dc1, i32* @ebp, align 4
  %v1_1df0 = add i32 %this, 4
  %v10_1e0a = call i32 @_ZN10CMutexLockI14AnnotatedMixinIN5boost15recursive_mutexEEEC1ERS3_PKcS7_ib(i32* nonnull %stack_var_-204, i32 %v1_1df0, i32 ptrtoint ([12 x i8]* @global_var_24ad.573 to i32), i32 ptrtoint ([13 x i8]* @global_var_24a0.572 to i32), i32 82, i32 0)
  %v0_1e0f = load i32, i32* @esi, align 4
  call void @_ZN15CCryptoKeyStore10SetCryptedEv(i32 %v0_1e0f)
  br i1 icmp eq (i8 and (i8 ptrtoint (i32* @0 to i8), i8 ptrtoint (i32* @0 to i8)), i8 0), label %bb, label %dec_label_pc_1e1f

bb:                                               ; preds = %dec_label_pc_1db0
  %v1_1e19 = call i32 @function_1fe9()
  br label %dec_label_pc_1e1f

dec_label_pc_1e1f:                                ; preds = %bb, %dec_label_pc_1db0
  %v0_1e1f = load i32, i32* @esi, align 4
  %v1_1e1f = add i32 %v0_1e1f, ptrtoint (i32* @global_var_94.594 to i32)
  %v2_1e1f = inttoptr i32 %v1_1e1f to i32*
  %v3_1e1f = load i32, i32* %v2_1e1f, align 4
  %v1_1e33 = add i32 %v3_1e1f, ptrtoint (i16** @global_var_24.567 to i32)
  %v2_1e33 = inttoptr i32 %v1_1e33 to i8*
  %v3_1e33 = load i8, i8* %v2_1e33, align 1
  %v4_1e33 = zext i8 %v3_1e33 to i32
  store i32 %v4_1e33, i32* @eax, align 4
  store i32 ptrtoint (i32* @global_var_21.582 to i32), i32* @ecx, align 4
  %tmp141 = or i8 %v3_1e33, 1
  %tmp142 = icmp eq i8 %tmp141, 3
  br i1 %tmp142, label %dec_label_pc_1e6d, label %dec_label_pc_1e5c

dec_label_pc_1e5c:                                ; preds = %dec_label_pc_1e1f
  %v11_1e5c = icmp eq i8 %v3_1e33, 6
  br i1 %v11_1e5c, label %dec_label_pc_1e68, label %dec_label_pc_1e60

dec_label_pc_1e60:                                ; preds = %dec_label_pc_1e5c
  %v11_1e60 = icmp eq i8 %v3_1e33, 4
  %v1_1e62 = icmp eq i1 %v11_1e60, false
  br i1 %v1_1e62, label %bb140, label %dec_label_pc_1e68

bb140:                                            ; preds = %dec_label_pc_1e60
  %v5_1e62 = call i32 @function_2018(i32 0, i32 0, i32 0)
  br label %dec_label_pc_1e68

dec_label_pc_1e68:                                ; preds = %bb140, %dec_label_pc_1e60, %dec_label_pc_1e5c
  br label %dec_label_pc_1e6d

dec_label_pc_1e6d:                                ; preds = %dec_label_pc_1e68, %dec_label_pc_1e1f
  ret void
}

define i32 @function_1fb7(i32 %arg1) local_unnamed_addr {
dec_label_pc_1fb7:
  %eax.global-to-local = alloca i32, align 4
  %v0_1fb7 = load i32, i32* @ebx, align 4
  %v1_1fb7 = icmp eq i32 %v0_1fb7, 0
  br i1 %v1_1fb7, label %bb, label %dec_label_pc_1fb7.dec_label_pc_1fbf_crit_edge

dec_label_pc_1fb7.dec_label_pc_1fbf_crit_edge:    ; preds = %dec_label_pc_1fb7
  %v3_1fc5.pre = load i32, i32* %eax.global-to-local, align 4
  br label %dec_label_pc_1fbf

bb:                                               ; preds = %dec_label_pc_1fb7
  %v1_1fbd = call i32 @function_1fe9()
  store i32 %v1_1fbd, i32* %eax.global-to-local, align 4
  br label %dec_label_pc_1fbf

dec_label_pc_1fbf:                                ; preds = %dec_label_pc_1fb7.dec_label_pc_1fbf_crit_edge, %bb
  %v3_1fc5 = phi i32 [ %v1_1fbd, %bb ], [ %v3_1fc5.pre, %dec_label_pc_1fb7.dec_label_pc_1fbf_crit_edge ]
  ret i32 %v3_1fc5

; uselistorder directives
  uselistorder label %dec_label_pc_1fbf, { 1, 0 }
}

define i32 @function_1fe9() local_unnamed_addr {
dec_label_pc_1fe9:
  %tmp10 = call i32 @__decompiler_undefined_function_0()
  %v0_1fe9 = load i32, i32* @ebp, align 4
  %v1_1fec = inttoptr i32 %v0_1fe9 to i32*
  %v2_1fec = call i32 @_ZN5boost11unique_lockI14AnnotatedMixinINS_15recursive_mutexEEED1Ev(i32* %v1_1fec)
  store i32 0, i32* @eax, align 4
  %v4_1ffa = icmp eq i32 %tmp10, ptrtoint ([15 x i8]* @1 to i32)
  %v1_2001 = icmp eq i1 %v4_1ffa, false
  br i1 %v1_2001, label %bb, label %dec_label_pc_2007

bb:                                               ; preds = %dec_label_pc_1fe9
  %v2_2001 = call i32 @function_2249()
  br label %dec_label_pc_2007

dec_label_pc_2007:                                ; preds = %bb, %dec_label_pc_1fe9
  %v0_2011 = phi i32 [ %v2_2001, %bb ], [ 0, %dec_label_pc_1fe9 ]
  ret i32 %v0_2011
}

define i32 @function_2018(i32 %arg1, i32 %arg2, i32 %arg3) local_unnamed_addr {
dec_label_pc_2018:
  ret i32 0
}

define i32 @function_20aa() local_unnamed_addr {
dec_label_pc_20aa:
  %tmp = load i32, i32* @eax, align 4
  ret i32 %tmp
}

define i32 @function_210d() local_unnamed_addr {
dec_label_pc_210d:
  %tmp = load i32, i32* @eax, align 4
  ret i32 %tmp
}

define i32 @function_2191(i32 %arg1) local_unnamed_addr {
dec_label_pc_2191:
  %eax.global-to-local = alloca i32, align 4
  %v3_219c = load i32, i32* %eax.global-to-local, align 4
  ret i32 %v3_219c
}

define i32 @function_21a4(i32* %arg1, i32 %arg2) local_unnamed_addr {
dec_label_pc_21a4:
  %v4_2207 = urem i32 %arg2, 256
  ret i32 %v4_2207
}

define i32 @function_221d() local_unnamed_addr {
dec_label_pc_221d:
  %tmp = load i32, i32* @eax, align 4
  ret i32 %tmp
}

define i32 @function_2235() local_unnamed_addr {
dec_label_pc_2235:
  %v0_2235 = load i32, i32* @eax, align 4
  %v1_2235 = icmp eq i32 %v0_2235, 0
  %v1_2237 = icmp eq i1 %v1_2235, false
  br i1 %v1_2237, label %bb, label %dec_label_pc_223d

bb:                                               ; preds = %dec_label_pc_2235
  %v2_2237 = call i32 @function_20aa()
  store i32 %v2_2237, i32* @eax, align 4
  br label %dec_label_pc_223d

dec_label_pc_223d:                                ; preds = %bb, %dec_label_pc_2235
  %v0_223d = call i32 @function_210d()
  ret i32 %v0_223d
}

define i32 @function_2242() local_unnamed_addr {
dec_label_pc_2242:
  store i32 ptrtoint (i32* @global_var_21.582 to i32), i32* @eax, align 4
  %v0_2247 = call i32 @function_221d()
  ret i32 %v0_2247
}

define i32 @function_2249() local_unnamed_addr {
dec_label_pc_2249:
  %tmp = load i32, i32* @eax, align 4
  ret i32 %tmp
}

define i32 @function_225a() local_unnamed_addr {
dec_label_pc_225a:
  %tmp1 = call i32 @__decompiler_undefined_function_0()
  %v1_2261 = inttoptr i32 %tmp1 to i32*
  %v2_2261 = call i32 @_ZNSt6vectorIh16secure_allocatorIhEED1Ev(i32* %v1_2261)
  %v0_2266 = load i32, i32* @ebp, align 4
  %v1_2269 = inttoptr i32 %v0_2266 to i32*
  %v2_2269 = call i32 @_ZN5boost11unique_lockI14AnnotatedMixinINS_15recursive_mutexEEED1Ev(i32* %v1_2269)
  ret i32 %v2_2269

; uselistorder directives
  uselistorder i32 (i32*)* @_ZNSt6vectorIh16secure_allocatorIhEED1Ev, { 3, 0, 1, 2 }
}

define i32 @function_2276() local_unnamed_addr {
dec_label_pc_2276:
  %v0_2276 = call i32 @_ZN5boost8signals27signal1IvP15CCryptoKeyStoreNS0_19optional_last_valueIvEEiSt4lessIiENS_8functionIFvS3_EEENS8_IFvRKNS0_10connectionES3_EEENS0_5mutexEEclES3_.part.617()
  store i32 %v0_2276, i32* @ebx, align 4
  %v0_227d = call i32 @function_225a()
  ret i32 %v0_227d
}

define i32 @function_227f() local_unnamed_addr {
dec_label_pc_227f:
  %eax.global-to-local = alloca i32, align 4
  %v0_227f = load i32, i32* %eax.global-to-local, align 4
  ret i32 %v0_227f
}

define void @_ZN15CCryptoKeyStore4LockEv(i32 %this) local_unnamed_addr {
dec_label_pc_2290:
  %ebx.global-to-local = alloca i32, align 4
  %stack_var_-24 = alloca i32, align 4
  %v0_2291 = load i32, i32* %ebx.global-to-local, align 4
  store i32 %this, i32* @ebx, align 4
  call void @_ZN15CCryptoKeyStore10SetCryptedEv(i32 %this)
  br i1 icmp ne (i8 ptrtoint (i32* @0 to i8), i8 0), label %dec_label_pc_22c8, label %dec_label_pc_22b3

dec_label_pc_22b3:                                ; preds = %dec_label_pc_2319, %dec_label_pc_2290
  br i1 icmp ne (i32 xor (i32 ptrtoint ([15 x i8]* @1 to i32), i32 ptrtoint ([15 x i8]* @1 to i32)), i32 0), label %dec_label_pc_232c, label %dec_label_pc_22c2

dec_label_pc_22c2:                                ; preds = %dec_label_pc_22b3
  store i32 %v0_2291, i32* %ebx.global-to-local, align 4
  ret void

dec_label_pc_22c8:                                ; preds = %dec_label_pc_2290
  %v0_22c8 = load i32, i32* @ebx, align 4
  %v1_22c8 = add i32 %v0_22c8, 4
  %v2_22cb = ptrtoint i32* %stack_var_-24 to i32
  store i32 %v2_22cb, i32* @esi, align 4
  %v9_22f6 = call i32 @_ZN10CMutexLockI14AnnotatedMixinIN5boost15recursive_mutexEEEC1ERS3_PKcS7_ib(i32* nonnull %stack_var_-24, i32 %v1_22c8, i32 ptrtoint ([12 x i8]* @global_var_24ad.573 to i32), i32 ptrtoint ([13 x i8]* @global_var_24a0.572 to i32), i32 71, i32 0)
  %v0_22fb = load i32, i32* @ebx, align 4
  %v1_22fb = add i32 %v0_22fb, 160
  %v2_22fb = inttoptr i32 %v1_22fb to i32*
  %v3_22fb = load i32, i32* %v2_22fb, align 4
  %v2_2301 = add i32 %v0_22fb, ptrtoint (i32* @global_var_a4.592 to i32)
  %v3_2301 = inttoptr i32 %v2_2301 to i32*
  store i32 %v3_22fb, i32* %v3_2301, align 4
  %v2_230a = call i32 @_ZN5boost11unique_lockI14AnnotatedMixinINS_15recursive_mutexEEED1Ev(i32* nonnull %stack_var_-24)
  %v0_230f = load i32, i32* @ebx, align 4
  %v1_230f = add i32 %v0_230f, ptrtoint (i32* @global_var_b4.595 to i32)
  %v2_230f = inttoptr i32 %v1_230f to i32*
  %v3_230f = load i32, i32* %v2_230f, align 4
  %v1_2315 = icmp eq i32 %v3_230f, 0
  br i1 %v1_2315, label %bb, label %dec_label_pc_2319

bb:                                               ; preds = %dec_label_pc_22c8
  %v1_2317 = call i32 @function_2331()
  %v0_2319.pre = load i32, i32* @ebx, align 4
  br label %dec_label_pc_2319

dec_label_pc_2319:                                ; preds = %bb, %dec_label_pc_22c8
  %v0_231d = phi i32 [ %v1_2317, %bb ], [ %v3_230f, %dec_label_pc_22c8 ]
  %v0_2319 = phi i32 [ %v0_2319.pre, %bb ], [ %v0_230f, %dec_label_pc_22c8 ]
  %v2_2320 = call i32 @_ZN5boost8signals26detail12signal1_implIvP15CCryptoKeyStoreNS0_19optional_last_valueIvEEiSt4lessIiENS_8functionIFvS4_EEENS9_IFvRKNS0_10connectionES4_EEENS0_5mutexEEclES4_(i32 %v0_231d, i32 %v0_2319)
  br label %dec_label_pc_22b3

dec_label_pc_232c:                                ; preds = %dec_label_pc_22b3
  ret void

; uselistorder directives
  uselistorder i32 (i32*)* @_ZN5boost11unique_lockI14AnnotatedMixinINS_15recursive_mutexEEED1Ev, { 4, 19, 20, 5, 0, 1, 6, 7, 2, 3, 8, 9, 10, 11, 12, 13, 14, 15, 16, 17, 18 }
  uselistorder i32 ptrtoint ([13 x i8]* @global_var_24a0.572 to i32), { 2, 3, 4, 5, 6, 7, 0, 1, 8, 9, 10, 11, 12 }
  uselistorder void (i32)* @_ZN15CCryptoKeyStore10SetCryptedEv, { 2, 1, 0 }
}

define i32 @function_2331() local_unnamed_addr {
dec_label_pc_2331:
  %v0_2331 = call i32 @_ZN5boost8signals27signal1IvP15CCryptoKeyStoreNS0_19optional_last_valueIvEEiSt4lessIiENS_8functionIFvS3_EEENS8_IFvRKNS0_10connectionES3_EEENS0_5mutexEEclES3_.part.617()
  ret i32 %v0_2331

; uselistorder directives
  uselistorder i32 ()* @_ZN5boost8signals27signal1IvP15CCryptoKeyStoreNS0_19optional_last_valueIvEEiSt4lessIiENS_8functionIFvS3_EEENS8_IFvRKNS0_10connectionES3_EEENS0_5mutexEEclES3_.part.617, { 1, 0 }
}

define i32 @_ZN5boost16exception_detail10clone_baseD1Ev(i32* %arg1) local_unnamed_addr {
dec_label_pc_2340:
  store i32 ptrtoint (i32* @global_var_f010.596 to i32), i32* %arg1, align 4
  br i1 icmp ne (i32 xor (i32 ptrtoint ([15 x i8]* @1 to i32), i32 ptrtoint ([15 x i8]* @1 to i32)), i32 0), label %dec_label_pc_236a, label %dec_label_pc_2366

dec_label_pc_2366:                                ; preds = %dec_label_pc_2340
  ret i32 xor (i32 ptrtoint ([15 x i8]* @1 to i32), i32 ptrtoint ([15 x i8]* @1 to i32))

dec_label_pc_236a:                                ; preds = %dec_label_pc_2340
  ret i32 xor (i32 ptrtoint ([15 x i8]* @1 to i32), i32 ptrtoint ([15 x i8]* @1 to i32))
}

define i32 @_ZNK5boost10lock_error4whatEv() {
dec_label_pc_2590:
  br i1 icmp ne (i32 xor (i32 ptrtoint ([15 x i8]* @1 to i32), i32 ptrtoint ([15 x i8]* @1 to i32)), i32 0), label %dec_label_pc_25b5, label %dec_label_pc_25b1

dec_label_pc_25b1:                                ; preds = %dec_label_pc_2590
  ret i32 ptrtoint ([18 x i8]* @global_var_236f.597 to i32)

dec_label_pc_25b5:                                ; preds = %dec_label_pc_2590
  ret i32 ptrtoint ([18 x i8]* @global_var_236f.597 to i32)
}

define i32 @_ZN5boost6detail15sp_counted_baseD1Ev(i32* %arg1) local_unnamed_addr {
dec_label_pc_25c0:
  store i32 ptrtoint (i32* @global_var_f1e8.598 to i32), i32* %arg1, align 4
  br i1 icmp ne (i32 xor (i32 ptrtoint ([15 x i8]* @1 to i32), i32 ptrtoint ([15 x i8]* @1 to i32)), i32 0), label %dec_label_pc_25ea, label %dec_label_pc_25e6

dec_label_pc_25e6:                                ; preds = %dec_label_pc_25c0
  ret i32 xor (i32 ptrtoint ([15 x i8]* @1 to i32), i32 ptrtoint ([15 x i8]* @1 to i32))

dec_label_pc_25ea:                                ; preds = %dec_label_pc_25c0
  ret i32 xor (i32 ptrtoint ([15 x i8]* @1 to i32), i32 ptrtoint ([15 x i8]* @1 to i32))
}

define i32 @_ZN5boost6detail15sp_counted_base7destroyEv(i32* %arg1) {
dec_label_pc_25f0:
  %v1_2604 = icmp eq i32* %arg1, null
  br i1 %v1_2604, label %dec_label_pc_2628, label %dec_label_pc_2608

dec_label_pc_2608:                                ; preds = %dec_label_pc_25f0
  %tmp101 = ptrtoint i32* %arg1 to i32
  br i1 icmp ne (i32 xor (i32 ptrtoint ([15 x i8]* @1 to i32), i32 ptrtoint ([15 x i8]* @1 to i32)), i32 0), label %dec_label_pc_2639, label %dec_label_pc_2615

dec_label_pc_2615:                                ; preds = %dec_label_pc_2608
  %v2_2615 = load i32, i32* %arg1, align 4
  %v1_261b = add i32 %v2_2615, 4
  %v2_261b = inttoptr i32 %v1_261b to i32*
  %v3_261b = load i32, i32* %v2_261b, align 4
  ret i32 %v3_261b

dec_label_pc_2628:                                ; preds = %dec_label_pc_25f0
  br i1 icmp ne (i32 xor (i32 ptrtoint ([15 x i8]* @1 to i32), i32 ptrtoint ([15 x i8]* @1 to i32)), i32 0), label %dec_label_pc_2639, label %dec_label_pc_2635

dec_label_pc_2635:                                ; preds = %dec_label_pc_2628
  ret i32 xor (i32 ptrtoint ([15 x i8]* @1 to i32), i32 ptrtoint ([15 x i8]* @1 to i32))

dec_label_pc_2639:                                ; preds = %dec_label_pc_2628, %dec_label_pc_2608
  %v1_2639 = phi i32 [ xor (i32 ptrtoint ([15 x i8]* @1 to i32), i32 ptrtoint ([15 x i8]* @1 to i32)), %dec_label_pc_2628 ], [ %tmp101, %dec_label_pc_2608 ]
  ret i32 %v1_2639

; uselistorder directives
  uselistorder i32* %arg1, { 0, 2, 1 }
}

define i32 @_ZN5boost8signals211signal_baseD1Ev(i32* %arg1) {
dec_label_pc_2650:
  store i32 ptrtoint (%vtable_f0d8_type* @global_var_f0d8.599 to i32), i32* %arg1, align 4
  br i1 icmp ne (i32 xor (i32 ptrtoint ([15 x i8]* @1 to i32), i32 ptrtoint ([15 x i8]* @1 to i32)), i32 0), label %dec_label_pc_267a, label %dec_label_pc_2676

dec_label_pc_2676:                                ; preds = %dec_label_pc_2650
  ret i32 xor (i32 ptrtoint ([15 x i8]* @1 to i32), i32 ptrtoint ([15 x i8]* @1 to i32))

dec_label_pc_267a:                                ; preds = %dec_label_pc_2650
  ret i32 xor (i32 ptrtoint ([15 x i8]* @1 to i32), i32 ptrtoint ([15 x i8]* @1 to i32))
}

define i32 @_ZN5boost6system14error_categoryD1Ev(i32* %arg1) local_unnamed_addr {
dec_label_pc_2680:
  store i32 ptrtoint (i32* @global_var_eea8.600 to i32), i32* %arg1, align 4
  br i1 icmp ne (i32 xor (i32 ptrtoint ([15 x i8]* @1 to i32), i32 ptrtoint ([15 x i8]* @1 to i32)), i32 0), label %dec_label_pc_26aa, label %dec_label_pc_26a6

dec_label_pc_26a6:                                ; preds = %dec_label_pc_2680
  ret i32 xor (i32 ptrtoint ([15 x i8]* @1 to i32), i32 ptrtoint ([15 x i8]* @1 to i32))

dec_label_pc_26aa:                                ; preds = %dec_label_pc_2680
  ret i32 xor (i32 ptrtoint ([15 x i8]* @1 to i32), i32 ptrtoint ([15 x i8]* @1 to i32))
}

define i32 @_ZNK5boost6system14error_category23default_error_conditionEi(i32* %arg1, i32 %arg2, i32 %arg3) local_unnamed_addr {
dec_label_pc_26b0:
  %eax.global-to-local = alloca i32, align 4
  %tmp102 = ptrtoint i32* %arg1 to i32
  store i32 %tmp102, i32* %eax.global-to-local, align 4
  store i32 %arg3, i32* %arg1, align 4
  %v2_26ce = add i32 %tmp102, 4
  %v3_26ce = inttoptr i32 %v2_26ce to i32*
  store i32 %arg2, i32* %v3_26ce, align 4
  br i1 icmp ne (i32 xor (i32 ptrtoint ([15 x i8]* @1 to i32), i32 ptrtoint ([15 x i8]* @1 to i32)), i32 0), label %dec_label_pc_26e4, label %dec_label_pc_26de

dec_label_pc_26de:                                ; preds = %dec_label_pc_26b0
  %v0_26e1 = load i32, i32* %eax.global-to-local, align 4
  ret i32 %v0_26e1

dec_label_pc_26e4:                                ; preds = %dec_label_pc_26b0
  %v1_26e1 = load i32, i32* %eax.global-to-local, align 4
  ret i32 %v1_26e1
}

define i32 @_ZNK5boost6system14error_category10equivalentEiRKNS0_15error_conditionE(i32* %arg1, i32 %arg2, i32 %arg3) local_unnamed_addr {
dec_label_pc_26f0:
  %tmp98 = call i32 @__decompiler_undefined_function_0()
  %tmp99 = call i32 @__decompiler_undefined_function_0()
  %tmp107 = call i32 @__decompiler_undefined_function_0()
  %v1_272b = add i32 %arg3, 4
  %v2_272b = inttoptr i32 %v1_272b to i32*
  %v3_272b = load i32, i32* %v2_272b, align 4
  %v15_272b = icmp eq i32 %v3_272b, %tmp107
  br i1 %v15_272b, label %dec_label_pc_2748, label %dec_label_pc_2734

dec_label_pc_2734:                                ; preds = %dec_label_pc_2748, %dec_label_pc_26f0
  %v0_274d = phi i32 [ %v1_274a, %dec_label_pc_2748 ], [ 0, %dec_label_pc_26f0 ]
  %v4_2738 = icmp eq i32 %tmp98, ptrtoint ([15 x i8]* @1 to i32)
  %v1_273f = icmp eq i1 %v4_2738, false
  br i1 %v1_273f, label %dec_label_pc_274f, label %dec_label_pc_2741

dec_label_pc_2741:                                ; preds = %dec_label_pc_2734
  ret i32 %v0_274d

dec_label_pc_2748:                                ; preds = %dec_label_pc_26f0
  %v1_2748 = inttoptr i32 %arg3 to i32*
  %v2_2748 = load i32, i32* %v1_2748, align 4
  %v14_2748 = icmp eq i32 %v2_2748, %tmp99
  %v1_274a = zext i1 %v14_2748 to i32
  br label %dec_label_pc_2734

dec_label_pc_274f:                                ; preds = %dec_label_pc_2734
  ret i32 %v0_274d
}

define i32 @_ZNK5boost6system14error_category10equivalentERKNS0_10error_codeEi(i32 %arg1, i32* %arg2, i32 %arg3) local_unnamed_addr {
dec_label_pc_2760:
  %ebx.global-to-local = alloca i32, align 4
  %tmp103 = ptrtoint i32* %arg2 to i32
  %v0_2760 = load i32, i32* %ebx.global-to-local, align 4
  store i32 %arg1, i32* %ebx.global-to-local, align 4
  %v1_277c = add i32 %tmp103, 4
  %v2_277c = inttoptr i32 %v1_277c to i32*
  %v3_277c = load i32, i32* %v2_277c, align 4
  %v15_277c = icmp eq i32 %v3_277c, %arg1
  br i1 %v15_277c, label %dec_label_pc_2798, label %dec_label_pc_2781

dec_label_pc_2781:                                ; preds = %dec_label_pc_2798, %dec_label_pc_2760
  %v0_279d = phi i32 [ %v1_279a, %dec_label_pc_2798 ], [ 0, %dec_label_pc_2760 ]
  br i1 icmp ne (i32 xor (i32 ptrtoint ([15 x i8]* @1 to i32), i32 ptrtoint ([15 x i8]* @1 to i32)), i32 0), label %dec_label_pc_279f, label %dec_label_pc_278e

dec_label_pc_278e:                                ; preds = %dec_label_pc_2781
  store i32 %v0_2760, i32* %ebx.global-to-local, align 4
  ret i32 %v0_279d

dec_label_pc_2798:                                ; preds = %dec_label_pc_2760
  %v2_2798 = load i32, i32* %arg2, align 4
  %v14_2798 = icmp eq i32 %v2_2798, %arg3
  %v1_279a = zext i1 %v14_2798 to i32
  br label %dec_label_pc_2781

dec_label_pc_279f:                                ; preds = %dec_label_pc_2781
  ret i32 %v0_279d
}

define i32 @_ZN5boost6detail17sp_counted_impl_pINS_8signals26detail12grouped_listIiSt4lessIiENS_10shared_ptrINS3_15connection_bodyISt4pairINS3_15slot_meta_groupENS_8optionalIiEEENS2_5slot1IvP15CCryptoKeyStoreNS_8functionIFvSG_EEEEENS2_5mutexEEEEEEEED1Ev(i32* %arg1) {
dec_label_pc_27b0:
  store i32 ptrtoint (i32* @global_var_f1e8.598 to i32), i32* %arg1, align 4
  br i1 icmp ne (i32 xor (i32 ptrtoint ([15 x i8]* @1 to i32), i32 ptrtoint ([15 x i8]* @1 to i32)), i32 0), label %dec_label_pc_27da, label %dec_label_pc_27d6

dec_label_pc_27d6:                                ; preds = %dec_label_pc_27b0
  ret i32 xor (i32 ptrtoint ([15 x i8]* @1 to i32), i32 ptrtoint ([15 x i8]* @1 to i32))

dec_label_pc_27da:                                ; preds = %dec_label_pc_27b0
  ret i32 xor (i32 ptrtoint ([15 x i8]* @1 to i32), i32 ptrtoint ([15 x i8]* @1 to i32))
}

define i32 @_ZN5boost6detail17sp_counted_impl_pINS_8signals26detail12signal1_implIvP15CCryptoKeyStoreNS2_19optional_last_valueIvEEiSt4lessIiENS_8functionIFvS6_EEENSB_IFvRKNS2_10connectionES6_EEENS2_5mutexEE16invocation_stateEED1Ev(i32* %arg1) {
dec_label_pc_27e0:
  store i32 ptrtoint (i32* @global_var_f1e8.598 to i32), i32* %arg1, align 4
  br i1 icmp ne (i32 xor (i32 ptrtoint ([15 x i8]* @1 to i32), i32 ptrtoint ([15 x i8]* @1 to i32)), i32 0), label %dec_label_pc_280a, label %dec_label_pc_2806

dec_label_pc_2806:                                ; preds = %dec_label_pc_27e0
  ret i32 xor (i32 ptrtoint ([15 x i8]* @1 to i32), i32 ptrtoint ([15 x i8]* @1 to i32))

dec_label_pc_280a:                                ; preds = %dec_label_pc_27e0
  ret i32 xor (i32 ptrtoint ([15 x i8]* @1 to i32), i32 ptrtoint ([15 x i8]* @1 to i32))
}

define i32 @_ZN5boost6detail17sp_counted_impl_pINS_16exception_detail10clone_implINS2_10bad_alloc_EEEED1Ev(i32* %arg1) {
dec_label_pc_2810:
  store i32 ptrtoint (i32* @global_var_f1e8.598 to i32), i32* %arg1, align 4
  br i1 icmp ne (i32 xor (i32 ptrtoint ([15 x i8]* @1 to i32), i32 ptrtoint ([15 x i8]* @1 to i32)), i32 0), label %dec_label_pc_283a, label %dec_label_pc_2836

dec_label_pc_2836:                                ; preds = %dec_label_pc_2810
  ret i32 xor (i32 ptrtoint ([15 x i8]* @1 to i32), i32 ptrtoint ([15 x i8]* @1 to i32))

dec_label_pc_283a:                                ; preds = %dec_label_pc_2810
  ret i32 xor (i32 ptrtoint ([15 x i8]* @1 to i32), i32 ptrtoint ([15 x i8]* @1 to i32))
}

define i32 @_ZN5boost6detail17sp_counted_impl_pINS_8signals26detail12grouped_listIiSt4lessIiENS_10shared_ptrINS3_15connection_bodyISt4pairINS3_15slot_meta_groupENS_8optionalIiEEENS2_5slot1IvP15CCryptoKeyStoreNS_8functionIFvSG_EEEEENS2_5mutexEEEEEEEE11get_deleterERKSt9type_info() {
dec_label_pc_2840:
  br i1 icmp ne (i32 xor (i32 ptrtoint ([15 x i8]* @1 to i32), i32 ptrtoint ([15 x i8]* @1 to i32)), i32 0), label %dec_label_pc_2860, label %dec_label_pc_285c

dec_label_pc_285c:                                ; preds = %dec_label_pc_2840
  ret i32 0

dec_label_pc_2860:                                ; preds = %dec_label_pc_2840
  ret i32 0
}

define i32 @_ZN5boost6detail17sp_counted_impl_pINS_8signals26detail12signal1_implIvP15CCryptoKeyStoreNS2_19optional_last_valueIvEEiSt4lessIiENS_8functionIFvS6_EEENSB_IFvRKNS2_10connectionES6_EEENS2_5mutexEE16invocation_stateEE11get_deleterERKSt9type_info() {
dec_label_pc_2870:
  br i1 icmp ne (i32 xor (i32 ptrtoint ([15 x i8]* @1 to i32), i32 ptrtoint ([15 x i8]* @1 to i32)), i32 0), label %dec_label_pc_2890, label %dec_label_pc_288c

dec_label_pc_288c:                                ; preds = %dec_label_pc_2870
  ret i32 0

dec_label_pc_2890:                                ; preds = %dec_label_pc_2870
  ret i32 0
}

define i32 @_ZN5boost6detail17sp_counted_impl_pINS_16exception_detail10clone_implINS2_10bad_alloc_EEEE7disposeEv(i32 %arg1) {
dec_label_pc_28a0:
  %v1_28b3 = add i32 %arg1, ptrtoint (i32* @global_var_c.559 to i32)
  %v2_28b3 = inttoptr i32 %v1_28b3 to i32*
  %v3_28b3 = load i32, i32* %v2_28b3, align 4
  %v1_28b6 = icmp eq i32 %v3_28b3, 0
  br i1 %v1_28b6, label %dec_label_pc_28d8, label %dec_label_pc_28ba

dec_label_pc_28ba:                                ; preds = %dec_label_pc_28a0
  br i1 icmp ne (i32 xor (i32 ptrtoint ([15 x i8]* @1 to i32), i32 ptrtoint ([15 x i8]* @1 to i32)), i32 0), label %dec_label_pc_28e9, label %dec_label_pc_28c7

dec_label_pc_28c7:                                ; preds = %dec_label_pc_28ba
  %v1_28c7 = inttoptr i32 %v3_28b3 to i32*
  %v2_28c7 = load i32, i32* %v1_28c7, align 4
  %v1_28cd = add i32 %v2_28c7, 4
  %v2_28cd = inttoptr i32 %v1_28cd to i32*
  %v3_28cd = load i32, i32* %v2_28cd, align 4
  ret i32 %v3_28cd

dec_label_pc_28d8:                                ; preds = %dec_label_pc_28a0
  br i1 icmp ne (i32 xor (i32 ptrtoint ([15 x i8]* @1 to i32), i32 ptrtoint ([15 x i8]* @1 to i32)), i32 0), label %dec_label_pc_28e9, label %dec_label_pc_28e5

dec_label_pc_28e5:                                ; preds = %dec_label_pc_28d8
  ret i32 xor (i32 ptrtoint ([15 x i8]* @1 to i32), i32 ptrtoint ([15 x i8]* @1 to i32))

dec_label_pc_28e9:                                ; preds = %dec_label_pc_28d8, %dec_label_pc_28ba
  %v0_28f0 = phi i32 [ xor (i32 ptrtoint ([15 x i8]* @1 to i32), i32 ptrtoint ([15 x i8]* @1 to i32)), %dec_label_pc_28d8 ], [ %v3_28b3, %dec_label_pc_28ba ]
  ret i32 %v0_28f0
}

define i32 @_ZN5boost6detail17sp_counted_impl_pINS_16exception_detail10clone_implINS2_10bad_alloc_EEEE11get_deleterERKSt9type_info() {
dec_label_pc_2900:
  br i1 icmp ne (i32 xor (i32 ptrtoint ([15 x i8]* @1 to i32), i32 ptrtoint ([15 x i8]* @1 to i32)), i32 0), label %dec_label_pc_2920, label %dec_label_pc_291c

dec_label_pc_291c:                                ; preds = %dec_label_pc_2900
  ret i32 0

dec_label_pc_2920:                                ; preds = %dec_label_pc_2900
  ret i32 0
}

define i32 @_ZNK5boost8signals27signal1IvP15CCryptoKeyStoreNS0_19optional_last_valueIvEEiSt4lessIiENS_8functionIFvS3_EEENS8_IFvRKNS0_10connectionES3_EEENS0_5mutexEE10lock_pimplEv(i32* %arg1, i32 %arg2) {
dec_label_pc_2930:
  %eax.global-to-local = alloca i32, align 4
  %tmp99 = ptrtoint i32* %arg1 to i32
  store i32 %tmp99, i32* %eax.global-to-local, align 4
  %v1_2948 = add i32 %arg2, 4
  %v2_2948 = inttoptr i32 %v1_2948 to i32*
  %v3_2948 = load i32, i32* %v2_2948, align 4
  %v1_294b = add i32 %arg2, 8
  %v2_294b = inttoptr i32 %v1_294b to i32*
  %v3_294b = load i32, i32* %v2_294b, align 4
  store i32 %v3_2948, i32* %arg1, align 4
  %v1_2950 = icmp eq i32 %v3_294b, 0
  %v1_2952 = load i32, i32* %eax.global-to-local, align 4
  %v2_2952 = add i32 %v1_2952, 4
  %v3_2952 = inttoptr i32 %v2_2952 to i32*
  store i32 %v3_294b, i32* %v3_2952, align 4
  br i1 %v1_2950, label %dec_label_pc_295b, label %dec_label_pc_2957

dec_label_pc_2957:                                ; preds = %dec_label_pc_2930
  %v1_2957 = add i32 %v3_294b, 4
  %v2_2957 = inttoptr i32 %v1_2957 to i32*
  %v3_2957 = load i32, i32* %v2_2957, align 4
  %v4_2957 = add i32 %v3_2957, 1
  store i32 %v4_2957, i32* %v2_2957, align 4
  br label %dec_label_pc_295b

dec_label_pc_295b:                                ; preds = %dec_label_pc_2957, %dec_label_pc_2930
  br i1 icmp ne (i32 xor (i32 ptrtoint ([15 x i8]* @1 to i32), i32 ptrtoint ([15 x i8]* @1 to i32)), i32 0), label %dec_label_pc_296e, label %dec_label_pc_2968

dec_label_pc_2968:                                ; preds = %dec_label_pc_295b
  %v0_296b = load i32, i32* %eax.global-to-local, align 4
  ret i32 %v0_296b

dec_label_pc_296e:                                ; preds = %dec_label_pc_295b
  %v0_2970 = load i32, i32* %eax.global-to-local, align 4
  ret i32 %v0_2970

; uselistorder directives
  uselistorder i32* %eax.global-to-local, { 1, 2, 0, 3 }
  uselistorder i32 %arg2, { 1, 0 }
}

define i32 @_ZN5boost6detail17sp_counted_impl_pINS_16exception_detail10clone_implINS2_10bad_alloc_EEEED0Ev(i32* %arg1) {
dec_label_pc_2980:
  %tmp99 = ptrtoint i32* %arg1 to i32
  store i32 %tmp99, i32* @eax, align 4
  store i32 ptrtoint (i32* @global_var_f1e8.598 to i32), i32* %arg1, align 4
  br i1 icmp ne (i32 xor (i32 ptrtoint ([15 x i8]* @1 to i32), i32 ptrtoint ([15 x i8]* @1 to i32)), i32 0), label %bb, label %dec_label_pc_2980.dec_label_pc_29a7_crit_edge

dec_label_pc_2980.dec_label_pc_29a7_crit_edge:    ; preds = %dec_label_pc_2980
  %v17_29ab.pre = load i32, i32* @eax, align 4
  br label %dec_label_pc_29a7

bb:                                               ; preds = %dec_label_pc_2980
  %v4_29a5 = call i32 @function_29b3(i32 ptrtoint ([15 x i8]* @1 to i32))
  br label %dec_label_pc_29a7

dec_label_pc_29a7:                                ; preds = %dec_label_pc_2980.dec_label_pc_29a7_crit_edge, %bb
  %v17_29ab = phi i32 [ %v17_29ab.pre, %dec_label_pc_2980.dec_label_pc_29a7_crit_edge ], [ %v4_29a5, %bb ]
  ret i32 %v17_29ab

; uselistorder directives
  uselistorder label %dec_label_pc_29a7, { 1, 0 }
}

define i32 @function_29b3(i32 %arg1) local_unnamed_addr {
dec_label_pc_29b3:
  %v0_29b3 = load i32, i32* @eax, align 4
  ret i32 %v0_29b3
}

define i32 @_ZN5boost6detail17sp_counted_impl_pINS_8signals26detail12signal1_implIvP15CCryptoKeyStoreNS2_19optional_last_valueIvEEiSt4lessIiENS_8functionIFvS6_EEENSB_IFvRKNS2_10connectionES6_EEENS2_5mutexEE16invocation_stateEED0Ev(i32* %arg1) {
dec_label_pc_29c0:
  %tmp99 = ptrtoint i32* %arg1 to i32
  store i32 %tmp99, i32* @eax, align 4
  store i32 ptrtoint (i32* @global_var_f1e8.598 to i32), i32* %arg1, align 4
  br i1 icmp ne (i32 xor (i32 ptrtoint ([15 x i8]* @1 to i32), i32 ptrtoint ([15 x i8]* @1 to i32)), i32 0), label %bb, label %dec_label_pc_29c0.dec_label_pc_29e7_crit_edge

dec_label_pc_29c0.dec_label_pc_29e7_crit_edge:    ; preds = %dec_label_pc_29c0
  %v17_29eb.pre = load i32, i32* @eax, align 4
  br label %dec_label_pc_29e7

bb:                                               ; preds = %dec_label_pc_29c0
  %v4_29e5 = call i32 @function_29f3(i32 ptrtoint ([15 x i8]* @1 to i32))
  br label %dec_label_pc_29e7

dec_label_pc_29e7:                                ; preds = %dec_label_pc_29c0.dec_label_pc_29e7_crit_edge, %bb
  %v17_29eb = phi i32 [ %v17_29eb.pre, %dec_label_pc_29c0.dec_label_pc_29e7_crit_edge ], [ %v4_29e5, %bb ]
  ret i32 %v17_29eb

; uselistorder directives
  uselistorder label %dec_label_pc_29e7, { 1, 0 }
}

define i32 @function_29f3(i32 %arg1) local_unnamed_addr {
dec_label_pc_29f3:
  %tmp = load i32, i32* @eax, align 4
  ret i32 %tmp
}

define i32 @_ZN5boost6detail17sp_counted_impl_pINS_8signals26detail12grouped_listIiSt4lessIiENS_10shared_ptrINS3_15connection_bodyISt4pairINS3_15slot_meta_groupENS_8optionalIiEEENS2_5slot1IvP15CCryptoKeyStoreNS_8functionIFvSG_EEEEENS2_5mutexEEEEEEEED0Ev(i32* %arg1) {
dec_label_pc_2a00:
  %tmp99 = ptrtoint i32* %arg1 to i32
  store i32 %tmp99, i32* @eax, align 4
  store i32 ptrtoint (i32* @global_var_f1e8.598 to i32), i32* %arg1, align 4
  br i1 icmp ne (i32 xor (i32 ptrtoint ([15 x i8]* @1 to i32), i32 ptrtoint ([15 x i8]* @1 to i32)), i32 0), label %bb, label %dec_label_pc_2a00.dec_label_pc_2a27_crit_edge

dec_label_pc_2a00.dec_label_pc_2a27_crit_edge:    ; preds = %dec_label_pc_2a00
  %v17_2a2b.pre = load i32, i32* @eax, align 4
  br label %dec_label_pc_2a27

bb:                                               ; preds = %dec_label_pc_2a00
  %v4_2a25 = call i32 @function_2a33(i32 ptrtoint ([15 x i8]* @1 to i32))
  br label %dec_label_pc_2a27

dec_label_pc_2a27:                                ; preds = %dec_label_pc_2a00.dec_label_pc_2a27_crit_edge, %bb
  %v17_2a2b = phi i32 [ %v17_2a2b.pre, %dec_label_pc_2a00.dec_label_pc_2a27_crit_edge ], [ %v4_2a25, %bb ]
  ret i32 %v17_2a2b

; uselistorder directives
  uselistorder label %dec_label_pc_2a27, { 1, 0 }
}

define i32 @function_2a33(i32 %arg1) local_unnamed_addr {
dec_label_pc_2a33:
  %tmp = load i32, i32* @eax, align 4
  ret i32 %tmp
}

define i32 @_ZN5boost6detail15sp_counted_baseD0Ev(i32* %arg1) local_unnamed_addr {
dec_label_pc_2a40:
  %tmp99 = ptrtoint i32* %arg1 to i32
  store i32 %tmp99, i32* @eax, align 4
  store i32 ptrtoint (i32* @global_var_f1e8.598 to i32), i32* %arg1, align 4
  br i1 icmp ne (i32 xor (i32 ptrtoint ([15 x i8]* @1 to i32), i32 ptrtoint ([15 x i8]* @1 to i32)), i32 0), label %bb, label %dec_label_pc_2a40.dec_label_pc_2a67_crit_edge

dec_label_pc_2a40.dec_label_pc_2a67_crit_edge:    ; preds = %dec_label_pc_2a40
  %v17_2a6b.pre = load i32, i32* @eax, align 4
  br label %dec_label_pc_2a67

bb:                                               ; preds = %dec_label_pc_2a40
  %v4_2a65 = call i32 @function_2a73(i32 ptrtoint ([15 x i8]* @1 to i32))
  br label %dec_label_pc_2a67

dec_label_pc_2a67:                                ; preds = %dec_label_pc_2a40.dec_label_pc_2a67_crit_edge, %bb
  %v17_2a6b = phi i32 [ %v17_2a6b.pre, %dec_label_pc_2a40.dec_label_pc_2a67_crit_edge ], [ %v4_2a65, %bb ]
  ret i32 %v17_2a6b

; uselistorder directives
  uselistorder label %dec_label_pc_2a67, { 1, 0 }
}

define i32 @function_2a73(i32 %arg1) local_unnamed_addr {
dec_label_pc_2a73:
  %tmp = load i32, i32* @eax, align 4
  ret i32 %tmp
}

define i32 @_ZN5boost16exception_detail10clone_baseD0Ev(i32* %arg1) local_unnamed_addr {
dec_label_pc_2a80:
  %tmp99 = ptrtoint i32* %arg1 to i32
  store i32 %tmp99, i32* @eax, align 4
  store i32 ptrtoint (i32* @global_var_f010.596 to i32), i32* %arg1, align 4
  br i1 icmp ne (i32 xor (i32 ptrtoint ([15 x i8]* @1 to i32), i32 ptrtoint ([15 x i8]* @1 to i32)), i32 0), label %bb, label %dec_label_pc_2a80.dec_label_pc_2aa7_crit_edge

dec_label_pc_2a80.dec_label_pc_2aa7_crit_edge:    ; preds = %dec_label_pc_2a80
  %v17_2aab.pre = load i32, i32* @eax, align 4
  br label %dec_label_pc_2aa7

bb:                                               ; preds = %dec_label_pc_2a80
  %v4_2aa5 = call i32 @function_2ab3(i32 ptrtoint ([15 x i8]* @1 to i32))
  br label %dec_label_pc_2aa7

dec_label_pc_2aa7:                                ; preds = %dec_label_pc_2a80.dec_label_pc_2aa7_crit_edge, %bb
  %v17_2aab = phi i32 [ %v17_2aab.pre, %dec_label_pc_2a80.dec_label_pc_2aa7_crit_edge ], [ %v4_2aa5, %bb ]
  ret i32 %v17_2aab

; uselistorder directives
  uselistorder label %dec_label_pc_2aa7, { 1, 0 }
}

define i32 @function_2ab3(i32 %arg1) local_unnamed_addr {
dec_label_pc_2ab3:
  %tmp = load i32, i32* @eax, align 4
  ret i32 %tmp
}

define i32 @_ZN5boost6system14error_categoryD0Ev(i32* %arg1) local_unnamed_addr {
dec_label_pc_2ac0:
  %tmp99 = ptrtoint i32* %arg1 to i32
  store i32 %tmp99, i32* @eax, align 4
  store i32 ptrtoint (i32* @global_var_eea8.600 to i32), i32* %arg1, align 4
  br i1 icmp ne (i32 xor (i32 ptrtoint ([15 x i8]* @1 to i32), i32 ptrtoint ([15 x i8]* @1 to i32)), i32 0), label %bb, label %dec_label_pc_2ac0.dec_label_pc_2ae7_crit_edge

dec_label_pc_2ac0.dec_label_pc_2ae7_crit_edge:    ; preds = %dec_label_pc_2ac0
  %v17_2aeb.pre = load i32, i32* @eax, align 4
  br label %dec_label_pc_2ae7

bb:                                               ; preds = %dec_label_pc_2ac0
  %v4_2ae5 = call i32 @function_2af3(i32 ptrtoint ([15 x i8]* @1 to i32))
  br label %dec_label_pc_2ae7

dec_label_pc_2ae7:                                ; preds = %dec_label_pc_2ac0.dec_label_pc_2ae7_crit_edge, %bb
  %v17_2aeb = phi i32 [ %v17_2aeb.pre, %dec_label_pc_2ac0.dec_label_pc_2ae7_crit_edge ], [ %v4_2ae5, %bb ]
  ret i32 %v17_2aeb

; uselistorder directives
  uselistorder label %dec_label_pc_2ae7, { 1, 0 }
}

define i32 @function_2af3(i32 %arg1) local_unnamed_addr {
dec_label_pc_2af3:
  %tmp = load i32, i32* @eax, align 4
  ret i32 %tmp
}

define i32 @_ZN5boost8signals211signal_baseD0Ev(i32* %arg1) {
dec_label_pc_2b00:
  %tmp99 = ptrtoint i32* %arg1 to i32
  store i32 %tmp99, i32* @eax, align 4
  store i32 ptrtoint (%vtable_f0d8_type* @global_var_f0d8.599 to i32), i32* %arg1, align 4
  br i1 icmp ne (i32 xor (i32 ptrtoint ([15 x i8]* @1 to i32), i32 ptrtoint ([15 x i8]* @1 to i32)), i32 0), label %bb, label %dec_label_pc_2b00.dec_label_pc_2b27_crit_edge

dec_label_pc_2b00.dec_label_pc_2b27_crit_edge:    ; preds = %dec_label_pc_2b00
  %v17_2b2b.pre = load i32, i32* @eax, align 4
  br label %dec_label_pc_2b27

bb:                                               ; preds = %dec_label_pc_2b00
  %v4_2b25 = call i32 @function_2b33(i32 ptrtoint ([15 x i8]* @1 to i32))
  br label %dec_label_pc_2b27

dec_label_pc_2b27:                                ; preds = %dec_label_pc_2b00.dec_label_pc_2b27_crit_edge, %bb
  %v17_2b2b = phi i32 [ %v17_2b2b.pre, %dec_label_pc_2b00.dec_label_pc_2b27_crit_edge ], [ %v4_2b25, %bb ]
  ret i32 %v17_2b2b

; uselistorder directives
  uselistorder label %dec_label_pc_2b27, { 1, 0 }
}

define i32 @function_2b33(i32 %arg1) local_unnamed_addr {
dec_label_pc_2b33:
  %tmp = load i32, i32* @eax, align 4
  ret i32 %tmp
}

define i32 @_ZN5boost8signals26detail11auto_bufferINS_7variantINS_10shared_ptrIvEENS1_23foreign_void_shared_ptrENS_6detail7variant5void_ES9_S9_S9_S9_S9_S9_S9_S9_S9_S9_S9_S9_S9_S9_S9_S9_S9_EENS1_15store_n_objectsILj10EEENS1_19default_grow_policyESaISA_EE10deallocateEPSA_j(i32 %arg1, i32 %arg2) local_unnamed_addr {
dec_label_pc_2b40:
  store i32 %arg1, i32* @eax, align 4
  %tmp112 = icmp ult i32 %arg2, 11
  br i1 %tmp112, label %dec_label_pc_2b5b, label %dec_label_pc_2b70

dec_label_pc_2b5b:                                ; preds = %dec_label_pc_2b40
  store i32 xor (i32 ptrtoint ([15 x i8]* @1 to i32), i32 ptrtoint ([15 x i8]* @1 to i32)), i32* @eax, align 4
  br i1 icmp ne (i32 xor (i32 ptrtoint ([15 x i8]* @1 to i32), i32 ptrtoint ([15 x i8]* @1 to i32)), i32 0), label %bb, label %dec_label_pc_2b68

bb:                                               ; preds = %dec_label_pc_2b5b
  %v4_2b66 = call i32 @function_2b8e(i32 ptrtoint ([15 x i8]* @1 to i32))
  br label %dec_label_pc_2b68

dec_label_pc_2b68:                                ; preds = %bb, %dec_label_pc_2b5b
  %v0_2b6b = phi i32 [ %v4_2b66, %bb ], [ xor (i32 ptrtoint ([15 x i8]* @1 to i32), i32 ptrtoint ([15 x i8]* @1 to i32)), %dec_label_pc_2b5b ]
  ret i32 %v0_2b6b

dec_label_pc_2b70:                                ; preds = %dec_label_pc_2b40
  br i1 icmp ne (i32 xor (i32 ptrtoint ([15 x i8]* @1 to i32), i32 ptrtoint ([15 x i8]* @1 to i32)), i32 0), label %bb110, label %dec_label_pc_2b82

bb110:                                            ; preds = %dec_label_pc_2b70
  %v4_2b80 = call i32 @function_2b8e(i32 ptrtoint ([15 x i8]* @1 to i32))
  br label %dec_label_pc_2b82

dec_label_pc_2b82:                                ; preds = %bb110, %dec_label_pc_2b70
  %v17_2b86 = phi i32 [ %v4_2b80, %bb110 ], [ %arg1, %dec_label_pc_2b70 ]
  ret i32 %v17_2b86

; uselistorder directives
  uselistorder i32 (i32)* @function_2b8e, { 1, 0 }
}

define i32 @function_2b8e(i32 %arg1) local_unnamed_addr {
dec_label_pc_2b8e:
  %tmp = load i32, i32* @eax, align 4
  ret i32 %tmp
}

define i32 @_ZN5boost17bad_function_callD1Ev(i32* %arg1) {
dec_label_pc_2ba0:
  %tmp99 = ptrtoint i32* %arg1 to i32
  store i32 %tmp99, i32* @eax, align 4
  store i32 ptrtoint (%vtable_f0f8_type* @global_var_f0f8.601 to i32), i32* %arg1, align 4
  br i1 icmp ne (i32 xor (i32 ptrtoint ([15 x i8]* @1 to i32), i32 ptrtoint ([15 x i8]* @1 to i32)), i32 0), label %bb, label %dec_label_pc_2ba0.dec_label_pc_2bc7_crit_edge

dec_label_pc_2ba0.dec_label_pc_2bc7_crit_edge:    ; preds = %dec_label_pc_2ba0
  %v17_2bcb.pre = load i32, i32* @eax, align 4
  br label %dec_label_pc_2bc7

bb:                                               ; preds = %dec_label_pc_2ba0
  %v4_2bc5 = call i32 @function_2bd3(i32 ptrtoint ([15 x i8]* @1 to i32))
  br label %dec_label_pc_2bc7

dec_label_pc_2bc7:                                ; preds = %dec_label_pc_2ba0.dec_label_pc_2bc7_crit_edge, %bb
  %v17_2bcb = phi i32 [ %v17_2bcb.pre, %dec_label_pc_2ba0.dec_label_pc_2bc7_crit_edge ], [ %v4_2bc5, %bb ]
  ret i32 %v17_2bcb

; uselistorder directives
  uselistorder label %dec_label_pc_2bc7, { 1, 0 }
}

define i32 @function_2bd3(i32 %arg1) local_unnamed_addr {
dec_label_pc_2bd3:
  %tmp = load i32, i32* @eax, align 4
  ret i32 %tmp
}

define i32 @_ZN5boost16thread_exceptionD1Ev(i32* %arg1) {
dec_label_pc_2be0:
  %tmp99 = ptrtoint i32* %arg1 to i32
  store i32 %tmp99, i32* @eax, align 4
  store i32 ptrtoint (%vtable_efa0_type* @global_var_efa0.602 to i32), i32* %arg1, align 4
  br i1 icmp ne (i32 xor (i32 ptrtoint ([15 x i8]* @1 to i32), i32 ptrtoint ([15 x i8]* @1 to i32)), i32 0), label %bb, label %dec_label_pc_2be0.dec_label_pc_2c07_crit_edge

dec_label_pc_2be0.dec_label_pc_2c07_crit_edge:    ; preds = %dec_label_pc_2be0
  %v17_2c0b.pre = load i32, i32* @eax, align 4
  br label %dec_label_pc_2c07

bb:                                               ; preds = %dec_label_pc_2be0
  %v4_2c05 = call i32 @function_2c13(i32 ptrtoint ([15 x i8]* @1 to i32))
  br label %dec_label_pc_2c07

dec_label_pc_2c07:                                ; preds = %dec_label_pc_2be0.dec_label_pc_2c07_crit_edge, %bb
  %v17_2c0b = phi i32 [ %v17_2c0b.pre, %dec_label_pc_2be0.dec_label_pc_2c07_crit_edge ], [ %v4_2c05, %bb ]
  ret i32 %v17_2c0b

; uselistorder directives
  uselistorder label %dec_label_pc_2c07, { 1, 0 }
}

define i32 @function_2c13(i32 %arg1) local_unnamed_addr {
dec_label_pc_2c13:
  %tmp = load i32, i32* @eax, align 4
  ret i32 %tmp
}

define i32 @_ZThn24_NK5boost16exception_detail10clone_implINS0_10bad_alloc_EE7rethrowEv(i32 %arg1) local_unnamed_addr {
dec_label_pc_2c20:
  %v4_2c20 = add i32 %arg1, -24
  %v1_2c25 = call i32 @_ZNK5boost16exception_detail10clone_implINS0_10bad_alloc_EE7rethrowEv(i32 %v4_2c20)
  ret i32 %v1_2c25
}

define i32 @_ZNK5boost16exception_detail10clone_implINS0_10bad_alloc_EE7rethrowEv(i32 %arg1) {
dec_label_pc_2c30:
  ret i32 0
}

define i32 @function_2c52() local_unnamed_addr {
dec_label_pc_2c52:
  %eax.global-to-local = alloca i32, align 4
  %v0_2c52 = load i32, i32* %eax.global-to-local, align 4
  ret i32 %v0_2c52
}

define i32 @_ZN5boost7pthread25pthread_mutex_scoped_lockC2EP15pthread_mutex_t.part.22() local_unnamed_addr {
dec_label_pc_353e:
  ret i32 0
}

define i32 @_ZN5boost7pthread25pthread_mutex_scoped_lockD2Ev.part.23() local_unnamed_addr {
dec_label_pc_3572:
  ret i32 0
}

define i32 @_ZN9CKeyStoreD2Ev.part.39() local_unnamed_addr {
dec_label_pc_35a6:
  ret i32 0
}

define i32 @_ZN5boost11unique_lockINS_5mutexEED2Ev.part.94() local_unnamed_addr {
dec_label_pc_35da:
  ret i32 0
}

define i32 @_ZNK5boost10shared_ptrINS_8signals26detail12signal1_implIvP15CCryptoKeyStoreNS1_19optional_last_valueIvEEiSt4lessIiENS_8functionIFvS5_EEENSA_IFvRKNS1_10connectionES5_EEENS1_5mutexEE16invocation_stateEEptEv.isra.198.part.199() local_unnamed_addr {
dec_label_pc_360e:
  ret i32 0
}

define i32 @_ZNK5boost10shared_ptrINS_8signals26detail15connection_bodyISt4pairINS2_15slot_meta_groupENS_8optionalIiEEENS1_5slot1IvP15CCryptoKeyStoreNS_8functionIFvSB_EEEEENS1_5mutexEEEEptEv.isra.236.part.237() local_unnamed_addr {
dec_label_pc_3642:
  ret i32 0
}

define i32 @_ZN5boost8signals26detail12signal1_implIvP15CCryptoKeyStoreNS0_19optional_last_valueIvEEiSt4lessIiENS_8functionIFvS4_EEENS9_IFvRKNS0_10connectionES4_EEENS0_5mutexEE16invocation_state17connection_bodiesEv.part.270() local_unnamed_addr {
dec_label_pc_3676:
  ret i32 0
}

define i32 @_ZN5boost8signals27signal1IvP15CCryptoKeyStoreNS0_19optional_last_valueIvEEiSt4lessIiENS_8functionIFvS3_EEENS8_IFvRKNS0_10connectionES3_EEENS0_5mutexEED2Ev.part.362() local_unnamed_addr {
dec_label_pc_36aa:
  ret i32 0
}

define i32 @_ZN5boost8signals26detail11auto_bufferINS_7variantINS_10shared_ptrIvEENS1_23foreign_void_shared_ptrENS_6detail7variant5void_ES9_S9_S9_S9_S9_S9_S9_S9_S9_S9_S9_S9_S9_S9_S9_S9_S9_EENS1_15store_n_objectsILj10EEENS1_19default_grow_policyESaISA_EED2Ev.part.514() local_unnamed_addr {
dec_label_pc_36de:
  ret i32 0
}

define i32 @_ZN5boost8signals26detail11auto_bufferINS_7variantINS_10shared_ptrIvEENS1_23foreign_void_shared_ptrENS_6detail7variant5void_ES9_S9_S9_S9_S9_S9_S9_S9_S9_S9_S9_S9_S9_S9_S9_S9_S9_EENS1_15store_n_objectsILj10EEENS1_19default_grow_policyESaISA_EE19unchecked_push_backERKSA_.part.543() local_unnamed_addr {
dec_label_pc_3712:
  ret i32 0
}

define i32 @_ZNK5boost8signals26detail14group_key_lessIiSt4lessIiEEclERKSt4pairINS1_15slot_meta_groupENS_8optionalIiEEESC_.isra.570.part.571() local_unnamed_addr {
dec_label_pc_3746:
  ret i32 0
}

define i32 @_ZN5boost8signals27signal1IvP15CCryptoKeyStoreNS0_19optional_last_valueIvEEiSt4lessIiENS_8functionIFvS3_EEENS8_IFvRKNS0_10connectionES3_EEENS0_5mutexEEclES3_.part.617() local_unnamed_addr {
dec_label_pc_377a:
  ret i32 0
}

define i32 @_ZN9CKeyStoreD1Ev(i32* %arg1) local_unnamed_addr {
dec_label_pc_37b0:
  %ebx.global-to-local = alloca i32, align 4
  %tmp103 = ptrtoint i32* %arg1 to i32
  %v0_37b0 = load i32, i32* %ebx.global-to-local, align 4
  store i32 %tmp103, i32* %ebx.global-to-local, align 4
  store i32 ptrtoint (i32* @global_var_eee8.628 to i32), i32* %arg1, align 4
  %v1_37ca = add i32 %tmp103, 4
  store i32 %v1_37ca, i32* @eax, align 4
  %v1_37d5 = icmp eq i32 %v1_37ca, 0
  %v1_37d7 = icmp eq i1 %v1_37d5, false
  br i1 %v1_37d7, label %dec_label_pc_37fa, label %dec_label_pc_37e8

dec_label_pc_37e8:                                ; preds = %dec_label_pc_37b0
  %v1_37d9 = add i32 %tmp103, ptrtoint (i32* @global_var_1c.579 to i32)
  store i32 %v1_37d9, i32* %ebx.global-to-local, align 4
  br i1 icmp ne (i32 xor (i32 ptrtoint ([15 x i8]* @1 to i32), i32 ptrtoint ([15 x i8]* @1 to i32)), i32 0), label %dec_label_pc_3805, label %dec_label_pc_37f5

dec_label_pc_37f5:                                ; preds = %dec_label_pc_37e8
  store i32 %v0_37b0, i32* %ebx.global-to-local, align 4
  ret i32 xor (i32 ptrtoint ([15 x i8]* @1 to i32), i32 ptrtoint ([15 x i8]* @1 to i32))

dec_label_pc_37fa:                                ; preds = %dec_label_pc_37b0
  %v1_3800 = call i32 @function_6d56(i32 %v1_37ca)
  br label %dec_label_pc_3805

dec_label_pc_3805:                                ; preds = %dec_label_pc_37fa, %dec_label_pc_37e8
  %v2_3800 = phi i32 [ %v1_3800, %dec_label_pc_37fa ], [ xor (i32 ptrtoint ([15 x i8]* @1 to i32), i32 ptrtoint ([15 x i8]* @1 to i32)), %dec_label_pc_37e8 ]
  ret i32 %v2_3800

; uselistorder directives
  uselistorder i32 %tmp103, { 1, 0, 2 }
}

define i32 @function_380a(i32 %arg1) local_unnamed_addr {
dec_label_pc_380a:
  %v3_3822 = load i32, i32* @eax, align 4
  ret i32 %v3_3822
}

define i32 @_ZN5boost17bad_function_callD0Ev(i32* %arg1) {
dec_label_pc_3830:
  store i32 ptrtoint (%vtable_f0f8_type* @global_var_f0f8.601 to i32), i32* %arg1, align 4
  ret i32 0
}

define i32 @function_3851(i32 %arg1) local_unnamed_addr {
dec_label_pc_3851:
  %eax.global-to-local = alloca i32, align 4
  %ebx.global-to-local = alloca i32, align 4
  %v0_3851 = load i32, i32* %ebx.global-to-local, align 4
  %v1_3851 = add i32 %v0_3851, 1696343108
  %v2_3851 = inttoptr i32 %v1_3851 to i32*
  %v3_3851 = load i32, i32* %v2_3851, align 4
  %v4_3851 = add i32 %v3_3851, -1
  store i32 %v4_3851, i32* %v2_3851, align 4
  %v0_3857 = load i32, i32* %eax.global-to-local, align 4
  %v3_3857 = xor i32 %v0_3857, ptrtoint ([15 x i8]* @1 to i32)
  %v4_3857 = icmp eq i32 %v3_3857, 0
  store i32 %v3_3857, i32* %eax.global-to-local, align 4
  %v1_385d = icmp eq i1 %v4_3857, false
  br i1 %v1_385d, label %dec_label_pc_386c, label %dec_label_pc_385f

dec_label_pc_385f:                                ; preds = %dec_label_pc_3851
  store i32 %arg1, i32* %ebx.global-to-local, align 4
  br label %dec_label_pc_386c

dec_label_pc_386c:                                ; preds = %dec_label_pc_385f, %dec_label_pc_3851
  ret i32 %v3_3857
}

define i32 @_ZN5boost10lock_errorD1Ev(i32* %arg1) {
dec_label_pc_3880:
  %tmp99 = ptrtoint i32* %arg1 to i32
  store i32 %tmp99, i32* @eax, align 4
  store i32 ptrtoint (%vtable_efa0_type* @global_var_efa0.602 to i32), i32* %arg1, align 4
  br i1 icmp ne (i32 xor (i32 ptrtoint ([15 x i8]* @1 to i32), i32 ptrtoint ([15 x i8]* @1 to i32)), i32 0), label %bb, label %dec_label_pc_3880.dec_label_pc_38a7_crit_edge

dec_label_pc_3880.dec_label_pc_38a7_crit_edge:    ; preds = %dec_label_pc_3880
  %v17_38ab.pre = load i32, i32* @eax, align 4
  br label %dec_label_pc_38a7

bb:                                               ; preds = %dec_label_pc_3880
  %v4_38a5 = call i32 @function_38b3(i32 ptrtoint ([15 x i8]* @1 to i32))
  br label %dec_label_pc_38a7

dec_label_pc_38a7:                                ; preds = %dec_label_pc_3880.dec_label_pc_38a7_crit_edge, %bb
  %v17_38ab = phi i32 [ %v17_38ab.pre, %dec_label_pc_3880.dec_label_pc_38a7_crit_edge ], [ %v4_38a5, %bb ]
  ret i32 %v17_38ab

; uselistorder directives
  uselistorder label %dec_label_pc_38a7, { 1, 0 }
}

define i32 @function_38b3(i32 %arg1) local_unnamed_addr {
dec_label_pc_38b3:
  %tmp = load i32, i32* @eax, align 4
  ret i32 %tmp
}

define i32 @_ZN5boost16thread_exceptionD0Ev(i32* %arg1) {
dec_label_pc_38c0:
  store i32 ptrtoint (%vtable_efa0_type* @global_var_efa0.602 to i32), i32* %arg1, align 4
  ret i32 0
}

define i32 @function_38e1(i32 %arg1) local_unnamed_addr {
dec_label_pc_38e1:
  %eax.global-to-local = alloca i32, align 4
  %ebx.global-to-local = alloca i32, align 4
  %v0_38e1 = load i32, i32* %ebx.global-to-local, align 4
  %v1_38e1 = add i32 %v0_38e1, 1696343108
  %v2_38e1 = inttoptr i32 %v1_38e1 to i32*
  %v3_38e1 = load i32, i32* %v2_38e1, align 4
  %v4_38e1 = add i32 %v3_38e1, -1
  store i32 %v4_38e1, i32* %v2_38e1, align 4
  %v0_38e7 = load i32, i32* %eax.global-to-local, align 4
  %v3_38e7 = xor i32 %v0_38e7, ptrtoint ([15 x i8]* @1 to i32)
  %v4_38e7 = icmp eq i32 %v3_38e7, 0
  store i32 %v3_38e7, i32* %eax.global-to-local, align 4
  %v1_38ed = icmp eq i1 %v4_38e7, false
  br i1 %v1_38ed, label %dec_label_pc_38fc, label %dec_label_pc_38ef

dec_label_pc_38ef:                                ; preds = %dec_label_pc_38e1
  store i32 %arg1, i32* %ebx.global-to-local, align 4
  br label %dec_label_pc_38fc

dec_label_pc_38fc:                                ; preds = %dec_label_pc_38ef, %dec_label_pc_38e1
  ret i32 %v3_38e7
}

define i32 @_ZN5boost10lock_errorD0Ev(i32* %arg1) {
dec_label_pc_3910:
  store i32 ptrtoint (%vtable_efa0_type* @global_var_efa0.602 to i32), i32* %arg1, align 4
  ret i32 0
}

define i32 @_ZThn24_NK5boost16exception_detail10clone_implINS0_10bad_alloc_EE5cloneEv(i32 %arg1) local_unnamed_addr {
dec_label_pc_3960:
  %v4_3960 = add i32 %arg1, -24
  %v1_3965 = call i32 @_ZNK5boost16exception_detail10clone_implINS0_10bad_alloc_EE5cloneEv(i32 %v4_3960)
  ret i32 %v1_3965
}

define i32 @_ZNK5boost16exception_detail10clone_implINS0_10bad_alloc_EE5cloneEv(i32 %arg1) {
dec_label_pc_3970:
  ret i32 0
}

define i32 @function_3990(i32 %arg1, i32 %arg2, i32 %arg3) local_unnamed_addr {
dec_label_pc_3990:
  %eax.global-to-local = alloca i32, align 4
  %ebx.global-to-local = alloca i32, align 4
  %ecx.global-to-local = alloca i32, align 4
  %esi.global-to-local = alloca i32, align 4
  %v0_3990 = load i32, i32* %ecx.global-to-local, align 4
  %v1_3990 = add i32 %v0_3990, -805255229
  %v2_3990 = inttoptr i32 %v1_3990 to i32*
  %v3_3990 = load i32, i32* %v2_3990, align 4
  %v4_3990 = add i32 %v3_3990, -1
  store i32 %v4_3990, i32* %v2_3990, align 4
  %v2_3997 = load i8, i8* bitcast (i32* @eax to i8*), align 4
  %v3_3997 = load i32, i32* %eax.global-to-local, align 4
  %v4_3997 = trunc i32 %v3_3997 to i8
  %v5_3997 = add i8 %v4_3997, %v2_3997
  %v21_3997 = inttoptr i32 %v3_3997 to i8*
  store i8 %v5_3997, i8* %v21_3997, align 1
  %v0_3999 = load i32, i32* %esi.global-to-local, align 4
  %v1_3999 = add i32 %v0_3999, 4
  %v2_3999 = inttoptr i32 %v1_3999 to i32*
  %v3_3999 = load i32, i32* %v2_3999, align 4
  store i32 %v3_3999, i32* %eax.global-to-local, align 4
  %v1_399c = icmp eq i32 %v3_3999, 0
  %v1_399e = load i32, i32* %ebx.global-to-local, align 4
  %v2_399e = add i32 %v1_399e, 4
  %v3_399e = inttoptr i32 %v2_399e to i32*
  store i32 %v3_3999, i32* %v3_399e, align 4
  br i1 %v1_399c, label %dec_label_pc_39ab, label %dec_label_pc_39a3

dec_label_pc_39a3:                                ; preds = %dec_label_pc_3990
  br label %dec_label_pc_39ab

dec_label_pc_39ab:                                ; preds = %dec_label_pc_39a3, %dec_label_pc_3990
  %v0_39ab = load i32, i32* %esi.global-to-local, align 4
  %v1_39ab = add i32 %v0_39ab, 8
  %v2_39ab = inttoptr i32 %v1_39ab to i32*
  %v3_39ab = load i32, i32* %v2_39ab, align 4
  store i32 %v3_39ab, i32* %eax.global-to-local, align 4
  %v4_39b2 = icmp eq i32 %arg1, ptrtoint ([15 x i8]* @1 to i32)
  %v0_39b9 = load i32, i32* %ebx.global-to-local, align 4
  %v1_39b9 = inttoptr i32 %v0_39b9 to i32*
  store i32 ptrtoint (%vtable_f288_type* @global_var_f288.630 to i32), i32* %v1_39b9, align 4
  %v0_39bf = load i32, i32* %eax.global-to-local, align 4
  %v1_39bf = load i32, i32* %ebx.global-to-local, align 4
  %v2_39bf = add i32 %v1_39bf, 8
  %v3_39bf = inttoptr i32 %v2_39bf to i32*
  store i32 %v0_39bf, i32* %v3_39bf, align 4
  %v0_39c2 = load i32, i32* %esi.global-to-local, align 4
  %v1_39c2 = add i32 %v0_39c2, ptrtoint (i32* @global_var_c.559 to i32)
  %v2_39c2 = inttoptr i32 %v1_39c2 to i32*
  %v3_39c2 = load i32, i32* %v2_39c2, align 4
  store i32 %v3_39c2, i32* %eax.global-to-local, align 4
  %v1_39c5 = load i32, i32* %ebx.global-to-local, align 4
  %v2_39c5 = add i32 %v1_39c5, ptrtoint (i32* @global_var_c.559 to i32)
  %v3_39c5 = inttoptr i32 %v2_39c5 to i32*
  store i32 %v3_39c2, i32* %v3_39c5, align 4
  %v0_39c8 = load i32, i32* %esi.global-to-local, align 4
  %v1_39c8 = add i32 %v0_39c8, ptrtoint (i32* @global_var_10.578 to i32)
  %v2_39c8 = inttoptr i32 %v1_39c8 to i32*
  %v3_39c8 = load i32, i32* %v2_39c8, align 4
  store i32 %v3_39c8, i32* %eax.global-to-local, align 4
  %v0_39cb = load i32, i32* %ebx.global-to-local, align 4
  %v1_39cb = add i32 %v0_39cb, ptrtoint (i8** @global_var_14.558 to i32)
  %v2_39cb = inttoptr i32 %v1_39cb to i32*
  store i32 ptrtoint (i32* @global_var_f2a0.631 to i32), i32* %v2_39cb, align 4
  %v0_39d2 = load i32, i32* %ebx.global-to-local, align 4
  %v1_39d2 = add i32 %v0_39d2, 24
  %v2_39d2 = inttoptr i32 %v1_39d2 to i32*
  store i32 ptrtoint (i32* @global_var_f2b4.632 to i32), i32* %v2_39d2, align 4
  %v0_39d9 = load i32, i32* %eax.global-to-local, align 4
  %v1_39d9 = load i32, i32* %ebx.global-to-local, align 4
  %v2_39d9 = add i32 %v1_39d9, ptrtoint (i32* @global_var_10.578 to i32)
  %v3_39d9 = inttoptr i32 %v2_39d9 to i32*
  store i32 %v0_39d9, i32* %v3_39d9, align 4
  %v0_39dc = load i32, i32* %ebx.global-to-local, align 4
  %v1_39dc = add i32 %v0_39dc, 24
  store i32 %v1_39dc, i32* %eax.global-to-local, align 4
  %v1_39df = icmp eq i1 %v4_39b2, false
  br i1 %v1_39df, label %dec_label_pc_39e7, label %dec_label_pc_39e1

dec_label_pc_39e1:                                ; preds = %dec_label_pc_39ab
  store i32 %arg2, i32* %ebx.global-to-local, align 4
  store i32 %arg3, i32* %esi.global-to-local, align 4
  ret i32 %v1_39dc

dec_label_pc_39e7:                                ; preds = %dec_label_pc_39ab
  ret i32 %v1_39dc

; uselistorder directives
  uselistorder i32 %v1_39dc, { 1, 0, 2 }
  uselistorder i32* %esi.global-to-local, { 0, 1, 2, 4, 3 }
}

define i32 @_ZThn28_NK5boost16exception_detail10clone_implINS0_19error_info_injectorINS_10lock_errorEEEE5cloneEv(i32 %arg1) local_unnamed_addr {
dec_label_pc_3a00:
  %v4_3a00 = sub i32 %arg1, ptrtoint (i32* @global_var_1c.579 to i32)
  %v1_3a05 = call i32 @_ZNK5boost16exception_detail10clone_implINS0_19error_info_injectorINS_10lock_errorEEEE5cloneEv(i32 %v4_3a00)
  ret i32 %v1_3a05
}

define i32 @_ZNK5boost16exception_detail10clone_implINS0_19error_info_injectorINS_10lock_errorEEEE5cloneEv(i32 %arg1) {
dec_label_pc_3a10:
  ret i32 0
}

define i32 @function_3a30(i32 %arg1, i32 %arg2, i32 %arg3) local_unnamed_addr {
dec_label_pc_3a30:
  %eax.global-to-local = alloca i32, align 4
  %ebx.global-to-local = alloca i32, align 4
  %ecx.global-to-local = alloca i32, align 4
  %esi.global-to-local = alloca i32, align 4
  %v0_3a30 = load i32, i32* %ecx.global-to-local, align 4
  %v1_3a30 = add i32 %v0_3a30, 71732163
  %v2_3a30 = inttoptr i32 %v1_3a30 to i32*
  %v3_3a30 = load i32, i32* %v2_3a30, align 4
  %v4_3a30 = add i32 %v3_3a30, -1
  store i32 %v4_3a30, i32* %v2_3a30, align 4
  %v0_3a36 = load i32, i32* %ebx.global-to-local, align 4
  %v1_3a36 = inttoptr i32 %v0_3a36 to i32*
  store i32 ptrtoint (%vtable_efb8_type* @global_var_efb8.633 to i32), i32* %v1_3a36, align 4
  %v0_3a3c = load i32, i32* %ebx.global-to-local, align 4
  %v1_3a3c = add i32 %v0_3a3c, 8
  %v2_3a3c = inttoptr i32 %v1_3a3c to i32*
  store i32 ptrtoint (i32* @global_var_efd0.634 to i32), i32* %v2_3a3c, align 4
  %v0_3a43 = load i32, i32* %eax.global-to-local, align 4
  %v1_3a43 = load i32, i32* %ebx.global-to-local, align 4
  %v2_3a43 = add i32 %v1_3a43, 4
  %v3_3a43 = inttoptr i32 %v2_3a43 to i32*
  store i32 %v0_3a43, i32* %v3_3a43, align 4
  %v0_3a46 = load i32, i32* %esi.global-to-local, align 4
  %v1_3a46 = add i32 %v0_3a46, ptrtoint (i32* @global_var_c.559 to i32)
  %v2_3a46 = inttoptr i32 %v1_3a46 to i32*
  %v3_3a46 = load i32, i32* %v2_3a46, align 4
  store i32 %v3_3a46, i32* %eax.global-to-local, align 4
  %v1_3a49 = icmp eq i32 %v3_3a46, 0
  %v1_3a4b = load i32, i32* %ebx.global-to-local, align 4
  %v2_3a4b = add i32 %v1_3a4b, ptrtoint (i32* @global_var_c.559 to i32)
  %v3_3a4b = inttoptr i32 %v2_3a4b to i32*
  store i32 %v3_3a46, i32* %v3_3a4b, align 4
  br i1 %v1_3a49, label %dec_label_pc_3a58, label %dec_label_pc_3a50

dec_label_pc_3a50:                                ; preds = %dec_label_pc_3a30
  br label %dec_label_pc_3a58

dec_label_pc_3a58:                                ; preds = %dec_label_pc_3a50, %dec_label_pc_3a30
  %v0_3a58 = load i32, i32* %esi.global-to-local, align 4
  %v1_3a58 = add i32 %v0_3a58, ptrtoint (i32* @global_var_10.578 to i32)
  %v2_3a58 = inttoptr i32 %v1_3a58 to i32*
  %v3_3a58 = load i32, i32* %v2_3a58, align 4
  store i32 %v3_3a58, i32* %eax.global-to-local, align 4
  %v4_3a5f = icmp eq i32 %arg1, ptrtoint ([15 x i8]* @1 to i32)
  %v0_3a66 = load i32, i32* %ebx.global-to-local, align 4
  %v1_3a66 = add i32 %v0_3a66, 8
  %v2_3a66 = inttoptr i32 %v1_3a66 to i32*
  store i32 ptrtoint (i32* @global_var_f044.635 to i32), i32* %v2_3a66, align 4
  %v0_3a6d = load i32, i32* %eax.global-to-local, align 4
  %v1_3a6d = load i32, i32* %ebx.global-to-local, align 4
  %v2_3a6d = add i32 %v1_3a6d, ptrtoint (i32* @global_var_10.578 to i32)
  %v3_3a6d = inttoptr i32 %v2_3a6d to i32*
  store i32 %v0_3a6d, i32* %v3_3a6d, align 4
  %v0_3a70 = load i32, i32* %esi.global-to-local, align 4
  %v1_3a70 = add i32 %v0_3a70, ptrtoint (i8** @global_var_14.558 to i32)
  %v2_3a70 = inttoptr i32 %v1_3a70 to i32*
  %v3_3a70 = load i32, i32* %v2_3a70, align 4
  store i32 %v3_3a70, i32* %eax.global-to-local, align 4
  %v1_3a73 = load i32, i32* %ebx.global-to-local, align 4
  %v2_3a73 = add i32 %v1_3a73, ptrtoint (i8** @global_var_14.558 to i32)
  %v3_3a73 = inttoptr i32 %v2_3a73 to i32*
  store i32 %v3_3a70, i32* %v3_3a73, align 4
  %v0_3a76 = load i32, i32* %esi.global-to-local, align 4
  %v1_3a76 = add i32 %v0_3a76, 24
  %v2_3a76 = inttoptr i32 %v1_3a76 to i32*
  %v3_3a76 = load i32, i32* %v2_3a76, align 4
  store i32 %v3_3a76, i32* %eax.global-to-local, align 4
  %v0_3a79 = load i32, i32* %ebx.global-to-local, align 4
  %v1_3a79 = inttoptr i32 %v0_3a79 to i32*
  store i32 ptrtoint (%vtable_f028_type* @global_var_f028.636 to i32), i32* %v1_3a79, align 4
  %v0_3a7f = load i32, i32* %ebx.global-to-local, align 4
  %v1_3a7f = add i32 %v0_3a7f, ptrtoint (i32* @global_var_1c.579 to i32)
  %v2_3a7f = inttoptr i32 %v1_3a7f to i32*
  store i32 ptrtoint (i32* @global_var_f054.637 to i32), i32* %v2_3a7f, align 4
  %v0_3a86 = load i32, i32* %eax.global-to-local, align 4
  %v1_3a86 = load i32, i32* %ebx.global-to-local, align 4
  %v2_3a86 = add i32 %v1_3a86, 24
  %v3_3a86 = inttoptr i32 %v2_3a86 to i32*
  store i32 %v0_3a86, i32* %v3_3a86, align 4
  %v0_3a89 = load i32, i32* %ebx.global-to-local, align 4
  %v1_3a89 = add i32 %v0_3a89, ptrtoint (i32* @global_var_1c.579 to i32)
  store i32 %v1_3a89, i32* %eax.global-to-local, align 4
  %v1_3a8c = icmp eq i1 %v4_3a5f, false
  br i1 %v1_3a8c, label %dec_label_pc_3a94, label %dec_label_pc_3a8e

dec_label_pc_3a8e:                                ; preds = %dec_label_pc_3a58
  store i32 %arg2, i32* %ebx.global-to-local, align 4
  store i32 %arg3, i32* %esi.global-to-local, align 4
  ret i32 %v1_3a89

dec_label_pc_3a94:                                ; preds = %dec_label_pc_3a58
  ret i32 %v1_3a89

; uselistorder directives
  uselistorder i32 %v1_3a89, { 1, 0, 2 }
  uselistorder i32* %esi.global-to-local, { 0, 1, 2, 4, 3 }
  uselistorder i32 (i32)* @_ZNK5boost16exception_detail10clone_implINS0_19error_info_injectorINS_10lock_errorEEEE5cloneEv, { 1, 0 }
}

define i32 @_ZN9CKeyStoreD0Ev(i32* %arg1) local_unnamed_addr {
dec_label_pc_3ac0:
  %tmp99 = ptrtoint i32* %arg1 to i32
  store i32 ptrtoint (i32* @global_var_eee8.628 to i32), i32* %arg1, align 4
  %v1_3ada = add i32 %tmp99, 4
  ret i32 %v1_3ada
}

define i32 @_ZThn28_NK5boost16exception_detail10clone_implINS0_19error_info_injectorINS_17bad_function_callEEEE5cloneEv(i32 %arg1) local_unnamed_addr {
dec_label_pc_3b40:
  %v4_3b40 = sub i32 %arg1, ptrtoint (i32* @global_var_1c.579 to i32)
  %v1_3b45 = call i32 @_ZNK5boost16exception_detail10clone_implINS0_19error_info_injectorINS_17bad_function_callEEEE5cloneEv.557(i32 %v4_3b40)
  ret i32 %v1_3b45
}

define i32 @_ZNK5boost16exception_detail10clone_implINS0_19error_info_injectorINS_17bad_function_callEEEE5cloneEv.557(i32 %arg1) {
dec_label_pc_3b50:
  ret i32 0
}

define i32 @function_3b8a(i32 %arg1, i32 %arg2, i32 %arg3) local_unnamed_addr {
dec_label_pc_3b8a:
  %eax.global-to-local = alloca i32, align 4
  %ebx.global-to-local = alloca i32, align 4
  %esi.global-to-local = alloca i32, align 4
  %v0_3b8a = load i32, i32* %ebx.global-to-local, align 4
  %v1_3b8a = add i32 %v0_3b8a, 63376454
  %v2_3b8a = inttoptr i32 %v1_3b8a to i32*
  %v3_3b8a = load i32, i32* %v2_3b8a, align 4
  %v4_3b8a = add i32 %v3_3b8a, -1
  store i32 %v4_3b8a, i32* %v2_3b8a, align 4
  %v2_3b91 = load i8, i8* bitcast (i32* @eax to i8*), align 4
  %v3_3b91 = load i32, i32* %eax.global-to-local, align 4
  %v4_3b91 = trunc i32 %v3_3b91 to i8
  %v5_3b91 = add i8 %v4_3b91, %v2_3b91
  %v21_3b91 = inttoptr i32 %v3_3b91 to i8*
  store i8 %v5_3b91, i8* %v21_3b91, align 1
  %v0_3b94 = load i32, i32* %ebx.global-to-local, align 4
  %v1_3b94 = add i32 %v0_3b94, 8
  %v2_3b94 = inttoptr i32 %v1_3b94 to i32*
  store i32 ptrtoint (i32* @global_var_efd0.634 to i32), i32* %v2_3b94, align 4
  %v0_3b9b = load i32, i32* %eax.global-to-local, align 4
  %v1_3b9b = icmp eq i32 %v0_3b9b, 0
  %v1_3b9d = load i32, i32* %ebx.global-to-local, align 4
  %v2_3b9d = add i32 %v1_3b9d, ptrtoint (i32* @global_var_c.559 to i32)
  %v3_3b9d = inttoptr i32 %v2_3b9d to i32*
  store i32 %v0_3b9b, i32* %v3_3b9d, align 4
  br i1 %v1_3b9b, label %dec_label_pc_3baa, label %dec_label_pc_3ba2

dec_label_pc_3ba2:                                ; preds = %dec_label_pc_3b8a
  br label %dec_label_pc_3baa

dec_label_pc_3baa:                                ; preds = %dec_label_pc_3ba2, %dec_label_pc_3b8a
  %v0_3baa = load i32, i32* %esi.global-to-local, align 4
  %v1_3baa = add i32 %v0_3baa, ptrtoint (i32* @global_var_10.578 to i32)
  %v2_3baa = inttoptr i32 %v1_3baa to i32*
  %v3_3baa = load i32, i32* %v2_3baa, align 4
  store i32 %v3_3baa, i32* %eax.global-to-local, align 4
  %v4_3bb1 = icmp eq i32 %arg1, ptrtoint ([15 x i8]* @1 to i32)
  %v0_3bb8 = load i32, i32* %ebx.global-to-local, align 4
  %v1_3bb8 = add i32 %v0_3bb8, 8
  %v2_3bb8 = inttoptr i32 %v1_3bb8 to i32*
  store i32 ptrtoint (i32* @global_var_f184.638 to i32), i32* %v2_3bb8, align 4
  %v0_3bbf = load i32, i32* %eax.global-to-local, align 4
  %v1_3bbf = load i32, i32* %ebx.global-to-local, align 4
  %v2_3bbf = add i32 %v1_3bbf, ptrtoint (i32* @global_var_10.578 to i32)
  %v3_3bbf = inttoptr i32 %v2_3bbf to i32*
  store i32 %v0_3bbf, i32* %v3_3bbf, align 4
  %v0_3bc2 = load i32, i32* %esi.global-to-local, align 4
  %v1_3bc2 = add i32 %v0_3bc2, ptrtoint (i8** @global_var_14.558 to i32)
  %v2_3bc2 = inttoptr i32 %v1_3bc2 to i32*
  %v3_3bc2 = load i32, i32* %v2_3bc2, align 4
  store i32 %v3_3bc2, i32* %eax.global-to-local, align 4
  %v1_3bc5 = load i32, i32* %ebx.global-to-local, align 4
  %v2_3bc5 = add i32 %v1_3bc5, ptrtoint (i8** @global_var_14.558 to i32)
  %v3_3bc5 = inttoptr i32 %v2_3bc5 to i32*
  store i32 %v3_3bc2, i32* %v3_3bc5, align 4
  %v0_3bc8 = load i32, i32* %esi.global-to-local, align 4
  %v1_3bc8 = add i32 %v0_3bc8, 24
  %v2_3bc8 = inttoptr i32 %v1_3bc8 to i32*
  %v3_3bc8 = load i32, i32* %v2_3bc8, align 4
  store i32 %v3_3bc8, i32* %eax.global-to-local, align 4
  %v0_3bcb = load i32, i32* %ebx.global-to-local, align 4
  %v1_3bcb = inttoptr i32 %v0_3bcb to i32*
  store i32 ptrtoint (%vtable_f168_type* @global_var_f168.639 to i32), i32* %v1_3bcb, align 4
  %v0_3bd1 = load i32, i32* %ebx.global-to-local, align 4
  %v1_3bd1 = add i32 %v0_3bd1, ptrtoint (i32* @global_var_1c.579 to i32)
  %v2_3bd1 = inttoptr i32 %v1_3bd1 to i32*
  store i32 ptrtoint (i32* @global_var_f194.640 to i32), i32* %v2_3bd1, align 4
  %v0_3bd8 = load i32, i32* %eax.global-to-local, align 4
  %v1_3bd8 = load i32, i32* %ebx.global-to-local, align 4
  %v2_3bd8 = add i32 %v1_3bd8, 24
  %v3_3bd8 = inttoptr i32 %v2_3bd8 to i32*
  store i32 %v0_3bd8, i32* %v3_3bd8, align 4
  %v0_3bdb = load i32, i32* %ebx.global-to-local, align 4
  %v1_3bdb = add i32 %v0_3bdb, ptrtoint (i32* @global_var_1c.579 to i32)
  store i32 %v1_3bdb, i32* %eax.global-to-local, align 4
  %v1_3bde = icmp eq i1 %v4_3bb1, false
  br i1 %v1_3bde, label %dec_label_pc_3be6, label %dec_label_pc_3be0

dec_label_pc_3be0:                                ; preds = %dec_label_pc_3baa
  store i32 %arg2, i32* %ebx.global-to-local, align 4
  store i32 %arg3, i32* %esi.global-to-local, align 4
  ret i32 %v1_3bdb

dec_label_pc_3be6:                                ; preds = %dec_label_pc_3baa
  ret i32 %v1_3bdb

; uselistorder directives
  uselistorder i32 %v1_3bdb, { 1, 0, 2 }
  uselistorder i32 (i32)* @_ZNK5boost16exception_detail10clone_implINS0_19error_info_injectorINS_17bad_function_callEEEE5cloneEv.557, { 1, 0 }
}

define i32 @function_3bef() local_unnamed_addr {
dec_label_pc_3bef:
  %eax.global-to-local = alloca i32, align 4
  %v0_3bef = load i32, i32* %eax.global-to-local, align 4
  %v11_3bef = and i32 %v0_3bef, -24
  store i32 %v11_3bef, i32* @eax, align 4
  %v0_3bf1 = call i32 @function_3c1d()
  store i32 %v0_3bf1, i32* %eax.global-to-local, align 4
  ret i32 %v0_3bf1
}

define i32 @function_3bf5() local_unnamed_addr {
dec_label_pc_3bf5:
  %tmp = load i32, i32* @eax, align 4
  ret i32 %tmp
}

define i32 @function_3c0f() local_unnamed_addr {
dec_label_pc_3c0f:
  %v0_3c0f = call i32 @function_3bf5()
  ret i32 %v0_3c0f
}

define i32 @function_3c1d() local_unnamed_addr {
dec_label_pc_3c1d:
  %tmp = load i32, i32* @eax, align 4
  ret i32 %tmp
}

define i32 @_ZN5boost6system12system_errorD1Ev(i32* %arg1) {
dec_label_pc_3c20:
  %tmp100 = ptrtoint i32* %arg1 to i32
  %v1_3c3b = add i32 %tmp100, ptrtoint (i32* @global_var_10.578 to i32)
  %v2_3c3b = inttoptr i32 %v1_3c3b to i32*
  %v3_3c3b = load i32, i32* %v2_3c3b, align 4
  store i32 ptrtoint (%vtable_eed0_type* @global_var_eed0.641 to i32), i32* %arg1, align 4
  ret i32 %v3_3c3b
}

define i32 @function_3c56(i32 %arg1, i32 %arg2) local_unnamed_addr {
dec_label_pc_3c56:
  %eax.global-to-local = alloca i32, align 4
  %ebx.global-to-local = alloca i32, align 4
  %v0_3c56 = load i32, i32* %ebx.global-to-local, align 4
  %v1_3c56 = add i32 %v0_3c56, 1696343108
  %v2_3c56 = inttoptr i32 %v1_3c56 to i32*
  %v3_3c56 = load i32, i32* %v2_3c56, align 4
  %v4_3c56 = add i32 %v3_3c56, -1
  store i32 %v4_3c56, i32* %v2_3c56, align 4
  %v0_3c5c = load i32, i32* %eax.global-to-local, align 4
  %v3_3c5c = xor i32 %v0_3c5c, ptrtoint ([15 x i8]* @1 to i32)
  %v4_3c5c = icmp eq i32 %v3_3c5c, 0
  store i32 %v3_3c5c, i32* @eax, align 4
  %v1_3c62 = icmp eq i1 %v4_3c5c, false
  br i1 %v1_3c62, label %bb, label %dec_label_pc_3c64

bb:                                               ; preds = %dec_label_pc_3c56
  %v2_3c62 = call i32 @function_3c97()
  store i32 %v2_3c62, i32* %eax.global-to-local, align 4
  br label %dec_label_pc_3c64

dec_label_pc_3c64:                                ; preds = %bb, %dec_label_pc_3c56
  %v0_3c6f = phi i32 [ %v2_3c62, %bb ], [ %v3_3c5c, %dec_label_pc_3c56 ]
  store i32 %arg1, i32* %ebx.global-to-local, align 4
  ret i32 %v0_3c6f
}

define i32 @function_3c70() local_unnamed_addr {
dec_label_pc_3c70:
  %eax.global-to-local = alloca i32, align 4
  %tmp96 = load i32, i32* %eax.global-to-local, align 4
  ret i32 %tmp96
}

define i32 @function_3c95() local_unnamed_addr {
dec_label_pc_3c95:
  %eax.global-to-local = alloca i32, align 4
  %v0_3c95 = load i32, i32* %eax.global-to-local, align 4
  ret i32 %v0_3c95
}

define i32 @function_3c97() local_unnamed_addr {
dec_label_pc_3c97:
  %tmp = load i32, i32* @eax, align 4
  ret i32 %tmp
}

define i32 @function_3c9c() local_unnamed_addr {
dec_label_pc_3c9c:
  %eax.global-to-local = alloca i32, align 4
  %v0_3c9c = load i32, i32* %eax.global-to-local, align 4
  %v1_3c9c = add i32 %v0_3c9c, -4
  %v2_3c9c = inttoptr i32 %v1_3c9c to i32*
  %v3_3c9c = load i32, i32* %v2_3c9c, align 4
  %v1_3c9f = add i32 %v3_3c9c, -1
  store i32 %v1_3c9f, i32* %v2_3c9c, align 4
  %v0_3ca5 = load i32, i32* %eax.global-to-local, align 4
  ret i32 %v0_3ca5
}

define i32 @_ZN5boost6system12system_errorD0Ev(i32* %arg1) {
dec_label_pc_3cb0:
  %tmp100 = ptrtoint i32* %arg1 to i32
  %v1_3ccb = add i32 %tmp100, ptrtoint (i32* @global_var_10.578 to i32)
  %v2_3ccb = inttoptr i32 %v1_3ccb to i32*
  %v3_3ccb = load i32, i32* %v2_3ccb, align 4
  store i32 ptrtoint (%vtable_eed0_type* @global_var_eed0.641 to i32), i32* %arg1, align 4
  ret i32 %v3_3ccb

; uselistorder directives
  uselistorder i32 ptrtoint (%vtable_eed0_type* @global_var_eed0.641 to i32), { 1, 0 }
}

define i32 @function_3cee(i32 %arg1, i32 %arg2) local_unnamed_addr {
dec_label_pc_3cee:
  %eax.global-to-local = alloca i32, align 4
  %ebx.global-to-local = alloca i32, align 4
  %v0_3cee = load i32, i32* %ebx.global-to-local, align 4
  %v1_3cee = add i32 %v0_3cee, 1696343108
  %v2_3cee = inttoptr i32 %v1_3cee to i32*
  %v3_3cee = load i32, i32* %v2_3cee, align 4
  %v4_3cee = add i32 %v3_3cee, -1
  store i32 %v4_3cee, i32* %v2_3cee, align 4
  %v0_3cf4 = load i32, i32* %eax.global-to-local, align 4
  %v3_3cf4 = xor i32 %v0_3cf4, ptrtoint ([15 x i8]* @1 to i32)
  %v4_3cf4 = icmp eq i32 %v3_3cf4, 0
  store i32 %v3_3cf4, i32* @eax, align 4
  %v1_3cfa = icmp eq i1 %v4_3cf4, false
  br i1 %v1_3cfa, label %bb, label %dec_label_pc_3cfc

bb:                                               ; preds = %dec_label_pc_3cee
  %v2_3cfa = call i32 @function_3d2f()
  store i32 %v2_3cfa, i32* %eax.global-to-local, align 4
  br label %dec_label_pc_3cfc

dec_label_pc_3cfc:                                ; preds = %bb, %dec_label_pc_3cee
  %v0_3d07 = phi i32 [ %v2_3cfa, %bb ], [ %v3_3cf4, %dec_label_pc_3cee ]
  store i32 %arg1, i32* %ebx.global-to-local, align 4
  ret i32 %v0_3d07
}

define i32 @function_3d08() local_unnamed_addr {
dec_label_pc_3d08:
  %eax.global-to-local = alloca i32, align 4
  %tmp96 = load i32, i32* %eax.global-to-local, align 4
  ret i32 %tmp96
}

define i32 @function_3d2d() local_unnamed_addr {
dec_label_pc_3d2d:
  %eax.global-to-local = alloca i32, align 4
  %v0_3d2d = load i32, i32* %eax.global-to-local, align 4
  ret i32 %v0_3d2d
}

define i32 @function_3d2f() local_unnamed_addr {
dec_label_pc_3d2f:
  %tmp = load i32, i32* @eax, align 4
  ret i32 %tmp
}

define i32 @function_3d34() local_unnamed_addr {
dec_label_pc_3d34:
  %eax.global-to-local = alloca i32, align 4
  %v0_3d34 = load i32, i32* %eax.global-to-local, align 4
  %v1_3d34 = add i32 %v0_3d34, -4
  %v2_3d34 = inttoptr i32 %v1_3d34 to i32*
  %v3_3d34 = load i32, i32* %v2_3d34, align 4
  %v1_3d37 = add i32 %v3_3d34, -1
  store i32 %v1_3d37, i32* %v2_3d34, align 4
  %v0_3d3d = load i32, i32* %eax.global-to-local, align 4
  ret i32 %v0_3d3d
}

define i32 @_ZNK5boost6system12system_error4whatEv(i32 %arg1) {
dec_label_pc_3d40:
  %ebx.global-to-local = alloca i32, align 4
  %edi.global-to-local = alloca i32, align 4
  %esi.global-to-local = alloca i32, align 4
  %v0_3d43 = load i32, i32* %esi.global-to-local, align 4
  store i32 %arg1, i32* %esi.global-to-local, align 4
  %v0_3d4b = load i32, i32* %ebx.global-to-local, align 4
  %v0_3d5b = load i32, i32* %edi.global-to-local, align 4
  %v1_3d5f = add i32 %arg1, ptrtoint (i32* @global_var_10.578 to i32)
  %v2_3d5f = inttoptr i32 %v1_3d5f to i32*
  %v3_3d5f = load i32, i32* %v2_3d5f, align 4
  store i32 %v3_3d5f, i32* %ebx.global-to-local, align 4
  %v1_3d62 = add i32 %v3_3d5f, -12
  %v2_3d62 = inttoptr i32 %v1_3d62 to i32*
  %v3_3d62 = load i32, i32* %v2_3d62, align 4
  %v1_3d65 = icmp eq i32 %v3_3d62, 0
  br i1 %v1_3d65, label %dec_label_pc_3d90, label %dec_label_pc_3d69

dec_label_pc_3d69:                                ; preds = %dec_label_pc_3d40
  store i32 %v3_3d5f, i32* @eax, align 4
  br i1 icmp ne (i32 xor (i32 ptrtoint ([15 x i8]* @1 to i32), i32 ptrtoint ([15 x i8]* @1 to i32)), i32 0), label %bb, label %dec_label_pc_3d7c

bb:                                               ; preds = %dec_label_pc_3d69
  %v7_3d76 = call i32 @function_3e1a(i32 ptrtoint ([15 x i8]* @1 to i32), i32 %v0_3d4b, i32 %v0_3d43, i32 %v0_3d5b)
  br label %dec_label_pc_3d7c

dec_label_pc_3d7c:                                ; preds = %bb, %dec_label_pc_3d69
  %v0_3d8b = phi i32 [ %v7_3d76, %bb ], [ %v3_3d5f, %dec_label_pc_3d69 ]
  store i32 %v0_3d4b, i32* %ebx.global-to-local, align 4
  store i32 %v0_3d43, i32* %esi.global-to-local, align 4
  store i32 %v0_3d5b, i32* %edi.global-to-local, align 4
  ret i32 %v0_3d8b

dec_label_pc_3d90:                                ; preds = %dec_label_pc_3d40
  store i32 %v1_3d5f, i32* %ebx.global-to-local, align 4
  ret i32 0

; uselistorder directives
  uselistorder i32* %esi.global-to-local, { 2, 0, 1 }
  uselistorder i32* %edi.global-to-local, { 1, 0 }
  uselistorder i32* %ebx.global-to-local, { 0, 3, 1, 2 }
}

define i32 @function_3dbf() local_unnamed_addr {
dec_label_pc_3dbf:
  %tmp = load i32, i32* @eax, align 4
  ret i32 %tmp
}

define i32 @function_3e18() local_unnamed_addr {
dec_label_pc_3e18:
  %v0_3e18 = call i32 @function_3dbf()
  ret i32 %v0_3e18
}

define i32 @function_3e1a(i32 %arg1, i32 %arg2, i32 %arg3, i32 %arg4) local_unnamed_addr {
dec_label_pc_3e1a:
  %tmp = load i32, i32* @eax, align 4
  ret i32 %tmp
}

define i32 @function_3e1f() local_unnamed_addr {
dec_label_pc_3e1f:
  %eax.global-to-local = alloca i32, align 4
  %tmp96 = load i32, i32* %eax.global-to-local, align 4
  ret i32 %tmp96
}

define i32 @function_3e44() local_unnamed_addr {
dec_label_pc_3e44:
  %eax.global-to-local = alloca i32, align 4
  %v0_3e44 = load i32, i32* %eax.global-to-local, align 4
  ret i32 %v0_3e44
}

define i32 @function_3e47() local_unnamed_addr {
dec_label_pc_3e47:
  %eax.global-to-local = alloca i32, align 4
  %v0_3e47 = load i32, i32* %eax.global-to-local, align 4
  ret i32 %v0_3e47
}

define i32 @function_3e52() local_unnamed_addr {
dec_label_pc_3e52:
  %tmp = load i32, i32* @eax, align 4
  ret i32 %tmp
}

define i32 @function_3e63() local_unnamed_addr {
dec_label_pc_3e63:
  %eax.global-to-local = alloca i32, align 4
  %v0_3e63 = load i32, i32* %eax.global-to-local, align 4
  ret i32 %v0_3e63
}

define i32 @function_3e69() local_unnamed_addr {
dec_label_pc_3e69:
  %eax.global-to-local = alloca i32, align 4
  %v0_3e69 = load i32, i32* %eax.global-to-local, align 4
  ret i32 %v0_3e69
}

define i32 @function_3e70() local_unnamed_addr {
dec_label_pc_3e70:
  %v0_3e70 = call i32 @function_3e52()
  ret i32 %v0_3e70
}

define i32 @function_3e72() local_unnamed_addr {
dec_label_pc_3e72:
  %eax.global-to-local = alloca i32, align 4
  %v0_3e72 = load i32, i32* %eax.global-to-local, align 4
  %v1_3e72 = add i32 %v0_3e72, -4
  %v2_3e72 = inttoptr i32 %v1_3e72 to i32*
  %v3_3e72 = load i32, i32* %v2_3e72, align 4
  %v1_3e75 = add i32 %v3_3e72, -1
  store i32 %v1_3e75, i32* %v2_3e72, align 4
  %v0_3e7b = load i32, i32* %eax.global-to-local, align 4
  ret i32 %v0_3e7b
}

define i32 @function_3e7e() local_unnamed_addr {
dec_label_pc_3e7e:
  %eax.global-to-local = alloca i32, align 4
  %v0_3e7e = load i32, i32* %eax.global-to-local, align 4
  ret i32 %v0_3e7e
}

define i32 @_ZN5boost9exceptionD1Ev(i32* %arg1) local_unnamed_addr {
dec_label_pc_3e90:
  %ebx.global-to-local = alloca i32, align 4
  %tmp102 = ptrtoint i32* %arg1 to i32
  %v0_3e90 = load i32, i32* %ebx.global-to-local, align 4
  store i32 %tmp102, i32* %ebx.global-to-local, align 4
  %v1_3ea4 = add i32 %tmp102, 4
  %v2_3ea4 = inttoptr i32 %v1_3ea4 to i32*
  %v3_3ea4 = load i32, i32* %v2_3ea4, align 4
  store i32 ptrtoint (i32* @global_var_efd0.634 to i32), i32* %arg1, align 4
  %v1_3ead = icmp eq i32 %v3_3ea4, 0
  br i1 %v1_3ead, label %dec_label_pc_3ebd, label %dec_label_pc_3eb1

dec_label_pc_3eb1:                                ; preds = %dec_label_pc_3e90
  %v3_3ead = trunc i32 %v3_3ea4 to i8
  %v5_3eb9 = icmp eq i8 %v3_3ead, 0
  %v1_3ebb = icmp eq i1 %v5_3eb9, false
  br i1 %v1_3ebb, label %dec_label_pc_3ed8, label %dec_label_pc_3ebd

dec_label_pc_3ebd:                                ; preds = %dec_label_pc_3ed8, %dec_label_pc_3eb1, %dec_label_pc_3e90
  br i1 icmp ne (i32 xor (i32 ptrtoint ([15 x i8]* @1 to i32), i32 ptrtoint ([15 x i8]* @1 to i32)), i32 0), label %dec_label_pc_3ee1, label %dec_label_pc_3eca

dec_label_pc_3eca:                                ; preds = %dec_label_pc_3ebd
  store i32 %v0_3e90, i32* %ebx.global-to-local, align 4
  ret i32 xor (i32 ptrtoint ([15 x i8]* @1 to i32), i32 ptrtoint ([15 x i8]* @1 to i32))

dec_label_pc_3ed8:                                ; preds = %dec_label_pc_3eb1
  %v0_3ed8 = load i32, i32* %ebx.global-to-local, align 4
  %v1_3ed8 = add i32 %v0_3ed8, 4
  %v2_3ed8 = inttoptr i32 %v1_3ed8 to i32*
  store i32 0, i32* %v2_3ed8, align 4
  br label %dec_label_pc_3ebd

dec_label_pc_3ee1:                                ; preds = %dec_label_pc_3ebd
  ret i32 xor (i32 ptrtoint ([15 x i8]* @1 to i32), i32 ptrtoint ([15 x i8]* @1 to i32))

; uselistorder directives
  uselistorder i32* %ebx.global-to-local, { 1, 0, 2, 3 }
}

define i32 @function_3ee7() local_unnamed_addr {
dec_label_pc_3ee7:
  %eax.global-to-local = alloca i32, align 4
  %v0_3ee7 = load i32, i32* %eax.global-to-local, align 4
  ret i32 %v0_3ee7
}

define i32 @_ZThn8_N5boost16exception_detail19error_info_injectorINS_10lock_errorEED1Ev(i32 %arg1) local_unnamed_addr {
dec_label_pc_3f00:
  %v4_3f00 = add i32 %arg1, -8
  %v1_3f05 = call i32 @function_7e10(i32 %v4_3f00)
  ret i32 %v1_3f05
}

define i32 @_ZN5boost16exception_detail19error_info_injectorINS_10lock_errorEED1Ev(i32* %arg1) {
dec_label_pc_3f10:
  %ebx.global-to-local = alloca i32, align 4
  %tmp101 = ptrtoint i32* %arg1 to i32
  %v0_3f10 = load i32, i32* %ebx.global-to-local, align 4
  store i32 %tmp101, i32* %ebx.global-to-local, align 4
  store i32 ptrtoint (%vtable_efe8_type* @global_var_efe8.642 to i32), i32* %arg1, align 4
  %v1_3f2a = add i32 %tmp101, 8
  store i32 %v1_3f2a, i32* @eax, align 4
  %v2_3f2d = inttoptr i32 %v1_3f2a to i32*
  store i32 ptrtoint (i32* @global_var_effc.643 to i32), i32* %v2_3f2d, align 4
  %v0_3f34 = load i32, i32* @eax, align 4
  %v1_3f37 = call i32 @function_7da0(i32 %v0_3f34)
  store i32 xor (i32 ptrtoint ([15 x i8]* @1 to i32), i32 ptrtoint ([15 x i8]* @1 to i32)), i32* @eax, align 4
  %v0_3f47 = load i32, i32* %ebx.global-to-local, align 4
  %v1_3f47 = inttoptr i32 %v0_3f47 to i32*
  store i32 ptrtoint (%vtable_efa0_type* @global_var_efa0.602 to i32), i32* %v1_3f47, align 4
  br i1 icmp ne (i32 xor (i32 ptrtoint ([15 x i8]* @1 to i32), i32 ptrtoint ([15 x i8]* @1 to i32)), i32 0), label %bb, label %dec_label_pc_3f10.dec_label_pc_3f4f_crit_edge

dec_label_pc_3f10.dec_label_pc_3f4f_crit_edge:    ; preds = %dec_label_pc_3f10
  %v5_3f56.pre = load i32, i32* @eax, align 4
  br label %dec_label_pc_3f4f

bb:                                               ; preds = %dec_label_pc_3f10
  %v2_3f4d = call i32 @function_3f5c()
  br label %dec_label_pc_3f4f

dec_label_pc_3f4f:                                ; preds = %dec_label_pc_3f10.dec_label_pc_3f4f_crit_edge, %bb
  %v5_3f56 = phi i32 [ %v5_3f56.pre, %dec_label_pc_3f10.dec_label_pc_3f4f_crit_edge ], [ %v2_3f4d, %bb ]
  store i32 %v0_3f10, i32* %ebx.global-to-local, align 4
  ret i32 %v5_3f56

; uselistorder directives
  uselistorder label %dec_label_pc_3f4f, { 1, 0 }
}

define i32 @function_3f5c() local_unnamed_addr {
dec_label_pc_3f5c:
  %tmp = load i32, i32* @eax, align 4
  ret i32 %tmp
}

define i32 @_ZThn20_N5boost16exception_detail10bad_alloc_D1Ev(i32 %arg1) local_unnamed_addr {
dec_label_pc_3f70:
  %v5_3f70 = sub i32 %arg1, ptrtoint (i8** @global_var_14.558 to i32)
  %v2_3f75 = call i32 @function_7ef0(i32 %v5_3f70)
  ret i32 %v2_3f75
}

define i32 @_ZN5boost16exception_detail10bad_alloc_D1Ev(i32* %arg1) {
dec_label_pc_3f80:
  %eax.global-to-local = alloca i32, align 4
  %tmp99 = ptrtoint i32* %arg1 to i32
  store i32 ptrtoint (%vtable_f248_type* @global_var_f248.644 to i32), i32* %arg1, align 4
  %v1_3f9a = add i32 %tmp99, ptrtoint (i8** @global_var_14.558 to i32)
  store i32 %v1_3f9a, i32* %eax.global-to-local, align 4
  %v2_3f9d = inttoptr i32 %v1_3f9a to i32*
  store i32 ptrtoint (i32* @global_var_f258.645 to i32), i32* %v2_3f9d, align 4
  %v0_3fa4 = load i32, i32* %eax.global-to-local, align 4
  ret i32 %v0_3fa4
}

define i32 @function_3fab(i32 %arg1) local_unnamed_addr {
dec_label_pc_3fab:
  %eax.global-to-local = alloca i32, align 4
  %ebx.global-to-local = alloca i32, align 4
  %v0_3fab = load i32, i32* %ebx.global-to-local, align 4
  %v1_3fab = add i32 %v0_3fab, 1696343108
  %v2_3fab = inttoptr i32 %v1_3fab to i32*
  %v3_3fab = load i32, i32* %v2_3fab, align 4
  %v4_3fab = add i32 %v3_3fab, -1
  store i32 %v4_3fab, i32* %v2_3fab, align 4
  %v0_3fb1 = load i32, i32* %eax.global-to-local, align 4
  %v3_3fb1 = xor i32 %v0_3fb1, ptrtoint ([15 x i8]* @1 to i32)
  %v4_3fb1 = icmp eq i32 %v3_3fb1, 0
  store i32 %v3_3fb1, i32* @eax, align 4
  %v1_3fb7 = icmp eq i1 %v4_3fb1, false
  br i1 %v1_3fb7, label %dec_label_pc_3fc6, label %dec_label_pc_3fb9

dec_label_pc_3fb9:                                ; preds = %dec_label_pc_3fab
  %v0_3fb9 = load i32, i32* %ebx.global-to-local, align 4
  store i32 %arg1, i32* %ebx.global-to-local, align 4
  %v1_3fc1 = call i32 @function_7e10(i32 %v0_3fb9)
  store i32 %v1_3fc1, i32* %eax.global-to-local, align 4
  ret i32 %v1_3fc1

dec_label_pc_3fc6:                                ; preds = %dec_label_pc_3fab
  ret i32 %v3_3fb1

; uselistorder directives
  uselistorder i32 (i32)* @function_7e10, { 1, 0 }
}

define i32 @_ZThn8_N5boost16exception_detail19error_info_injectorINS_17bad_function_callEED1Ev(i32 %arg1) local_unnamed_addr {
dec_label_pc_3fd0:
  %v4_3fd0 = add i32 %arg1, -8
  %v1_3fd5 = call i32 @function_7fb0(i32 %v4_3fd0)
  ret i32 %v1_3fd5
}

define i32 @_ZN5boost16exception_detail19error_info_injectorINS_17bad_function_callEED1Ev(i32* %arg1) {
dec_label_pc_3fe0:
  %ebx.global-to-local = alloca i32, align 4
  %tmp101 = ptrtoint i32* %arg1 to i32
  %v0_3fe0 = load i32, i32* %ebx.global-to-local, align 4
  store i32 %tmp101, i32* %ebx.global-to-local, align 4
  store i32 ptrtoint (%vtable_f128_type* @global_var_f128.646 to i32), i32* %arg1, align 4
  %v1_3ffa = add i32 %tmp101, 8
  store i32 %v1_3ffa, i32* @eax, align 4
  %v2_3ffd = inttoptr i32 %v1_3ffa to i32*
  store i32 ptrtoint (i32* @global_var_f13c.647 to i32), i32* %v2_3ffd, align 4
  %v0_4004 = load i32, i32* @eax, align 4
  %v1_4007 = call i32 @function_7e70(i32 %v0_4004)
  store i32 xor (i32 ptrtoint ([15 x i8]* @1 to i32), i32 ptrtoint ([15 x i8]* @1 to i32)), i32* @eax, align 4
  %v0_4017 = load i32, i32* %ebx.global-to-local, align 4
  %v1_4017 = inttoptr i32 %v0_4017 to i32*
  store i32 ptrtoint (%vtable_f0f8_type* @global_var_f0f8.601 to i32), i32* %v1_4017, align 4
  br i1 icmp ne (i32 xor (i32 ptrtoint ([15 x i8]* @1 to i32), i32 ptrtoint ([15 x i8]* @1 to i32)), i32 0), label %bb, label %dec_label_pc_3fe0.dec_label_pc_401f_crit_edge

dec_label_pc_3fe0.dec_label_pc_401f_crit_edge:    ; preds = %dec_label_pc_3fe0
  %v5_4026.pre = load i32, i32* @eax, align 4
  br label %dec_label_pc_401f

bb:                                               ; preds = %dec_label_pc_3fe0
  %v2_401d = call i32 @function_402c()
  br label %dec_label_pc_401f

dec_label_pc_401f:                                ; preds = %dec_label_pc_3fe0.dec_label_pc_401f_crit_edge, %bb
  %v5_4026 = phi i32 [ %v5_4026.pre, %dec_label_pc_3fe0.dec_label_pc_401f_crit_edge ], [ %v2_401d, %bb ]
  store i32 %v0_3fe0, i32* %ebx.global-to-local, align 4
  ret i32 %v5_4026

; uselistorder directives
  uselistorder label %dec_label_pc_401f, { 1, 0 }
}

define i32 @function_402c() local_unnamed_addr {
dec_label_pc_402c:
  %tmp = load i32, i32* @eax, align 4
  ret i32 %tmp
}

define i32 @_ZThn24_N5boost16exception_detail10clone_implINS0_10bad_alloc_EED0Ev(i32 %arg1) local_unnamed_addr {
dec_label_pc_4040:
  %v4_4040 = add i32 %arg1, -24
  %v1_4045 = inttoptr i32 %v4_4040 to i32*
  %v2_4045 = call i32 @_ZN5boost16exception_detail10clone_implINS0_10bad_alloc_EED0Ev(i32* %v1_4045)
  ret i32 %v2_4045
}

define i32 @_ZThn20_N5boost16exception_detail10clone_implINS0_10bad_alloc_EED0Ev(i32 %arg1) local_unnamed_addr {
dec_label_pc_4050:
  %v5_4050 = sub i32 %arg1, ptrtoint (i8** @global_var_14.558 to i32)
  %tmp100 = inttoptr i32 %v5_4050 to i32*
  %v3_4055 = call i32 @_ZN5boost16exception_detail10clone_implINS0_10bad_alloc_EED0Ev(i32* %tmp100)
  ret i32 %v3_4055
}

define i32 @_ZN5boost16exception_detail10clone_implINS0_10bad_alloc_EED0Ev(i32* %arg1) {
dec_label_pc_4060:
  %eax.global-to-local = alloca i32, align 4
  %ebx.global-to-local = alloca i32, align 4
  %tmp3 = ptrtoint i32* %arg1 to i32
  store i32 %tmp3, i32* %ebx.global-to-local, align 4
  %v1_4074 = add i32 %tmp3, 24
  %v2_4074 = inttoptr i32 %v1_4074 to i32*
  store i32 ptrtoint (i32* @global_var_f010.596 to i32), i32* %v2_4074, align 4
  %v0_407b = load i32, i32* %ebx.global-to-local, align 4
  %v1_407b = add i32 %v0_407b, ptrtoint (i8** @global_var_14.558 to i32)
  store i32 %v1_407b, i32* %eax.global-to-local, align 4
  %v1_407e = inttoptr i32 %v0_407b to i32*
  store i32 ptrtoint (%vtable_f248_type* @global_var_f248.644 to i32), i32* %v1_407e, align 4
  %v0_4084 = load i32, i32* %ebx.global-to-local, align 4
  %v1_4084 = add i32 %v0_4084, ptrtoint (i8** @global_var_14.558 to i32)
  %v2_4084 = inttoptr i32 %v1_4084 to i32*
  store i32 ptrtoint (i32* @global_var_f258.645 to i32), i32* %v2_4084, align 4
  %v0_408b = load i32, i32* %eax.global-to-local, align 4
  ret i32 %v0_408b
}

define i32 @function_4092(i32 %arg1, i32 %arg2) local_unnamed_addr {
dec_label_pc_4092:
  %eax.global-to-local = alloca i32, align 4
  %ecx.global-to-local = alloca i32, align 4
  %v0_4092 = load i32, i32* %ecx.global-to-local, align 4
  %v1_4092 = add i32 %v0_4092, 904406044
  %v2_4092 = inttoptr i32 %v1_4092 to i32*
  %v3_4092 = load i32, i32* %v2_4092, align 4
  %v4_4092 = add i32 %v3_4092, -1
  store i32 %v4_4092, i32* %v2_4092, align 4
  %v2_4098 = load i8, i8* bitcast (i32* @eax to i8*), align 4
  %v3_4098 = load i32, i32* %eax.global-to-local, align 4
  %v4_4098 = trunc i32 %v3_4098 to i8
  %v5_4098 = add i8 %v4_4098, %v2_4098
  %v21_4098 = inttoptr i32 %v3_4098 to i8*
  store i8 %v5_4098, i8* %v21_4098, align 1
  %v3_409f = xor i32 %arg1, ptrtoint ([15 x i8]* @1 to i32)
  %v4_409f = icmp eq i32 %v3_409f, 0
  store i32 %v3_409f, i32* %eax.global-to-local, align 4
  %v1_40a6 = icmp eq i1 %v4_409f, false
  br i1 %v1_40a6, label %dec_label_pc_40b5, label %dec_label_pc_40a8

dec_label_pc_40a8:                                ; preds = %dec_label_pc_4092
  br label %dec_label_pc_40b5

dec_label_pc_40b5:                                ; preds = %dec_label_pc_40a8, %dec_label_pc_4092
  ret i32 %v3_409f
}

define i32 @_ZThn20_N5boost16exception_detail10bad_alloc_D0Ev(i32 %arg1) local_unnamed_addr {
dec_label_pc_40c0:
  %v5_40c0 = sub i32 %arg1, ptrtoint (i8** @global_var_14.558 to i32)
  %tmp100 = inttoptr i32 %v5_40c0 to i32*
  %v3_40c5 = call i32 @_ZN5boost16exception_detail10bad_alloc_D0Ev(i32* %tmp100)
  ret i32 %v3_40c5
}

define i32 @_ZN5boost16exception_detail10bad_alloc_D0Ev(i32* %arg1) {
dec_label_pc_40d0:
  %eax.global-to-local = alloca i32, align 4
  %tmp3 = ptrtoint i32* %arg1 to i32
  store i32 ptrtoint (%vtable_f248_type* @global_var_f248.644 to i32), i32* %arg1, align 4
  %v1_40ea = add i32 %tmp3, ptrtoint (i8** @global_var_14.558 to i32)
  store i32 %v1_40ea, i32* %eax.global-to-local, align 4
  %v2_40ed = inttoptr i32 %v1_40ea to i32*
  store i32 ptrtoint (i32* @global_var_f258.645 to i32), i32* %v2_40ed, align 4
  %v0_40f4 = load i32, i32* %eax.global-to-local, align 4
  ret i32 %v0_40f4
}

define i32 @_ZThn24_N5boost16exception_detail10clone_implINS0_10bad_alloc_EED1Ev(i32 %arg1) local_unnamed_addr {
dec_label_pc_4130:
  %v4_4130 = add i32 %arg1, -24
  %v1_4135 = call i32 @function_8280(i32 %v4_4130)
  ret i32 %v1_4135
}

define i32 @_ZThn20_N5boost16exception_detail10clone_implINS0_10bad_alloc_EED1Ev(i32 %arg1) local_unnamed_addr {
dec_label_pc_4140:
  %v5_4140 = sub i32 %arg1, ptrtoint (i8** @global_var_14.558 to i32)
  %v2_4145 = call i32 @function_8280(i32 %v5_4140)
  ret i32 %v2_4145

; uselistorder directives
  uselistorder i32 (i32)* @function_8280, { 1, 0 }
}

define i32 @_ZN5boost16exception_detail10clone_implINS0_10bad_alloc_EED1Ev(i32* %arg1) {
dec_label_pc_4150:
  %eax.global-to-local = alloca i32, align 4
  %ebx.global-to-local = alloca i32, align 4
  %tmp99 = ptrtoint i32* %arg1 to i32
  store i32 %tmp99, i32* %ebx.global-to-local, align 4
  %v1_4164 = add i32 %tmp99, 24
  %v2_4164 = inttoptr i32 %v1_4164 to i32*
  store i32 ptrtoint (i32* @global_var_f010.596 to i32), i32* %v2_4164, align 4
  %v0_416b = load i32, i32* %ebx.global-to-local, align 4
  %v1_416b = add i32 %v0_416b, ptrtoint (i8** @global_var_14.558 to i32)
  store i32 %v1_416b, i32* %eax.global-to-local, align 4
  %v1_416e = inttoptr i32 %v0_416b to i32*
  store i32 ptrtoint (%vtable_f248_type* @global_var_f248.644 to i32), i32* %v1_416e, align 4
  %v0_4174 = load i32, i32* %ebx.global-to-local, align 4
  %v1_4174 = add i32 %v0_4174, ptrtoint (i8** @global_var_14.558 to i32)
  %v2_4174 = inttoptr i32 %v1_4174 to i32*
  store i32 ptrtoint (i32* @global_var_f258.645 to i32), i32* %v2_4174, align 4
  %v0_417b = load i32, i32* %eax.global-to-local, align 4
  ret i32 %v0_417b
}

define i32 @function_4182(i32 %arg1) local_unnamed_addr {
dec_label_pc_4182:
  %eax.global-to-local = alloca i32, align 4
  %ebx.global-to-local = alloca i32, align 4
  %v0_4182 = load i32, i32* %ebx.global-to-local, align 4
  %v1_4182 = add i32 %v0_4182, 1696343108
  %v2_4182 = inttoptr i32 %v1_4182 to i32*
  %v3_4182 = load i32, i32* %v2_4182, align 4
  %v4_4182 = add i32 %v3_4182, -1
  store i32 %v4_4182, i32* %v2_4182, align 4
  %v0_4188 = load i32, i32* %eax.global-to-local, align 4
  %v3_4188 = xor i32 %v0_4188, ptrtoint ([15 x i8]* @1 to i32)
  %v4_4188 = icmp eq i32 %v3_4188, 0
  store i32 %v3_4188, i32* @eax, align 4
  %v1_418e = icmp eq i1 %v4_4188, false
  br i1 %v1_418e, label %dec_label_pc_419d, label %dec_label_pc_4190

dec_label_pc_4190:                                ; preds = %dec_label_pc_4182
  %v0_4190 = load i32, i32* %ebx.global-to-local, align 4
  store i32 %arg1, i32* %ebx.global-to-local, align 4
  %v1_4198 = call i32 @function_7fe0(i32 %v0_4190)
  store i32 %v1_4198, i32* %eax.global-to-local, align 4
  ret i32 %v1_4198

dec_label_pc_419d:                                ; preds = %dec_label_pc_4182
  ret i32 %v3_4188
}

define i32 @_ZThn28_N5boost16exception_detail10clone_implINS0_19error_info_injectorINS_17bad_function_callEEEED0Ev(i32 %arg1) local_unnamed_addr {
dec_label_pc_41b0:
  %v4_41b0 = sub i32 %arg1, ptrtoint (i32* @global_var_1c.579 to i32)
  %v1_41b5 = inttoptr i32 %v4_41b0 to i32*
  %v2_41b5 = call i32 @_ZN5boost16exception_detail10clone_implINS0_19error_info_injectorINS_17bad_function_callEEEED0Ev(i32* %v1_41b5)
  ret i32 %v2_41b5
}

define i32 @_ZThn8_N5boost16exception_detail10clone_implINS0_19error_info_injectorINS_17bad_function_callEEEED0Ev(i32 %arg1) local_unnamed_addr {
dec_label_pc_41c0:
  %v4_41c0 = add i32 %arg1, -8
  %v1_41c5 = inttoptr i32 %v4_41c0 to i32*
  %v2_41c5 = call i32 @_ZN5boost16exception_detail10clone_implINS0_19error_info_injectorINS_17bad_function_callEEEED0Ev(i32* %v1_41c5)
  ret i32 %v2_41c5

; uselistorder directives
  uselistorder i32 (i32*)* @_ZN5boost16exception_detail10clone_implINS0_19error_info_injectorINS_17bad_function_callEEEED0Ev, { 1, 2, 0 }
}

define i32 @_ZN5boost16exception_detail10clone_implINS0_19error_info_injectorINS_17bad_function_callEEEED0Ev(i32* %arg1) {
dec_label_pc_41d0:
  %eax.global-to-local = alloca i32, align 4
  %ebx.global-to-local = alloca i32, align 4
  %tmp3 = ptrtoint i32* %arg1 to i32
  store i32 %tmp3, i32* %ebx.global-to-local, align 4
  %v1_41e4 = add i32 %tmp3, ptrtoint (i32* @global_var_1c.579 to i32)
  %v2_41e4 = inttoptr i32 %v1_41e4 to i32*
  store i32 ptrtoint (i32* @global_var_f010.596 to i32), i32* %v2_41e4, align 4
  %v0_41eb = load i32, i32* %ebx.global-to-local, align 4
  %v1_41eb = add i32 %v0_41eb, 8
  store i32 %v1_41eb, i32* @eax, align 4
  %v1_41ee = inttoptr i32 %v0_41eb to i32*
  store i32 ptrtoint (%vtable_f128_type* @global_var_f128.646 to i32), i32* %v1_41ee, align 4
  %v0_41f4 = load i32, i32* %ebx.global-to-local, align 4
  %v1_41f4 = add i32 %v0_41f4, 8
  %v2_41f4 = inttoptr i32 %v1_41f4 to i32*
  store i32 ptrtoint (i32* @global_var_f13c.647 to i32), i32* %v2_41f4, align 4
  %v0_41fb = load i32, i32* @eax, align 4
  %v1_41fe = call i32 @function_8040(i32 %v0_41fb)
  store i32 %v1_41fe, i32* %eax.global-to-local, align 4
  %v0_4203 = load i32, i32* %ebx.global-to-local, align 4
  %v1_4203 = inttoptr i32 %v0_4203 to i32*
  store i32 ptrtoint (%vtable_f0f8_type* @global_var_f0f8.601 to i32), i32* %v1_4203, align 4
  %v3_4209 = load i32, i32* %eax.global-to-local, align 4
  ret i32 %v3_4209
}

define i32 @_ZThn28_N5boost16exception_detail10clone_implINS0_19error_info_injectorINS_17bad_function_callEEEED1Ev(i32 %arg1) local_unnamed_addr {
dec_label_pc_4230:
  %eax.global-to-local = alloca i32, align 4
  %v0_4235 = load i32, i32* %eax.global-to-local, align 4
  ret i32 %v0_4235
}

define i32 @_ZThn8_N5boost16exception_detail10clone_implINS0_19error_info_injectorINS_17bad_function_callEEEED1Ev(i32 %arg1) local_unnamed_addr {
dec_label_pc_4240:
  %eax.global-to-local = alloca i32, align 4
  %v0_4245 = load i32, i32* %eax.global-to-local, align 4
  ret i32 %v0_4245
}

define i32 @_ZN5boost16exception_detail10clone_implINS0_19error_info_injectorINS_17bad_function_callEEEED1Ev(i32* %arg1) {
dec_label_pc_4250:
  %ebx.global-to-local = alloca i32, align 4
  %tmp101 = ptrtoint i32* %arg1 to i32
  %v0_4250 = load i32, i32* %ebx.global-to-local, align 4
  store i32 %tmp101, i32* %ebx.global-to-local, align 4
  %v1_4264 = add i32 %tmp101, ptrtoint (i32* @global_var_1c.579 to i32)
  %v2_4264 = inttoptr i32 %v1_4264 to i32*
  store i32 ptrtoint (i32* @global_var_f010.596 to i32), i32* %v2_4264, align 4
  %v0_426b = load i32, i32* %ebx.global-to-local, align 4
  %v1_426b = add i32 %v0_426b, 8
  store i32 %v1_426b, i32* @eax, align 4
  %v1_426e = inttoptr i32 %v0_426b to i32*
  store i32 ptrtoint (%vtable_f128_type* @global_var_f128.646 to i32), i32* %v1_426e, align 4
  %v0_4274 = load i32, i32* %ebx.global-to-local, align 4
  %v1_4274 = add i32 %v0_4274, 8
  %v2_4274 = inttoptr i32 %v1_4274 to i32*
  store i32 ptrtoint (i32* @global_var_f13c.647 to i32), i32* %v2_4274, align 4
  %v0_427b = load i32, i32* @eax, align 4
  %v1_427e = call i32 @function_80e0(i32 %v0_427b)
  store i32 xor (i32 ptrtoint ([15 x i8]* @1 to i32), i32 ptrtoint ([15 x i8]* @1 to i32)), i32* @eax, align 4
  %v0_428e = load i32, i32* %ebx.global-to-local, align 4
  %v1_428e = inttoptr i32 %v0_428e to i32*
  store i32 ptrtoint (%vtable_f0f8_type* @global_var_f0f8.601 to i32), i32* %v1_428e, align 4
  br i1 icmp ne (i32 xor (i32 ptrtoint ([15 x i8]* @1 to i32), i32 ptrtoint ([15 x i8]* @1 to i32)), i32 0), label %bb, label %dec_label_pc_4250.dec_label_pc_4296_crit_edge

dec_label_pc_4250.dec_label_pc_4296_crit_edge:    ; preds = %dec_label_pc_4250
  %v5_429d.pre = load i32, i32* @eax, align 4
  br label %dec_label_pc_4296

bb:                                               ; preds = %dec_label_pc_4250
  %v2_4294 = call i32 @function_42a3()
  br label %dec_label_pc_4296

dec_label_pc_4296:                                ; preds = %dec_label_pc_4250.dec_label_pc_4296_crit_edge, %bb
  %v5_429d = phi i32 [ %v5_429d.pre, %dec_label_pc_4250.dec_label_pc_4296_crit_edge ], [ %v2_4294, %bb ]
  store i32 %v0_4250, i32* %ebx.global-to-local, align 4
  ret i32 %v5_429d

; uselistorder directives
  uselistorder label %dec_label_pc_4296, { 1, 0 }
}

define i32 @function_42a3() local_unnamed_addr {
dec_label_pc_42a3:
  %tmp = load i32, i32* @eax, align 4
  ret i32 %tmp
}

define i32 @_ZThn8_N5boost16exception_detail19error_info_injectorINS_17bad_function_callEED0Ev(i32 %arg1) local_unnamed_addr {
dec_label_pc_42b0:
  %v4_42b0 = add i32 %arg1, -8
  %v1_42b5 = inttoptr i32 %v4_42b0 to i32*
  %v2_42b5 = call i32 @_ZN5boost16exception_detail19error_info_injectorINS_17bad_function_callEED0Ev(i32* %v1_42b5)
  ret i32 %v2_42b5
}

define i32 @_ZN5boost16exception_detail19error_info_injectorINS_17bad_function_callEED0Ev(i32* %arg1) {
dec_label_pc_42c0:
  %eax.global-to-local = alloca i32, align 4
  %ebx.global-to-local = alloca i32, align 4
  %tmp3 = ptrtoint i32* %arg1 to i32
  store i32 %tmp3, i32* %ebx.global-to-local, align 4
  store i32 ptrtoint (%vtable_f128_type* @global_var_f128.646 to i32), i32* %arg1, align 4
  %v1_42da = add i32 %tmp3, 8
  store i32 %v1_42da, i32* @eax, align 4
  %v2_42dd = inttoptr i32 %v1_42da to i32*
  store i32 ptrtoint (i32* @global_var_f13c.647 to i32), i32* %v2_42dd, align 4
  %v0_42e4 = load i32, i32* @eax, align 4
  %v1_42e7 = call i32 @function_8140(i32 %v0_42e4)
  store i32 %v1_42e7, i32* %eax.global-to-local, align 4
  %v0_42ec = load i32, i32* %ebx.global-to-local, align 4
  %v1_42ec = inttoptr i32 %v0_42ec to i32*
  store i32 ptrtoint (%vtable_f0f8_type* @global_var_f0f8.601 to i32), i32* %v1_42ec, align 4
  %v3_42f2 = load i32, i32* %eax.global-to-local, align 4
  ret i32 %v3_42f2

; uselistorder directives
  uselistorder i32 ptrtoint (%vtable_f0f8_type* @global_var_f0f8.601 to i32), { 5, 4, 3, 2, 1, 0 }
}

define i32 @_ZThn28_N5boost16exception_detail10clone_implINS0_19error_info_injectorINS_10lock_errorEEEED0Ev(i32 %arg1) local_unnamed_addr {
dec_label_pc_4320:
  %v4_4320 = sub i32 %arg1, ptrtoint (i32* @global_var_1c.579 to i32)
  %v1_4325 = inttoptr i32 %v4_4320 to i32*
  %v2_4325 = call i32 @_ZN5boost16exception_detail10clone_implINS0_19error_info_injectorINS_10lock_errorEEEED0Ev(i32* %v1_4325)
  ret i32 %v2_4325
}

define i32 @_ZThn8_N5boost16exception_detail10clone_implINS0_19error_info_injectorINS_10lock_errorEEEED0Ev(i32 %arg1) local_unnamed_addr {
dec_label_pc_4330:
  %v4_4330 = add i32 %arg1, -8
  %v1_4335 = inttoptr i32 %v4_4330 to i32*
  %v2_4335 = call i32 @_ZN5boost16exception_detail10clone_implINS0_19error_info_injectorINS_10lock_errorEEEED0Ev(i32* %v1_4335)
  ret i32 %v2_4335

; uselistorder directives
  uselistorder i32 (i32*)* @_ZN5boost16exception_detail10clone_implINS0_19error_info_injectorINS_10lock_errorEEEED0Ev, { 1, 2, 0 }
}

define i32 @_ZN5boost16exception_detail10clone_implINS0_19error_info_injectorINS_10lock_errorEEEED0Ev(i32* %arg1) {
dec_label_pc_4340:
  %eax.global-to-local = alloca i32, align 4
  %ebx.global-to-local = alloca i32, align 4
  %tmp3 = ptrtoint i32* %arg1 to i32
  store i32 %tmp3, i32* %ebx.global-to-local, align 4
  %v1_4354 = add i32 %tmp3, ptrtoint (i32* @global_var_1c.579 to i32)
  %v2_4354 = inttoptr i32 %v1_4354 to i32*
  store i32 ptrtoint (i32* @global_var_f010.596 to i32), i32* %v2_4354, align 4
  %v0_435b = load i32, i32* %ebx.global-to-local, align 4
  %v1_435b = add i32 %v0_435b, 8
  store i32 %v1_435b, i32* @eax, align 4
  %v1_435e = inttoptr i32 %v0_435b to i32*
  store i32 ptrtoint (%vtable_efe8_type* @global_var_efe8.642 to i32), i32* %v1_435e, align 4
  %v0_4364 = load i32, i32* %ebx.global-to-local, align 4
  %v1_4364 = add i32 %v0_4364, 8
  %v2_4364 = inttoptr i32 %v1_4364 to i32*
  store i32 ptrtoint (i32* @global_var_effc.643 to i32), i32* %v2_4364, align 4
  %v0_436b = load i32, i32* @eax, align 4
  %v1_436e = call i32 @function_81b0(i32 %v0_436b)
  store i32 %v1_436e, i32* %eax.global-to-local, align 4
  %v0_4373 = load i32, i32* %ebx.global-to-local, align 4
  %v1_4373 = inttoptr i32 %v0_4373 to i32*
  store i32 ptrtoint (%vtable_efa0_type* @global_var_efa0.602 to i32), i32* %v1_4373, align 4
  %v3_4379 = load i32, i32* %eax.global-to-local, align 4
  ret i32 %v3_4379
}

define i32 @_ZThn28_N5boost16exception_detail10clone_implINS0_19error_info_injectorINS_10lock_errorEEEED1Ev(i32 %arg1) local_unnamed_addr {
dec_label_pc_43a0:
  %v4_43a0 = sub i32 %arg1, ptrtoint (i32* @global_var_1c.579 to i32)
  %v1_43a5 = call i32 @function_8760(i32 %v4_43a0)
  ret i32 %v1_43a5
}

define i32 @_ZThn8_N5boost16exception_detail10clone_implINS0_19error_info_injectorINS_10lock_errorEEEED1Ev(i32 %arg1) local_unnamed_addr {
dec_label_pc_43b0:
  %v4_43b0 = add i32 %arg1, -8
  %v1_43b5 = call i32 @function_8760(i32 %v4_43b0)
  ret i32 %v1_43b5

; uselistorder directives
  uselistorder i32 (i32)* @function_8760, { 1, 0 }
}

define i32 @_ZN5boost16exception_detail10clone_implINS0_19error_info_injectorINS_10lock_errorEEEED1Ev(i32* %arg1) {
dec_label_pc_43c0:
  %ebx.global-to-local = alloca i32, align 4
  %tmp101 = ptrtoint i32* %arg1 to i32
  %v0_43c0 = load i32, i32* %ebx.global-to-local, align 4
  store i32 %tmp101, i32* %ebx.global-to-local, align 4
  %v1_43d4 = add i32 %tmp101, ptrtoint (i32* @global_var_1c.579 to i32)
  %v2_43d4 = inttoptr i32 %v1_43d4 to i32*
  store i32 ptrtoint (i32* @global_var_f010.596 to i32), i32* %v2_43d4, align 4
  %v0_43db = load i32, i32* %ebx.global-to-local, align 4
  %v1_43db = add i32 %v0_43db, 8
  store i32 %v1_43db, i32* @eax, align 4
  %v1_43de = inttoptr i32 %v0_43db to i32*
  store i32 ptrtoint (%vtable_efe8_type* @global_var_efe8.642 to i32), i32* %v1_43de, align 4
  %v0_43e4 = load i32, i32* %ebx.global-to-local, align 4
  %v1_43e4 = add i32 %v0_43e4, 8
  %v2_43e4 = inttoptr i32 %v1_43e4 to i32*
  store i32 ptrtoint (i32* @global_var_effc.643 to i32), i32* %v2_43e4, align 4
  %v0_43eb = load i32, i32* @eax, align 4
  %v1_43ee = call i32 @function_8250(i32 %v0_43eb)
  store i32 xor (i32 ptrtoint ([15 x i8]* @1 to i32), i32 ptrtoint ([15 x i8]* @1 to i32)), i32* @eax, align 4
  %v0_43fe = load i32, i32* %ebx.global-to-local, align 4
  %v1_43fe = inttoptr i32 %v0_43fe to i32*
  store i32 ptrtoint (%vtable_efa0_type* @global_var_efa0.602 to i32), i32* %v1_43fe, align 4
  br i1 icmp ne (i32 xor (i32 ptrtoint ([15 x i8]* @1 to i32), i32 ptrtoint ([15 x i8]* @1 to i32)), i32 0), label %bb, label %dec_label_pc_43c0.dec_label_pc_4406_crit_edge

dec_label_pc_43c0.dec_label_pc_4406_crit_edge:    ; preds = %dec_label_pc_43c0
  %v5_440d.pre = load i32, i32* @eax, align 4
  br label %dec_label_pc_4406

bb:                                               ; preds = %dec_label_pc_43c0
  %v2_4404 = call i32 @function_4413()
  br label %dec_label_pc_4406

dec_label_pc_4406:                                ; preds = %dec_label_pc_43c0.dec_label_pc_4406_crit_edge, %bb
  %v5_440d = phi i32 [ %v5_440d.pre, %dec_label_pc_43c0.dec_label_pc_4406_crit_edge ], [ %v2_4404, %bb ]
  store i32 %v0_43c0, i32* %ebx.global-to-local, align 4
  ret i32 %v5_440d

; uselistorder directives
  uselistorder label %dec_label_pc_4406, { 1, 0 }
}

define i32 @function_4413() local_unnamed_addr {
dec_label_pc_4413:
  %tmp = load i32, i32* @eax, align 4
  ret i32 %tmp
}

define i32 @_ZThn8_N5boost16exception_detail19error_info_injectorINS_10lock_errorEED0Ev(i32 %arg1) local_unnamed_addr {
dec_label_pc_4420:
  %v4_4420 = add i32 %arg1, -8
  %v1_4425 = inttoptr i32 %v4_4420 to i32*
  %v2_4425 = call i32 @_ZN5boost16exception_detail19error_info_injectorINS_10lock_errorEED0Ev(i32* %v1_4425)
  ret i32 %v2_4425
}

define i32 @_ZN5boost16exception_detail19error_info_injectorINS_10lock_errorEED0Ev(i32* %arg1) {
dec_label_pc_4430:
  %eax.global-to-local = alloca i32, align 4
  %ebx.global-to-local = alloca i32, align 4
  %tmp3 = ptrtoint i32* %arg1 to i32
  store i32 %tmp3, i32* %ebx.global-to-local, align 4
  store i32 ptrtoint (%vtable_efe8_type* @global_var_efe8.642 to i32), i32* %arg1, align 4
  %v1_444a = add i32 %tmp3, 8
  store i32 %v1_444a, i32* @eax, align 4
  %v2_444d = inttoptr i32 %v1_444a to i32*
  store i32 ptrtoint (i32* @global_var_effc.643 to i32), i32* %v2_444d, align 4
  %v0_4454 = load i32, i32* @eax, align 4
  %v1_4457 = call i32 @function_82b0(i32 %v0_4454)
  store i32 %v1_4457, i32* %eax.global-to-local, align 4
  %v0_445c = load i32, i32* %ebx.global-to-local, align 4
  %v1_445c = inttoptr i32 %v0_445c to i32*
  store i32 ptrtoint (%vtable_efa0_type* @global_var_efa0.602 to i32), i32* %v1_445c, align 4
  %v3_4462 = load i32, i32* %eax.global-to-local, align 4
  ret i32 %v3_4462

; uselistorder directives
  uselistorder i32 ptrtoint (%vtable_efa0_type* @global_var_efa0.602 to i32), { 7, 6, 5, 4, 3, 2, 1, 0 }
}

define i32 @_ZN5boost9exceptionD0Ev(i32 %arg1) local_unnamed_addr {
dec_label_pc_4490:
  %ebx.global-to-local = alloca i32, align 4
  %v0_4490 = load i32, i32* %ebx.global-to-local, align 4
  store i32 %arg1, i32* %ebx.global-to-local, align 4
  store i32 0, i32* @eax, align 4
  %v1_44a7 = call i32 @function_8320(i32 %arg1)
  store i32 xor (i32 ptrtoint ([15 x i8]* @1 to i32), i32 ptrtoint ([15 x i8]* @1 to i32)), i32* @eax, align 4
  br i1 icmp ne (i32 xor (i32 ptrtoint ([15 x i8]* @1 to i32), i32 ptrtoint ([15 x i8]* @1 to i32)), i32 0), label %bb, label %dec_label_pc_44b9

bb:                                               ; preds = %dec_label_pc_4490
  %v2_44b7 = call i32 @function_44c6()
  br label %dec_label_pc_44b9

dec_label_pc_44b9:                                ; preds = %bb, %dec_label_pc_4490
  %v5_44c0 = phi i32 [ %v2_44b7, %bb ], [ xor (i32 ptrtoint ([15 x i8]* @1 to i32), i32 ptrtoint ([15 x i8]* @1 to i32)), %dec_label_pc_4490 ]
  store i32 %v0_4490, i32* %ebx.global-to-local, align 4
  ret i32 %v5_44c0
}

define i32 @function_44c6() local_unnamed_addr {
dec_label_pc_44c6:
  %tmp = load i32, i32* @eax, align 4
  ret i32 %tmp
}

define i32 @_ZN5boost6detail12shared_countD1Ev(i32* %arg1) local_unnamed_addr {
dec_label_pc_44d0:
  %esi.global-to-local = alloca i32, align 4
  %v0_44e7 = load i32, i32* @esi, align 4
  %v2_44eb = load i32, i32* %arg1, align 4
  %v1_44ed = icmp eq i32 %v2_44eb, 0
  br i1 %v1_44ed, label %dec_label_pc_4502, label %dec_label_pc_44f1

dec_label_pc_44f1:                                ; preds = %dec_label_pc_44d0
  store i32 -1, i32* %esi.global-to-local, align 4
  %v1_44f8 = add i32 %v2_44eb, 4
  %v2_44f8 = inttoptr i32 %v1_44f8 to i32*
  %v3_44f8 = load i32, i32* %v2_44f8, align 4
  %v5_44f8 = add i32 %v3_44f8, -1
  %v15_44f8 = icmp eq i32 %v5_44f8, 0
  store i32 %v5_44f8, i32* %v2_44f8, align 4
  br i1 %v15_44f8, label %dec_label_pc_4520, label %dec_label_pc_4502

dec_label_pc_4502:                                ; preds = %dec_label_pc_4520, %dec_label_pc_44f1, %dec_label_pc_44d0
  br i1 icmp ne (i32 xor (i32 ptrtoint ([15 x i8]* @1 to i32), i32 ptrtoint ([15 x i8]* @1 to i32)), i32 0), label %dec_label_pc_4555, label %dec_label_pc_450f

dec_label_pc_450f:                                ; preds = %dec_label_pc_4502
  store i32 %v0_44e7, i32* %esi.global-to-local, align 4
  ret i32 xor (i32 ptrtoint ([15 x i8]* @1 to i32), i32 ptrtoint ([15 x i8]* @1 to i32))

dec_label_pc_4520:                                ; preds = %dec_label_pc_44f1
  %v1_4520 = inttoptr i32 %v2_44eb to i32*
  %v1_4528 = add i32 %v2_44eb, 8
  %v2_4528 = inttoptr i32 %v1_4528 to i32*
  %v3_4528 = load i32, i32* %v2_4528, align 4
  %v4_4528 = load i32, i32* %esi.global-to-local, align 4
  %v5_4528 = add i32 %v4_4528, %v3_4528
  store i32 %v5_4528, i32* %v2_4528, align 4
  store i32 %v3_4528, i32* %esi.global-to-local, align 4
  %v10_452d = icmp eq i32 %v3_4528, 1
  %v1_4530 = icmp eq i1 %v10_452d, false
  br i1 %v1_4530, label %dec_label_pc_4502, label %dec_label_pc_4532

dec_label_pc_4532:                                ; preds = %dec_label_pc_4520
  br i1 icmp ne (i32 xor (i32 ptrtoint ([15 x i8]* @1 to i32), i32 ptrtoint ([15 x i8]* @1 to i32)), i32 0), label %dec_label_pc_4555, label %dec_label_pc_453f

dec_label_pc_453f:                                ; preds = %dec_label_pc_4532
  %v2_453f = load i32, i32* %v1_4520, align 4
  store i32 %v0_44e7, i32* %esi.global-to-local, align 4
  %v1_454d = add i32 %v2_453f, ptrtoint (i32* @global_var_c.559 to i32)
  %v2_454d = inttoptr i32 %v1_454d to i32*
  %v3_454d = load i32, i32* %v2_454d, align 4
  ret i32 %v3_454d

dec_label_pc_4555:                                ; preds = %dec_label_pc_4532, %dec_label_pc_4502
  ret i32 xor (i32 ptrtoint ([15 x i8]* @1 to i32), i32 ptrtoint ([15 x i8]* @1 to i32))

; uselistorder directives
  uselistorder i32 %v3_4528, { 0, 2, 1 }
  uselistorder i32 %v2_44eb, { 1, 0, 2, 3 }
  uselistorder i32* %esi.global-to-local, { 0, 1, 3, 2, 4 }
}

define i32 @_ZN5boost10shared_ptrIKNS_16exception_detail10clone_baseEED1Ev(i32 %arg1) local_unnamed_addr {
dec_label_pc_4560:
  br i1 icmp ne (i32 xor (i32 ptrtoint ([15 x i8]* @1 to i32), i32 ptrtoint ([15 x i8]* @1 to i32)), i32 0), label %dec_label_pc_4590, label %dec_label_pc_4581

dec_label_pc_4581:                                ; preds = %dec_label_pc_4560
  %v1_4581 = add i32 %arg1, 4
  store i32 %v1_4581, i32* @eax, align 4
  %v2_458b = call i32 @function_8a30(i32 ptrtoint ([15 x i8]* @1 to i32))
  ret i32 %v2_458b

dec_label_pc_4590:                                ; preds = %dec_label_pc_4560
  ret i32 %arg1
}

define i32 @_ZN5boost6detail17sp_counted_impl_pINS_8signals26detail12signal1_implIvP15CCryptoKeyStoreNS2_19optional_last_valueIvEEiSt4lessIiENS_8functionIFvS6_EEENSB_IFvRKNS2_10connectionES6_EEENS2_5mutexEE16invocation_stateEE7disposeEv(i32 %arg1) {
dec_label_pc_45a0:
  %ebx.global-to-local = alloca i32, align 4
  %v0_45a0 = load i32, i32* %ebx.global-to-local, align 4
  %v1_45b4 = add i32 %arg1, ptrtoint (i32* @global_var_c.559 to i32)
  %v2_45b4 = inttoptr i32 %v1_45b4 to i32*
  %v3_45b4 = load i32, i32* %v2_45b4, align 4
  store i32 %v3_45b4, i32* %ebx.global-to-local, align 4
  %v1_45b7 = icmp eq i32 %v3_45b4, 0
  br i1 %v1_45b7, label %bb, label %dec_label_pc_45bb

bb:                                               ; preds = %dec_label_pc_45a0
  %v3_45b9 = call i32 @function_45f0(i32 ptrtoint ([15 x i8]* @1 to i32))
  br label %dec_label_pc_45bb

dec_label_pc_45bb:                                ; preds = %bb, %dec_label_pc_45a0
  %v1_45bb = add i32 %v3_45b4, ptrtoint (i32* @global_var_c.559 to i32)
  store i32 %v1_45bb, i32* @eax, align 4
  %v1_45c1 = call i32 @function_8a70(i32 %v1_45bb)
  %v1_45c6 = add i32 %v3_45b4, 4
  store i32 %v1_45c6, i32* @eax, align 4
  %v1_45cc = call i32 @function_8a70(i32 %v1_45c6)
  store i32 xor (i32 ptrtoint ([15 x i8]* @1 to i32), i32 ptrtoint ([15 x i8]* @1 to i32)), i32* @eax, align 4
  br i1 icmp ne (i32 xor (i32 ptrtoint ([15 x i8]* @1 to i32), i32 ptrtoint ([15 x i8]* @1 to i32)), i32 0), label %bb105, label %dec_label_pc_45de

bb105:                                            ; preds = %dec_label_pc_45bb
  %v2_45dc = call i32 @function_4602()
  br label %dec_label_pc_45de

dec_label_pc_45de:                                ; preds = %bb105, %dec_label_pc_45bb
  %v5_45e5 = phi i32 [ %v2_45dc, %bb105 ], [ xor (i32 ptrtoint ([15 x i8]* @1 to i32), i32 ptrtoint ([15 x i8]* @1 to i32)), %dec_label_pc_45bb ]
  store i32 %v0_45a0, i32* %ebx.global-to-local, align 4
  ret i32 %v5_45e5

; uselistorder directives
  uselistorder i32 %v3_45b4, { 1, 0, 2, 3 }
}

define i32 @function_45f0(i32 %arg1) local_unnamed_addr {
dec_label_pc_45f0:
  %v3_45f4 = xor i32 %arg1, ptrtoint ([15 x i8]* @1 to i32)
  %v4_45f4 = icmp eq i32 %v3_45f4, 0
  store i32 %v3_45f4, i32* @eax, align 4
  %v1_45fb = icmp eq i1 %v4_45f4, false
  br i1 %v1_45fb, label %bb, label %dec_label_pc_45fd

bb:                                               ; preds = %dec_label_pc_45f0
  %v2_45fb = call i32 @function_4602()
  br label %dec_label_pc_45fd

dec_label_pc_45fd:                                ; preds = %bb, %dec_label_pc_45f0
  %v0_4601 = phi i32 [ %v2_45fb, %bb ], [ %v3_45f4, %dec_label_pc_45f0 ]
  ret i32 %v0_4601

; uselistorder directives
  uselistorder i32 ()* @function_4602, { 1, 0 }
}

define i32 @function_4602() local_unnamed_addr {
dec_label_pc_4602:
  %tmp = load i32, i32* @eax, align 4
  ret i32 %tmp
}

define i32 @function_4608() local_unnamed_addr {
dec_label_pc_4608:
  %eax.global-to-local = alloca i32, align 4
  %v0_4608 = load i32, i32* %eax.global-to-local, align 4
  ret i32 %v0_4608
}

define i32 @function_6d56(i32 %arg1) local_unnamed_addr {
dec_label_pc_6d56:
  %tmp = load i32, i32* @eax, align 4
  ret i32 %tmp
}

define i32 @function_7da0(i32 %arg1) local_unnamed_addr {
dec_label_pc_7da0:
  %tmp = load i32, i32* @eax, align 4
  ret i32 %tmp
}

define i32 @function_7e10(i32 %arg1) local_unnamed_addr {
dec_label_pc_7e10:
  %tmp = load i32, i32* @eax, align 4
  ret i32 %tmp
}

define i32 @function_7e70(i32 %arg1) local_unnamed_addr {
dec_label_pc_7e70:
  %tmp = load i32, i32* @eax, align 4
  ret i32 %tmp
}

define i32 @function_7ef0(i32 %arg1) local_unnamed_addr {
dec_label_pc_7ef0:
  %tmp = load i32, i32* @eax, align 4
  ret i32 %tmp
}

define i32 @function_7fb0(i32 %arg1) local_unnamed_addr {
dec_label_pc_7fb0:
  %tmp = load i32, i32* @eax, align 4
  ret i32 %tmp
}

define i32 @function_7fe0(i32 %arg1) local_unnamed_addr {
dec_label_pc_7fe0:
  %tmp = load i32, i32* @eax, align 4
  ret i32 %tmp
}

define i32 @function_8040(i32 %arg1) local_unnamed_addr {
dec_label_pc_8040:
  %tmp = load i32, i32* @eax, align 4
  ret i32 %tmp
}

define i32 @function_80e0(i32 %arg1) local_unnamed_addr {
dec_label_pc_80e0:
  %tmp = load i32, i32* @eax, align 4
  ret i32 %tmp
}

define i32 @function_8140(i32 %arg1) local_unnamed_addr {
dec_label_pc_8140:
  %tmp = load i32, i32* @eax, align 4
  ret i32 %tmp
}

define i32 @function_81b0(i32 %arg1) local_unnamed_addr {
dec_label_pc_81b0:
  %tmp = load i32, i32* @eax, align 4
  ret i32 %tmp
}

define i32 @function_8250(i32 %arg1) local_unnamed_addr {
dec_label_pc_8250:
  %tmp = load i32, i32* @eax, align 4
  ret i32 %tmp
}

define i32 @function_8280(i32 %arg1) local_unnamed_addr {
dec_label_pc_8280:
  %tmp = load i32, i32* @eax, align 4
  ret i32 %tmp
}

define i32 @function_82b0(i32 %arg1) local_unnamed_addr {
dec_label_pc_82b0:
  %tmp = load i32, i32* @eax, align 4
  ret i32 %tmp
}

define i32 @function_8320(i32 %arg1) local_unnamed_addr {
dec_label_pc_8320:
  %tmp = load i32, i32* @eax, align 4
  ret i32 %tmp
}

define i32 @_ZltRK7uint160S1_(i32* %arg1, i32 %arg2) local_unnamed_addr {
dec_label_pc_83b0:
  %stack_var_-60 = alloca i32, align 4
  %v16_83b0 = ptrtoint i32* %stack_var_-60 to i32
  %v3_8411 = add i32 %v16_83b0, 24
  %v3_8415 = add i32 %v16_83b0, 4
  br label %dec_label_pc_8411

dec_label_pc_8411:                                ; preds = %dec_label_pc_841d, %dec_label_pc_83b0
  %v0_841d = phi i32 [ %v1_841d, %dec_label_pc_841d ], [ 4, %dec_label_pc_83b0 ]
  %v2_8411 = mul nuw nsw i32 %v0_841d, 4
  %v4_8411 = add i32 %v3_8411, %v2_8411
  %v5_8411 = inttoptr i32 %v4_8411 to i32*
  %v6_8411 = load i32, i32* %v5_8411, align 4
  %v4_8415 = add i32 %v3_8415, %v2_8411
  %v5_8415 = inttoptr i32 %v4_8415 to i32*
  %v6_8415 = load i32, i32* %v5_8415, align 4
  %v13_8415 = icmp ult i32 %v6_8415, %v6_8411
  br i1 %v13_8415, label %dec_label_pc_8427, label %dec_label_pc_841b

dec_label_pc_841b:                                ; preds = %dec_label_pc_8411
  %v18_8415 = icmp eq i32 %v6_8415, %v6_8411
  br i1 %v18_8415, label %dec_label_pc_841d, label %dec_label_pc_8425

dec_label_pc_841d:                                ; preds = %dec_label_pc_841b
  %v1_841d = add nsw i32 %v0_841d, -1
  %v5_841d = icmp eq i32 %v0_841d, 0
  %v1_8423 = icmp eq i1 %v5_841d, false
  br i1 %v1_8423, label %dec_label_pc_8411, label %dec_label_pc_8425

dec_label_pc_8425:                                ; preds = %dec_label_pc_841b, %dec_label_pc_841d
  br label %dec_label_pc_8427

dec_label_pc_8427:                                ; preds = %dec_label_pc_8411, %dec_label_pc_8425
  %v0_843d = phi i32 [ 0, %dec_label_pc_8425 ], [ 1, %dec_label_pc_8411 ]
  br i1 icmp ne (i32 xor (i32 ptrtoint ([15 x i8]* @1 to i32), i32 ptrtoint ([15 x i8]* @1 to i32)), i32 0), label %dec_label_pc_843f, label %dec_label_pc_8434

dec_label_pc_8434:                                ; preds = %dec_label_pc_8427
  ret i32 %v0_843d

dec_label_pc_843f:                                ; preds = %dec_label_pc_8427
  ret i32 %v0_843d

; uselistorder directives
  uselistorder i32 %v0_841d, { 1, 0, 2 }
  uselistorder i32 %v16_83b0, { 1, 0 }
  uselistorder label %dec_label_pc_8427, { 1, 0 }
  uselistorder label %dec_label_pc_8425, { 1, 0 }
}

define i32 @_ZN5boost16exception_detail12refcount_ptrINS0_20error_info_containerEED1Ev(i32* %arg1, i32 %arg2) local_unnamed_addr {
dec_label_pc_8450:
  %v2_8464 = load i32, i32* %arg1, align 4
  %v1_8466 = icmp eq i32 %v2_8464, 0
  br i1 %v1_8466, label %dec_label_pc_8476, label %dec_label_pc_846a

dec_label_pc_846a:                                ; preds = %dec_label_pc_8450
  %v3_8466 = trunc i32 %v2_8464 to i8
  %v5_8472 = icmp eq i8 %v3_8466, 0
  %v1_8474 = icmp eq i1 %v5_8472, false
  br i1 %v1_8474, label %dec_label_pc_8488, label %dec_label_pc_8476

dec_label_pc_8476:                                ; preds = %dec_label_pc_8488, %dec_label_pc_846a, %dec_label_pc_8450
  ret i32 ptrtoint ([15 x i8]* @1 to i32)

dec_label_pc_8488:                                ; preds = %dec_label_pc_846a
  store i32 0, i32* %arg1, align 4
  br label %dec_label_pc_8476
}

define i32 @_ZN5boost16exception_detail20copy_boost_exceptionEPNS_9exceptionEPKS1_(i32 %arg1, i32 %arg2) local_unnamed_addr {
dec_label_pc_84a0:
  %ebx.global-to-local = alloca i32, align 4
  %edi.global-to-local = alloca i32, align 4
  %esi.global-to-local = alloca i32, align 4
  %tmp106 = call i32 @__decompiler_undefined_function_0()
  store i32 %arg2, i32* %ebx.global-to-local, align 4
  store i32 %arg1, i32* %esi.global-to-local, align 4
  %v1_84c3 = add i32 %arg2, 4
  %v2_84c3 = inttoptr i32 %v1_84c3 to i32*
  %v3_84c3 = load i32, i32* %v2_84c3, align 4
  %v1_84d2 = icmp eq i32 %v3_84c3, 0
  br i1 %v1_84d2, label %dec_label_pc_8529, label %dec_label_pc_84da

dec_label_pc_84da:                                ; preds = %dec_label_pc_84a0
  store i32 0, i32* %edi.global-to-local, align 4
  %v1_84f5 = icmp eq i32 %tmp106, 0
  br i1 %v1_84f5, label %dec_label_pc_8501, label %dec_label_pc_84f9

dec_label_pc_84f9:                                ; preds = %dec_label_pc_84da
  br label %dec_label_pc_8501

dec_label_pc_8501:                                ; preds = %dec_label_pc_84f9, %dec_label_pc_84da
  br label %dec_label_pc_8529

dec_label_pc_8529:                                ; preds = %dec_label_pc_84a0, %dec_label_pc_8501
  store i32 0, i32* %edi.global-to-local, align 4
  %v1_8529 = add i32 %arg2, ptrtoint (i32* @global_var_c.559 to i32)
  %v2_8529 = inttoptr i32 %v1_8529 to i32*
  %v3_8529 = load i32, i32* %v2_8529, align 4
  %v2_852c = add i32 %arg1, ptrtoint (i32* @global_var_c.559 to i32)
  %v3_852c = inttoptr i32 %v2_852c to i32*
  store i32 %v3_8529, i32* %v3_852c, align 4
  %v0_852f = load i32, i32* %ebx.global-to-local, align 4
  %v1_852f = add i32 %v0_852f, ptrtoint (i32* @global_var_10.578 to i32)
  %v2_852f = inttoptr i32 %v1_852f to i32*
  %v3_852f = load i32, i32* %v2_852f, align 4
  %v1_8532 = load i32, i32* %esi.global-to-local, align 4
  %v2_8532 = add i32 %v1_8532, ptrtoint (i32* @global_var_10.578 to i32)
  %v3_8532 = inttoptr i32 %v2_8532 to i32*
  store i32 %v3_852f, i32* %v3_8532, align 4
  %v0_8535 = load i32, i32* %ebx.global-to-local, align 4
  %v1_8535 = add i32 %v0_8535, 8
  %v2_8535 = inttoptr i32 %v1_8535 to i32*
  %v3_8535 = load i32, i32* %v2_8535, align 4
  %v1_8538 = load i32, i32* %esi.global-to-local, align 4
  %v2_8538 = add i32 %v1_8538, 8
  %v3_8538 = inttoptr i32 %v2_8538 to i32*
  store i32 %v3_8535, i32* %v3_8538, align 4
  %v0_853b = load i32, i32* %esi.global-to-local, align 4
  %v1_853b = add i32 %v0_853b, 4
  %v2_853b = inttoptr i32 %v1_853b to i32*
  %v3_853b = load i32, i32* %v2_853b, align 4
  %v1_853e = icmp eq i32 %v3_853b, 0
  br i1 %v1_853e, label %dec_label_pc_854a, label %dec_label_pc_8542

dec_label_pc_8542:                                ; preds = %dec_label_pc_8529
  %v1_8544 = load i32, i32* @esp, align 4
  %v2_8544 = inttoptr i32 %v1_8544 to i32*
  store i32 %v3_853b, i32* %v2_8544, align 4
  %v1_854c.pre = load i32, i32* %esi.global-to-local, align 4
  br label %dec_label_pc_854a

dec_label_pc_854a:                                ; preds = %dec_label_pc_8542, %dec_label_pc_8529
  %v1_854c = phi i32 [ %v1_854c.pre, %dec_label_pc_8542 ], [ %v0_853b, %dec_label_pc_8529 ]
  %v0_854a = load i32, i32* %edi.global-to-local, align 4
  %v1_854a = icmp eq i32 %v0_854a, 0
  %v2_854c = add i32 %v1_854c, 4
  %v3_854c = inttoptr i32 %v2_854c to i32*
  store i32 %v0_854a, i32* %v3_854c, align 4
  br i1 %v1_854a, label %dec_label_pc_8559, label %dec_label_pc_8551

dec_label_pc_8551:                                ; preds = %dec_label_pc_854a
  %v0_8551 = load i32, i32* %edi.global-to-local, align 4
  %v1_8553 = load i32, i32* @esp, align 4
  %v2_8553 = inttoptr i32 %v1_8553 to i32*
  store i32 %v0_8551, i32* %v2_8553, align 4
  br label %dec_label_pc_8559

dec_label_pc_8559:                                ; preds = %dec_label_pc_8551, %dec_label_pc_854a
  %v0_8559 = load i32, i32* @esp, align 4
  %v1_8559 = add i32 %v0_8559, ptrtoint (i8** @global_var_14.558 to i32)
  %v2_8559 = inttoptr i32 %v1_8559 to i32*
  %v3_8559 = load i32, i32* %v2_8559, align 4
  %v1_855d = icmp eq i32 %v3_8559, 0
  br i1 %v1_855d, label %dec_label_pc_8569, label %dec_label_pc_8561

dec_label_pc_8561:                                ; preds = %dec_label_pc_8559
  %v2_8563 = inttoptr i32 %v0_8559 to i32*
  store i32 %v3_8559, i32* %v2_8563, align 4
  %v0_8569.pre = load i32, i32* @esp, align 4
  br label %dec_label_pc_8569

dec_label_pc_8569:                                ; preds = %dec_label_pc_8561, %dec_label_pc_8559
  %v0_8586 = phi i32 [ %v0_8569.pre, %dec_label_pc_8561 ], [ %v0_8559, %dec_label_pc_8559 ]
  %v1_8569 = add i32 %v0_8586, ptrtoint (i32* @global_var_1c.579 to i32)
  %v2_8569 = inttoptr i32 %v1_8569 to i32*
  %v3_8569 = load i32, i32* %v2_8569, align 4
  %v3_856d = xor i32 %v3_8569, ptrtoint ([15 x i8]* @1 to i32)
  %v4_856d = icmp eq i32 %v3_856d, 0
  %v1_8574 = icmp eq i1 %v4_856d, false
  br i1 %v1_8574, label %dec_label_pc_85a4, label %dec_label_pc_8576

dec_label_pc_8576:                                ; preds = %dec_label_pc_8569
  %v1_8576 = add i32 %v0_8586, 44
  %v2_8576 = inttoptr i32 %v1_8576 to i32*
  %v3_8576 = load i32, i32* %v2_8576, align 4
  store i32 %v3_8576, i32* %ebx.global-to-local, align 4
  %v1_857a = add i32 %v0_8586, 48
  %v2_857a = inttoptr i32 %v1_857a to i32*
  %v3_857a = load i32, i32* %v2_857a, align 4
  store i32 %v3_857a, i32* %esi.global-to-local, align 4
  %v1_857e = add i32 %v0_8586, 52
  %v2_857e = inttoptr i32 %v1_857e to i32*
  %v3_857e = load i32, i32* %v2_857e, align 4
  store i32 %v3_857e, i32* %edi.global-to-local, align 4
  ret i32 %v3_856d

dec_label_pc_85a4:                                ; preds = %dec_label_pc_8569
  ret i32 %v3_856d

; uselistorder directives
  uselistorder i32 %v3_856d, { 1, 0, 2 }
  uselistorder i32 %v0_8586, { 0, 2, 1, 3 }
  uselistorder i32* %esi.global-to-local, { 0, 4, 1, 2, 3, 5 }
  uselistorder i32* %edi.global-to-local, { 3, 0, 1, 2, 4 }
  uselistorder label %dec_label_pc_8529, { 1, 0 }
}

define i32 @function_85aa() local_unnamed_addr {
dec_label_pc_85aa:
  %eax.global-to-local = alloca i32, align 4
  %v0_85aa = load i32, i32* %eax.global-to-local, align 4
  ret i32 %v0_85aa
}

define i32 @function_85b3() local_unnamed_addr {
dec_label_pc_85b3:
  %tmp = load i32, i32* @eax, align 4
  ret i32 %tmp
}

define i32 @function_85c7() local_unnamed_addr {
dec_label_pc_85c7:
  %v0_85c9 = call i32 @function_85b3()
  ret i32 %v0_85c9
}

define i32 @_ZN5boost16exception_detail19error_info_injectorINS_10lock_errorEEC1ERKS3_(i32* %arg1, i32 %arg2) local_unnamed_addr {
dec_label_pc_85d0:
  %eax.global-to-local = alloca i32, align 4
  %ebx.global-to-local = alloca i32, align 4
  %esi.global-to-local = alloca i32, align 4
  %tmp101 = ptrtoint i32* %arg1 to i32
  %v0_85d0 = load i32, i32* %esi.global-to-local, align 4
  %v0_85d1 = load i32, i32* %ebx.global-to-local, align 4
  store i32 %arg2, i32* %esi.global-to-local, align 4
  store i32 %tmp101, i32* %ebx.global-to-local, align 4
  store i32 0, i32* %eax.global-to-local, align 4
  %v1_85e9 = add i32 %arg2, 4
  %v2_85e9 = inttoptr i32 %v1_85e9 to i32*
  %v3_85e9 = load i32, i32* %v2_85e9, align 4
  store i32 %v3_85e9, i32* %eax.global-to-local, align 4
  store i32 ptrtoint (%vtable_efb8_type* @global_var_efb8.633 to i32), i32* %arg1, align 4
  %v0_85f2 = load i32, i32* %ebx.global-to-local, align 4
  %v1_85f2 = add i32 %v0_85f2, 8
  %v2_85f2 = inttoptr i32 %v1_85f2 to i32*
  store i32 ptrtoint (i32* @global_var_efd0.634 to i32), i32* %v2_85f2, align 4
  %v0_85f9 = load i32, i32* %eax.global-to-local, align 4
  %v1_85f9 = load i32, i32* %ebx.global-to-local, align 4
  %v2_85f9 = add i32 %v1_85f9, 4
  %v3_85f9 = inttoptr i32 %v2_85f9 to i32*
  store i32 %v0_85f9, i32* %v3_85f9, align 4
  %v0_85fc = load i32, i32* %esi.global-to-local, align 4
  %v1_85fc = add i32 %v0_85fc, ptrtoint (i32* @global_var_c.559 to i32)
  %v2_85fc = inttoptr i32 %v1_85fc to i32*
  %v3_85fc = load i32, i32* %v2_85fc, align 4
  store i32 %v3_85fc, i32* %eax.global-to-local, align 4
  %v1_85ff = icmp eq i32 %v3_85fc, 0
  %v1_8601 = load i32, i32* %ebx.global-to-local, align 4
  %v2_8601 = add i32 %v1_8601, ptrtoint (i32* @global_var_c.559 to i32)
  %v3_8601 = inttoptr i32 %v2_8601 to i32*
  store i32 %v3_85fc, i32* %v3_8601, align 4
  br i1 %v1_85ff, label %dec_label_pc_860e, label %dec_label_pc_8606

dec_label_pc_8606:                                ; preds = %dec_label_pc_85d0
  br label %dec_label_pc_860e

dec_label_pc_860e:                                ; preds = %dec_label_pc_8606, %dec_label_pc_85d0
  %v0_860e = load i32, i32* %esi.global-to-local, align 4
  %v1_860e = add i32 %v0_860e, ptrtoint (i32* @global_var_10.578 to i32)
  %v2_860e = inttoptr i32 %v1_860e to i32*
  %v3_860e = load i32, i32* %v2_860e, align 4
  store i32 %v3_860e, i32* %eax.global-to-local, align 4
  %v0_8611 = load i32, i32* %ebx.global-to-local, align 4
  %v1_8611 = add i32 %v0_8611, 8
  %v2_8611 = inttoptr i32 %v1_8611 to i32*
  store i32 ptrtoint (i32* @global_var_effc.643 to i32), i32* %v2_8611, align 4
  %v0_8618 = load i32, i32* %eax.global-to-local, align 4
  %v1_8618 = load i32, i32* %ebx.global-to-local, align 4
  %v2_8618 = add i32 %v1_8618, ptrtoint (i32* @global_var_10.578 to i32)
  %v3_8618 = inttoptr i32 %v2_8618 to i32*
  store i32 %v0_8618, i32* %v3_8618, align 4
  %v0_861b = load i32, i32* %esi.global-to-local, align 4
  %v1_861b = add i32 %v0_861b, ptrtoint (i8** @global_var_14.558 to i32)
  %v2_861b = inttoptr i32 %v1_861b to i32*
  %v3_861b = load i32, i32* %v2_861b, align 4
  store i32 %v3_861b, i32* %eax.global-to-local, align 4
  %v1_861e = load i32, i32* %ebx.global-to-local, align 4
  %v2_861e = add i32 %v1_861e, ptrtoint (i8** @global_var_14.558 to i32)
  %v3_861e = inttoptr i32 %v2_861e to i32*
  store i32 %v3_861b, i32* %v3_861e, align 4
  %v0_8621 = load i32, i32* %esi.global-to-local, align 4
  %v1_8621 = add i32 %v0_8621, 24
  %v2_8621 = inttoptr i32 %v1_8621 to i32*
  %v3_8621 = load i32, i32* %v2_8621, align 4
  store i32 %v3_8621, i32* %eax.global-to-local, align 4
  %v0_8624 = load i32, i32* %ebx.global-to-local, align 4
  %v1_8624 = inttoptr i32 %v0_8624 to i32*
  store i32 ptrtoint (%vtable_efe8_type* @global_var_efe8.642 to i32), i32* %v1_8624, align 4
  %v0_862a = load i32, i32* %eax.global-to-local, align 4
  %v1_862a = load i32, i32* %ebx.global-to-local, align 4
  %v2_862a = add i32 %v1_862a, 24
  %v3_862a = inttoptr i32 %v2_862a to i32*
  store i32 %v0_862a, i32* %v3_862a, align 4
  store i32 xor (i32 ptrtoint ([15 x i8]* @1 to i32), i32 ptrtoint ([15 x i8]* @1 to i32)), i32* %eax.global-to-local, align 4
  br i1 icmp ne (i32 xor (i32 ptrtoint ([15 x i8]* @1 to i32), i32 ptrtoint ([15 x i8]* @1 to i32)), i32 0), label %dec_label_pc_8640, label %dec_label_pc_863a

dec_label_pc_863a:                                ; preds = %dec_label_pc_860e
  store i32 %v0_85d1, i32* %ebx.global-to-local, align 4
  store i32 %v0_85d0, i32* %esi.global-to-local, align 4
  ret i32 xor (i32 ptrtoint ([15 x i8]* @1 to i32), i32 ptrtoint ([15 x i8]* @1 to i32))

dec_label_pc_8640:                                ; preds = %dec_label_pc_860e
  ret i32 xor (i32 ptrtoint ([15 x i8]* @1 to i32), i32 ptrtoint ([15 x i8]* @1 to i32))

; uselistorder directives
  uselistorder i32* %esi.global-to-local, { 0, 1, 2, 4, 3, 5, 6 }
  uselistorder i32 (i32*)* @_ZN5boost16exception_detail19error_info_injectorINS_10lock_errorEED0Ev, { 1, 0 }
  uselistorder i32 ptrtoint (%vtable_efe8_type* @global_var_efe8.642 to i32), { 4, 3, 2, 1, 0 }
}

define i32 @_ZThn28_NK5boost16exception_detail10clone_implINS0_19error_info_injectorINS_10lock_errorEEEE7rethrowEv(i32 %arg1) local_unnamed_addr {
dec_label_pc_8660:
  %v4_8660 = sub i32 %arg1, ptrtoint (i32* @global_var_1c.579 to i32)
  %v1_8665 = call i32 @_ZNK5boost16exception_detail10clone_implINS0_19error_info_injectorINS_10lock_errorEEEE7rethrowEv(i32 %v4_8660)
  ret i32 %v1_8665

; uselistorder directives
  uselistorder i32 (i32)* @_ZNK5boost16exception_detail10clone_implINS0_19error_info_injectorINS_10lock_errorEEEE7rethrowEv, { 1, 0 }
}

define i32 @_ZNK5boost16exception_detail10clone_implINS0_19error_info_injectorINS_10lock_errorEEEE7rethrowEv(i32 %arg1) {
dec_label_pc_8670:
  ret i32 0
}

define i32 @function_8690() local_unnamed_addr {
dec_label_pc_8690:
  %eax.global-to-local = alloca i32, align 4
  %ecx.global-to-local = alloca i32, align 4
  %v0_8690 = load i32, i32* %ecx.global-to-local, align 4
  %v1_8690 = add i32 %v0_8690, -1996217228
  %v2_8690 = inttoptr i32 %v1_8690 to i32*
  %v3_8690 = load i32, i32* %v2_8690, align 4
  %v4_8690 = add i32 %v3_8690, -1
  store i32 %v4_8690, i32* %v2_8690, align 4
  %v0_8696 = load i32, i32* %eax.global-to-local, align 4
  ret i32 %v0_8696
}

define i32 @_ZN5boost15throw_exceptionINS_10lock_errorEEEvRKT_(i32 %arg1) local_unnamed_addr {
dec_label_pc_86e0:
  ret i32 0
}

define i32 @function_8720() local_unnamed_addr {
dec_label_pc_8720:
  %eax.global-to-local = alloca i32, align 4
  %v0_8723 = load i32, i32* %eax.global-to-local, align 4
  %v11_8723 = and i32 %v0_8723, or (i32 zext (i8 ptrtoint (i16** @global_var_20.580 to i8) to i32), i32 -256)
  store i32 %v11_8723, i32* %eax.global-to-local, align 4
  %v0_8725 = call i32 @unknown_89008819()
  store i32 %v0_8725, i32* %eax.global-to-local, align 4
  ret i32 %v0_8725
}

define i32 @function_8760(i32 %arg1) local_unnamed_addr {
dec_label_pc_8760:
  %v2_8760 = load i8, i8* bitcast (i32* @eax to i8*), align 4
  %v3_8760 = load i32, i32* @eax, align 4
  %v4_8760 = trunc i32 %v3_8760 to i8
  %v5_8760 = add i8 %v4_8760, %v2_8760
  %v10_8760 = icmp ult i8 %v5_8760, %v2_8760
  store i1 %v10_8760, i1* @cf, align 1
  %v17_8760 = call i8 @llvm.ctpop.i8(i8 %v5_8760)
  %v18_8760 = urem i8 %v17_8760, 2
  %v19_8760 = icmp eq i8 %v18_8760, 0
  store i1 %v19_8760, i1* @pf, align 1
  %v21_8760 = inttoptr i32 %v3_8760 to i8*
  store i8 %v5_8760, i8* %v21_8760, align 1
  %v0_8762 = load i32, i32* @eax, align 4
  %v0_8766 = load i32, i32* @ebx, align 4
  %v1_8766 = add i32 %v0_8766, 8
  %v2_876c = call i32 @unknown_10b80(i32 %v1_8766, i32 %v0_8762)
  store i32 %v2_876c, i32* @eax, align 4
  %v0_8771 = load i32, i32* @esi, align 4
  %v1_8774 = call i32 @function_c5f0(i32 %v0_8771)
  ret i32 %v1_8774

; uselistorder directives
  uselistorder i8 %v2_8760, { 1, 0 }
}

define i32 @function_8791() local_unnamed_addr {
dec_label_pc_8791:
  %tmp = load i32, i32* @eax, align 4
  ret i32 %tmp
}

define i32 @function_87b0() local_unnamed_addr {
dec_label_pc_87b0:
  %cf.global-to-local = alloca i1, align 1
  %eax.global-to-local = alloca i32, align 4
  %ebx.global-to-local = alloca i32, align 4
  %tmp93 = call i32 @__decompiler_undefined_function_0()
  %v1_87b0 = add i32 %tmp93, 1
  store i32 %v1_87b0, i32* @edi, align 4
  %v0_87b2 = load i32, i32* %ebx.global-to-local, align 4
  %v1_87b2 = add i32 %v0_87b2, 1
  store i32 %v1_87b2, i32* @ebx, align 4
  %v0_87b3 = load i32, i32* %eax.global-to-local, align 4
  %v1_87b3 = trunc i32 %v0_87b3 to i8
  %v2_87b3 = load i1, i1* %cf.global-to-local, align 1
  %v3_87b3 = zext i1 %v2_87b3 to i8
  %v4_87b3 = sub i8 %v1_87b3, ptrtoint (i32* @global_var_10.578 to i8)
  %v5_87b3 = add i8 %v4_87b3, %v3_87b3
  %v16_87b3 = icmp ult i8 %v1_87b3, 16
  %v17_87b3 = or i1 %v2_87b3, %v16_87b3
  store i1 %v17_87b3, i1* %cf.global-to-local, align 1
  %v30_87b3 = zext i8 %v5_87b3 to i32
  %v32_87b3 = and i32 %v0_87b3, -256
  %v33_87b3 = or i32 %v30_87b3, %v32_87b3
  store i32 %v33_87b3, i32* @eax, align 4
  %v1_87b5 = inttoptr i32 %v33_87b3 to i8*
  %v2_87b5 = load i8, i8* %v1_87b5, align 1
  %v5_87b5 = add i8 %v2_87b5, %v5_87b3
  %v10_87b5 = icmp ult i8 %v5_87b5, %v2_87b5
  store i1 %v10_87b5, i1* @cf, align 1
  %v17_87b5 = call i8 @llvm.ctpop.i8(i8 %v5_87b5)
  %v18_87b5 = urem i8 %v17_87b5, 2
  %v19_87b5 = icmp eq i8 %v18_87b5, 0
  store i1 %v19_87b5, i1* @pf, align 1
  store i8 %v5_87b5, i8* %v1_87b5, align 1
  %v0_87b8 = load i32, i32* @eax, align 4
  %v0_87bc = load i32, i32* @ebx, align 4
  %v1_87bf = call i32 @function_c5f0(i32 %v0_87bc)
  store i32 %v0_87b8, i32* @eax, align 4
  %v0_87c8 = call i32 @function_8791()
  store i32 %v0_87c8, i32* %eax.global-to-local, align 4
  ret i32 %v0_87c8

; uselistorder directives
  uselistorder i8 %v2_87b5, { 1, 0 }
  uselistorder i32 (i32)* @function_c5f0, { 1, 0 }
}

define i32 @_ZNSt6vectorIhSaIhEED1Ev(i32* %arg1) local_unnamed_addr {
dec_label_pc_87d0:
  %v2_87e3 = load i32, i32* %arg1, align 4
  store i32 %v2_87e3, i32* @eax, align 4
  %v1_87e5 = icmp eq i32 %v2_87e3, 0
  br i1 %v1_87e5, label %bb, label %dec_label_pc_87e9

bb:                                               ; preds = %dec_label_pc_87d0
  %v3_87e7 = call i32 @function_8808(i32 ptrtoint ([15 x i8]* @1 to i32))
  store i32 %v3_87e7, i32* @eax, align 4
  br label %dec_label_pc_87e9

dec_label_pc_87e9:                                ; preds = %bb, %dec_label_pc_87d0
  %v17_87fa2 = phi i32 [ %v3_87e7, %bb ], [ %v2_87e3, %dec_label_pc_87d0 ]
  br i1 icmp ne (i32 xor (i32 ptrtoint ([15 x i8]* @1 to i32), i32 ptrtoint ([15 x i8]* @1 to i32)), i32 0), label %bb8, label %dec_label_pc_87f6

