source_filename = "test"
target datalayout = "e-m:e-p:32:32-f64:32:64-f80:32-n8:16:32-S128"

%vtable_8480_type = type { i32 (i32*)*, i32 (i32*)*, i32 (i32)* }
%vtable_8498_type = type { i32 (i32*)*, i32 (i32*)*, i32 ()* }
%vtable_84b0_type = type { i32 (i32*)*, i32 (i32*)*, i32 ()* }
%vtable_84d8_type = type { i32 (i32*)*, i32 (i32*)*, i32 ()* }
%vtable_8518_type = type { i32 (i32*)*, i32 (i32*)*, i32 ()*, i32 (i32)*, i32 (i32)* }
%vtable_8598_type = type { i32 (i32*)*, i32 (i32*)*, i32 ()* }
%vtable_85b8_type = type { i32 (i32*)*, i32 (i32*)*, i32 ()* }
%vtable_85f8_type = type { i32 (i32*)*, i32 (i32*)*, i32 ()*, i32 (i32)*, i32 (i32)* }
%vtable_8678_type = type { i32 (i32*)*, i32 (i32*)* }
%vtable_86b8_type = type { i32 (i32*)*, i32 (i32*)*, i32 (i32)*, i32 (i32)* }
%CService = type { i16 }
%CService.3 = type { i16 }

@df = internal unnamed_addr global i1 false
@eax = internal unnamed_addr global i32 0
@ecx = internal unnamed_addr global i32 0
@edx = internal unnamed_addr global i32 0
@ebx = internal unnamed_addr global i32 0
@esp = internal unnamed_addr global i32 0
@ebp = internal unnamed_addr global i32 0
@esi = internal unnamed_addr global i32 0
@edi = internal unnamed_addr global i32 0
@global_var_14.424 = constant i32 612665600
@global_var_4e4a.425 = constant [25 x i8] c"Proxy error: TTL expired\00"
@global_var_5948.426 = constant [36 x i8] c"Proxy error: connection not allowed\00"
@global_var_c.427 = constant i32 1707313408
@global_var_6.428 = constant i32 1545903241
@global_var_1c.429 = constant i32 59490353
@global_var_d.436 = constant i32 -1587166327
@global_var_6b7c.444 = constant i32 0
@global_var_5.445 = constant i32 614238464
@global_var_6bd8.447 = constant i32 4
@global_var_6bb8.448 = constant i32 4
@global_var_6bc4.449 = constant i32 4
@global_var_4f48.460 = constant [14 x i8] c"CNetAddr(%s)\0A\00"
@global_var_62.465 = constant i32 -956301248
@global_var_2c.466 = constant i32 356
@global_var_4cd0.474 = constant i32 20
@global_var_4d9c.475 = local_unnamed_addr constant [15 x i8] c"connecting %s\0A\00"
@global_var_4da0.476 = local_unnamed_addr constant [11 x i8] c"ecting %s\0A\00"
@global_var_4d90.477 = local_unnamed_addr constant i32 540672041
@global_var_4d94.478 = local_unnamed_addr constant i32 1129272064
@global_var_4d98.479 = local_unnamed_addr constant [19 x i8] c"KS5 connecting %s\0A\00"
@global_var_1b00.481 = constant i32 -1265790721
@global_var_4d44.482 = constant [21 x i8] c"ad_mutex_destroy(&m)\00"
@global_var_18.483 = constant i32 332
@global_var_4d30.484 = constant [14 x i8] c"tex_unlock(m)\00"
@global_var_4d34.485 = constant [10 x i8] c"unlock(m)\00"
@global_var_4d38.486 = constant [6 x i8] c"ck(m)\00"
@global_var_4d3c.487 = constant i32 1881210921
@global_var_5046.500 = constant [10 x i8] c"0.0.0.0:0\00"
@global_var_4d40.501 = constant [25 x i8] c"thread_mutex_destroy(&m)\00"
@global_var_8500.504 = constant i32 0
@global_var_4cdf.505 = constant [18 x i8] c"boost::lock_error\00"
@global_var_4cf1.506 = constant [29 x i8] c"boost::thread_resource_error\00"
@global_var_8700.507 = constant i32 20656
@global_var_8458.508 = constant i32 20800
@global_var_86d0.520 = constant i32 25728
@global_var_86e4.521 = constant i32 24160
@global_var_84c8.523 = constant i32 0
@global_var_8534.524 = constant i32 26224
@global_var_8544.526 = constant i32 24320
@global_var_8614.528 = constant i32 26576
@global_var_8624.530 = constant i32 24512
@global_var_8688.532 = constant i32 25392
@global_var_85cc.534 = constant i32 25488
@global_var_84ec.536 = constant i32 25600
@global_var_30.537 = constant i32 -1400252535
@global_var_50.540 = constant i32 -2029060096
@global_var_6cf0.542 = constant [169 x i8] c"boost::exception_ptr boost::exception_detail::get_bad_alloc() [with int Dummy = 42, boost::exception_ptr = boost::shared_ptr<const boost::exception_detail::clone_base>]\00"
@global_var_59f8.543 = constant [54 x i8] c"/usr/include/boost/exception/detail/exception_ptr.hpp\00"
@global_var_8910.545 = constant i32 8
@global_var_8b50.546 = constant [33 x i8] c"N5boost6detail15sp_counted_baseE\00"
@global_var_8914.547 = local_unnamed_addr constant [33 x i8]* @global_var_8b50.546
@0 = external global i32
@global_var_68.423 = constant i8 8
@global_var_2.437 = constant i16* inttoptr (i32 364 to i16*)
@global_var_10.441 = constant i16* inttoptr (i32 5281 to i16*)
@1 = internal constant [3 x i8] c"\5C\01\00"
@global_var_9.443 = constant i8* getelementptr inbounds ([3 x i8], [3 x i8]* @1, i32 0, i32 0)
@global_var_65.446 = constant i8 -57
@global_var_3fc.457 = constant i8 103
@global_var_4da4.480 = local_unnamed_addr constant i1 false
@2 = internal constant [2 x i8] c"\14\00"
@global_var_11.503 = constant i8* getelementptr inbounds ([2 x i8], [2 x i8]* @2, i32 0, i32 0)
@global_var_3c.538 = constant i8 4
@global_var_28.552 = constant i8 -50
@global_var_8480.518 = constant %vtable_8480_type { i32 (i32*)* @_ZN5boost6system12system_errorD1Ev, i32 (i32*)* @_ZN5boost6system12system_errorD0Ev, i32 (i32)* @_ZNK5boost6system12system_error4whatEv }
@global_var_8498.509 = constant %vtable_8498_type { i32 (i32*)* @_ZN5boost16thread_exceptionD1Ev, i32 (i32*)* @_ZN5boost16thread_exceptionD0Ev, i32 ()* @fNameLookup }
@global_var_84b0.522 = constant %vtable_84b0_type { i32 (i32*)* @_ZN5boost10lock_errorD1Ev, i32 (i32*)* @_ZN5boost10lock_errorD0Ev, i32 ()* @_ZNK5boost10lock_error4whatEv }
@global_var_84d8.535 = constant %vtable_84d8_type { i32 (i32*)* @_ZN5boost16exception_detail19error_info_injectorINS_10lock_errorEED1Ev, i32 (i32*)* @_ZN5boost16exception_detail19error_info_injectorINS_10lock_errorEED0Ev, i32 ()* @_ZNK5boost10lock_error4whatEv }
@global_var_8518.525 = constant %vtable_8518_type { i32 (i32*)* @_ZN5boost16exception_detail10clone_implINS0_19error_info_injectorINS_10lock_errorEEEED1Ev, i32 (i32*)* @_ZN5boost16exception_detail10clone_implINS0_19error_info_injectorINS_10lock_errorEEEED0Ev, i32 ()* @_ZNK5boost10lock_error4whatEv, i32 (i32)* @_ZNK5boost16exception_detail10clone_implINS0_19error_info_injectorINS_10lock_errorEEEE5cloneEv.422, i32 (i32)* @_ZNK5boost16exception_detail10clone_implINS0_19error_info_injectorINS_10lock_errorEEEE7rethrowEv }
@global_var_8598.527 = constant %vtable_8598_type { i32 (i32*)* @_ZN5boost21thread_resource_errorD1Ev, i32 (i32*)* @_ZN5boost21thread_resource_errorD0Ev, i32 ()* @_ZNK5boost21thread_resource_error4whatEv }
@global_var_85b8.533 = constant %vtable_85b8_type { i32 (i32*)* @_ZN5boost16exception_detail19error_info_injectorINS_21thread_resource_errorEED1Ev, i32 (i32*)* @_ZN5boost16exception_detail19error_info_injectorINS_21thread_resource_errorEED0Ev, i32 ()* @_ZNK5boost21thread_resource_error4whatEv }
@global_var_85f8.529 = constant %vtable_85f8_type { i32 (i32*)* @_ZN5boost16exception_detail10clone_implINS0_19error_info_injectorINS_21thread_resource_errorEEEED1Ev, i32 (i32*)* @_ZN5boost16exception_detail10clone_implINS0_19error_info_injectorINS_21thread_resource_errorEEEED0Ev, i32 ()* @_ZNK5boost21thread_resource_error4whatEv, i32 (i32)* @_ZNK5boost16exception_detail10clone_implINS0_19error_info_injectorINS_21thread_resource_errorEEEE5cloneEv, i32 (i32)* @_ZNK5boost16exception_detail10clone_implINS0_19error_info_injectorINS_21thread_resource_errorEEEE7rethrowEv }
@global_var_8678.531 = constant %vtable_8678_type { i32 (i32*)* @_ZN5boost16exception_detail10bad_alloc_D1Ev, i32 (i32*)* @_ZN5boost16exception_detail10bad_alloc_D0Ev }
@global_var_86b8.519 = constant %vtable_86b8_type { i32 (i32*)* @_ZN5boost16exception_detail10clone_implINS0_10bad_alloc_EED1Ev, i32 (i32*)* @_ZN5boost16exception_detail10clone_implINS0_10bad_alloc_EED0Ev, i32 (i32)* @_ZNK5boost16exception_detail10clone_implINS0_10bad_alloc_EE5cloneEv, i32 (i32)* @_ZNK5boost16exception_detail10clone_implINS0_10bad_alloc_EE7rethrowEv }

define i32 @fNameLookup() {
dec_label_pc_0:
  %eax.global-to-local = alloca i32, align 4
  %tmp96 = load i32, i32* %eax.global-to-local, align 4
  ret i32 %tmp96
}

define void @_ZNK5boost16exception_detail10clone_implINS0_19error_info_injectorINS_10lock_errorEEEE5cloneEv(i32 %this) local_unnamed_addr {
dec_label_pc_10:
  ret void
}

define void @"~clone_impl"(i32 %this, i32 %__in_chrg) local_unnamed_addr {
dec_label_pc_20:
  ret void
}

define void @"~pthread_mutex_scoped_lock"(i32 %this, i32 %__in_chrg) local_unnamed_addr {
dec_label_pc_34:
  %eax.global-to-local = alloca i32, align 4
  %v0_34 = load i32, i32* %eax.global-to-local, align 4
  %v11_34 = and i32 %v0_34, or (i32 zext (i8 ptrtoint (i8* @global_var_68.423 to i8) to i32), i32 -256)
  store i32 %v11_34, i32* %eax.global-to-local, align 4
  %v1_36 = inttoptr i32 %v11_34 to i32*
  %v2_36 = load i32, i32* %v1_36, align 4
  %v4_36 = add i32 %v2_36, %v11_34
  store i32 %v4_36, i32* %v1_36, align 4
  ret void

; uselistorder directives
  uselistorder i32 %v11_34, { 0, 2, 1 }
  uselistorder i32* %eax.global-to-local, { 1, 0 }
}

define i32 @function_ae(i32 %arg1, i32 %arg2, i32 %arg3, i32 %arg4) local_unnamed_addr {
dec_label_pc_ae:
  %ebx.global-to-local = alloca i32, align 4
  %edx.global-to-local = alloca i32, align 4
  %v0_ae = load i32, i32* %ebx.global-to-local, align 4
  %v1_ae = add i32 %v0_ae, 21767316
  %v2_ae = inttoptr i32 %v1_ae to i32*
  %v3_ae = load i32, i32* %v2_ae, align 4
  %v4_ae = add i32 %v3_ae, -1
  store i32 %v4_ae, i32* %v2_ae, align 4
  %v2_b4 = load i8, i8* bitcast (i32* @eax to i8*), align 4
  %v3_b4 = load i32, i32* @eax, align 4
  %v4_b4 = trunc i32 %v3_b4 to i8
  %v5_b4 = add i8 %v4_b4, %v2_b4
  %v21_b4 = inttoptr i32 %v3_b4 to i8*
  store i8 %v5_b4, i8* %v21_b4, align 1
  %v0_b6 = load i32, i32* %edx.global-to-local, align 4
  %v2_b6 = xor i32 %v0_b6, 612665600
  %v3_b6 = icmp eq i32 %v2_b6, 0
  store i32 %v2_b6, i32* %edx.global-to-local, align 4
  %v1_bd = icmp eq i1 %v3_b6, false
  br i1 %v1_bd, label %bb, label %dec_label_pc_ae.dec_label_pc_c3_crit_edge

dec_label_pc_ae.dec_label_pc_c3_crit_edge:        ; preds = %dec_label_pc_ae
  %v0_e5.pre = load i32, i32* @eax, align 4
  br label %dec_label_pc_c3

bb:                                               ; preds = %dec_label_pc_ae
  %v2_bd = call i32 @function_45f()
  br label %dec_label_pc_c3

dec_label_pc_c3:                                  ; preds = %dec_label_pc_ae.dec_label_pc_c3_crit_edge, %bb
  %v0_e5 = phi i32 [ %v0_e5.pre, %dec_label_pc_ae.dec_label_pc_c3_crit_edge ], [ %v2_bd, %bb ]
  store i32 %arg1, i32* %ebx.global-to-local, align 4
  ret i32 %v0_e5

; uselistorder directives
  uselistorder i32* %edx.global-to-local, { 1, 0 }
  uselistorder i32* %ebx.global-to-local, { 1, 0 }
  uselistorder label %dec_label_pc_c3, { 1, 0 }
}

define i32 @function_147() local_unnamed_addr {
dec_label_pc_147:
  %eax.global-to-local = alloca i32, align 4
  %v0_147 = load i32, i32* %eax.global-to-local, align 4
  ret i32 %v0_147
}

define i32 @function_171() local_unnamed_addr {
dec_label_pc_171:
  %eax.global-to-local = alloca i32, align 4
  %v0_171 = load i32, i32* %eax.global-to-local, align 4
  ret i32 %v0_171
}

define i32 @function_199() local_unnamed_addr {
dec_label_pc_199:
  %eax.global-to-local = alloca i32, align 4
  %v0_199 = load i32, i32* %eax.global-to-local, align 4
  ret i32 %v0_199
}

define i32 @function_22d(i32 %arg1) local_unnamed_addr {
dec_label_pc_22d:
  %eax.global-to-local = alloca i32, align 4
  %edx.global-to-local = alloca i32, align 4
  %v0_22d = load i32, i32* %eax.global-to-local, align 4
  %v1_22d = load i32, i32* %edx.global-to-local, align 4
  %v3_22d = add i32 %v1_22d, %v0_22d
  %v4_22d = inttoptr i32 %v3_22d to i8*
  store i8 3, i8* %v4_22d, align 1
  store i32 %arg1, i32* %eax.global-to-local, align 4
  ret i32 %arg1

; uselistorder directives
  uselistorder i32* %eax.global-to-local, { 1, 0 }
  uselistorder i32 %arg1, { 1, 0 }
}

define i32 @function_276(i32 %arg1, i32 %arg2) local_unnamed_addr {
dec_label_pc_276:
  %eax.global-to-local = alloca i32, align 4
  %ecx.global-to-local = alloca i32, align 4
  %v4_276 = add i32 %arg1, -255
  %tmp98 = sub i32 254, %arg1
  %v11_276 = and i32 %tmp98, %arg1
  %v12_276 = icmp slt i32 %v11_276, 0
  %v13_276 = icmp eq i32 %v4_276, 0
  %v14_276 = icmp slt i32 %v4_276, 0
  %v3_283 = icmp ne i1 %v14_276, %v12_276
  %v4_283 = or i1 %v13_276, %v3_283
  %tmp99 = trunc i32 %arg1 to i8
  %v1_288 = select i1 %v4_283, i8 %tmp99, i8 -1
  %v2_288 = load i32, i32* %eax.global-to-local, align 4
  %v3_288 = load i32, i32* %ecx.global-to-local, align 4
  %v5_288 = add i32 %v3_288, %v2_288
  %v6_288 = inttoptr i32 %v5_288 to i8*
  store i8 %v1_288, i8* %v6_288, align 1
  store i32 %arg2, i32* %eax.global-to-local, align 4
  ret i32 %arg2

; uselistorder directives
  uselistorder i32 %v4_276, { 1, 0 }
  uselistorder i32* %eax.global-to-local, { 1, 0 }
  uselistorder i32 %arg2, { 1, 0 }
}

define i32 @function_31b(i32 %arg1) local_unnamed_addr {
dec_label_pc_31b:
  %eax.global-to-local = alloca i32, align 4
  %edx.global-to-local = alloca i32, align 4
  %tmp93 = call i32 @__decompiler_undefined_function_0()
  %v1_31d = trunc i32 %tmp93 to i8
  %v2_31d = load i32, i32* %eax.global-to-local, align 4
  %v3_31d = load i32, i32* %edx.global-to-local, align 4
  %v5_31d = add i32 %v3_31d, %v2_31d
  %v6_31d = inttoptr i32 %v5_31d to i8*
  store i8 %v1_31d, i8* %v6_31d, align 1
  store i32 %arg1, i32* %eax.global-to-local, align 4
  ret i32 %arg1

; uselistorder directives
  uselistorder i32* %eax.global-to-local, { 1, 0 }
  uselistorder i32 %arg1, { 1, 0 }
}

define i32 @function_35c() local_unnamed_addr {
dec_label_pc_35c:
  %tmp = load i32, i32* @eax, align 4
  ret i32 %tmp
}

define i32 @function_368(i32 %arg1) local_unnamed_addr {
dec_label_pc_368:
  %tmp = load i32, i32* @eax, align 4
  ret i32 %tmp
}

define i32 @function_373() local_unnamed_addr {
dec_label_pc_373:
  %eax.global-to-local = alloca i32, align 4
  %edx.global-to-local = alloca i32, align 4
  %tmp93 = call i32 @__decompiler_undefined_function_0()
  %v3_373 = add i32 %tmp93, -1
  %v18_373 = inttoptr i32 %tmp93 to i32*
  store i32 %v3_373, i32* %v18_373, align 4
  %v0_375 = load i32, i32* %edx.global-to-local, align 4
  %v1_375 = and i32 %v0_375, -65281
  %v2_375 = or i32 %v1_375, 17408
  store i32 %v2_375, i32* %edx.global-to-local, align 4
  %v0_377 = load i32, i32* %eax.global-to-local, align 4
  %v11_377 = and i32 %v0_377, -220
  store i32 %v11_377, i32* %eax.global-to-local, align 4
  ret i32 %v11_377

; uselistorder directives
  uselistorder i32 %v11_377, { 1, 0 }
  uselistorder i32 %tmp93, { 1, 0 }
}

define i32 @function_3b3() local_unnamed_addr {
dec_label_pc_3b3:
  %tmp = load i32, i32* @eax, align 4
  ret i32 %tmp
}

define i32 @function_3bf() local_unnamed_addr {
dec_label_pc_3bf:
  %v1_3bf = call i32 @function_368(i32 ptrtoint (i32* @0 to i32))
  ret i32 %v1_3bf
}

define i32 @function_3c9() local_unnamed_addr {
dec_label_pc_3c9:
  %tmp92 = call i32 @__decompiler_undefined_function_0()
  %v1_3c9 = inttoptr i32 %tmp92 to i32*
  store i32 -1, i32* %v1_3c9, align 4
  %v0_3cf = call i32 @function_35c()
  ret i32 %v0_3cf
}

define i32 @function_3e2() local_unnamed_addr {
dec_label_pc_3e2:
  %tmp = load i32, i32* @eax, align 4
  ret i32 %tmp
}

define i32 @function_3ee() local_unnamed_addr {
dec_label_pc_3ee:
  %v1_3ee = call i32 @function_368(i32 ptrtoint (i32* @0 to i32))
  ret i32 %v1_3ee
}

define i32 @function_437() local_unnamed_addr {
dec_label_pc_437:
  %v1_437 = call i32 @function_368(i32 ptrtoint (i32* @0 to i32))
  ret i32 %v1_437
}

define i32 @function_444() local_unnamed_addr {
dec_label_pc_444:
  %tmp92 = call i32 @__decompiler_undefined_function_0()
  %v1_444 = inttoptr i32 %tmp92 to i32*
  store i32 -1, i32* %v1_444, align 4
  %v0_44a = call i32 @function_3b3()
  ret i32 %v0_44a
}

define i32 @function_457() local_unnamed_addr {
dec_label_pc_457:
  %tmp92 = call i32 @__decompiler_undefined_function_0()
  %v1_457 = inttoptr i32 %tmp92 to i32*
  store i32 -1, i32* %v1_457, align 4
  %v0_45d = call i32 @function_3e2()
  ret i32 %v0_45d
}

define i32 @function_45f() local_unnamed_addr {
dec_label_pc_45f:
  %tmp = load i32, i32* @eax, align 4
  ret i32 %tmp
}

define i32 @function_48b() local_unnamed_addr {
dec_label_pc_48b:
  %v1_48b = call i32 @function_368(i32 ptrtoint (i32* @0 to i32))
  ret i32 %v1_48b
}

define i32 @function_4bb() local_unnamed_addr {
dec_label_pc_4bb:
  %tmp = load i32, i32* @eax, align 4
  ret i32 %tmp
}

define i32 @function_4fa() local_unnamed_addr {
dec_label_pc_4fa:
  %v1_4fa = call i32 @function_368(i32 ptrtoint (i32* @0 to i32))
  ret i32 %v1_4fa
}

define i32 @function_521() local_unnamed_addr {
dec_label_pc_521:
  %eax.global-to-local = alloca i32, align 4
  %v0_521 = load i32, i32* %eax.global-to-local, align 4
  %v10_521 = icmp eq i32 %v0_521, 4
  %v1_524 = icmp eq i1 %v10_521, false
  %v2_524 = zext i1 %v1_524 to i32
  store i32 %v2_524, i32* @eax, align 4
  %v0_52a = call i32 @function_4bb()
  store i32 %v0_52a, i32* %eax.global-to-local, align 4
  ret i32 %v0_52a
}

define i32 @function_57e(i32 %arg1) local_unnamed_addr {
dec_label_pc_57e:
  %eax.global-to-local = alloca i32, align 4
  %v4_57e = load i32, i32* %eax.global-to-local, align 4
  %v15_57e = icmp eq i32 %v4_57e, %arg1
  %v1_582 = icmp eq i1 %v15_57e, false
  %v2_582 = zext i1 %v1_582 to i32
  store i32 %v2_582, i32* @eax, align 4
  %v0_588 = call i32 @function_4bb()
  store i32 %v0_588, i32* %eax.global-to-local, align 4
  ret i32 %v0_588

; uselistorder directives
  uselistorder i32 ()* @function_4bb, { 1, 0 }
}

define i32 @function_58d() local_unnamed_addr {
dec_label_pc_58d:
  %eax.global-to-local = alloca i32, align 4
  %v0_58d = load i32, i32* %eax.global-to-local, align 4
  %v1_58d = urem i32 %v0_58d, 256
  store i32 %v1_58d, i32* %eax.global-to-local, align 4
  ret i32 %v1_58d

; uselistorder directives
  uselistorder i32 %v1_58d, { 1, 0 }
}

define i32 @function_5a9() local_unnamed_addr {
dec_label_pc_5a9:
  store i32 1, i32* @eax, align 4
  %v1_5ae = call i32 @function_368(i32 ptrtoint (i32* @0 to i32))
  ret i32 %v1_5ae
}

define i32 @function_5bf() local_unnamed_addr {
dec_label_pc_5bf:
  %v1_5bf = call i32 @function_368(i32 ptrtoint (i32* @0 to i32))
  ret i32 %v1_5bf
}

define i32 @function_5c4() local_unnamed_addr {
dec_label_pc_5c4:
  %v2_5d0 = call i32 @function_368(i32 ptrtoint ([25 x i8]* @global_var_4e4a.425 to i32))
  ret i32 %v2_5d0
}

define i32 @function_5e1() local_unnamed_addr {
dec_label_pc_5e1:
  %v1_5e1 = call i32 @function_368(i32 ptrtoint (i32* @0 to i32))
  ret i32 %v1_5e1
}

define i32 @function_5f2() local_unnamed_addr {
dec_label_pc_5f2:
  %v1_5f2 = call i32 @function_368(i32 ptrtoint (i32* @0 to i32))
  ret i32 %v1_5f2
}

define i32 @function_603() local_unnamed_addr {
dec_label_pc_603:
  %v1_603 = call i32 @function_368(i32 ptrtoint (i32* @0 to i32))
  ret i32 %v1_603
}

define i32 @function_608() local_unnamed_addr {
dec_label_pc_608:
  %v2_614 = call i32 @function_368(i32 ptrtoint ([36 x i8]* @global_var_5948.426 to i32))
  ret i32 %v2_614
}

define i32 @function_625() local_unnamed_addr {
dec_label_pc_625:
  %v1_625 = call i32 @function_368(i32 ptrtoint (i32* @0 to i32))
  ret i32 %v1_625
}

define i32 @function_636() local_unnamed_addr {
dec_label_pc_636:
  %v1_636 = call i32 @function_368(i32 ptrtoint (i32* @0 to i32))
  ret i32 %v1_636

; uselistorder directives
  uselistorder i32 (i32)* @function_368, { 13, 12, 11, 10, 9, 8, 7, 6, 5, 4, 3, 2, 1, 0 }
}

define i32 @function_63b(i32 %arg1, i32 %arg2) local_unnamed_addr {
dec_label_pc_63b:
  %eax.global-to-local = alloca i32, align 4
  %edx.global-to-local = alloca i32, align 4
  store i32 %arg1, i32* %edx.global-to-local, align 4
  %v0_63f = load i32, i32* %eax.global-to-local, align 4
  %v1_63f = add i32 %v0_63f, -4
  %v2_63f = inttoptr i32 %v1_63f to i32*
  store i32 0, i32* %v2_63f, align 4
  %v0_646 = load i32, i32* %edx.global-to-local, align 4
  %v1_646 = load i32, i32* %eax.global-to-local, align 4
  %v2_646 = add i32 %v1_646, -12
  %v3_646 = inttoptr i32 %v2_646 to i32*
  store i32 %v0_646, i32* %v3_646, align 4
  %v0_649 = load i32, i32* %eax.global-to-local, align 4
  %v1_649 = load i32, i32* %edx.global-to-local, align 4
  %v3_649 = add i32 %v1_649, %v0_649
  %v4_649 = inttoptr i32 %v3_649 to i8*
  store i8 0, i8* %v4_649, align 1
  store i32 %arg2, i32* %eax.global-to-local, align 4
  ret i32 %arg2

; uselistorder directives
  uselistorder i32* %eax.global-to-local, { 3, 0, 1, 2 }
  uselistorder i32 %arg2, { 1, 0 }
}

define i32 @function_656(i32 %arg1) local_unnamed_addr {
dec_label_pc_656:
  %eax.global-to-local = alloca i32, align 4
  %edx.global-to-local = alloca i32, align 4
  store i32 %arg1, i32* %edx.global-to-local, align 4
  %v0_65a = load i32, i32* %eax.global-to-local, align 4
  %v1_65a = add i32 %v0_65a, -4
  %v2_65a = inttoptr i32 %v1_65a to i32*
  store i32 0, i32* %v2_65a, align 4
  %v0_661 = load i32, i32* %edx.global-to-local, align 4
  %v1_661 = load i32, i32* %eax.global-to-local, align 4
  %v2_661 = add i32 %v1_661, -12
  %v3_661 = inttoptr i32 %v2_661 to i32*
  store i32 %v0_661, i32* %v3_661, align 4
  %v0_664 = load i32, i32* %eax.global-to-local, align 4
  %v1_664 = load i32, i32* %edx.global-to-local, align 4
  %v3_664 = add i32 %v1_664, %v0_664
  %v4_664 = inttoptr i32 %v3_664 to i8*
  store i8 0, i8* %v4_664, align 1
  %v0_668 = load i32, i32* %eax.global-to-local, align 4
  ret i32 %v0_668
}

define i32 @function_66e() local_unnamed_addr {
dec_label_pc_66e:
  %eax.global-to-local = alloca i32, align 4
  %v0_66e = load i32, i32* %eax.global-to-local, align 4
  ret i32 %v0_66e
}

define i32 @function_67f(i32 %arg1, i32 %arg2) local_unnamed_addr {
dec_label_pc_67f:
  %eax.global-to-local = alloca i32, align 4
  %edx.global-to-local = alloca i32, align 4
  store i32 %arg1, i32* %edx.global-to-local, align 4
  %v0_683 = load i32, i32* %eax.global-to-local, align 4
  %v1_683 = add i32 %v0_683, -4
  %v2_683 = inttoptr i32 %v1_683 to i32*
  store i32 0, i32* %v2_683, align 4
  %v0_68a = load i32, i32* %edx.global-to-local, align 4
  %v1_68a = load i32, i32* %eax.global-to-local, align 4
  %v2_68a = add i32 %v1_68a, -12
  %v3_68a = inttoptr i32 %v2_68a to i32*
  store i32 %v0_68a, i32* %v3_68a, align 4
  %v0_68d = load i32, i32* %eax.global-to-local, align 4
  %v1_68d = load i32, i32* %edx.global-to-local, align 4
  %v3_68d = add i32 %v1_68d, %v0_68d
  %v4_68d = inttoptr i32 %v3_68d to i8*
  store i8 0, i8* %v4_68d, align 1
  store i32 %arg2, i32* %eax.global-to-local, align 4
  ret i32 %arg2

; uselistorder directives
  uselistorder i32* %eax.global-to-local, { 3, 0, 1, 2 }
  uselistorder i32 %arg2, { 1, 0 }
}

define i32 @function_69a(i32 %arg1, i32 %arg2) local_unnamed_addr {
dec_label_pc_69a:
  %eax.global-to-local = alloca i32, align 4
  %edx.global-to-local = alloca i32, align 4
  store i32 %arg1, i32* %edx.global-to-local, align 4
  %v0_69e = load i32, i32* %eax.global-to-local, align 4
  %v1_69e = add i32 %v0_69e, -4
  %v2_69e = inttoptr i32 %v1_69e to i32*
  store i32 0, i32* %v2_69e, align 4
  %v0_6a5 = load i32, i32* %edx.global-to-local, align 4
  %v1_6a5 = load i32, i32* %eax.global-to-local, align 4
  %v2_6a5 = add i32 %v1_6a5, -12
  %v3_6a5 = inttoptr i32 %v2_6a5 to i32*
  store i32 %v0_6a5, i32* %v3_6a5, align 4
  %v0_6a8 = load i32, i32* %eax.global-to-local, align 4
  %v1_6a8 = load i32, i32* %edx.global-to-local, align 4
  %v3_6a8 = add i32 %v1_6a8, %v0_6a8
  %v4_6a8 = inttoptr i32 %v3_6a8 to i8*
  store i8 0, i8* %v4_6a8, align 1
  store i32 %arg2, i32* %eax.global-to-local, align 4
  ret i32 %arg2

; uselistorder directives
  uselistorder i32* %eax.global-to-local, { 3, 0, 1, 2 }
  uselistorder i32 %arg2, { 1, 0 }
}

define i32 @function_6b5(i32 %arg1, i32 %arg2) local_unnamed_addr {
dec_label_pc_6b5:
  %eax.global-to-local = alloca i32, align 4
  %edx.global-to-local = alloca i32, align 4
  store i32 %arg1, i32* %edx.global-to-local, align 4
  %v0_6b9 = load i32, i32* %eax.global-to-local, align 4
  %v1_6b9 = add i32 %v0_6b9, -4
  %v2_6b9 = inttoptr i32 %v1_6b9 to i32*
  store i32 0, i32* %v2_6b9, align 4
  %v0_6c0 = load i32, i32* %edx.global-to-local, align 4
  %v1_6c0 = load i32, i32* %eax.global-to-local, align 4
  %v2_6c0 = add i32 %v1_6c0, -12
  %v3_6c0 = inttoptr i32 %v2_6c0 to i32*
  store i32 %v0_6c0, i32* %v3_6c0, align 4
  %v0_6c3 = load i32, i32* %eax.global-to-local, align 4
  %v1_6c3 = load i32, i32* %edx.global-to-local, align 4
  %v3_6c3 = add i32 %v1_6c3, %v0_6c3
  %v4_6c3 = inttoptr i32 %v3_6c3 to i8*
  store i8 0, i8* %v4_6c3, align 1
  store i32 %arg2, i32* %eax.global-to-local, align 4
  ret i32 %arg2

; uselistorder directives
  uselistorder i32* %eax.global-to-local, { 3, 0, 1, 2 }
  uselistorder i32 %arg2, { 1, 0 }
}

define i32 @_Z12ParseNetworkSs(i32 %net) local_unnamed_addr {
dec_label_pc_6d0:
  ret i32 %net
}

define i32 @function_732(i16 %arg1) local_unnamed_addr {
dec_label_pc_732:
  %eax.global-to-local = alloca i32, align 4
  %v6_732 = load i32, i32* %eax.global-to-local, align 4
  ret i32 %v6_732
}

define i32 @function_744() local_unnamed_addr {
dec_label_pc_744:
  %tmp = load i32, i32* @eax, align 4
  ret i32 %tmp
}

define i32 @function_750() local_unnamed_addr {
dec_label_pc_750:
  %v0_750 = call i32 @function_7c6()
  ret i32 %v0_750
}

define i32 @function_777() local_unnamed_addr {
dec_label_pc_777:
  %eax.global-to-local = alloca i32, align 4
  %v0_777 = load i32, i32* %eax.global-to-local, align 4
  ret i32 %v0_777
}

define i32 @function_784() local_unnamed_addr {
dec_label_pc_784:
  %eax.global-to-local = alloca i32, align 4
  %ebx.global-to-local = alloca i32, align 4
  %v0_784 = load i32, i32* %ebx.global-to-local, align 4
  %v1_784 = add i32 %v0_784, -954457020
  %v2_784 = inttoptr i32 %v1_784 to i32*
  %v3_784 = load i32, i32* %v2_784, align 4
  %v4_784 = add i32 %v3_784, -1
  store i32 %v4_784, i32* %v2_784, align 4
  %v0_78b = load i32, i32* %eax.global-to-local, align 4
  %v11_78b = and i32 %v0_78b, -252
  store i32 %v11_78b, i32* %eax.global-to-local, align 4
  ret i32 %v11_78b

; uselistorder directives
  uselistorder i32 %v11_78b, { 1, 0 }
}

define i32 @function_799(i32 %arg1, i32 %arg2, i32 %arg3, i32 %arg4, i32 %arg5, i32 %arg6) local_unnamed_addr {
dec_label_pc_799:
  %eax.global-to-local = alloca i32, align 4
  %v0_79e = load i32, i32* %eax.global-to-local, align 4
  %v1_79e = icmp eq i32 %v0_79e, 0
  %v1_7a0 = icmp eq i1 %v1_79e, false
  br i1 %v1_7a0, label %dec_label_pc_7c0, label %dec_label_pc_7a2

dec_label_pc_7a2:                                 ; preds = %dec_label_pc_799
  store i32 1, i32* @eax, align 4
  %v3_7a8 = icmp eq i32 %arg2, 612665600
  %v1_7af = icmp eq i1 %v3_7a8, false
  br i1 %v1_7af, label %bb, label %dec_label_pc_7b1

bb:                                               ; preds = %dec_label_pc_7a2
  %v2_7af = call i32 @function_807()
  store i32 %v2_7af, i32* %eax.global-to-local, align 4
  br label %dec_label_pc_7b1

dec_label_pc_7b1:                                 ; preds = %bb, %dec_label_pc_7a2
  %v0_7b8 = phi i32 [ %v2_7af, %bb ], [ 1, %dec_label_pc_7a2 ]
  ret i32 %v0_7b8

dec_label_pc_7c0:                                 ; preds = %dec_label_pc_799
  ret i32 %v0_79e
}

define i32 @function_7c6() local_unnamed_addr {
dec_label_pc_7c6:
  %v0_7c6 = load i32, i32* @eax, align 4
  %v11_7c6 = and i32 %v0_7c6, -252
  ret i32 %v11_7c6
}

define i32 @function_7f0() local_unnamed_addr {
dec_label_pc_7f0:
  %eax.global-to-local = alloca i32, align 4
  %ebx.global-to-local = alloca i32, align 4
  %edx.global-to-local = alloca i32, align 4
  %v0_7f0 = load i32, i32* %ebx.global-to-local, align 4
  %v1_7f0 = add i32 %v0_7f0, -770113032
  %v2_7f0 = inttoptr i32 %v1_7f0 to i32*
  %v3_7f0 = load i32, i32* %v2_7f0, align 4
  %v4_7f0 = add i32 %v3_7f0, 1
  store i32 %v4_7f0, i32* %v2_7f0, align 4
  %v0_7f6 = load i32, i32* %edx.global-to-local, align 4
  %v1_7f6 = urem i32 %v0_7f6, 4
  store i32 %v1_7f6, i32* %edx.global-to-local, align 4
  %v0_7f9 = load i32, i32* %eax.global-to-local, align 4
  ret i32 %v0_7f9
}

define i32 @function_800() local_unnamed_addr {
dec_label_pc_800:
  %v0_802 = call i32 @function_744()
  ret i32 %v0_802
}

define i32 @function_807() local_unnamed_addr {
dec_label_pc_807:
  %tmp = load i32, i32* @eax, align 4
  ret i32 %tmp
}

define i32 @function_80d() local_unnamed_addr {
dec_label_pc_80d:
  %eax.global-to-local = alloca i32, align 4
  %v0_80d = load i32, i32* %eax.global-to-local, align 4
  ret i32 %v0_80d
}

define i32 @function_816() local_unnamed_addr {
dec_label_pc_816:
  %tmp = load i32, i32* @eax, align 4
  ret i32 %tmp
}

define i32 @function_826() local_unnamed_addr {
dec_label_pc_826:
  %v0_828 = call i32 @function_816()
  ret i32 %v0_828
}

define void @_Z13SplitHostPortSsRiRSs(i32 %in, i32 %portOut, i32 %hostOut) local_unnamed_addr {
dec_label_pc_830:
  ret void
}

define i32 @function_877() local_unnamed_addr {
dec_label_pc_877:
  %eax.global-to-local = alloca i32, align 4
  %v0_877 = load i32, i32* %eax.global-to-local, align 4
  ret i32 %v0_877
}

define i32 @function_87a() local_unnamed_addr {
dec_label_pc_87a:
  %tmp = load i32, i32* @eax, align 4
  ret i32 %tmp
}

define i32 @function_892(i32 %arg1, i32 %arg2, i32 %arg3, i32 %arg4) local_unnamed_addr {
dec_label_pc_892:
  %eax.global-to-local = alloca i32, align 4
  %ebx.global-to-local = alloca i32, align 4
  %v0_892 = load i32, i32* %ebx.global-to-local, align 4
  %v1_892 = add i32 %v0_892, 1697391684
  %v2_892 = inttoptr i32 %v1_892 to i32*
  %v3_892 = load i32, i32* %v2_892, align 4
  %v4_892 = add i32 %v3_892, -1
  store i32 %v4_892, i32* %v2_892, align 4
  %v0_898 = load i32, i32* %eax.global-to-local, align 4
  %v2_898 = xor i32 %v0_898, 612665600
  %v3_898 = icmp eq i32 %v2_898, 0
  store i32 %v2_898, i32* @eax, align 4
  %v1_89e = icmp eq i1 %v3_898, false
  br i1 %v1_89e, label %bb, label %dec_label_pc_8a4

bb:                                               ; preds = %dec_label_pc_892
  %v2_89e = call i32 @function_a71()
  store i32 %v2_89e, i32* %eax.global-to-local, align 4
  br label %dec_label_pc_8a4

dec_label_pc_8a4:                                 ; preds = %bb, %dec_label_pc_892
  %v0_8b7 = phi i32 [ %v2_89e, %bb ], [ %v2_898, %dec_label_pc_892 ]
  store i32 %arg1, i32* %ebx.global-to-local, align 4
  ret i32 %v0_8b7
}

define i32 @function_8e1() local_unnamed_addr {
dec_label_pc_8e1:
  %tmp = load i32, i32* @eax, align 4
  ret i32 %tmp
}

define i32 @function_912() local_unnamed_addr {
dec_label_pc_912:
  %tmp = load i32, i32* @eax, align 4
  ret i32 %tmp
}

define i32 @function_996() local_unnamed_addr {
dec_label_pc_996:
  %ebp.global-to-local = alloca i32, align 4
  %edi.global-to-local = alloca i32, align 4
  %tmp92 = call i32 @__decompiler_undefined_function_0()
  %v1_996 = add i32 %tmp92, -1
  store i32 %v1_996, i32* @eax, align 4
  %tmp98 = icmp ult i32 %v1_996, 65535
  br i1 %tmp98, label %dec_label_pc_9a4, label %bb

bb:                                               ; preds = %dec_label_pc_996
  %v4_99e = call i32 @function_87a()
  store i32 %v4_99e, i32* @eax, align 4
  %v0_9a4.pre = load i32, i32* %ebp.global-to-local, align 4
  br label %dec_label_pc_9a4

dec_label_pc_9a4:                                 ; preds = %dec_label_pc_996, %bb
  %v0_9a4 = phi i32 [ %tmp92, %dec_label_pc_996 ], [ %v0_9a4.pre, %bb ]
  %v1_9a4 = load i32, i32* %edi.global-to-local, align 4
  %v2_9a4 = inttoptr i32 %v1_9a4 to i32*
  store i32 %v0_9a4, i32* %v2_9a4, align 4
  %v0_9a6 = call i32 @function_87a()
  ret i32 %v0_9a6

; uselistorder directives
  uselistorder i32 %tmp92, { 1, 0 }
  uselistorder label %dec_label_pc_9a4, { 1, 0 }
}

define i32 @function_a29() local_unnamed_addr {
dec_label_pc_a29:
  %eax.global-to-local = alloca i32, align 4
  %v0_a29 = load i32, i32* %eax.global-to-local, align 4
  ret i32 %v0_a29
}

define i32 @function_a30() local_unnamed_addr {
dec_label_pc_a30:
  %v0_a30 = load i32, i32* @eax, align 4
  %v10_a30 = icmp eq i32 %v0_a30, -1
  %v1_a33 = icmp eq i1 %v10_a30, false
  br i1 %v1_a33, label %bb, label %dec_label_pc_a39

bb:                                               ; preds = %dec_label_pc_a30
  %v2_a33 = call i32 @function_87a()
  store i32 %v2_a33, i32* @eax, align 4
  br label %dec_label_pc_a39

dec_label_pc_a39:                                 ; preds = %bb, %dec_label_pc_a30
  %v0_a40 = call i32 @function_912()
  ret i32 %v0_a40

; uselistorder directives
  uselistorder i32 ()* @function_87a, { 2, 1, 0 }
}

define i32 @function_a5d() local_unnamed_addr {
dec_label_pc_a5d:
  %cf.global-to-local = alloca i1, align 1
  %ebx.global-to-local = alloca i32, align 4
  %ecx.global-to-local = alloca i32, align 4
  %zf.global-to-local = alloca i1, align 1
  %v0_a5d = load i32, i32* %ebx.global-to-local, align 4
  %v1_a5d = add i32 %v0_a5d, 609520387
  %v2_a5d = inttoptr i32 %v1_a5d to i32*
  %v3_a5d = load i32, i32* %v2_a5d, align 4
  %v4_a5d = add i32 %v3_a5d, -1
  %v12_a5d = icmp eq i32 %v4_a5d, 0
  store i1 %v12_a5d, i1* %zf.global-to-local, align 1
  store i32 %v4_a5d, i32* %v2_a5d, align 4
  %v0_a63 = load i32, i32* @eax, align 4
  %v1_a63 = add i32 %v0_a63, 1576996988
  %v2_a63 = inttoptr i32 %v1_a63 to i8*
  %v3_a63 = load i8, i8* %v2_a63, align 1
  %v5_a63 = trunc i32 %v0_a63 to i8
  %v6_a63 = load i1, i1* %cf.global-to-local, align 1
  %v7_a63 = zext i1 %v6_a63 to i8
  %v8_a63 = sub i8 %v3_a63, %v5_a63
  %v9_a63 = add i8 %v7_a63, %v8_a63
  %v19_a63 = sub i8 %v8_a63, %v7_a63
  %v20_a63 = icmp ult i8 %v3_a63, %v19_a63
  %v21_a63 = icmp ne i8 %v5_a63, -1
  %v22_a63 = or i1 %v21_a63, %v20_a63
  %v23_a63 = icmp ult i8 %v3_a63, %v5_a63
  %v24_a63 = select i1 %v6_a63, i1 %v22_a63, i1 %v23_a63
  store i1 %v24_a63, i1* %cf.global-to-local, align 1
  %v32_a63 = icmp eq i8 %v9_a63, 0
  store i1 %v32_a63, i1* %zf.global-to-local, align 1
  store i8 %v9_a63, i8* %v2_a63, align 1
  %v0_a69 = load i1, i1* %zf.global-to-local, align 1
  %v1_a69 = zext i1 %v0_a69 to i32
  %v2_a69 = load i32, i32* %ecx.global-to-local, align 4
  %v3_a69 = and i32 %v2_a69, -256
  %v4_a69 = or i32 %v3_a69, %v1_a69
  store i32 %v4_a69, i32* %ecx.global-to-local, align 4
  %v0_a6c = call i32 @function_8e1()
  ret i32 %v0_a6c

; uselistorder directives
  uselistorder i8 %v8_a63, { 1, 0 }
  uselistorder i8 %v7_a63, { 1, 0 }
  uselistorder i8 %v5_a63, { 1, 0, 2 }
  uselistorder i32 %v4_a5d, { 1, 0 }
}

define i32 @function_a71() local_unnamed_addr {
dec_label_pc_a71:
  %tmp = load i32, i32* @eax, align 4
  ret i32 %tmp
}

define i32 @function_a83() local_unnamed_addr {
dec_label_pc_a83:
  %eax.global-to-local = alloca i32, align 4
  %v0_a83 = load i32, i32* %eax.global-to-local, align 4
  ret i32 %v0_a83
}

define void @_ZN8CNetAddr4InitEv(i32 %this) local_unnamed_addr {
dec_label_pc_ab0:
  %eax.global-to-local = alloca i32, align 4
  store i32 %this, i32* %eax.global-to-local, align 4
  %v1_ac4 = inttoptr i32 %this to i32*
  store i32 0, i32* %v1_ac4, align 4
  %v0_aca = load i32, i32* %eax.global-to-local, align 4
  %v1_aca = add i32 %v0_aca, 4
  %v2_aca = inttoptr i32 %v1_aca to i32*
  store i32 0, i32* %v2_aca, align 4
  %v0_ad1 = load i32, i32* %eax.global-to-local, align 4
  %v1_ad1 = add i32 %v0_ad1, 8
  %v2_ad1 = inttoptr i32 %v1_ad1 to i32*
  store i32 0, i32* %v2_ad1, align 4
  %v0_ad8 = load i32, i32* %eax.global-to-local, align 4
  %v1_ad8 = add i32 %v0_ad8, ptrtoint (i32* @global_var_c.427 to i32)
  %v2_ad8 = inttoptr i32 %v1_ad8 to i32*
  store i32 0, i32* %v2_ad8, align 4
  store i32 0, i32* %eax.global-to-local, align 4
  ret void

; uselistorder directives
  uselistorder i32 %this, { 1, 0 }
}

define void @_ZN8CNetAddr5SetIPERKS_(i32 %this, i32 %ipIn) local_unnamed_addr {
dec_label_pc_b00:
  %eax.global-to-local = alloca i32, align 4
  %edx.global-to-local = alloca i32, align 4
  store i32 %ipIn, i32* %edx.global-to-local, align 4
  store i32 %this, i32* %eax.global-to-local, align 4
  %v1_b18 = inttoptr i32 %ipIn to i32*
  %v2_b18 = load i32, i32* %v1_b18, align 4
  %v2_b1a = inttoptr i32 %this to i32*
  store i32 %v2_b18, i32* %v2_b1a, align 4
  %v0_b1c = load i32, i32* %edx.global-to-local, align 4
  %v1_b1c = add i32 %v0_b1c, 4
  %v2_b1c = inttoptr i32 %v1_b1c to i32*
  %v3_b1c = load i32, i32* %v2_b1c, align 4
  %v1_b1f = load i32, i32* %eax.global-to-local, align 4
  %v2_b1f = add i32 %v1_b1f, 4
  %v3_b1f = inttoptr i32 %v2_b1f to i32*
  store i32 %v3_b1c, i32* %v3_b1f, align 4
  %v0_b22 = load i32, i32* %edx.global-to-local, align 4
  %v1_b22 = add i32 %v0_b22, 8
  %v2_b22 = inttoptr i32 %v1_b22 to i32*
  %v3_b22 = load i32, i32* %v2_b22, align 4
  %v1_b25 = load i32, i32* %eax.global-to-local, align 4
  %v2_b25 = add i32 %v1_b25, 8
  %v3_b25 = inttoptr i32 %v2_b25 to i32*
  store i32 %v3_b22, i32* %v3_b25, align 4
  %v0_b28 = load i32, i32* %edx.global-to-local, align 4
  %v1_b28 = add i32 %v0_b28, ptrtoint (i32* @global_var_c.427 to i32)
  %v2_b28 = inttoptr i32 %v1_b28 to i32*
  %v3_b28 = load i32, i32* %v2_b28, align 4
  store i32 %v3_b28, i32* %edx.global-to-local, align 4
  %v1_b2b = load i32, i32* %eax.global-to-local, align 4
  %v2_b2b = add i32 %v1_b2b, ptrtoint (i32* @global_var_c.427 to i32)
  %v3_b2b = inttoptr i32 %v2_b2b to i32*
  store i32 %v3_b28, i32* %v3_b2b, align 4
  store i32 0, i32* %eax.global-to-local, align 4
  ret void

; uselistorder directives
  uselistorder i32 %this, { 1, 0 }
}

define void @_ZN8CNetAddr10SetSpecialERKSs(i32 %this, i32 %strName) local_unnamed_addr {
dec_label_pc_b50:
  %stack_var_-40 = alloca i32, align 4
  %v0_b53 = load i32, i32* @ebx, align 4
  store i32 %strName, i32* @ebx, align 4
  %v0_b67 = load i32, i32* @esi, align 4
  store i32 %this, i32* @esi, align 4
  %v1_b73 = inttoptr i32 %strName to i32*
  %v2_b73 = load i32, i32* %v1_b73, align 4
  %v1_b79 = add i32 %v2_b73, -12
  %v2_b79 = inttoptr i32 %v1_b79 to i32*
  %v3_b79 = load i32, i32* %v2_b79, align 4
  %v1_b7e = add i32 %v3_b79, -6
  %v5_b7e = icmp ult i32 %v3_b79, 6
  %v10_b7e = icmp eq i32 %v1_b7e, 0
  %v2_b81 = or i1 %v5_b7e, %v10_b7e
  br i1 %v2_b81, label %dec_label_pc_b83, label %dec_label_pc_ba8

dec_label_pc_b83:                                 ; preds = %dec_label_pc_b50
  store i32 %v0_b53, i32* @ebx, align 4
  store i32 %v0_b67, i32* @esi, align 4
  ret void

dec_label_pc_ba8:                                 ; preds = %dec_label_pc_b50
  store i32 %v1_b7e, i32* @eax, align 4
  %v7_bab = icmp ugt i32 %v3_b79, 5
  br i1 %v7_bab, label %dec_label_pc_bb3, label %bb

bb:                                               ; preds = %dec_label_pc_ba8
  %v5_bad = call i32 @function_ca4(i32 612665600)
  br label %dec_label_pc_bb3

dec_label_pc_bb3:                                 ; preds = %dec_label_pc_ba8, %bb
  %v2_bb3 = ptrtoint i32* %stack_var_-40 to i32
  store i32 %v2_bb3, i32* @edi, align 4
  ret void

; uselistorder directives
  uselistorder label %dec_label_pc_bb3, { 1, 0 }
}

define i32 @function_c4d() local_unnamed_addr {
dec_label_pc_c4d:
  %tmp = load i32, i32* @eax, align 4
  ret i32 %tmp
}

define i32 @function_c60() local_unnamed_addr {
dec_label_pc_c60:
  %eax.global-to-local = alloca i32, align 4
  %edx.global-to-local = alloca i32, align 4
  %tmp93 = call i32 @__decompiler_undefined_function_0()
  %v3_c60 = add i32 %tmp93, -1
  %v18_c60 = inttoptr i32 %tmp93 to i32*
  store i32 %v3_c60, i32* %v18_c60, align 4
  %v0_c62 = load i32, i32* %edx.global-to-local, align 4
  %v1_c62 = and i32 %v0_c62, -65281
  %v2_c62 = or i32 %v1_c62, 17408
  store i32 %v2_c62, i32* %edx.global-to-local, align 4
  %v0_c64 = load i32, i32* %eax.global-to-local, align 4
  %v11_c64 = and i32 %v0_c64, or (i32 zext (i8 ptrtoint (i32* @global_var_1c.429 to i8) to i32), i32 -256)
  store i32 %v11_c64, i32* %eax.global-to-local, align 4
  ret i32 %v11_c64

; uselistorder directives
  uselistorder i32 %v11_c64, { 1, 0 }
  uselistorder i32 %tmp93, { 1, 0 }
}

define i32 @function_c70() local_unnamed_addr {
dec_label_pc_c70:
  %eax.global-to-local = alloca i32, align 4
  %edx.global-to-local = alloca i32, align 4
  %esi.global-to-local = alloca i32, align 4
  %tmp93 = call i32 @__decompiler_undefined_function_0()
  %v2_c75 = inttoptr i32 %tmp93 to i32*
  store i32 2128119805, i32* %v2_c75, align 4
  %v2_c7e = load i32, i32* %esi.global-to-local, align 4
  %v3_c7e = add i32 %v2_c7e, 4
  %v4_c7e = inttoptr i32 %v3_c7e to i16*
  store i16 17387, i16* %v4_c7e, align 2
  store i32 0, i32* %eax.global-to-local, align 4
  br label %dec_label_pc_c88

dec_label_pc_c88:                                 ; preds = %dec_label_pc_c88, %dec_label_pc_c70
  %v3_c8c = phi i32 [ %v1_c90, %dec_label_pc_c88 ], [ 0, %dec_label_pc_c70 ]
  %v0_c88 = load i32, i32* %edx.global-to-local, align 4
  %v3_c88 = add i32 %v0_c88, %v3_c8c
  %v4_c88 = inttoptr i32 %v3_c88 to i8*
  %v5_c88 = load i8, i8* %v4_c88, align 1
  %v2_c8c = load i32, i32* %esi.global-to-local, align 4
  %v5_c8c = add i32 %v3_c8c, ptrtoint (i32* @global_var_6.428 to i32)
  %v6_c8c = add i32 %v5_c8c, %v2_c8c
  %v7_c8c = inttoptr i32 %v6_c8c to i8*
  store i8 %v5_c88, i8* %v7_c8c, align 1
  %v0_c90 = load i32, i32* %eax.global-to-local, align 4
  %v1_c90 = add i32 %v0_c90, 1
  store i32 %v1_c90, i32* %eax.global-to-local, align 4
  %v10_c93 = icmp eq i32 %v0_c90, 9
  %v1_c96 = icmp eq i1 %v10_c93, false
  br i1 %v1_c96, label %dec_label_pc_c88, label %dec_label_pc_c98

dec_label_pc_c98:                                 ; preds = %dec_label_pc_c88
  store i32 1, i32* @eax, align 4
  %v0_c9d = call i32 @function_c4d()
  store i32 %v0_c9d, i32* %eax.global-to-local, align 4
  ret i32 %v0_c9d

; uselistorder directives
  uselistorder i32 %v1_c90, { 1, 0 }
}

define i32 @function_c9f(i32 %arg1) local_unnamed_addr {
dec_label_pc_c9f:
  %tmp = load i32, i32* @eax, align 4
  ret i32 %tmp
}

define i32 @function_ca4(i32 %arg1) local_unnamed_addr {
dec_label_pc_ca4:
  %v3_ca4 = load i32, i32* @eax, align 4
  ret i32 %v3_ca4
}

define i32 @function_cc3() local_unnamed_addr {
dec_label_pc_cc3:
  %eax.global-to-local = alloca i32, align 4
  %v0_cc3 = load i32, i32* %eax.global-to-local, align 4
  ret i32 %v0_cc3
}

define i32 @function_cd4() local_unnamed_addr {
dec_label_pc_cd4:
  ret i32 0
}

define void @CNetAddr(i32 %this) local_unnamed_addr {
dec_label_pc_ce0:
  call void @_ZN8CNetAddr4InitEv(i32 612665600)
  ret void
}

define void @CNetAddr.409(i32 %this, i32 %ipv4Addr) local_unnamed_addr {
dec_label_pc_d20:
  %eax.global-to-local = alloca i32, align 4
  store i32 %this, i32* %eax.global-to-local, align 4
  %v2_d3a = inttoptr i32 %this to i32*
  store i32 0, i32* %v2_d3a, align 4
  %v1_d42 = load i32, i32* %eax.global-to-local, align 4
  %v2_d42 = add i32 %v1_d42, 4
  %v3_d42 = inttoptr i32 %v2_d42 to i32*
  store i32 0, i32* %v3_d42, align 4
  %v1_d4b = load i32, i32* %eax.global-to-local, align 4
  %v2_d4b = add i32 %v1_d4b, 8
  %v3_d4b = inttoptr i32 %v2_d4b to i32*
  store i32 -65536, i32* %v3_d4b, align 4
  %v1_d52 = inttoptr i32 %ipv4Addr to i32*
  %v2_d52 = load i32, i32* %v1_d52, align 4
  %v1_d54 = load i32, i32* %eax.global-to-local, align 4
  %v2_d54 = add i32 %v1_d54, ptrtoint (i32* @global_var_c.427 to i32)
  %v3_d54 = inttoptr i32 %v2_d54 to i32*
  store i32 %v2_d52, i32* %v3_d54, align 4
  store i32 0, i32* %eax.global-to-local, align 4
  ret void

; uselistorder directives
  uselistorder i32 %this, { 1, 0 }
}

define void @CNetAddr.410(i32 %this, i32 %ipv6Addr) local_unnamed_addr {
dec_label_pc_d70:
  %eax.global-to-local = alloca i32, align 4
  %edx.global-to-local = alloca i32, align 4
  store i32 %ipv6Addr, i32* %edx.global-to-local, align 4
  store i32 %this, i32* %eax.global-to-local, align 4
  %v1_d88 = inttoptr i32 %ipv6Addr to i32*
  %v2_d88 = load i32, i32* %v1_d88, align 4
  %v2_d8a = inttoptr i32 %this to i32*
  store i32 %v2_d88, i32* %v2_d8a, align 4
  %v0_d8c = load i32, i32* %edx.global-to-local, align 4
  %v1_d8c = add i32 %v0_d8c, 4
  %v2_d8c = inttoptr i32 %v1_d8c to i32*
  %v3_d8c = load i32, i32* %v2_d8c, align 4
  %v1_d8f = load i32, i32* %eax.global-to-local, align 4
  %v2_d8f = add i32 %v1_d8f, 4
  %v3_d8f = inttoptr i32 %v2_d8f to i32*
  store i32 %v3_d8c, i32* %v3_d8f, align 4
  %v0_d92 = load i32, i32* %edx.global-to-local, align 4
  %v1_d92 = add i32 %v0_d92, 8
  %v2_d92 = inttoptr i32 %v1_d92 to i32*
  %v3_d92 = load i32, i32* %v2_d92, align 4
  %v1_d95 = load i32, i32* %eax.global-to-local, align 4
  %v2_d95 = add i32 %v1_d95, 8
  %v3_d95 = inttoptr i32 %v2_d95 to i32*
  store i32 %v3_d92, i32* %v3_d95, align 4
  %v0_d98 = load i32, i32* %edx.global-to-local, align 4
  %v1_d98 = add i32 %v0_d98, ptrtoint (i32* @global_var_c.427 to i32)
  %v2_d98 = inttoptr i32 %v1_d98 to i32*
  %v3_d98 = load i32, i32* %v2_d98, align 4
  store i32 %v3_d98, i32* %edx.global-to-local, align 4
  %v1_d9b = load i32, i32* %eax.global-to-local, align 4
  %v2_d9b = add i32 %v1_d9b, ptrtoint (i32* @global_var_c.427 to i32)
  %v3_d9b = inttoptr i32 %v2_d9b to i32*
  store i32 %v3_d98, i32* %v3_d9b, align 4
  store i32 0, i32* %eax.global-to-local, align 4
  ret void

; uselistorder directives
  uselistorder i32 %this, { 1, 0 }
}

define void @_ZNK8CNetAddr7GetByteEi(i32 %this, i32 %n) local_unnamed_addr {
dec_label_pc_dc0:
  ret void
}

define void @_ZNK8CNetAddr6IsIPv4Ev(i32 %this) local_unnamed_addr {
dec_label_pc_e00:
  ret void
}

define i32 @function_e2a(i32 %arg1) local_unnamed_addr {
dec_label_pc_e2a:
  %eax.global-to-local = alloca i32, align 4
  %ebp.global-to-local = alloca i32, align 4
  %v0_e2a = load i32, i32* %ebp.global-to-local, align 4
  %v1_e2a = add i32 %v0_e2a, -1064038464
  %v2_e2a = inttoptr i32 %v1_e2a to i32*
  %v3_e2a = load i32, i32* %v2_e2a, align 4
  %v4_e2a = add i32 %v3_e2a, 1
  store i32 %v4_e2a, i32* %v2_e2a, align 4
  %v3_e34 = icmp eq i32 %arg1, 612665600
  %v1_e3b = icmp eq i1 %v3_e34, false
  br i1 %v1_e3b, label %dec_label_pc_e41, label %dec_label_pc_e3d

dec_label_pc_e3d:                                 ; preds = %dec_label_pc_e2a
  %v0_e40 = load i32, i32* %eax.global-to-local, align 4
  ret i32 %v0_e40

dec_label_pc_e41:                                 ; preds = %dec_label_pc_e2a
  %v1_e40 = load i32, i32* %eax.global-to-local, align 4
  ret i32 %v1_e40
}

define void @_ZNK8CNetAddr9IsRFC1918Ev(i32 %this) local_unnamed_addr {
dec_label_pc_e50:
  %ebx.global-to-local = alloca i32, align 4
  store i32 %this, i32* %ebx.global-to-local, align 4
  call void @_ZNK8CNetAddr6IsIPv4Ev(i32 %this)
  br i1 icmp eq (i8 ptrtoint (i32* @0 to i8), i8 0), label %dec_label_pc_e90, label %dec_label_pc_e72

dec_label_pc_e72:                                 ; preds = %dec_label_pc_e50
  %v0_e72 = load i32, i32* %ebx.global-to-local, align 4
  %v1_e72 = add i32 %v0_e72, ptrtoint (i32* @global_var_c.427 to i32)
  %v2_e72 = inttoptr i32 %v1_e72 to i8*
  %v3_e72 = load i8, i8* %v2_e72, align 1
  %v11_e7b = icmp eq i8 %v3_e72, 10
  br i1 %v11_e7b, label %dec_label_pc_e90, label %dec_label_pc_e7f

dec_label_pc_e7f:                                 ; preds = %dec_label_pc_e72
  %v10_e7f = icmp eq i8 %v3_e72, -64
  br i1 %v10_e7f, label %dec_label_pc_eb8, label %dec_label_pc_e83

dec_label_pc_e83:                                 ; preds = %dec_label_pc_e7f
  %v11_e85 = icmp eq i8 %v3_e72, -84
  br i1 %v11_e85, label %dec_label_pc_ea8, label %dec_label_pc_e90

dec_label_pc_e90:                                 ; preds = %dec_label_pc_e83, %dec_label_pc_eb8, %dec_label_pc_eb0, %dec_label_pc_ea8, %dec_label_pc_e72, %dec_label_pc_e50
  ret void

dec_label_pc_ea8:                                 ; preds = %dec_label_pc_e83
  %v1_ea8 = add i32 %v0_e72, ptrtoint (i32* @global_var_d.436 to i32)
  %v2_ea8 = inttoptr i32 %v1_ea8 to i8*
  %v3_ea8 = load i8, i8* %v2_ea8, align 1
  %tmp11 = icmp ult i8 %v3_ea8, 16
  br i1 %tmp11, label %dec_label_pc_e90, label %dec_label_pc_eb0

dec_label_pc_eb0:                                 ; preds = %dec_label_pc_ea8
  br label %dec_label_pc_e90

dec_label_pc_eb8:                                 ; preds = %dec_label_pc_e7f
  br label %dec_label_pc_e90

; uselistorder directives
  uselistorder label %dec_label_pc_e90, { 1, 2, 3, 0, 4, 5 }
}

define void @_ZNK8CNetAddr9IsRFC3927Ev(i32 %this) local_unnamed_addr {
dec_label_pc_ed0:
  %ebx.global-to-local = alloca i32, align 4
  store i32 %this, i32* %ebx.global-to-local, align 4
  call void @_ZNK8CNetAddr6IsIPv4Ev(i32 %this)
  br i1 icmp eq (i8 ptrtoint (i32* @0 to i8), i8 0), label %dec_label_pc_ef8, label %dec_label_pc_ef2

dec_label_pc_ef2:                                 ; preds = %dec_label_pc_ed0
  %v0_ef2 = load i32, i32* %ebx.global-to-local, align 4
  %v1_ef2 = add i32 %v0_ef2, ptrtoint (i32* @global_var_c.427 to i32)
  %v2_ef2 = inttoptr i32 %v1_ef2 to i8*
  %v3_ef2 = load i8, i8* %v2_ef2, align 1
  %v13_ef2 = icmp eq i8 %v3_ef2, -87
  br i1 %v13_ef2, label %dec_label_pc_f10, label %dec_label_pc_ef8

dec_label_pc_ef8:                                 ; preds = %dec_label_pc_f10, %dec_label_pc_ef2, %dec_label_pc_ed0
  ret void

dec_label_pc_f10:                                 ; preds = %dec_label_pc_ef2
  br label %dec_label_pc_ef8
}

define i32 @function_f1d() local_unnamed_addr {
dec_label_pc_f1d:
  %eax.global-to-local = alloca i32, align 4
  %v0_f1d = load i32, i32* %eax.global-to-local, align 4
  ret i32 %v0_f1d
}

define void @_ZNK8CNetAddr9IsRFC3849Ev(i32 %this) local_unnamed_addr {
dec_label_pc_f20:
  %v1_f33 = inttoptr i32 %this to i8*
  %v2_f33 = load i8, i8* %v1_f33, align 1
  %v11_f33 = icmp eq i8 %v2_f33, 32
  br i1 %v11_f33, label %dec_label_pc_f50, label %dec_label_pc_f38

dec_label_pc_f38:                                 ; preds = %dec_label_pc_f5c, %dec_label_pc_f56, %dec_label_pc_f50, %dec_label_pc_f20
  ret void

dec_label_pc_f50:                                 ; preds = %dec_label_pc_f20
  %v1_f50 = add i32 %this, 1
  %v2_f50 = inttoptr i32 %v1_f50 to i8*
  %v3_f50 = load i8, i8* %v2_f50, align 1
  %v13_f50 = icmp eq i8 %v3_f50, 1
  %v1_f54 = icmp eq i1 %v13_f50, false
  br i1 %v1_f54, label %dec_label_pc_f38, label %dec_label_pc_f56

dec_label_pc_f56:                                 ; preds = %dec_label_pc_f50
  %v1_f56 = add i32 %this, ptrtoint (i16** @global_var_2.437 to i32)
  %v2_f56 = inttoptr i32 %v1_f56 to i8*
  %v3_f56 = load i8, i8* %v2_f56, align 1
  %v13_f56 = icmp eq i8 %v3_f56, 13
  %v1_f5a = icmp eq i1 %v13_f56, false
  br i1 %v1_f5a, label %dec_label_pc_f38, label %dec_label_pc_f5c

dec_label_pc_f5c:                                 ; preds = %dec_label_pc_f56
  br label %dec_label_pc_f38
}

define void @_ZNK8CNetAddr9IsRFC3964Ev(i32 %this) local_unnamed_addr {
dec_label_pc_f70:
  %v1_f83 = inttoptr i32 %this to i8*
  %v2_f83 = load i8, i8* %v1_f83, align 1
  %v11_f83 = icmp eq i8 %v2_f83, 32
  br i1 %v11_f83, label %dec_label_pc_fa0, label %dec_label_pc_f88

dec_label_pc_f88:                                 ; preds = %dec_label_pc_fa0, %dec_label_pc_f70
  ret void

dec_label_pc_fa0:                                 ; preds = %dec_label_pc_f70
  br label %dec_label_pc_f88
}

define i32 @function_fad() local_unnamed_addr {
dec_label_pc_fad:
  %eax.global-to-local = alloca i32, align 4
  %v0_fad = load i32, i32* %eax.global-to-local, align 4
  ret i32 %v0_fad
}

define void @_ZNK8CNetAddr9IsRFC6052Ev(i32 %this) local_unnamed_addr {
dec_label_pc_fb0:
  ret void
}

define i32 @function_fda(i32 %arg1) local_unnamed_addr {
dec_label_pc_fda:
  %eax.global-to-local = alloca i32, align 4
  %ebp.global-to-local = alloca i32, align 4
  %v0_fda = load i32, i32* %ebp.global-to-local, align 4
  %v1_fda = add i32 %v0_fda, -1064038464
  %v2_fda = inttoptr i32 %v1_fda to i32*
  %v3_fda = load i32, i32* %v2_fda, align 4
  %v4_fda = add i32 %v3_fda, 1
  store i32 %v4_fda, i32* %v2_fda, align 4
  %v3_fe4 = icmp eq i32 %arg1, 612665600
  %v1_feb = icmp eq i1 %v3_fe4, false
  br i1 %v1_feb, label %dec_label_pc_ff1, label %dec_label_pc_fed

dec_label_pc_fed:                                 ; preds = %dec_label_pc_fda
  %v0_ff0 = load i32, i32* %eax.global-to-local, align 4
  ret i32 %v0_ff0

dec_label_pc_ff1:                                 ; preds = %dec_label_pc_fda
  %v1_ff0 = load i32, i32* %eax.global-to-local, align 4
  ret i32 %v1_ff0
}

define void @_ZNK8CNetAddr9IsRFC4380Ev(i32 %this) local_unnamed_addr {
dec_label_pc_1000:
  %v1_1013 = inttoptr i32 %this to i8*
  %v2_1013 = load i8, i8* %v1_1013, align 1
  %v11_1013 = icmp eq i8 %v2_1013, 32
  br i1 %v11_1013, label %dec_label_pc_1030, label %dec_label_pc_1018

dec_label_pc_1018:                                ; preds = %dec_label_pc_103c, %dec_label_pc_1036, %dec_label_pc_1030, %dec_label_pc_1000
  ret void

dec_label_pc_1030:                                ; preds = %dec_label_pc_1000
  %v1_1030 = add i32 %this, 1
  %v2_1030 = inttoptr i32 %v1_1030 to i8*
  %v3_1030 = load i8, i8* %v2_1030, align 1
  %v13_1030 = icmp eq i8 %v3_1030, 1
  %v1_1034 = icmp eq i1 %v13_1030, false
  br i1 %v1_1034, label %dec_label_pc_1018, label %dec_label_pc_1036

dec_label_pc_1036:                                ; preds = %dec_label_pc_1030
  %v1_1036 = add i32 %this, ptrtoint (i16** @global_var_2.437 to i32)
  %v2_1036 = inttoptr i32 %v1_1036 to i8*
  %v3_1036 = load i8, i8* %v2_1036, align 1
  %v10_1036 = icmp eq i8 %v3_1036, 0
  %v1_103a = icmp eq i1 %v10_1036, false
  br i1 %v1_103a, label %dec_label_pc_1018, label %dec_label_pc_103c

dec_label_pc_103c:                                ; preds = %dec_label_pc_1036
  br label %dec_label_pc_1018
}

define void @_ZNK8CNetAddr9IsRFC4862Ev(i32 %this) local_unnamed_addr {
dec_label_pc_1050:
  ret void
}

define i32 @function_107a(i32 %arg1) local_unnamed_addr {
dec_label_pc_107a:
  %eax.global-to-local = alloca i32, align 4
  %ebp.global-to-local = alloca i32, align 4
  %v0_107a = load i32, i32* %ebp.global-to-local, align 4
  %v1_107a = add i32 %v0_107a, -1064038464
  %v2_107a = inttoptr i32 %v1_107a to i32*
  %v3_107a = load i32, i32* %v2_107a, align 4
  %v4_107a = add i32 %v3_107a, 1
  store i32 %v4_107a, i32* %v2_107a, align 4
  %v3_1084 = icmp eq i32 %arg1, 612665600
  %v1_108b = icmp eq i1 %v3_1084, false
  br i1 %v1_108b, label %dec_label_pc_1091, label %dec_label_pc_108d

dec_label_pc_108d:                                ; preds = %dec_label_pc_107a
  %v0_1090 = load i32, i32* %eax.global-to-local, align 4
  ret i32 %v0_1090

dec_label_pc_1091:                                ; preds = %dec_label_pc_107a
  %v1_1090 = load i32, i32* %eax.global-to-local, align 4
  ret i32 %v1_1090
}

define void @_ZNK8CNetAddr9IsRFC4193Ev(i32 %this) local_unnamed_addr {
dec_label_pc_10a0:
  ret void
}

define void @_ZNK8CNetAddr9IsRFC6145Ev(i32 %this) local_unnamed_addr {
dec_label_pc_10e0:
  ret void
}

define i32 @function_110a(i32 %arg1) local_unnamed_addr {
dec_label_pc_110a:
  %eax.global-to-local = alloca i32, align 4
  %ebp.global-to-local = alloca i32, align 4
  %v0_110a = load i32, i32* %ebp.global-to-local, align 4
  %v1_110a = add i32 %v0_110a, -1064038464
  %v2_110a = inttoptr i32 %v1_110a to i32*
  %v3_110a = load i32, i32* %v2_110a, align 4
  %v4_110a = add i32 %v3_110a, 1
  store i32 %v4_110a, i32* %v2_110a, align 4
  %v3_1114 = icmp eq i32 %arg1, 612665600
  %v1_111b = icmp eq i1 %v3_1114, false
  br i1 %v1_111b, label %dec_label_pc_1121, label %dec_label_pc_111d

dec_label_pc_111d:                                ; preds = %dec_label_pc_110a
  %v0_1120 = load i32, i32* %eax.global-to-local, align 4
  ret i32 %v0_1120

dec_label_pc_1121:                                ; preds = %dec_label_pc_110a
  %v1_1120 = load i32, i32* %eax.global-to-local, align 4
  ret i32 %v1_1120
}

define void @_ZNK8CNetAddr9IsRFC4843Ev(i32 %this) local_unnamed_addr {
dec_label_pc_1130:
  %v1_1143 = inttoptr i32 %this to i8*
  %v2_1143 = load i8, i8* %v1_1143, align 1
  %v11_1143 = icmp eq i8 %v2_1143, 32
  br i1 %v11_1143, label %dec_label_pc_1160, label %dec_label_pc_1148

dec_label_pc_1148:                                ; preds = %dec_label_pc_116c, %dec_label_pc_1166, %dec_label_pc_1160, %dec_label_pc_1130
  ret void

dec_label_pc_1160:                                ; preds = %dec_label_pc_1130
  %v1_1160 = add i32 %this, 1
  %v2_1160 = inttoptr i32 %v1_1160 to i8*
  %v3_1160 = load i8, i8* %v2_1160, align 1
  %v13_1160 = icmp eq i8 %v3_1160, 1
  %v1_1164 = icmp eq i1 %v13_1160, false
  br i1 %v1_1164, label %dec_label_pc_1148, label %dec_label_pc_1166

dec_label_pc_1166:                                ; preds = %dec_label_pc_1160
  %v1_1166 = add i32 %this, ptrtoint (i16** @global_var_2.437 to i32)
  %v2_1166 = inttoptr i32 %v1_1166 to i8*
  %v3_1166 = load i8, i8* %v2_1166, align 1
  %v10_1166 = icmp eq i8 %v3_1166, 0
  %v1_116a = icmp eq i1 %v10_1166, false
  br i1 %v1_116a, label %dec_label_pc_1148, label %dec_label_pc_116c

dec_label_pc_116c:                                ; preds = %dec_label_pc_1166
  br label %dec_label_pc_1148
}

define void @_ZNK8CNetAddr5IsTorEv(i32 %this) local_unnamed_addr {
dec_label_pc_1190:
  ret void
}

define i32 @function_11ba(i32 %arg1) local_unnamed_addr {
dec_label_pc_11ba:
  %eax.global-to-local = alloca i32, align 4
  %ebp.global-to-local = alloca i32, align 4
  %v0_11ba = load i32, i32* %ebp.global-to-local, align 4
  %v1_11ba = add i32 %v0_11ba, -1064038464
  %v2_11ba = inttoptr i32 %v1_11ba to i32*
  %v3_11ba = load i32, i32* %v2_11ba, align 4
  %v4_11ba = add i32 %v3_11ba, 1
  store i32 %v4_11ba, i32* %v2_11ba, align 4
  %v3_11c4 = icmp eq i32 %arg1, 612665600
  %v1_11cb = icmp eq i1 %v3_11c4, false
  br i1 %v1_11cb, label %dec_label_pc_11d1, label %dec_label_pc_11cd

dec_label_pc_11cd:                                ; preds = %dec_label_pc_11ba
  %v0_11d0 = load i32, i32* %eax.global-to-local, align 4
  ret i32 %v0_11d0

dec_label_pc_11d1:                                ; preds = %dec_label_pc_11ba
  %v1_11d0 = load i32, i32* %eax.global-to-local, align 4
  ret i32 %v1_11d0
}

define void @_ZNK8CNetAddr6IsIPv6Ev(i32 %this) local_unnamed_addr {
dec_label_pc_11e0:
  %ebx.global-to-local = alloca i32, align 4
  store i32 %this, i32* %ebx.global-to-local, align 4
  call void @_ZNK8CNetAddr6IsIPv4Ev(i32 %this)
  br i1 icmp ne (i8 ptrtoint (i32* @0 to i8), i8 0), label %dec_label_pc_120f, label %dec_label_pc_1202

dec_label_pc_1202:                                ; preds = %dec_label_pc_11e0
  %v0_1202 = load i32, i32* %ebx.global-to-local, align 4
  call void @_ZNK8CNetAddr5IsTorEv(i32 %v0_1202)
  br label %dec_label_pc_120f

dec_label_pc_120f:                                ; preds = %dec_label_pc_1202, %dec_label_pc_11e0
  ret void
}

define void @_ZNK8CNetAddr7IsLocalEv(i32 %this) local_unnamed_addr {
dec_label_pc_1230:
  %v0_1230 = load i32, i32* @ebx, align 4
  store i32 %this, i32* @ebx, align 4
  call void @_ZNK8CNetAddr6IsIPv4Ev(i32 %this)
  br i1 icmp eq (i8 and (i8 ptrtoint (i32* @0 to i8), i8 ptrtoint (i32* @0 to i8)), i8 0), label %dec_label_pc_1280, label %dec_label_pc_1250

dec_label_pc_1250:                                ; preds = %dec_label_pc_1230
  %v0_1250 = load i32, i32* @ebx, align 4
  %v1_1250 = add i32 %v0_1250, ptrtoint (i32* @global_var_c.427 to i32)
  %v2_1250 = inttoptr i32 %v1_1250 to i8*
  %v3_1250 = load i8, i8* %v2_1250, align 1
  %v11_1259 = icmp eq i8 %v3_1250, 127
  br i1 %v11_1259, label %dec_label_pc_1268, label %dec_label_pc_125e

dec_label_pc_125e:                                ; preds = %dec_label_pc_1250
  %v5_125e = icmp eq i8 %v3_1250, 0
  %v1_1260 = icmp eq i1 %v5_125e, false
  br i1 %v1_1260, label %dec_label_pc_1280, label %dec_label_pc_1268

dec_label_pc_1268:                                ; preds = %dec_label_pc_125e, %dec_label_pc_1250
  store i32 %v0_1230, i32* @ebx, align 4
  ret void

dec_label_pc_1280:                                ; preds = %dec_label_pc_1230, %dec_label_pc_125e
  ret void

; uselistorder directives
  uselistorder i8 %v3_1250, { 1, 0 }
  uselistorder label %dec_label_pc_1280, { 1, 0 }
}

define i32 @function_1297() local_unnamed_addr {
dec_label_pc_1297:
  %eax.global-to-local = alloca i32, align 4
  %tmp91 = call i32 @__decompiler_undefined_function_0()
  %v1_1297 = add i32 %tmp91, -1064038464
  %v2_1297 = inttoptr i32 %v1_1297 to i32*
  %v3_1297 = load i32, i32* %v2_1297, align 4
  %v4_1297 = add i32 %v3_1297, 1
  store i32 %v4_1297, i32* %v2_1297, align 4
  %v0_129d = load i32, i32* %eax.global-to-local, align 4
  ret i32 %v0_129d
}

define i32 @function_129f() local_unnamed_addr {
dec_label_pc_129f:
  %tmp = load i32, i32* @eax, align 4
  ret i32 %tmp
}

define void @_ZNK8CNetAddr11IsMulticastEv(i32 %this) local_unnamed_addr {
dec_label_pc_12b0:
  %ebx.global-to-local = alloca i32, align 4
  %v0_12b0 = load i32, i32* %ebx.global-to-local, align 4
  store i32 %this, i32* %ebx.global-to-local, align 4
  call void @_ZNK8CNetAddr6IsIPv4Ev(i32 %this)
  br i1 icmp eq (i8 and (i8 ptrtoint (i32* @0 to i8), i8 ptrtoint (i32* @0 to i8)), i8 0), label %dec_label_pc_12e7, label %dec_label_pc_12d0

dec_label_pc_12d0:                                ; preds = %dec_label_pc_12b0
  %v1_12d0 = add i32 %this, ptrtoint (i32* @global_var_c.427 to i32)
  %v2_12d0 = inttoptr i32 %v1_12d0 to i8*
  %v3_12d0 = load i8, i8* %v2_12d0, align 1
  %v1_12d9 = and i8 %v3_12d0, -16
  %v9_12df = icmp eq i8 %v1_12d9, -32
  br i1 %v9_12df, label %dec_label_pc_12ed, label %dec_label_pc_12e7

dec_label_pc_12e7:                                ; preds = %dec_label_pc_12b0, %dec_label_pc_12d0
  br label %dec_label_pc_12ed

dec_label_pc_12ed:                                ; preds = %dec_label_pc_12e7, %dec_label_pc_12d0
  store i32 %v0_12b0, i32* %ebx.global-to-local, align 4
  ret void

; uselistorder directives
  uselistorder label %dec_label_pc_12e7, { 1, 0 }
}

define void @_ZNK8CNetAddr7IsValidEv(i32 %this) local_unnamed_addr {
dec_label_pc_1310:
  store i32 0, i32* @esi, align 4
  %v5_134b = call i32 @function_13a8(i32 %this, i32 ptrtoint (i32* @global_var_6b7c.444 to i32), i32 ptrtoint (i8** @global_var_9.443 to i32))
  ret void
}

define i32 @function_1392() local_unnamed_addr {
dec_label_pc_1392:
  %tmp = load i32, i32* @eax, align 4
  ret i32 %tmp
}

define i32 @function_13a8(i32 %arg1, i32 %arg2, i32 %arg3) local_unnamed_addr {
dec_label_pc_13a8:
  %v3_13ac = icmp eq i32 %arg1, 612665600
  %v0_13b3 = load i32, i32* @esi, align 4
  store i32 %v0_13b3, i32* @eax, align 4
  %v1_13b5 = icmp eq i1 %v3_13ac, false
  br i1 %v1_13b5, label %bb, label %dec_label_pc_13bb

bb:                                               ; preds = %dec_label_pc_13a8
  %v2_13b5 = call i32 @function_1445()
  br label %dec_label_pc_13bb

dec_label_pc_13bb:                                ; preds = %bb, %dec_label_pc_13a8
  %v0_13ca = phi i32 [ %v2_13b5, %bb ], [ %v0_13b3, %dec_label_pc_13a8 ]
  store i32 %arg2, i32* @ebx, align 4
  store i32 %arg3, i32* @esi, align 4
  ret i32 %v0_13ca
}

define i32 @function_13d1() local_unnamed_addr {
dec_label_pc_13d1:
  %eax.global-to-local = alloca i32, align 4
  %v0_13d1 = load i32, i32* %eax.global-to-local, align 4
  ret i32 %v0_13d1
}

define i32 @function_1414() local_unnamed_addr {
dec_label_pc_1414:
  %edx.global-to-local = alloca i32, align 4
  %tmp91 = call i32 @__decompiler_undefined_function_0()
  %v1_1414 = add i32 %tmp91, -1030418496
  %v2_1414 = inttoptr i32 %v1_1414 to i32*
  %v3_1414 = load i32, i32* %v2_1414, align 4
  %v4_1414 = add i32 %v3_1414, 1
  store i32 %v4_1414, i32* %v2_1414, align 4
  %v0_141a = load i32, i32* %edx.global-to-local, align 4
  store i32 %v0_141a, i32* @esi, align 4
  %v3_141c = call i32 @function_13a8(i32 ptrtoint (i32* @0 to i32), i32 ptrtoint (i32* @0 to i32), i32 ptrtoint (i32* @0 to i32))
  ret i32 %v3_141c
}

define i32 @function_1420() local_unnamed_addr {
dec_label_pc_1420:
  %ebx.global-to-local = alloca i32, align 4
  %v0_1420 = load i32, i32* %ebx.global-to-local, align 4
  %v1_1420 = add i32 %v0_1420, 1
  %v2_1420 = inttoptr i32 %v1_1420 to i8*
  %v3_1420 = load i8, i8* %v2_1420, align 1
  %v13_1420 = icmp eq i8 %v3_1420, 1
  %v1_1424 = icmp eq i1 %v13_1420, false
  br i1 %v1_1424, label %bb, label %dec_label_pc_142a

bb:                                               ; preds = %dec_label_pc_1420
  %v2_1424 = call i32 @function_1392()
  store i32 %v2_1424, i32* @eax, align 4
  %v0_142a.pre = load i32, i32* %ebx.global-to-local, align 4
  br label %dec_label_pc_142a

dec_label_pc_142a:                                ; preds = %bb, %dec_label_pc_1420
  %v0_142a = phi i32 [ %v0_142a.pre, %bb ], [ %v0_1420, %dec_label_pc_1420 ]
  %v1_142a = add i32 %v0_142a, ptrtoint (i16** @global_var_2.437 to i32)
  %v2_142a = inttoptr i32 %v1_142a to i8*
  %v3_142a = load i8, i8* %v2_142a, align 1
  %v13_142a = icmp eq i8 %v3_142a, 13
  %v1_142e = icmp eq i1 %v13_142a, false
  br i1 %v1_142e, label %bb100, label %dec_label_pc_1434

bb100:                                            ; preds = %dec_label_pc_142a
  %v2_142e = call i32 @function_1392()
  store i32 %v2_142e, i32* @eax, align 4
  %v0_1434.pre = load i32, i32* %ebx.global-to-local, align 4
  br label %dec_label_pc_1434

dec_label_pc_1434:                                ; preds = %bb100, %dec_label_pc_142a
  %v0_1434 = phi i32 [ %v0_1434.pre, %bb100 ], [ %v0_142a, %dec_label_pc_142a ]
  %v1_1434 = add i32 %v0_1434, 3
  %v2_1434 = inttoptr i32 %v1_1434 to i8*
  %v3_1434 = load i8, i8* %v2_1434, align 1
  %v13_1434 = icmp eq i8 %v3_1434, -72
  %v1_1438 = icmp eq i1 %v13_1434, false
  br i1 %v1_1438, label %bb101, label %dec_label_pc_143e

bb101:                                            ; preds = %dec_label_pc_1434
  %v2_1438 = call i32 @function_1392()
  br label %dec_label_pc_143e

dec_label_pc_143e:                                ; preds = %bb101, %dec_label_pc_1434
  %v3_1440 = call i32 @function_13a8(i32 ptrtoint (i32* @0 to i32), i32 ptrtoint (i32* @0 to i32), i32 ptrtoint (i32* @0 to i32))
  ret i32 %v3_1440

; uselistorder directives
  uselistorder i32* %ebx.global-to-local, { 1, 0, 2 }
  uselistorder i32 (i32, i32, i32)* @function_13a8, { 2, 1, 0 }
  uselistorder i32 ()* @function_1392, { 2, 1, 0 }
}

define i32 @function_1445() local_unnamed_addr {
dec_label_pc_1445:
  %tmp = load i32, i32* @eax, align 4
  ret i32 %tmp
}

define void @_ZNK8CNetAddr10IsRoutableEv(i32 %this) local_unnamed_addr {
dec_label_pc_1450:
  %v0_1453 = load i32, i32* @ebx, align 4
  %v0_145b = load i32, i32* @esi, align 4
  call void @_ZNK8CNetAddr7IsValidEv(i32 %this)
  br i1 icmp eq (i8 and (i8 ptrtoint (i32* @0 to i8), i8 ptrtoint (i32* @0 to i8)), i8 0), label %dec_label_pc_1485, label %dec_label_pc_1479

dec_label_pc_1479:                                ; preds = %dec_label_pc_1450
  %v0_1479 = load i32, i32* @ebx, align 4
  call void @_ZNK8CNetAddr9IsRFC1918Ev(i32 %v0_1479)
  br label %dec_label_pc_1485

dec_label_pc_1485:                                ; preds = %dec_label_pc_1479, %dec_label_pc_1450
  store i32 %v0_1453, i32* @ebx, align 4
  store i32 %v0_145b, i32* @esi, align 4
  ret void
}

define void @_ZNK8CNetAddr10GetNetworkEv(i32 %this) local_unnamed_addr {
dec_label_pc_1530:
  %v0_1530 = load i32, i32* @ebx, align 4
  store i32 %this, i32* @ebx, align 4
  call void @_ZNK8CNetAddr10IsRoutableEv(i32 %this)
  br i1 icmp eq (i8 ptrtoint (i32* @0 to i8), i8 0), label %dec_label_pc_1572, label %dec_label_pc_1552

dec_label_pc_1552:                                ; preds = %dec_label_pc_1530
  %v0_1552 = load i32, i32* @ebx, align 4
  call void @_ZNK8CNetAddr6IsIPv4Ev(i32 %v0_1552)
  br i1 icmp ne (i8 and (i8 ptrtoint (i32* @0 to i8), i8 ptrtoint (i32* @0 to i8)), i8 0), label %dec_label_pc_1572, label %dec_label_pc_1563

dec_label_pc_1563:                                ; preds = %dec_label_pc_1552
  %v0_1563 = load i32, i32* @ebx, align 4
  call void @_ZNK8CNetAddr5IsTorEv(i32 %v0_1563)
  br label %dec_label_pc_1572

dec_label_pc_1572:                                ; preds = %dec_label_pc_1563, %dec_label_pc_1552, %dec_label_pc_1530
  store i32 %v0_1530, i32* @ebx, align 4
  ret void
}

define i32 @GetExtNetwork(i32 %addr) local_unnamed_addr {
dec_label_pc_1590:
  %v0_1593 = load i32, i32* @eax, align 4
  %v2_15a1 = icmp eq i32 %v0_1593, 0
  br i1 %v2_15a1, label %dec_label_pc_15b4, label %dec_label_pc_15ac

dec_label_pc_15ac:                                ; preds = %dec_label_pc_1590
  call void @_ZNK8CNetAddr10GetNetworkEv(i32 %v0_1593)
  br label %dec_label_pc_15b4

dec_label_pc_15b4:                                ; preds = %dec_label_pc_15ac, %dec_label_pc_1590
  %v0_15c4 = phi i32 [ ptrtoint (i32* @0 to i32), %dec_label_pc_15ac ], [ 4, %dec_label_pc_1590 ]
  ret i32 %v0_15c4

; uselistorder directives
  uselistorder i32 %v0_1593, { 1, 0 }
}

define i1 @_ZeqRK8CNetAddrS1_(i32 %a, i32 %b) local_unnamed_addr {
dec_label_pc_15f0:
  %tmp5 = urem i32 %a, 2
  %tmp6 = icmp ne i32 %tmp5, 0
  ret i1 %tmp6
}

define i32 @function_161a(i32 %arg1) local_unnamed_addr {
dec_label_pc_161a:
  %eax.global-to-local = alloca i32, align 4
  %ebp.global-to-local = alloca i32, align 4
  %v0_161a = load i32, i32* %ebp.global-to-local, align 4
  %v1_161a = add i32 %v0_161a, -1064038464
  %v2_161a = inttoptr i32 %v1_161a to i32*
  %v3_161a = load i32, i32* %v2_161a, align 4
  %v4_161a = add i32 %v3_161a, 1
  store i32 %v4_161a, i32* %v2_161a, align 4
  %v3_1624 = icmp eq i32 %arg1, 612665600
  %v1_162b = icmp eq i1 %v3_1624, false
  br i1 %v1_162b, label %dec_label_pc_1631, label %dec_label_pc_162d

dec_label_pc_162d:                                ; preds = %dec_label_pc_161a
  %v0_1630 = load i32, i32* %eax.global-to-local, align 4
  ret i32 %v0_1630

dec_label_pc_1631:                                ; preds = %dec_label_pc_161a
  %v1_1630 = load i32, i32* %eax.global-to-local, align 4
  ret i32 %v1_1630
}

define i1 @_ZneRK8CNetAddrS1_(i32 %a, i32 %b) local_unnamed_addr {
dec_label_pc_1640:
  %tmp5 = urem i32 %a, 2
  %tmp6 = icmp ne i32 %tmp5, 0
  ret i1 %tmp6
}

define i32 @function_166a(i32 %arg1) local_unnamed_addr {
dec_label_pc_166a:
  %eax.global-to-local = alloca i32, align 4
  %ebp.global-to-local = alloca i32, align 4
  %v0_166a = load i32, i32* %ebp.global-to-local, align 4
  %v1_166a = add i32 %v0_166a, -1063972928
  %v2_166a = inttoptr i32 %v1_166a to i32*
  %v3_166a = load i32, i32* %v2_166a, align 4
  %v4_166a = add i32 %v3_166a, 1
  store i32 %v4_166a, i32* %v2_166a, align 4
  %v3_1674 = icmp eq i32 %arg1, 612665600
  %v1_167b = icmp eq i1 %v3_1674, false
  br i1 %v1_167b, label %dec_label_pc_1681, label %dec_label_pc_167d

dec_label_pc_167d:                                ; preds = %dec_label_pc_166a
  %v0_1680 = load i32, i32* %eax.global-to-local, align 4
  ret i32 %v0_1680

dec_label_pc_1681:                                ; preds = %dec_label_pc_166a
  %v1_1680 = load i32, i32* %eax.global-to-local, align 4
  ret i32 %v1_1680
}

define i1 @_ZltRK8CNetAddrS1_(i32 %a, i32 %b) local_unnamed_addr {
dec_label_pc_1690:
  %tmp5 = urem i32 %a, 2
  %tmp6 = icmp ne i32 %tmp5, 0
  ret i1 %tmp6
}

define i32 @function_16ba() local_unnamed_addr {
dec_label_pc_16ba:
  %cf.global-to-local = alloca i1, align 1
  %ecx.global-to-local = alloca i32, align 4
  %edx.global-to-local = alloca i32, align 4
  %v0_16ba = load i32, i32* %ecx.global-to-local, align 4
  %v1_16ba = add i32 %v0_16ba, 1
  store i32 %v1_16ba, i32* %ecx.global-to-local, align 4
  %v0_16bc = call i32 @unknown_2454a1e0()
  %v2_16c1 = load i1, i1* %cf.global-to-local, align 1
  %v3_16c1 = zext i1 %v2_16c1 to i32
  %v4_16c1 = add i32 %v0_16bc, sub (i32 0, i32 zext (i8 ptrtoint (i8* @global_var_65.446 to i8) to i32))
  %v5_16c1 = add i32 %v4_16c1, %v3_16c1
  %v31_16c1 = urem i32 %v5_16c1, 256
  %v33_16c1 = and i32 %v0_16bc, -256
  %v34_16c1 = or i32 %v31_16c1, %v33_16c1
  %v0_16c3 = load i32, i32* %edx.global-to-local, align 4
  %v2_16c3 = xor i32 %v0_16c3, 612665600
  store i1 false, i1* %cf.global-to-local, align 1
  %v3_16c3 = icmp eq i32 %v2_16c3, 0
  store i32 %v2_16c3, i32* %edx.global-to-local, align 4
  %v1_16c9 = icmp eq i1 %v3_16c3, false
  br i1 %v1_16c9, label %dec_label_pc_16cf, label %dec_label_pc_16cb

dec_label_pc_16cb:                                ; preds = %dec_label_pc_16ba
  %v0_16cb = load i32, i32* @esp, align 4
  %v5_16cb = icmp ugt i32 %v0_16cb, -45
  store i1 %v5_16cb, i1* %cf.global-to-local, align 1
  ret i32 %v34_16c1

dec_label_pc_16cf:                                ; preds = %dec_label_pc_16ba
  ret i32 %v34_16c1

; uselistorder directives
  uselistorder i32 %v0_16bc, { 1, 0 }
}

define void @_ZNK8CNetAddr9GetInAddrEP7in_addr(i32 %this, i32 %pipv4Addr) local_unnamed_addr {
dec_label_pc_16e0:
  %ebx.global-to-local = alloca i32, align 4
  %esi.global-to-local = alloca i32, align 4
  store i32 %this, i32* %ebx.global-to-local, align 4
  store i32 %pipv4Addr, i32* %esi.global-to-local, align 4
  call void @_ZNK8CNetAddr6IsIPv4Ev(i32 %this)
  br i1 icmp eq (i8 ptrtoint (i32* @0 to i8), i8 0), label %dec_label_pc_1717, label %dec_label_pc_170d

dec_label_pc_170d:                                ; preds = %dec_label_pc_16e0
  %v0_170d = load i32, i32* %ebx.global-to-local, align 4
  %v1_170d = add i32 %v0_170d, ptrtoint (i32* @global_var_c.427 to i32)
  %v2_170d = inttoptr i32 %v1_170d to i32*
  %v3_170d = load i32, i32* %v2_170d, align 4
  %v1_1715 = load i32, i32* %esi.global-to-local, align 4
  %v2_1715 = inttoptr i32 %v1_1715 to i32*
  store i32 %v3_170d, i32* %v2_1715, align 4
  br label %dec_label_pc_1717

dec_label_pc_1717:                                ; preds = %dec_label_pc_170d, %dec_label_pc_16e0
  ret void
}

define void @_ZNK8CNetAddr10GetIn6AddrEP8in6_addr(i32 %this, i32 %pipv6Addr) local_unnamed_addr {
dec_label_pc_1740:
  %eax.global-to-local = alloca i32, align 4
  %edx.global-to-local = alloca i32, align 4
  store i32 %this, i32* %edx.global-to-local, align 4
  store i32 %pipv6Addr, i32* %eax.global-to-local, align 4
  %v1_1758 = inttoptr i32 %this to i32*
  %v2_1758 = load i32, i32* %v1_1758, align 4
  %v2_175a = inttoptr i32 %pipv6Addr to i32*
  store i32 %v2_1758, i32* %v2_175a, align 4
  %v0_175c = load i32, i32* %edx.global-to-local, align 4
  %v1_175c = add i32 %v0_175c, 4
  %v2_175c = inttoptr i32 %v1_175c to i32*
  %v3_175c = load i32, i32* %v2_175c, align 4
  %v1_175f = load i32, i32* %eax.global-to-local, align 4
  %v2_175f = add i32 %v1_175f, 4
  %v3_175f = inttoptr i32 %v2_175f to i32*
  store i32 %v3_175c, i32* %v3_175f, align 4
  %v0_1762 = load i32, i32* %edx.global-to-local, align 4
  %v1_1762 = add i32 %v0_1762, 8
  %v2_1762 = inttoptr i32 %v1_1762 to i32*
  %v3_1762 = load i32, i32* %v2_1762, align 4
  %v1_1765 = load i32, i32* %eax.global-to-local, align 4
  %v2_1765 = add i32 %v1_1765, 8
  %v3_1765 = inttoptr i32 %v2_1765 to i32*
  store i32 %v3_1762, i32* %v3_1765, align 4
  %v0_1768 = load i32, i32* %edx.global-to-local, align 4
  %v1_1768 = add i32 %v0_1768, ptrtoint (i32* @global_var_c.427 to i32)
  %v2_1768 = inttoptr i32 %v1_1768 to i32*
  %v3_1768 = load i32, i32* %v2_1768, align 4
  %v1_176b = load i32, i32* %eax.global-to-local, align 4
  %v2_176b = add i32 %v1_176b, ptrtoint (i32* @global_var_c.427 to i32)
  %v3_176b = inttoptr i32 %v2_176b to i32*
  store i32 %v3_1768, i32* %v3_176b, align 4
  store i32 1, i32* %eax.global-to-local, align 4
  store i32 0, i32* %edx.global-to-local, align 4
  ret void

; uselistorder directives
  uselistorder i32 %pipv6Addr, { 1, 0 }
}

define void @_ZNK8CNetAddr7GetHashEv(i32 %this) local_unnamed_addr {
dec_label_pc_1790:
  ret void
}

define i32 @function_1853(i32 %arg1, i32 %arg2) local_unnamed_addr {
dec_label_pc_1853:
  %eax.global-to-local = alloca i32, align 4
  %ebx.global-to-local = alloca i32, align 4
  %ecx.global-to-local = alloca i32, align 4
  %v0_1853 = load i32, i32* %ebx.global-to-local, align 4
  %v1_1853 = add i32 %v0_1853, -1961089980
  %v2_1853 = inttoptr i32 %v1_1853 to i32*
  %v3_1853 = load i32, i32* %v2_1853, align 4
  %v4_1853 = add i32 %v3_1853, -1
  store i32 %v4_1853, i32* %v2_1853, align 4
  %v0_185a = load i32, i32* %eax.global-to-local, align 4
  %v11_185a = and i32 %v0_185a, -164
  store i32 %v11_185a, i32* %eax.global-to-local, align 4
  %v0_185c = load i32, i32* %ecx.global-to-local, align 4
  %v2_185c = xor i32 %v0_185c, 612665600
  %v3_185c = icmp eq i32 %v2_185c, 0
  store i32 %v2_185c, i32* %ecx.global-to-local, align 4
  %v1_1867 = icmp eq i1 %v3_185c, false
  br i1 %v1_1867, label %dec_label_pc_186e, label %dec_label_pc_1869

dec_label_pc_1869:                                ; preds = %dec_label_pc_1853
  store i32 %arg2, i32* %ebx.global-to-local, align 4
  ret i32 %v11_185a

dec_label_pc_186e:                                ; preds = %dec_label_pc_1853
  ret i32 %v11_185a

; uselistorder directives
  uselistorder i32 %v11_185a, { 2, 1, 0 }
}

define void @_ZNK8CNetAddr19GetReachabilityFromEPKS_(i32 %this, i32 %paddrPartner) local_unnamed_addr {
dec_label_pc_1880:
  %ebx.global-to-local = alloca i32, align 4
  %edi.global-to-local = alloca i32, align 4
  %esi.global-to-local = alloca i32, align 4
  %stack_var_-44 = alloca i32, align 4
  %tmp112 = call i16* @__decompiler_undefined_function_3()
  %tmp114 = call i32 @__decompiler_undefined_function_0()
  %v0_1883 = load i32, i32* %ebx.global-to-local, align 4
  store i32 %this, i32* @ebx, align 4
  %v0_188b = load i32, i32* %esi.global-to-local, align 4
  store i32 %paddrPartner, i32* @esi, align 4
  %v0_189f = load i32, i32* %edi.global-to-local, align 4
  store i32 %this, i32* %stack_var_-44, align 4
  call void @_ZNK8CNetAddr10IsRoutableEv(i32 %this)
  br i1 icmp eq (i8 ptrtoint (i32* @0 to i8), i8 0), label %dec_label_pc_1928, label %dec_label_pc_18b1

dec_label_pc_18b1:                                ; preds = %dec_label_pc_1880
  %v0_18b1 = load i32, i32* @ebx, align 4
  store i32 %v0_18b1, i32* @eax, align 4
  %v0_18b3 = load i32, i32* %stack_var_-44, align 4
  %v1_18b3 = call i32 @GetExtNetwork(i32 %v0_18b3)
  store i32 %v1_18b3, i32* @edi, align 4
  %v0_18ba = load i32, i32* @esi, align 4
  store i32 %v0_18ba, i32* @eax, align 4
  %v1_18bc = call i32 @GetExtNetwork(i32 %v0_18b3)
  %v0_18c1 = load i32, i32* @ebx, align 4
  %v1_18c1 = inttoptr i32 %v0_18c1 to i8*
  %v2_18c1 = load i8, i8* %v1_18c1, align 1
  %v11_18c1 = icmp eq i8 %v2_18c1, 32
  store i32 %v1_18bc, i32* %esi.global-to-local, align 4
  br i1 %v11_18c1, label %dec_label_pc_1980, label %dec_label_pc_18cc

dec_label_pc_18cc:                                ; preds = %dec_label_pc_1980, %dec_label_pc_18b1
  store i32 %v0_18c1, i32* %stack_var_-44, align 4
  call void @_ZNK8CNetAddr9IsRFC6052Ev(i32 %v0_18c1)
  br i1 icmp eq (i8 and (i8 ptrtoint (i32* @0 to i8), i8 ptrtoint (i32* @0 to i8)), i8 0), label %dec_label_pc_1950, label %dec_label_pc_18cc.dec_label_pc_18dd_crit_edge

dec_label_pc_18cc.dec_label_pc_18dd_crit_edge:    ; preds = %dec_label_pc_18cc
  %v0_18dd.pre = load i32, i32* %esi.global-to-local, align 4
  br label %dec_label_pc_18dd

dec_label_pc_18dd:                                ; preds = %dec_label_pc_18cc.dec_label_pc_18dd_crit_edge, %dec_label_pc_1980
  %v0_18dd = phi i32 [ %v0_18dd.pre, %dec_label_pc_18cc.dec_label_pc_18dd_crit_edge ], [ %v1_18bc, %dec_label_pc_1980 ]
  %v10_18dd = icmp eq i32 %v0_18dd, 2
  br i1 %v10_18dd, label %dec_label_pc_195f, label %dec_label_pc_18e2

dec_label_pc_18e2:                                ; preds = %dec_label_pc_1950, %dec_label_pc_18dd
  %.0 = phi i32 [ %v0_1958, %dec_label_pc_1950 ], [ %tmp114, %dec_label_pc_18dd ]
  %v0_1906 = phi i32 [ %v0_1958, %dec_label_pc_1950 ], [ %v0_18dd, %dec_label_pc_18dd ]
  %.02 = phi i16* [ bitcast (i16** @global_var_2.437 to i16*), %dec_label_pc_1950 ], [ %tmp112, %dec_label_pc_18dd ]
  %v8_18e2 = ptrtoint i16* %.02 to i32
  %v9_18e2 = icmp sgt i32 %.0, %v8_18e2
  br i1 %v9_18e2, label %dec_label_pc_18f8, label %dec_label_pc_18e4

dec_label_pc_18e4:                                ; preds = %dec_label_pc_18e2
  %v10_18e4 = icmp eq i32 %v0_1906, 1
  %v1_18e7 = icmp eq i1 %v10_18e4, false
  br i1 %v1_18e7, label %dec_label_pc_190f, label %dec_label_pc_18e4.dec_label_pc_196e_crit_edge

dec_label_pc_18e4.dec_label_pc_196e_crit_edge:    ; preds = %dec_label_pc_18e4
  br label %dec_label_pc_196e

dec_label_pc_18f8:                                ; preds = %dec_label_pc_18e2
  %v10_18f8 = icmp eq i32 %v0_1906, 3
  br i1 %v10_18f8, label %dec_label_pc_1998, label %dec_label_pc_1906

dec_label_pc_1906:                                ; preds = %dec_label_pc_18f8
  %v10_1906 = icmp eq i32 %v0_1906, 5
  br i1 %v10_1906, label %dec_label_pc_19b8, label %dec_label_pc_190f

dec_label_pc_190f:                                ; preds = %dec_label_pc_1906, %dec_label_pc_18e4
  %v0_190f = load i32, i32* @edi, align 4
  %v1_190f = add i32 %v0_190f, -1
  store i32 %v1_190f, i32* %edi.global-to-local, align 4
  %tmp129 = icmp ult i32 %v1_190f, 5
  br i1 %tmp129, label %dec_label_pc_191c, label %dec_label_pc_1928

dec_label_pc_191c:                                ; preds = %dec_label_pc_190f
  br label %dec_label_pc_1928

dec_label_pc_1928:                                ; preds = %dec_label_pc_1998, %dec_label_pc_19b8, %dec_label_pc_190f, %dec_label_pc_19d8, %dec_label_pc_19c9, %dec_label_pc_19a5, %dec_label_pc_196e, %dec_label_pc_1964, %dec_label_pc_191c, %dec_label_pc_1880
  store i32 %v0_1883, i32* %ebx.global-to-local, align 4
  store i32 %v0_188b, i32* %esi.global-to-local, align 4
  store i32 %v0_189f, i32* %edi.global-to-local, align 4
  ret void

dec_label_pc_1950:                                ; preds = %dec_label_pc_18cc
  %v0_1950 = load i32, i32* @ebx, align 4
  store i32 %v0_1950, i32* %stack_var_-44, align 4
  call void @_ZNK8CNetAddr9IsRFC6145Ev(i32 %v0_1950)
  %v0_1958 = load i32, i32* %esi.global-to-local, align 4
  %v11_1958 = icmp eq i32 %v0_1958, 2
  %v1_195d = icmp eq i1 %v11_1958, false
  br i1 %v1_195d, label %dec_label_pc_18e2, label %dec_label_pc_195f

dec_label_pc_195f:                                ; preds = %dec_label_pc_1950, %dec_label_pc_18dd
  %v0_195f = load i32, i32* @edi, align 4
  %v10_195f = icmp eq i32 %v0_195f, 2
  br i1 %v10_195f, label %dec_label_pc_19d8, label %dec_label_pc_1964

dec_label_pc_1964:                                ; preds = %dec_label_pc_195f
  %v10_1964 = icmp eq i32 %v0_195f, 5
  br i1 %v10_1964, label %dec_label_pc_1928, label %dec_label_pc_196e

dec_label_pc_196e:                                ; preds = %dec_label_pc_18e4.dec_label_pc_196e_crit_edge, %dec_label_pc_1964
  br label %dec_label_pc_1928

dec_label_pc_1980:                                ; preds = %dec_label_pc_18b1
  %v1_1980 = add i32 %v0_18c1, 1
  %v2_1980 = inttoptr i32 %v1_1980 to i8*
  %v3_1980 = load i8, i8* %v2_1980, align 1
  %v13_1980 = icmp eq i8 %v3_1980, 2
  %v1_1989 = icmp eq i1 %v13_1980, false
  br i1 %v1_1989, label %dec_label_pc_18cc, label %dec_label_pc_18dd

dec_label_pc_1998:                                ; preds = %dec_label_pc_18f8
  %v0_1998 = load i32, i32* @edi, align 4
  %v1_1998 = add i32 %v0_1998, -1
  store i32 %v1_1998, i32* %edi.global-to-local, align 4
  %tmp130 = icmp ult i32 %v1_1998, 3
  br i1 %tmp130, label %dec_label_pc_19a5, label %dec_label_pc_1928

dec_label_pc_19a5:                                ; preds = %dec_label_pc_1998
  br label %dec_label_pc_1928

dec_label_pc_19b8:                                ; preds = %dec_label_pc_1906
  %v0_19b8 = load i32, i32* @edi, align 4
  %v1_19b8 = add i32 %v0_19b8, -1
  store i32 %v1_19b8, i32* %edi.global-to-local, align 4
  %tmp131 = icmp ult i32 %v1_19b8, 5
  br i1 %tmp131, label %dec_label_pc_19c9, label %dec_label_pc_1928

dec_label_pc_19c9:                                ; preds = %dec_label_pc_19b8
  br label %dec_label_pc_1928

dec_label_pc_19d8:                                ; preds = %dec_label_pc_195f
  br label %dec_label_pc_1928

; uselistorder directives
  uselistorder i32 %v0_1958, { 0, 2, 1 }
  uselistorder i32 %v0_18dd, { 1, 0 }
  uselistorder i32 %v0_18c1, { 2, 1, 0, 3 }
  uselistorder i32* %stack_var_-44, { 1, 2, 0, 3 }
  uselistorder i32* %esi.global-to-local, { 1, 0, 2, 3, 4 }
  uselistorder i32 (i32)* @GetExtNetwork, { 1, 0 }
  uselistorder i32 %this, { 1, 0, 2 }
  uselistorder label %dec_label_pc_196e, { 1, 0 }
  uselistorder label %dec_label_pc_1928, { 3, 4, 1, 5, 0, 6, 7, 8, 2, 9 }
  uselistorder label %dec_label_pc_18dd, { 1, 0 }
}

define void @_ZN8CService4InitEv(i32 %this) local_unnamed_addr {
dec_label_pc_19f0:
  %v1_1a03 = add i32 %this, ptrtoint (i16** @global_var_10.441 to i32)
  %v2_1a03 = inttoptr i32 %v1_1a03 to i16*
  store i16 0, i16* %v2_1a03, align 2
  ret void
}

define void @CService(i32 %this) local_unnamed_addr {
dec_label_pc_1a4f:
  call void @_ZN8CNetAddr4InitEv(i32 %this)
  %v1_1a47 = add i32 %this, ptrtoint (i16** @global_var_10.441 to i32)
  %v2_1a47 = inttoptr i32 %v1_1a47 to i16*
  store i16 0, i16* %v2_1a47, align 2
  ret void
}

define void @CService.411(i32 %this, i32 %cip, i16 %portIn) local_unnamed_addr {
dec_label_pc_1a60:
  %eax.global-to-local = alloca i32, align 4
  %edx.global-to-local = alloca i32, align 4
  store i32 %cip, i32* %edx.global-to-local, align 4
  store i32 %this, i32* %eax.global-to-local, align 4
  %v1_1a78 = inttoptr i32 %cip to i32*
  %v2_1a78 = load i32, i32* %v1_1a78, align 4
  %v2_1a7a = inttoptr i32 %this to i32*
  store i32 %v2_1a78, i32* %v2_1a7a, align 4
  %v0_1a7c = load i32, i32* %edx.global-to-local, align 4
  %v1_1a7c = add i32 %v0_1a7c, 4
  %v2_1a7c = inttoptr i32 %v1_1a7c to i32*
  %v3_1a7c = load i32, i32* %v2_1a7c, align 4
  %v1_1a7f = load i32, i32* %eax.global-to-local, align 4
  %v2_1a7f = add i32 %v1_1a7f, 4
  %v3_1a7f = inttoptr i32 %v2_1a7f to i32*
  store i32 %v3_1a7c, i32* %v3_1a7f, align 4
  %v0_1a82 = load i32, i32* %edx.global-to-local, align 4
  %v1_1a82 = add i32 %v0_1a82, 8
  %v2_1a82 = inttoptr i32 %v1_1a82 to i32*
  %v3_1a82 = load i32, i32* %v2_1a82, align 4
  %v1_1a85 = load i32, i32* %eax.global-to-local, align 4
  %v2_1a85 = add i32 %v1_1a85, 8
  %v3_1a85 = inttoptr i32 %v2_1a85 to i32*
  store i32 %v3_1a82, i32* %v3_1a85, align 4
  %v0_1a88 = load i32, i32* %edx.global-to-local, align 4
  %v1_1a88 = add i32 %v0_1a88, ptrtoint (i32* @global_var_c.427 to i32)
  %v2_1a88 = inttoptr i32 %v1_1a88 to i32*
  %v3_1a88 = load i32, i32* %v2_1a88, align 4
  %v1_1a8b = load i32, i32* %eax.global-to-local, align 4
  %v2_1a8b = add i32 %v1_1a8b, ptrtoint (i32* @global_var_c.427 to i32)
  %v3_1a8b = inttoptr i32 %v2_1a8b to i32*
  store i32 %v3_1a88, i32* %v3_1a8b, align 4
  %v4_1a8e = sext i16 %portIn to i32
  store i32 %v4_1a8e, i32* %edx.global-to-local, align 4
  %v2_1a92 = load i32, i32* %eax.global-to-local, align 4
  %v3_1a92 = add i32 %v2_1a92, ptrtoint (i16** @global_var_10.441 to i32)
  %v4_1a92 = inttoptr i32 %v3_1a92 to i16*
  store i16 %portIn, i16* %v4_1a92, align 2
  store i32 0, i32* %eax.global-to-local, align 4
  ret void

; uselistorder directives
  uselistorder i16 %portIn, { 1, 0 }
}

define void @CService.412(i32 %this, i32 %ipv4Addr, i16 %portIn) local_unnamed_addr {
dec_label_pc_1af0:
  %ebx.global-to-local = alloca i32, align 4
  %esi.global-to-local = alloca i32, align 4
  %v0_1ac3 = load i32, i32* %ebx.global-to-local, align 4
  store i32 %this, i32* %ebx.global-to-local, align 4
  %v0_1acb = load i32, i32* %esi.global-to-local, align 4
  %v4_1acf = sext i16 %portIn to i32
  store i32 %v4_1acf, i32* %esi.global-to-local, align 4
  call void @CNetAddr.409(i32 %this, i32 %ipv4Addr)
  %v3_1aea = add i32 %this, ptrtoint (i16** @global_var_10.441 to i32)
  %v4_1aea = inttoptr i32 %v3_1aea to i16*
  store i16 %portIn, i16* %v4_1aea, align 2
  store i32 %v0_1ac3, i32* %ebx.global-to-local, align 4
  store i32 %v0_1acb, i32* %esi.global-to-local, align 4
  ret void
}

define void @CService.413(i32 %this, i32 %ipv6Addr, i16 %portIn) local_unnamed_addr {
dec_label_pc_1b50:
  %ebx.global-to-local = alloca i32, align 4
  %esi.global-to-local = alloca i32, align 4
  %v0_1b23 = load i32, i32* %ebx.global-to-local, align 4
  store i32 %this, i32* %ebx.global-to-local, align 4
  %v0_1b2b = load i32, i32* %esi.global-to-local, align 4
  %v4_1b2f = sext i16 %portIn to i32
  store i32 %v4_1b2f, i32* %esi.global-to-local, align 4
  call void @CNetAddr.410(i32 %this, i32 %ipv6Addr)
  %v3_1b4a = add i32 %this, ptrtoint (i16** @global_var_10.441 to i32)
  %v4_1b4a = inttoptr i32 %v3_1b4a to i16*
  store i16 %portIn, i16* %v4_1b4a, align 2
  store i32 %v0_1b23, i32* %ebx.global-to-local, align 4
  store i32 %v0_1b2b, i32* %esi.global-to-local, align 4
  ret void
}

define void @CService.414(i32 %this, i32 %addr) local_unnamed_addr {
dec_label_pc_1b70:
  %esi.global-to-local = alloca i32, align 4
  %v0_1b73 = load i32, i32* @ebx, align 4
  store i32 %addr, i32* @ebx, align 4
  %v0_1b7b = load i32, i32* @esi, align 4
  store i32 %this, i32* %esi.global-to-local, align 4
  %v1_1b8f = add i32 %addr, 4
  call void @CNetAddr.409(i32 %this, i32 %v1_1b8f)
  %v0_1b9e = load i32, i32* @ebx, align 4
  %v1_1b9e = add i32 %v0_1b9e, ptrtoint (i16** @global_var_2.437 to i32)
  %v2_1b9e = inttoptr i32 %v1_1b9e to i16*
  %v3_1b9e = load i16, i16* %v2_1b9e, align 2
  %v4_1ba2 = call i16 @llvm.bswap.i16(i16 %v3_1b9e)
  %v1_1ba6 = inttoptr i32 %v0_1b9e to i16*
  %v2_1ba6 = load i16, i16* %v1_1ba6, align 2
  %v12_1ba6 = icmp eq i16 %v2_1ba6, 2
  %v2_1baa = load i32, i32* %esi.global-to-local, align 4
  %v3_1baa = add i32 %v2_1baa, ptrtoint (i16** @global_var_10.441 to i32)
  %v4_1baa = inttoptr i32 %v3_1baa to i16*
  store i16 %v4_1ba2, i16* %v4_1baa, align 2
  %v1_1bae = icmp eq i1 %v12_1ba6, false
  br i1 %v1_1bae, label %dec_label_pc_1bc9, label %dec_label_pc_1bb0

dec_label_pc_1bb0:                                ; preds = %dec_label_pc_1b70
  store i32 %v0_1b73, i32* @ebx, align 4
  store i32 %v0_1b7b, i32* %esi.global-to-local, align 4
  ret void

dec_label_pc_1bc9:                                ; preds = %dec_label_pc_1b70
  ret void

; uselistorder directives
  uselistorder void (i32, i32)* @CNetAddr.409, { 1, 0 }
}

define i32 @function_1bed() local_unnamed_addr {
dec_label_pc_1bed:
  %tmp = load i32, i32* @eax, align 4
  ret i32 %tmp
}

define void @CService.415(i32 %this, i32 %addr) local_unnamed_addr {
dec_label_pc_1c00:
  %esi.global-to-local = alloca i32, align 4
  %v0_1c03 = load i32, i32* @ebx, align 4
  store i32 %addr, i32* @ebx, align 4
  %v0_1c0b = load i32, i32* @esi, align 4
  store i32 %this, i32* %esi.global-to-local, align 4
  %v1_1c1f = add i32 %addr, 8
  call void @CNetAddr.410(i32 %this, i32 %v1_1c1f)
  %v0_1c2e = load i32, i32* @ebx, align 4
  %v1_1c2e = add i32 %v0_1c2e, ptrtoint (i16** @global_var_2.437 to i32)
  %v2_1c2e = inttoptr i32 %v1_1c2e to i16*
  %v3_1c2e = load i16, i16* %v2_1c2e, align 2
  %v4_1c32 = call i16 @llvm.bswap.i16(i16 %v3_1c2e)
  %v1_1c36 = inttoptr i32 %v0_1c2e to i16*
  %v2_1c36 = load i16, i16* %v1_1c36, align 2
  %v12_1c36 = icmp eq i16 %v2_1c36, 10
  %v2_1c3a = load i32, i32* %esi.global-to-local, align 4
  %v3_1c3a = add i32 %v2_1c3a, ptrtoint (i16** @global_var_10.441 to i32)
  %v4_1c3a = inttoptr i32 %v3_1c3a to i16*
  store i16 %v4_1c32, i16* %v4_1c3a, align 2
  %v1_1c3e = icmp eq i1 %v12_1c36, false
  br i1 %v1_1c3e, label %dec_label_pc_1c59, label %dec_label_pc_1c40

dec_label_pc_1c40:                                ; preds = %dec_label_pc_1c00
  store i32 %v0_1c03, i32* @ebx, align 4
  store i32 %v0_1c0b, i32* %esi.global-to-local, align 4
  ret void

dec_label_pc_1c59:                                ; preds = %dec_label_pc_1c00
  ret void

; uselistorder directives
  uselistorder void (i32, i32)* @CNetAddr.410, { 1, 0 }
}

define i32 @function_1c7d() local_unnamed_addr {
dec_label_pc_1c7d:
  %tmp = load i32, i32* @eax, align 4
  ret i32 %tmp
}

define void @_ZN8CService11SetSockAddrEPK8sockaddr(i32 %this, i32 %paddr) local_unnamed_addr {
dec_label_pc_1c90:
  %ebx.global-to-local = alloca i32, align 4
  %stack_var_-34 = alloca i32, align 4
  %stack_var_-52 = alloca i32, align 4
  %v0_1c90 = load i32, i32* %ebx.global-to-local, align 4
  store i32 %this, i32* @ebx, align 4
  %v1_1ca8 = inttoptr i32 %paddr to i16*
  %v2_1ca8 = load i16, i16* %v1_1ca8, align 2
  %v11_1cab = icmp eq i16 %v2_1ca8, 2
  br i1 %v11_1cab, label %dec_label_pc_1cd0, label %dec_label_pc_1cb1

dec_label_pc_1cb1:                                ; preds = %dec_label_pc_1c90
  %v11_1cb1 = icmp eq i16 %v2_1ca8, 10
  br i1 %v11_1cb1, label %dec_label_pc_1d10, label %dec_label_pc_1cb7

dec_label_pc_1cb7:                                ; preds = %dec_label_pc_1cb1
  br label %dec_label_pc_1cb9

dec_label_pc_1cb9:                                ; preds = %dec_label_pc_1d10, %dec_label_pc_1cd0, %dec_label_pc_1cb7
  store i32 %v0_1c90, i32* %ebx.global-to-local, align 4
  ret void

dec_label_pc_1cd0:                                ; preds = %dec_label_pc_1c90
  %v2_1cd0 = ptrtoint i32* %stack_var_-52 to i32
  call void @CService.414(i32 %v2_1cd0, i32 %paddr)
  %v3_1ce0 = load i32, i32* %stack_var_-52, align 4
  %v1_1ce4 = load i32, i32* @ebx, align 4
  %v2_1ce4 = inttoptr i32 %v1_1ce4 to i32*
  store i32 %v3_1ce0, i32* %v2_1ce4, align 4
  %v1_1cea = load i32, i32* @ebx, align 4
  %v2_1cea = add i32 %v1_1cea, 4
  %v3_1cea = inttoptr i32 %v2_1cea to i32*
  %v1_1cf1 = load i32, i32* @ebx, align 4
  %v2_1cf1 = add i32 %v1_1cf1, 8
  %v3_1cf1 = inttoptr i32 %v2_1cf1 to i32*
  %v1_1cf8 = load i32, i32* @ebx, align 4
  %v2_1cf8 = add i32 %v1_1cf8, ptrtoint (i32* @global_var_c.427 to i32)
  %v3_1cf8 = inttoptr i32 %v2_1cf8 to i32*
  %v2_1d00 = load i32, i32* @ebx, align 4
  %v3_1d00 = add i32 %v2_1d00, ptrtoint (i16** @global_var_10.441 to i32)
  %v4_1d00 = inttoptr i32 %v3_1d00 to i16*
  br label %dec_label_pc_1cb9

dec_label_pc_1d10:                                ; preds = %dec_label_pc_1cb1
  %v2_1d10 = ptrtoint i32* %stack_var_-34 to i32
  call void @CService.415(i32 %v2_1d10, i32 %paddr)
  %v3_1d20 = load i32, i32* %stack_var_-34, align 4
  %v1_1d24 = load i32, i32* @ebx, align 4
  %v2_1d24 = inttoptr i32 %v1_1d24 to i32*
  store i32 %v3_1d20, i32* %v2_1d24, align 4
  %v1_1d2a = load i32, i32* @ebx, align 4
  %v2_1d2a = add i32 %v1_1d2a, 4
  %v3_1d2a = inttoptr i32 %v2_1d2a to i32*
  %v1_1d31 = load i32, i32* @ebx, align 4
  %v2_1d31 = add i32 %v1_1d31, 8
  %v3_1d31 = inttoptr i32 %v2_1d31 to i32*
  %v1_1d38 = load i32, i32* @ebx, align 4
  %v2_1d38 = add i32 %v1_1d38, ptrtoint (i32* @global_var_c.427 to i32)
  %v3_1d38 = inttoptr i32 %v2_1d38 to i32*
  %v2_1d40 = load i32, i32* @ebx, align 4
  %v3_1d40 = add i32 %v2_1d40, ptrtoint (i16** @global_var_10.441 to i32)
  %v4_1d40 = inttoptr i32 %v3_1d40 to i16*
  br label %dec_label_pc_1cb9

; uselistorder directives
  uselistorder i32 %paddr, { 1, 0, 2 }
}

define void @_ZNK8CService7GetPortEv(i32 %this) local_unnamed_addr {
dec_label_pc_1d60:
  ret void
}

define i1 @_ZeqRK8CServiceS1_(i32 %a, i32 %b) local_unnamed_addr {
dec_label_pc_1d90:
  %ebx.global-to-local = alloca i32, align 4
  %esi.global-to-local = alloca i32, align 4
  %stack_var_-48 = alloca i32, align 4
  %stack_var_-32 = alloca i32, align 4
  %v0_1d90 = load i32, i32* %esi.global-to-local, align 4
  %v0_1d91 = load i32, i32* %ebx.global-to-local, align 4
  store i32 %b, i32* %ebx.global-to-local, align 4
  store i32 %a, i32* %esi.global-to-local, align 4
  %v1_1da9 = inttoptr i32 %b to i32*
  %v2_1da9 = load i32, i32* %v1_1da9, align 4
  store i32 %v2_1da9, i32* %stack_var_-32, align 4
  %v1_1dc4 = inttoptr i32 %a to i32*
  %v2_1dc4 = load i32, i32* %v1_1dc4, align 4
  store i32 %v2_1dc4, i32* %stack_var_-48, align 4
  %v4_1de3 = ptrtoint i32* %stack_var_-32 to i32
  %v2_1de7 = ptrtoint i32* %stack_var_-48 to i32
  %v2_1dee = call i1 @_ZeqRK8CNetAddrS1_(i32 %v2_1de7, i32 %v4_1de3)
  %v5_1df5 = icmp eq i1 %v2_1dee, false
  br i1 %v5_1df5, label %dec_label_pc_1e04, label %dec_label_pc_1df9

dec_label_pc_1df9:                                ; preds = %dec_label_pc_1d90
  %v0_1df9 = load i32, i32* %ebx.global-to-local, align 4
  %v1_1df9 = add i32 %v0_1df9, ptrtoint (i16** @global_var_10.441 to i32)
  %v2_1df9 = inttoptr i32 %v1_1df9 to i16*
  %v3_1df9 = load i16, i16* %v2_1df9, align 2
  %v4_1df9 = zext i16 %v3_1df9 to i32
  %v0_1dfd = load i32, i32* %esi.global-to-local, align 4
  %v1_1dfd = add i32 %v0_1dfd, ptrtoint (i16** @global_var_10.441 to i32)
  %v2_1dfd = inttoptr i32 %v1_1dfd to i16*
  %v3_1dfd = load i16, i16* %v2_1dfd, align 2
  %v16_1dfd = icmp eq i16 %v3_1dfd, %v3_1df9
  %v1_1e01 = zext i1 %v16_1dfd to i32
  %v3_1e01 = and i32 %v4_1df9, 65280
  %v4_1e01 = or i32 %v1_1e01, %v3_1e01
  %phitmp = urem i32 %v4_1e01, 2
  %phitmp116 = icmp ne i32 %phitmp, 0
  br label %dec_label_pc_1e04

dec_label_pc_1e04:                                ; preds = %dec_label_pc_1df9, %dec_label_pc_1d90
  %v0_1e04 = phi i1 [ %phitmp116, %dec_label_pc_1df9 ], [ false, %dec_label_pc_1d90 ]
  store i32 %v0_1d91, i32* %ebx.global-to-local, align 4
  store i32 %v0_1d90, i32* %esi.global-to-local, align 4
  ret i1 %v0_1e04
}

define i32 @function_1e1d() local_unnamed_addr {
dec_label_pc_1e1d:
  %eax.global-to-local = alloca i32, align 4
  %v0_1e1d = load i32, i32* %eax.global-to-local, align 4
  ret i32 %v0_1e1d
}

define i1 @_ZneRK8CServiceS1_(i32 %a, i32 %b) local_unnamed_addr {
dec_label_pc_1e20:
  %ebx.global-to-local = alloca i32, align 4
  %esi.global-to-local = alloca i32, align 4
  %stack_var_-48 = alloca i32, align 4
  %stack_var_-32 = alloca i32, align 4
  %v0_1e20 = load i32, i32* %esi.global-to-local, align 4
  %v0_1e21 = load i32, i32* %ebx.global-to-local, align 4
  store i32 %b, i32* %ebx.global-to-local, align 4
  store i32 %a, i32* %esi.global-to-local, align 4
  %v1_1e39 = inttoptr i32 %b to i32*
  %v2_1e39 = load i32, i32* %v1_1e39, align 4
  store i32 %v2_1e39, i32* %stack_var_-32, align 4
  %v1_1e54 = inttoptr i32 %a to i32*
  %v2_1e54 = load i32, i32* %v1_1e54, align 4
  store i32 %v2_1e54, i32* %stack_var_-48, align 4
  %v4_1e73 = ptrtoint i32* %stack_var_-32 to i32
  %v2_1e77 = ptrtoint i32* %stack_var_-48 to i32
  %v2_1e7e = call i1 @_ZneRK8CNetAddrS1_(i32 %v2_1e77, i32 %v4_1e73)
  %v5_1e88 = icmp eq i1 %v2_1e7e, false
  %v1_1e8a = icmp eq i1 %v5_1e88, false
  br i1 %v1_1e8a, label %dec_label_pc_1e97, label %dec_label_pc_1e8c

dec_label_pc_1e8c:                                ; preds = %dec_label_pc_1e20
  %v0_1e8c = load i32, i32* %ebx.global-to-local, align 4
  %v1_1e8c = add i32 %v0_1e8c, ptrtoint (i16** @global_var_10.441 to i32)
  %v2_1e8c = inttoptr i32 %v1_1e8c to i16*
  %v3_1e8c = load i16, i16* %v2_1e8c, align 2
  %v4_1e8c = zext i16 %v3_1e8c to i32
  %v0_1e90 = load i32, i32* %esi.global-to-local, align 4
  %v1_1e90 = add i32 %v0_1e90, ptrtoint (i16** @global_var_10.441 to i32)
  %v2_1e90 = inttoptr i32 %v1_1e90 to i16*
  %v3_1e90 = load i16, i16* %v2_1e90, align 2
  %v16_1e90 = icmp eq i16 %v3_1e90, %v3_1e8c
  %v1_1e94 = icmp eq i1 %v16_1e90, false
  %v2_1e94 = zext i1 %v1_1e94 to i32
  %v4_1e94 = and i32 %v4_1e8c, 65280
  %v5_1e94 = or i32 %v2_1e94, %v4_1e94
  %phitmp = urem i32 %v5_1e94, 2
  %phitmp116 = icmp ne i32 %phitmp, 0
  br label %dec_label_pc_1e97

dec_label_pc_1e97:                                ; preds = %dec_label_pc_1e8c, %dec_label_pc_1e20
  %v0_1e97 = phi i1 [ %phitmp116, %dec_label_pc_1e8c ], [ true, %dec_label_pc_1e20 ]
  store i32 %v0_1e21, i32* %ebx.global-to-local, align 4
  store i32 %v0_1e20, i32* %esi.global-to-local, align 4
  ret i1 %v0_1e97
}

define i32 @function_1eb1() local_unnamed_addr {
dec_label_pc_1eb1:
  %v2_1eb1 = call i1 @_ZltRK8CServiceS1_(i32 ptrtoint (i32* @0 to i32), i32 ptrtoint (i32* @0 to i32))
  %v4_1eb1 = sext i1 %v2_1eb1 to i32
  ret i32 %v4_1eb1
}

define i1 @_ZltRK8CServiceS1_(i32 %a, i32 %b) local_unnamed_addr {
dec_label_pc_1ec0:
  %ebx.global-to-local = alloca i32, align 4
  %esi.global-to-local = alloca i32, align 4
  %stack_var_-64 = alloca i32, align 4
  %stack_var_-48 = alloca i32, align 4
  %stack_var_-96 = alloca i32, align 4
  %stack_var_-80 = alloca i32, align 4
  store i32 %b, i32* %ebx.global-to-local, align 4
  store i32 %a, i32* %esi.global-to-local, align 4
  %v1_1eff = inttoptr i32 %b to i32*
  %v2_1eff = load i32, i32* %v1_1eff, align 4
  %v1_1f0f = inttoptr i32 %a to i32*
  %v2_1f0f = load i32, i32* %v1_1f0f, align 4
  store i32 %v2_1eff, i32* %stack_var_-80, align 4
  store i32 %v2_1f0f, i32* %stack_var_-96, align 4
  %v2_1f4a = ptrtoint i32* %stack_var_-80 to i32
  %v2_1f52 = ptrtoint i32* %stack_var_-96 to i32
  %v2_1f59 = call i1 @_ZltRK8CNetAddrS1_(i32 %v2_1f52, i32 %v2_1f4a)
  %v5_1f67 = icmp eq i1 %v2_1f59, false
  %v1_1f69 = icmp eq i1 %v5_1f67, false
  br i1 %v1_1f69, label %dec_label_pc_1fb9, label %dec_label_pc_1f6b

dec_label_pc_1f6b:                                ; preds = %dec_label_pc_1ec0
  store i32 %v2_1eff, i32* %stack_var_-48, align 4
  %v2_1f73 = ptrtoint i32* %stack_var_-48 to i32
  %v2_1f7b = ptrtoint i32* %stack_var_-64 to i32
  store i32 %v2_1f0f, i32* %stack_var_-64, align 4
  %v2_1fae = call i1 @_ZeqRK8CNetAddrS1_(i32 %v2_1f7b, i32 %v2_1f73)
  %v5_1fb5 = icmp eq i1 %v2_1fae, false
  %v1_1fb7 = icmp eq i1 %v5_1fb5, false
  br i1 %v1_1fb7, label %dec_label_pc_1ff0, label %dec_label_pc_1fb9

dec_label_pc_1fb9:                                ; preds = %dec_label_pc_1ff0, %dec_label_pc_1f6b, %dec_label_pc_1ec0
  %v0_1fc4 = phi i1 [ %v11_1ff4, %dec_label_pc_1ff0 ], [ false, %dec_label_pc_1f6b ], [ true, %dec_label_pc_1ec0 ]
  ret i1 %v0_1fc4

dec_label_pc_1ff0:                                ; preds = %dec_label_pc_1f6b
  %v0_1ff0 = load i32, i32* %ebx.global-to-local, align 4
  %v1_1ff0 = add i32 %v0_1ff0, ptrtoint (i16** @global_var_10.441 to i32)
  %v2_1ff0 = inttoptr i32 %v1_1ff0 to i16*
  %v3_1ff0 = load i16, i16* %v2_1ff0, align 2
  %v0_1ff4 = load i32, i32* %esi.global-to-local, align 4
  %v1_1ff4 = add i32 %v0_1ff4, ptrtoint (i16** @global_var_10.441 to i32)
  %v2_1ff4 = inttoptr i32 %v1_1ff4 to i16*
  %v3_1ff4 = load i16, i16* %v2_1ff4, align 2
  %v11_1ff4 = icmp ult i16 %v3_1ff4, %v3_1ff0
  br label %dec_label_pc_1fb9
}

define void @_ZNK8CService11GetSockAddrEP8sockaddrPj(i32 %this, i32 %paddr, i32* %addrlen) local_unnamed_addr {
dec_label_pc_2010:
  %eax.global-to-local = alloca i32, align 4
  %edi.global-to-local = alloca i32, align 4
  %v0_2013 = load i32, i32* @ebx, align 4
  store i32 %this, i32* @ebx, align 4
  %v0_201f = load i32, i32* @esi, align 4
  store i32 %paddr, i32* @esi, align 4
  store i32 0, i32* %eax.global-to-local, align 4
  call void @_ZNK8CNetAddr6IsIPv4Ev(i32 %this)
  store i32 ptrtoint (i32* @0 to i32), i32* %eax.global-to-local, align 4
  br i1 icmp eq (i8 and (i8 ptrtoint (i32* @0 to i8), i8 ptrtoint (i32* @0 to i8)), i8 0), label %dec_label_pc_2088, label %dec_label_pc_204d

dec_label_pc_204d:                                ; preds = %dec_label_pc_2010
  store i32 0, i32* %edi.global-to-local, align 4
  %v2_2053 = load i32, i32* %addrlen, align 4
  %tmp22 = icmp ult i32 %v2_2053, 16
  br i1 %tmp22, label %dec_label_pc_205c, label %dec_label_pc_2128

dec_label_pc_205c:                                ; preds = %dec_label_pc_2088, %dec_label_pc_204d, %dec_label_pc_2160, %dec_label_pc_2128
  %v0_2067 = load i32, i32* %edi.global-to-local, align 4
  store i32 %v0_2067, i32* %eax.global-to-local, align 4
  store i32 %v0_2013, i32* @ebx, align 4
  store i32 %v0_201f, i32* @esi, align 4
  ret void

dec_label_pc_2088:                                ; preds = %dec_label_pc_2010
  %v0_2088 = load i32, i32* @ebx, align 4
  store i32 0, i32* %edi.global-to-local, align 4
  call void @_ZNK8CNetAddr6IsIPv6Ev(i32 %v0_2088)
  store i32 ptrtoint (i32* @0 to i32), i32* %eax.global-to-local, align 4
  br label %dec_label_pc_205c

dec_label_pc_2128:                                ; preds = %dec_label_pc_204d
  store i32 ptrtoint (i16** @global_var_10.441 to i32), i32* %addrlen, align 4
  %v0_212e = load i32, i32* @esi, align 4
  %v1_212e = add i32 %v0_212e, 4
  store i32 %v1_212e, i32* %eax.global-to-local, align 4
  %v1_2131 = inttoptr i32 %v0_212e to i32*
  store i32 0, i32* %v1_2131, align 4
  %v0_2137 = load i32, i32* @esi, align 4
  %v1_2137 = add i32 %v0_2137, 4
  %v2_2137 = inttoptr i32 %v1_2137 to i32*
  store i32 0, i32* %v2_2137, align 4
  %v0_213e = load i32, i32* @esi, align 4
  %v1_213e = add i32 %v0_213e, 8
  %v2_213e = inttoptr i32 %v1_213e to i32*
  store i32 0, i32* %v2_213e, align 4
  %v0_2145 = load i32, i32* @esi, align 4
  %v1_2145 = add i32 %v0_2145, ptrtoint (i32* @global_var_c.427 to i32)
  %v2_2145 = inttoptr i32 %v1_2145 to i32*
  store i32 0, i32* %v2_2145, align 4
  %v0_214c = load i32, i32* %eax.global-to-local, align 4
  %v0_2150 = load i32, i32* @ebx, align 4
  call void @_ZNK8CNetAddr9GetInAddrEP7in_addr(i32 %v0_2150, i32 %v0_214c)
  store i32 ptrtoint (i32* @0 to i32), i32* %eax.global-to-local, align 4
  br i1 icmp eq (i8 and (i8 ptrtoint (i32* @0 to i8), i8 ptrtoint (i32* @0 to i8)), i8 0), label %dec_label_pc_205c, label %dec_label_pc_2160

dec_label_pc_2160:                                ; preds = %dec_label_pc_2128
  %v0_2160 = load i32, i32* @ebx, align 4
  %v1_2160 = add i32 %v0_2160, ptrtoint (i16** @global_var_10.441 to i32)
  %v2_2160 = inttoptr i32 %v1_2160 to i16*
  %v3_2160 = load i16, i16* %v2_2160, align 2
  store i32 1, i32* %edi.global-to-local, align 4
  %v4_2169 = call i16 @llvm.bswap.i16(i16 %v3_2160)
  %v5_2169 = zext i16 %v4_2169 to i32
  store i32 %v5_2169, i32* %eax.global-to-local, align 4
  %v0_216d = load i32, i32* @esi, align 4
  %v1_216d = inttoptr i32 %v0_216d to i16*
  store i16 ptrtoint (i16** @global_var_2.437 to i16), i16* %v1_216d, align 2
  %v0_2172 = load i32, i32* %eax.global-to-local, align 4
  %v1_2172 = trunc i32 %v0_2172 to i16
  %v2_2172 = load i32, i32* @esi, align 4
  %v3_2172 = add i32 %v2_2172, ptrtoint (i16** @global_var_2.437 to i32)
  %v4_2172 = inttoptr i32 %v3_2172 to i16*
  store i16 %v1_2172, i16* %v4_2172, align 2
  br label %dec_label_pc_205c

; uselistorder directives
  uselistorder label %dec_label_pc_205c, { 2, 3, 0, 1 }
}

define void @_ZNK8CNetAddr10ToStringIPEv(i32 %this) local_unnamed_addr {
dec_label_pc_21a0:
  %tmp8 = call i32 @__decompiler_undefined_function_0()
  store i32 %this, i32* @esi, align 4
  call void @_ZNK8CNetAddr5IsTorEv(i32 %tmp8)
  br i1 icmp eq (i8 and (i8 ptrtoint (i32* @0 to i8), i8 ptrtoint (i32* @0 to i8)), i8 0), label %bb, label %dec_label_pc_21ef

bb:                                               ; preds = %dec_label_pc_21a0
  %v1_21e9 = call i32 @function_2278()
  br label %dec_label_pc_21ef

dec_label_pc_21ef:                                ; preds = %bb, %dec_label_pc_21a0
  %v0_21f3 = load i32, i32* @ebx, align 4
  %v1_21f3 = add i32 %v0_21f3, ptrtoint (i32* @global_var_6.428 to i32)
  store i32 %v1_21f3, i32* @ebx, align 4
  ret void
}

define i32 @function_2231(i32 %arg1, i32 %arg2, i32 %arg3, i32 %arg4, i32 %arg5) local_unnamed_addr {
dec_label_pc_2231:
  %edi.global-to-local = alloca i32, align 4
  %esi.global-to-local = alloca i32, align 4
  %v0_2231 = load i32, i32* %edi.global-to-local, align 4
  %v3_2240 = icmp eq i32 %arg1, 612665600
  %v0_2247 = load i32, i32* %esi.global-to-local, align 4
  store i32 %v0_2247, i32* @eax, align 4
  %v1_2249 = icmp eq i1 %v3_2240, false
  br i1 %v1_2249, label %bb, label %dec_label_pc_224f

bb:                                               ; preds = %dec_label_pc_2231
  %v3_2249 = call i32 @function_2488(i32 %v0_2231)
  br label %dec_label_pc_224f

dec_label_pc_224f:                                ; preds = %bb, %dec_label_pc_2231
  %v0_2271 = phi i32 [ %v3_2249, %bb ], [ %v0_2247, %dec_label_pc_2231 ]
  store i32 %arg3, i32* %esi.global-to-local, align 4
  store i32 %arg4, i32* %edi.global-to-local, align 4
  ret i32 %v0_2271
}

define i32 @function_2278() local_unnamed_addr {
dec_label_pc_2278:
  %stack_var_200 = alloca i32, align 4
  %stack_var_64 = alloca i32, align 4
  %stack_var_72 = alloca i32, align 4
  %v2_2278 = load i32, i32* @ebx, align 4
  %v2_227a = ptrtoint i32* %stack_var_72 to i32
  store i32 128, i32* %stack_var_64, align 4
  store i32 %v2_2278, i32* %stack_var_200, align 4
  %v2_22c1 = ptrtoint i32* %stack_var_200 to i32
  call void @_ZNK8CService11GetSockAddrEP8sockaddrPj(i32 %v2_22c1, i32 %v2_227a, i32* nonnull %stack_var_64)
  br i1 icmp ne (i8 and (i8 ptrtoint (i32* @0 to i8), i8 ptrtoint (i32* @0 to i8)), i8 0), label %dec_label_pc_22d8, label %dec_label_pc_22e8.critedge

dec_label_pc_22d8:                                ; preds = %dec_label_pc_2278
  %v2_22d2 = call i32 @function_2390()
  %v0_22d8 = load i32, i32* @ebx, align 4
  call void @_ZNK8CNetAddr6IsIPv4Ev(i32 %v0_22d8)
  %v2_22e2 = call i32 @function_2438()
  br label %dec_label_pc_22e8

dec_label_pc_22e8.critedge:                       ; preds = %dec_label_pc_2278
  %v0_22d8.c = load i32, i32* @ebx, align 4
  call void @_ZNK8CNetAddr6IsIPv4Ev(i32 %v0_22d8.c)
  br label %dec_label_pc_22e8

dec_label_pc_22e8:                                ; preds = %dec_label_pc_22e8.critedge, %dec_label_pc_22d8
  %v0_22e8 = load i32, i32* @ebx, align 4
  %v3_235f = urem i32 %v0_22e8, 256
  %v1_2362 = add i32 %v0_22e8, 1
  %v2_2362 = inttoptr i32 %v1_2362 to i8*
  %v3_2362 = load i8, i8* %v2_2362, align 1
  %v4_2362 = zext i8 %v3_2362 to i32
  %v2_2376 = mul nuw nsw i32 %v3_235f, 256
  %v2_2379 = or i32 %v4_2362, %v2_2376
  ret i32 %v2_2379

; uselistorder directives
  uselistorder i32 %v0_22e8, { 1, 0 }
}

define i32 @function_2387() local_unnamed_addr {
dec_label_pc_2387:
  %eax.global-to-local = alloca i32, align 4
  %v0_238a = load i32, i32* %eax.global-to-local, align 4
  ret i32 %v0_238a
}

define i32 @function_2390() local_unnamed_addr {
dec_label_pc_2390:
  %edi.global-to-local = alloca i32, align 4
  %edx.global-to-local = alloca i32, align 4
  %tmp13 = call i32 @__decompiler_undefined_function_0()
  %stack_var_219 = alloca i32, align 4
  %stack_var_224 = alloca i32, align 4
  %v2_2390 = ptrtoint i32* %stack_var_224 to i32
  %tmp17 = bitcast i32* %stack_var_224 to i8*
  store i32 %v2_2390, i32* %edi.global-to-local, align 4
  store i32 ptrtoint (i8* @global_var_3fc.457 to i32), i32* %edx.global-to-local, align 4
  store i32 0, i32* %stack_var_219, align 4
  call void @__asm_rep_stosd_memset(i8* %tmp17, i32 0, i32 lshr (i32 ptrtoint (i8* @global_var_3fc.457 to i32), i32 ptrtoint (i16** @global_var_2.437 to i32)))
  %v6_23c5 = load i1, i1* @df, align 1
  %v8_23c5 = select i1 %v6_23c5, i32 mul (i32 lshr (i32 ptrtoint (i8* @global_var_3fc.457 to i32), i32 ptrtoint (i16** @global_var_2.437 to i32)), i32 -4), i32 mul (i32 lshr (i32 ptrtoint (i8* @global_var_3fc.457 to i32), i32 ptrtoint (i16** @global_var_2.437 to i32)), i32 4)
  %v9_23c5 = add i32 %v8_23c5, %v2_2390
  store i32 %v9_23c5, i32* %edi.global-to-local, align 4
  br i1 icmp eq (i32 and (i32 ptrtoint (i8* @global_var_3fc.457 to i32), i32 2), i32 0), label %dec_label_pc_23d1, label %dec_label_pc_23c9

dec_label_pc_23c9:                                ; preds = %dec_label_pc_2390
  %v1_23c9 = inttoptr i32 %v9_23c5 to i16*
  store i16 0, i16* %v1_23c9, align 4
  %v0_23ce = load i32, i32* %edi.global-to-local, align 4
  %v1_23ce = add i32 %v0_23ce, 2
  store i32 %v1_23ce, i32* %edi.global-to-local, align 4
  br label %dec_label_pc_23d1

dec_label_pc_23d1:                                ; preds = %dec_label_pc_23c9, %dec_label_pc_2390
  %v0_23d6 = phi i32 [ %v1_23ce, %dec_label_pc_23c9 ], [ %v9_23c5, %dec_label_pc_2390 ]
  %v0_23d1 = load i32, i32* %edx.global-to-local, align 4
  %v1_23d1 = urem i32 %v0_23d1, 2
  %v2_23d1 = icmp eq i32 %v1_23d1, 0
  store i32 %v1_23d1, i32* %edx.global-to-local, align 4
  br i1 %v2_23d1, label %dec_label_pc_23d9, label %dec_label_pc_23d6

dec_label_pc_23d6:                                ; preds = %dec_label_pc_23d1
  %v1_23d6 = inttoptr i32 %v0_23d6 to i8*
  store i8 0, i8* %v1_23d6, align 1
  br label %dec_label_pc_23d9

dec_label_pc_23d9:                                ; preds = %dec_label_pc_23d6, %dec_label_pc_23d1
  %v2_23dd = ptrtoint i32* %stack_var_219 to i32
  store i32 %v2_23dd, i32* %edi.global-to-local, align 4
  ret i32 %tmp13

; uselistorder directives
  uselistorder i32 %v1_23d1, { 1, 0 }
}

define i32 @function_2430() local_unnamed_addr {
dec_label_pc_2430:
  %eax.global-to-local = alloca i32, align 4
  %v0_2430 = load i32, i32* %eax.global-to-local, align 4
  ret i32 %v0_2430
}

define i32 @function_2438() local_unnamed_addr {
dec_label_pc_2438:
  %v0_2438 = load i32, i32* @ebx, align 4
  %v1_2450 = add i32 %v0_2438, ptrtoint (i32* @global_var_c.427 to i32)
  %v2_2450 = inttoptr i32 %v1_2450 to i8*
  %v3_2450 = load i8, i8* %v2_2450, align 1
  %v4_2450 = zext i8 %v3_2450 to i32
  ret i32 %v4_2450
}

define i32 @function_2470() local_unnamed_addr {
dec_label_pc_2470:
  %eax.global-to-local = alloca i32, align 4
  %v0_2473 = load i32, i32* %eax.global-to-local, align 4
  ret i32 %v0_2473
}

define i32 @function_2478(i32 %arg1, i32 %arg2) local_unnamed_addr {
dec_label_pc_2478:
  %v0_2478 = load i32, i32* @edi, align 4
  %v1_2478 = inttoptr i32 %v0_2478 to i16*
  store i16 0, i16* %v1_2478, align 2
  %v0_2483 = load i32, i32* @eax, align 4
  ret i32 %v0_2483
}

define i32 @function_2488(i32 %arg1) local_unnamed_addr {
dec_label_pc_2488:
  %tmp = load i32, i32* @eax, align 4
  ret i32 %tmp
}

define i32 @function_248e() local_unnamed_addr {
dec_label_pc_248e:
  %eax.global-to-local = alloca i32, align 4
  %v0_248e = load i32, i32* %eax.global-to-local, align 4
  ret i32 %v0_248e
}

define i32 @function_2497() local_unnamed_addr {
dec_label_pc_2497:
  %tmp = load i32, i32* @eax, align 4
  ret i32 %tmp
}

define i32 @function_24a7() local_unnamed_addr {
dec_label_pc_24a7:
  %v0_24a9 = call i32 @function_2497()
  ret i32 %v0_24a9
}

define void @_ZNK8CNetAddr8ToStringEv(i32 %this) local_unnamed_addr {
dec_label_pc_24b0:
  %tmp97 = call i32 @__decompiler_undefined_function_0()
  call void @_ZNK8CNetAddr10ToStringIPEv(i32 %this)
  %v3_24dd = icmp eq i32 %tmp97, 612665600
  %v1_24e4 = icmp eq i1 %v3_24dd, false
  br i1 %v1_24e4, label %dec_label_pc_24ed, label %dec_label_pc_24e6

dec_label_pc_24e6:                                ; preds = %dec_label_pc_24b0
  ret void

dec_label_pc_24ed:                                ; preds = %dec_label_pc_24b0
  ret void
}

define void @_ZNK8CNetAddr5printEv(i32 %this) local_unnamed_addr {
dec_label_pc_2500:
  %tmp100 = call i32 @__decompiler_undefined_function_0()
  %tmp101 = call i32 @__decompiler_undefined_function_0()
  %stack_var_-24 = alloca i32, align 4
  %v2_2514 = ptrtoint i32* %stack_var_-24 to i32
  call void @_ZNK8CNetAddr10ToStringIPEv(i32 %v2_2514)
  %v7_2542 = icmp eq i32 %tmp101, 12
  %v1_2548 = icmp eq i1 %v7_2542, false
  br i1 %v1_2548, label %dec_label_pc_255c, label %dec_label_pc_254a

dec_label_pc_254a:                                ; preds = %dec_label_pc_2500
  %v2_254e = xor i32 %tmp100, 612665600
  %v3_254e = icmp eq i32 %v2_254e, 0
  store i32 %v2_254e, i32* @eax, align 4
  %v1_2555 = icmp eq i1 %v3_254e, false
  br i1 %v1_2555, label %bb, label %dec_label_pc_2557

bb:                                               ; preds = %dec_label_pc_254a
  %v5_2555 = call i32 @function_2583(i32 ptrtoint ([14 x i8]* @global_var_4f48.460 to i32), i32 %tmp101)
  br label %dec_label_pc_2557

dec_label_pc_2557:                                ; preds = %bb, %dec_label_pc_254a
  ret void

dec_label_pc_255c:                                ; preds = %dec_label_pc_2500
  ret void

; uselistorder directives
  uselistorder i32 %tmp101, { 1, 0 }
}

define i32 @function_2581() local_unnamed_addr {
dec_label_pc_2581:
  %eax.global-to-local = alloca i32, align 4
  %v0_2581 = load i32, i32* %eax.global-to-local, align 4
  ret i32 %v0_2581
}

define i32 @function_2583(i32 %arg1, i32 %arg2) local_unnamed_addr {
dec_label_pc_2583:
  %v3_258c = load i32, i32* @eax, align 4
  ret i32 %v3_258c
}

define i32 @function_25a0() local_unnamed_addr {
dec_label_pc_25a0:
  %eax.global-to-local = alloca i32, align 4
  %v0_25a0 = load i32, i32* %eax.global-to-local, align 4
  %v1_25a0 = add i32 %v0_25a0, -4
  %v2_25a0 = inttoptr i32 %v1_25a0 to i32*
  %v3_25a0 = load i32, i32* %v2_25a0, align 4
  %v1_25a3 = add i32 %v3_25a0, -1
  store i32 %v1_25a3, i32* %v2_25a0, align 4
  %v0_25a9 = load i32, i32* %eax.global-to-local, align 4
  ret i32 %v0_25a9
}

define void @_ZNK8CService12ToStringPortEv(i32 %this) local_unnamed_addr {
dec_label_pc_25b0:
  %tmp2 = call i32 @__decompiler_undefined_function_0()
  %v3_25f1 = icmp eq i32 %tmp2, 612665600
  %v1_25f8 = icmp eq i1 %v3_25f1, false
  br i1 %v1_25f8, label %dec_label_pc_2601, label %dec_label_pc_25fa

dec_label_pc_25fa:                                ; preds = %dec_label_pc_25b0
  ret void

dec_label_pc_2601:                                ; preds = %dec_label_pc_25b0
  ret void
}

define void @_ZN8CService7SetPortEt(i32 %this, i16 %portIn) local_unnamed_addr {
dec_label_pc_2610:
  %v3_2627 = add i32 %this, ptrtoint (i16** @global_var_10.441 to i32)
  %v4_2627 = inttoptr i32 %v3_2627 to i16*
  store i16 %portIn, i16* %v4_2627, align 2
  ret void
}

define void @_ZNK8CService14ToStringIPPortEv(i32 %this) local_unnamed_addr {
dec_label_pc_2650:
  %stack_var_-64 = alloca i32, align 4
  %stack_var_-52 = alloca i32, align 4
  %tmp10 = call i32 @__decompiler_undefined_function_0()
  store i32 %this, i32* @ebx, align 4
  call void @_ZNK8CNetAddr6IsIPv4Ev(i32 %tmp10)
  br i1 icmp eq (i8 and (i8 ptrtoint (i32* @0 to i8), i8 ptrtoint (i32* @0 to i8)), i8 0), label %bb, label %dec_label_pc_2687

bb:                                               ; preds = %dec_label_pc_2650
  %v1_2681 = call i32 @function_2730()
  br label %dec_label_pc_2687

dec_label_pc_2687:                                ; preds = %bb, %dec_label_pc_2650
  %v2_2687 = ptrtoint i32* %stack_var_-52 to i32
  call void @_ZNK8CService12ToStringPortEv(i32 %v2_2687)
  %v2_269a = ptrtoint i32* %stack_var_-64 to i32
  call void @_ZNK8CNetAddr10ToStringIPEv(i32 %v2_269a)
  ret void
}

define i32 @function_26f0(i32 %arg1, i32 %arg2, i32 %arg3, i32 %arg4, i32 %arg5) local_unnamed_addr {
dec_label_pc_26f0:
  %ebx.global-to-local = alloca i32, align 4
  %edi.global-to-local = alloca i32, align 4
  %v0_26f8 = load i32, i32* %edi.global-to-local, align 4
  %v3_2704 = icmp eq i32 %arg1, 612665600
  %v0_270b = load i32, i32* %ebx.global-to-local, align 4
  store i32 %v0_270b, i32* @eax, align 4
  %v1_270d = icmp eq i1 %v3_2704, false
  br i1 %v1_270d, label %bb, label %dec_label_pc_2713

bb:                                               ; preds = %dec_label_pc_26f0
  %v3_270d = call i32 @function_2814(i32 %v0_26f8)
  br label %dec_label_pc_2713

dec_label_pc_2713:                                ; preds = %bb, %dec_label_pc_26f0
  %v0_2726 = phi i32 [ %v3_270d, %bb ], [ %v0_270b, %dec_label_pc_26f0 ]
  store i32 %arg2, i32* %ebx.global-to-local, align 4
  store i32 %arg4, i32* %edi.global-to-local, align 4
  ret i32 %v0_2726
}

define i32 @function_2730() local_unnamed_addr {
dec_label_pc_2730:
  %tmp = call i32 @__decompiler_undefined_function_0()
  %stack_var_24 = alloca i32, align 4
  %stack_var_40 = alloca i32, align 4
  %v0_2730 = load i32, i32* @esi, align 4
  call void @_ZNK8CNetAddr5IsTorEv(i32 %v0_2730)
  %v2_2740 = ptrtoint i32* %stack_var_40 to i32
  call void @_ZNK8CService12ToStringPortEv(i32 %v2_2740)
  %v2_2753 = ptrtoint i32* %stack_var_24 to i32
  call void @_ZNK8CNetAddr10ToStringIPEv(i32 %v2_2753)
  store i32 ptrtoint (i32* @global_var_c.427 to i32), i32* %stack_var_24, align 4
  %v1_2776 = add i32 %tmp, -12
  %v2_2776 = inttoptr i32 %v1_2776 to i32*
  %v3_2776 = load i32, i32* %v2_2776, align 4
  %v1_277c = add i32 %v3_2776, 1
  ret i32 %v1_277c

; uselistorder directives
  uselistorder void (i32)* @_ZNK8CNetAddr10ToStringIPEv, { 3, 2, 1, 0 }
  uselistorder void (i32)* @_ZNK8CService12ToStringPortEv, { 1, 0 }
  uselistorder void (i32)* @_ZNK8CNetAddr5IsTorEv, { 3, 2, 1, 0 }
}

define i32 @function_280f() local_unnamed_addr {
dec_label_pc_280f:
  %eax.global-to-local = alloca i32, align 4
  %v0_280f = load i32, i32* %eax.global-to-local, align 4
  ret i32 %v0_280f
}

define i32 @function_2814(i32 %arg1) local_unnamed_addr {
dec_label_pc_2814:
  %tmp = load i32, i32* @eax, align 4
  ret i32 %tmp
}

define i32 @function_2819(i32 %arg1) local_unnamed_addr {
dec_label_pc_2819:
  %tmp = load i32, i32* @eax, align 4
  ret i32 %tmp
}

define i32 @function_281a() local_unnamed_addr {
dec_label_pc_281a:
  %eax.global-to-local = alloca i32, align 4
  %v0_281a = load i32, i32* %eax.global-to-local, align 4
  ret i32 %v0_281a
}

define i32 @function_2823() local_unnamed_addr {
dec_label_pc_2823:
  %tmp = load i32, i32* @eax, align 4
  ret i32 %tmp
}

define i32 @function_282b() local_unnamed_addr {
dec_label_pc_282b:
  %tmp = load i32, i32* @eax, align 4
  ret i32 %tmp
}

define i32 @function_2833() local_unnamed_addr {
dec_label_pc_2833:
  %ebx.global-to-local = alloca i32, align 4
  %v0_2833 = load i32, i32* %ebx.global-to-local, align 4
  %v1_283b = call i32 @function_2819(i32 %v0_2833)
  ret i32 %v1_283b
}

define i32 @function_283d() local_unnamed_addr {
dec_label_pc_283d:
  %v0_2840 = call i32 @function_2823()
  ret i32 %v0_2840
}

define i32 @function_2842() local_unnamed_addr {
dec_label_pc_2842:
  %v0_2844 = call i32 @function_282b()
  ret i32 %v0_2844
}

define i32 @function_2847() local_unnamed_addr {
dec_label_pc_2847:
  %eax.global-to-local = alloca i32, align 4
  %v0_2847 = load i32, i32* %eax.global-to-local, align 4
  ret i32 %v0_2847
}

define i32 @function_2848() local_unnamed_addr {
dec_label_pc_2848:
  %tmp = load i32, i32* @eax, align 4
  ret i32 %tmp
}

define i32 @function_2859() local_unnamed_addr {
dec_label_pc_2859:
  %eax.global-to-local = alloca i32, align 4
  %v0_2859 = load i32, i32* %eax.global-to-local, align 4
  ret i32 %v0_2859
}

define i32 @function_2862() local_unnamed_addr {
dec_label_pc_2862:
  %tmp = load i32, i32* @eax, align 4
  ret i32 %tmp
}

define i32 @function_286e() local_unnamed_addr {
dec_label_pc_286e:
  %v0_286e = call i32 @function_2848()
  ret i32 %v0_286e
}

define i32 @function_2871() local_unnamed_addr {
dec_label_pc_2871:
  %eax.global-to-local = alloca i32, align 4
  %v0_2871 = load i32, i32* %eax.global-to-local, align 4
  ret i32 %v0_2871
}

define i32 @function_2872(i32 %arg1) local_unnamed_addr {
dec_label_pc_2872:
  %tmp = load i32, i32* @eax, align 4
  ret i32 %tmp
}

define i32 @function_287a() local_unnamed_addr {
dec_label_pc_287a:
  %v0_287a = call i32 @function_2862()
  ret i32 %v0_287a
}

define i32 @function_287c() local_unnamed_addr {
dec_label_pc_287c:
  %v0_287e = load i32, i32* @esi, align 4
  %v1_2886 = call i32 @function_2872(i32 %v0_287e)
  ret i32 %v1_2886
}

define i32 @function_2888() local_unnamed_addr {
dec_label_pc_2888:
  %v0_2888 = call i32 @function_287c()
  ret i32 %v0_2888
}

define void @_ZNK8CService8ToStringEv(i32 %this) local_unnamed_addr {
dec_label_pc_2890:
  %tmp97 = call i32 @__decompiler_undefined_function_0()
  call void @_ZNK8CService14ToStringIPPortEv(i32 %this)
  %v3_28bd = icmp eq i32 %tmp97, 612665600
  %v1_28c4 = icmp eq i1 %v3_28bd, false
  br i1 %v1_28c4, label %dec_label_pc_28cd, label %dec_label_pc_28c6

dec_label_pc_28c6:                                ; preds = %dec_label_pc_2890
  ret void

dec_label_pc_28cd:                                ; preds = %dec_label_pc_2890
  ret void
}

define void @_ZNK8CService5printEv(i32 %this) local_unnamed_addr {
dec_label_pc_28e0:
  %stack_var_-24 = alloca i32, align 4
  %v2_28f4 = ptrtoint i32* %stack_var_-24 to i32
  call void @_ZNK8CService14ToStringIPPortEv(i32 %v2_28f4)
  ret void
}

define i32 @function_292a() local_unnamed_addr {
dec_label_pc_292a:
  %tmp4 = call i32 @__decompiler_undefined_function_0()
  %v2_292e = xor i32 %tmp4, 612665600
  %v3_292e = icmp eq i32 %v2_292e, 0
  store i32 %v2_292e, i32* @eax, align 4
  %v1_2935 = icmp eq i1 %v3_292e, false
  br i1 %v1_2935, label %bb, label %dec_label_pc_2937

bb:                                               ; preds = %dec_label_pc_292a
  %v2_2935 = call i32 @function_2963()
  br label %dec_label_pc_2937

dec_label_pc_2937:                                ; preds = %bb, %dec_label_pc_292a
  %v0_293b = phi i32 [ %v2_2935, %bb ], [ %v2_292e, %dec_label_pc_292a ]
  ret i32 %v0_293b
}

define i32 @function_2961() local_unnamed_addr {
dec_label_pc_2961:
  %v0_2961 = call i32 @function_292a()
  ret i32 %v0_2961
}

define i32 @function_2963() local_unnamed_addr {
dec_label_pc_2963:
  %v0_297b = load i32, i32* @eax, align 4
  ret i32 %v0_297b
}

define i32 @function_2980() local_unnamed_addr {
dec_label_pc_2980:
  %eax.global-to-local = alloca i32, align 4
  %v0_2980 = load i32, i32* %eax.global-to-local, align 4
  %v1_2980 = add i32 %v0_2980, -4
  %v2_2980 = inttoptr i32 %v1_2980 to i32*
  %v3_2980 = load i32, i32* %v2_2980, align 4
  %v1_2983 = add i32 %v3_2980, -1
  store i32 %v1_2983, i32* %v2_2980, align 4
  %v0_2989 = load i32, i32* %eax.global-to-local, align 4
  ret i32 %v0_2989
}

define i1 @ConnectSocketDirectly(i32 %addrConnect, i32 %hSocketRet, i32 %nTimeout) local_unnamed_addr {
dec_label_pc_2990:
  %tmp5 = call i32 @__decompiler_undefined_function_0()
  %stack_var_-300 = alloca i32, align 4
  %stack_var_-304 = alloca i32, align 4
  %stack_var_-288 = alloca i32, align 4
  %v0_299d = load i32, i32* @eax, align 4
  store i32 %v0_299d, i32* @ebx, align 4
  %v0_29a6 = load i32, i32* @edx, align 4
  store i32 %v0_29a6, i32* @esi, align 4
  %v2_29b8 = ptrtoint i32* %stack_var_-288 to i32
  %v1_29bc = inttoptr i32 %v0_29a6 to i32*
  store i32 -1, i32* %v1_29bc, align 4
  store i32 128, i32* %stack_var_-304, align 4
  %v0_29e5 = load i32, i32* @ebx, align 4
  call void @_ZNK8CService11GetSockAddrEP8sockaddrPj(i32 %v0_29e5, i32 %v2_29b8, i32* nonnull %stack_var_-304)
  br i1 icmp ne (i8 and (i8 ptrtoint (i32* @0 to i8), i8 ptrtoint (i32* @0 to i8)), i8 0), label %dec_label_pc_2a60, label %dec_label_pc_29f1

dec_label_pc_29f1:                                ; preds = %dec_label_pc_2990
  %v2_29f1 = ptrtoint i32* %stack_var_-300 to i32
  call void @_ZNK8CService14ToStringIPPortEv(i32 %v2_29f1)
  %v3_2a04 = load i32, i32* %stack_var_-304, align 4
  store i32 0, i32* @eax, align 4
  %v3_2a2b = icmp eq i32 %tmp5, 612665600
  %v1_2a32 = icmp eq i1 %v3_2a2b, false
  br i1 %v1_2a32, label %bb, label %dec_label_pc_2a38

bb:                                               ; preds = %dec_label_pc_29f1
  %v5_2a32 = call i32 @function_2ce6(i32 %v2_29f1, i32 %v3_2a04)
  %phitmp = urem i32 %v5_2a32, 2
  %phitmp4 = icmp ne i32 %phitmp, 0
  br label %dec_label_pc_2a38

dec_label_pc_2a38:                                ; preds = %bb, %dec_label_pc_29f1
  %v0_2a5a = phi i1 [ %phitmp4, %bb ], [ false, %dec_label_pc_29f1 ]
  ret i1 %v0_2a5a

dec_label_pc_2a60:                                ; preds = %dec_label_pc_2990
  %v3_2a60 = load i32, i32* %stack_var_-288, align 4
  %tmp21 = urem i32 %v3_2a60, 2
  %v4_2a75 = icmp ne i32 %tmp21, 0
  ret i1 %v4_2a75

; uselistorder directives
  uselistorder i32* %stack_var_-304, { 1, 0, 2 }
}

define i32 @function_2a83() local_unnamed_addr {
dec_label_pc_2a83:
  %eax.global-to-local = alloca i32, align 4
  %v0_2a83 = load i32, i32* %eax.global-to-local, align 4
  ret i32 %v0_2a83
}

define i32 @function_2b12() local_unnamed_addr {
dec_label_pc_2b12:
  %eax.global-to-local = alloca i32, align 4
  %ebx.global-to-local = alloca i32, align 4
  %v0_2b12 = load i32, i32* %ebx.global-to-local, align 4
  %v1_2b12 = add i32 %v0_2b12, -2079326216
  %v2_2b12 = inttoptr i32 %v1_2b12 to i32*
  %v3_2b12 = load i32, i32* %v2_2b12, align 4
  %v4_2b12 = add i32 %v3_2b12, 1
  store i32 %v4_2b12, i32* %v2_2b12, align 4
  store i32 -1996488703, i32* %ebx.global-to-local, align 4
  %v0_2b23 = load i32, i32* %eax.global-to-local, align 4
  ret i32 %v0_2b23
}

define i32 @function_2b42() local_unnamed_addr {
dec_label_pc_2b42:
  %cf.global-to-local = alloca i1, align 1
  %ebx.global-to-local = alloca i32, align 4
  %ecx.global-to-local = alloca i32, align 4
  %edx.global-to-local = alloca i32, align 4
  %of.global-to-local = alloca i1, align 1
  %tmp92 = call i32 @__decompiler_undefined_function_0()
  %v1_2b42 = add i32 %tmp92, ptrtoint (i32* @global_var_62.465 to i32)
  %v2_2b42 = inttoptr i32 %v1_2b42 to i32*
  %v3_2b42 = load i32, i32* %v2_2b42, align 4
  %v4_2b42 = load i32, i32* %ecx.global-to-local, align 4
  %v6_2b42 = urem i32 %v4_2b42, 32
  %v7_2b42 = icmp eq i32 %v6_2b42, 0
  br i1 %v7_2b42, label %dec_label_pc_2b42._crit_edge, label %bb

dec_label_pc_2b42._crit_edge:                     ; preds = %dec_label_pc_2b42
  %v6_2b45.pre = load i1, i1* %cf.global-to-local, align 1
  br label %bb97

bb:                                               ; preds = %dec_label_pc_2b42
  %v8_2b42 = lshr i32 %v3_2b42, %v6_2b42
  %v9_2b42 = sub nsw i32 32, %v6_2b42
  %v10_2b42 = shl i32 %v3_2b42, %v9_2b42
  %v11_2b42 = or i32 %v10_2b42, %v8_2b42
  store i32 %v11_2b42, i32* %v2_2b42, align 4
  %tmp98 = icmp slt i32 %v11_2b42, 0
  %v15_2b42 = zext i1 %tmp98 to i32
  store i1 %tmp98, i1* %cf.global-to-local, align 1
  %v17_2b42 = load i1, i1* %of.global-to-local, align 1
  %v18_2b42 = udiv i32 %v11_2b42, 1073741824
  %v19_2b42 = urem i32 %v18_2b42, 2
  %v20_2b42 = icmp ne i32 %v15_2b42, %v19_2b42
  %v21_2b42 = icmp eq i32 %v6_2b42, 1
  %v22_2b42 = select i1 %v21_2b42, i1 %v20_2b42, i1 %v17_2b42
  store i1 %v22_2b42, i1* %of.global-to-local, align 1
  br label %bb97

bb97:                                             ; preds = %dec_label_pc_2b42._crit_edge, %bb
  %v6_2b45 = phi i1 [ %v6_2b45.pre, %dec_label_pc_2b42._crit_edge ], [ %tmp98, %bb ]
  %v0_2b45 = load i32, i32* %ebx.global-to-local, align 4
  %v1_2b45 = udiv i32 %v0_2b45, 256
  %v2_2b45 = trunc i32 %v1_2b45 to i8
  %v3_2b45 = load i32, i32* %edx.global-to-local, align 4
  %v4_2b45 = udiv i32 %v3_2b45, 256
  %v5_2b45 = trunc i32 %v4_2b45 to i8
  %v7_2b45 = zext i1 %v6_2b45 to i8
  %v8_2b45 = add i8 %v5_2b45, %v2_2b45
  %v9_2b45 = add i8 %v8_2b45, %v7_2b45
  %v15_2b45 = add i8 %v9_2b45, %v7_2b45
  %v16_2b45 = xor i8 %v15_2b45, %v2_2b45
  %v17_2b45 = xor i8 %v15_2b45, %v5_2b45
  %v18_2b45 = and i8 %v16_2b45, %v17_2b45
  %v19_2b45 = icmp slt i8 %v18_2b45, 0
  store i1 %v19_2b45, i1* %of.global-to-local, align 1
  %v27_2b45 = icmp ule i8 %v9_2b45, %v2_2b45
  %v28_2b45 = icmp ult i8 %v8_2b45, %v2_2b45
  %v29_2b45 = select i1 %v6_2b45, i1 %v27_2b45, i1 %v28_2b45
  store i1 %v29_2b45, i1* %cf.global-to-local, align 1
  %v30_2b45 = zext i8 %v9_2b45 to i32
  %v32_2b45 = mul nuw nsw i32 %v30_2b45, 256
  %v33_2b45 = and i32 %v0_2b45, -65281
  %v34_2b45 = or i32 %v32_2b45, %v33_2b45
  store i32 %v34_2b45, i32* %ebx.global-to-local, align 4
  %v0_2b47 = call i32 @function_f8c1f889()
  ret i32 %v0_2b47

; uselistorder directives
  uselistorder i8 %v9_2b45, { 2, 1, 0 }
  uselistorder i8 %v8_2b45, { 1, 0 }
  uselistorder i8 %v2_2b45, { 2, 3, 0, 1 }
  uselistorder i32 %v0_2b45, { 1, 0 }
  uselistorder i1 %v6_2b45, { 1, 0 }
  uselistorder i1 %tmp98, { 1, 0, 2 }
  uselistorder i32 %v6_2b42, { 3, 2, 1, 0 }
  uselistorder label %bb97, { 1, 0 }
}

define i32 @function_2b56() local_unnamed_addr {
dec_label_pc_2b56:
  %eax.global-to-local = alloca i32, align 4
  %v0_2b56 = load i32, i32* %eax.global-to-local, align 4
  ret i32 %v0_2b56
}

define i32 @function_2c0a(i16 %arg1) local_unnamed_addr {
dec_label_pc_2c0a:
  %eax.global-to-local = alloca i32, align 4
  %ebx.global-to-local = alloca i32, align 4
  %ecx.global-to-local = alloca i32, align 4
  %edi.global-to-local = alloca i32, align 4
  %v2_2c0a = load i8, i8* bitcast (i32* @eax to i8*), align 4
  %v3_2c0a = load i32, i32* %eax.global-to-local, align 4
  %v4_2c0a = trunc i32 %v3_2c0a to i8
  %v5_2c0a = add i8 %v4_2c0a, %v2_2c0a
  %v21_2c0a = inttoptr i32 %v3_2c0a to i8*
  store i8 %v5_2c0a, i8* %v21_2c0a, align 1
  %v0_2c0c = load i32, i32* %ebx.global-to-local, align 4
  %v1_2c0c = add i32 %v0_2c0c, -2059131836
  %v2_2c0c = inttoptr i32 %v1_2c0c to i8*
  %v3_2c0c = load i8, i8* %v2_2c0c, align 1
  %v4_2c0c = load i32, i32* %ecx.global-to-local, align 4
  %v5_2c0c = trunc i32 %v4_2c0c to i8
  %v6_2c0c = add i8 %v5_2c0c, %v3_2c0c
  store i8 %v6_2c0c, i8* %v2_2c0c, align 1
  %v2_2c12 = load i8, i8* bitcast (i32* @edi to i8*), align 4
  %v3_2c12 = udiv i8 %v2_2c12, 16
  %v4_2c12 = mul i8 %v2_2c12, 16
  %v5_2c12 = or i8 %v3_2c12, %v4_2c12
  %v6_2c12 = load i32, i32* %edi.global-to-local, align 4
  %v7_2c12 = inttoptr i32 %v6_2c12 to i8*
  store i8 %v5_2c12, i8* %v7_2c12, align 1
  %v6_2c15 = load i32, i32* %eax.global-to-local, align 4
  ret i32 %v6_2c15
}

define i32 @function_2c31() local_unnamed_addr {
dec_label_pc_2c31:
  %eax.global-to-local = alloca i32, align 4
  %v0_2c3b = load i32, i32* %eax.global-to-local, align 4
  ret i32 %v0_2c3b
}

define i32 @function_2c6d() local_unnamed_addr {
dec_label_pc_2c6d:
  %eax.global-to-local = alloca i32, align 4
  %edx.global-to-local = alloca i32, align 4
  %tmp93 = call i32 @__decompiler_undefined_function_0()
  %v3_2c6d = add i32 %tmp93, -1
  %v18_2c6d = inttoptr i32 %tmp93 to i32*
  store i32 %v3_2c6d, i32* %v18_2c6d, align 4
  %v0_2c6f = load i32, i32* %edx.global-to-local, align 4
  %v1_2c6f = and i32 %v0_2c6f, -65281
  %v2_2c6f = or i32 %v1_2c6f, 21504
  store i32 %v2_2c6f, i32* %edx.global-to-local, align 4
  %v0_2c71 = load i32, i32* %eax.global-to-local, align 4
  %v11_2c71 = and i32 %v0_2c71, or (i32 zext (i8 ptrtoint (i32* @global_var_2c.466 to i8) to i32), i32 -256)
  store i32 %v11_2c71, i32* %eax.global-to-local, align 4
  ret i32 %v11_2c71

; uselistorder directives
  uselistorder i32 %v11_2c71, { 1, 0 }
  uselistorder i32 %tmp93, { 1, 0 }
}

define i32 @function_2c78() local_unnamed_addr {
dec_label_pc_2c78:
  %eax.global-to-local = alloca i32, align 4
  %v0_2c8e = load i32, i32* %eax.global-to-local, align 4
  ret i32 %v0_2c8e
}

define i32 @function_2cae() local_unnamed_addr {
dec_label_pc_2cae:
  %eax.global-to-local = alloca i32, align 4
  %v0_2cb0 = load i32, i32* %eax.global-to-local, align 4
  ret i32 %v0_2cb0
}

define i32 @function_2cb5() local_unnamed_addr {
dec_label_pc_2cb5:
  %ebp.global-to-local = alloca i32, align 4
  %v2_2cb5 = load i32, i32* %ebp.global-to-local, align 4
  ret i32 %v2_2cb5
}

define i32 @function_2cdf() local_unnamed_addr {
dec_label_pc_2cdf:
  %eax.global-to-local = alloca i32, align 4
  %v0_2ce1 = load i32, i32* %eax.global-to-local, align 4
  ret i32 %v0_2ce1
}

define i32 @function_2ce6(i32 %arg1, i32 %arg2) local_unnamed_addr {
dec_label_pc_2ce6:
  %tmp = load i32, i32* @eax, align 4
  ret i32 %tmp
}

define i32 @function_2cec() local_unnamed_addr {
dec_label_pc_2cec:
  %eax.global-to-local = alloca i32, align 4
  %v0_2cec = load i32, i32* %eax.global-to-local, align 4
  ret i32 %v0_2cec
}

define void @LookupIntern(i8* %pszName, i32 %vIP, i32 %nMaxSolutions, i1 %fAllowLookup) local_unnamed_addr {
dec_label_pc_2d00:
  %stack_var_-92 = alloca i32, align 4
  %stack_var_-80 = alloca i32, align 4
  %v0_2d03 = load i32, i32* @ecx, align 4
  store i32 %v0_2d03, i32* @esi, align 4
  %v0_2d06 = load i32, i32* @edx, align 4
  store i32 %v0_2d06, i32* @ebx, align 4
  %v2_2d1a = ptrtoint i32* %stack_var_-80 to i32
  store i32 %v2_2d1a, i32* @ebp, align 4
  %v2_2d2b = ptrtoint i32* %stack_var_-92 to i32
  store i32 %v2_2d2b, i32* @edi, align 4
  %v2_2d35 = add i32 %v0_2d06, 4
  %v3_2d35 = inttoptr i32 %v2_2d35 to i32*
  store i32 0, i32* %v3_2d35, align 4
  call void @_ZN8CNetAddr4InitEv(i32 %v2_2d1a)
  call void @_ZN8CNetAddr10SetSpecialERKSs(i32 %v2_2d1a, i32 %v2_2d2b)
  store i32 0, i32* @edx, align 4
  br i1 icmp ne (i8 ptrtoint (i32* @0 to i8), i8 0), label %bb, label %dec_label_pc_2d7f

bb:                                               ; preds = %dec_label_pc_2d00
  %v3_2d79 = call i32 @function_2e20(i32 %v2_2d2b)
  %v1_2d7f.pre.pre = load i32, i32* @edx, align 4
  br label %dec_label_pc_2d7f

dec_label_pc_2d7f:                                ; preds = %bb, %dec_label_pc_2d00, %dec_label_pc_2d7f
  %v1_2d7f = phi i32 [ %v1_2d87, %dec_label_pc_2d7f ], [ %v1_2d7f.pre.pre, %bb ], [ 0, %dec_label_pc_2d00 ]
  %v0_2d7f = load i32, i32* @esp, align 4
  %v3_2d7f = add i32 %v1_2d7f, 32
  %v4_2d7f = add i32 %v3_2d7f, %v0_2d7f
  %v5_2d7f = inttoptr i32 %v4_2d7f to i32*
  store i32 0, i32* %v5_2d7f, align 4
  %v0_2d87 = load i32, i32* @edx, align 4
  %v1_2d87 = add i32 %v0_2d87, 4
  store i32 %v1_2d87, i32* @edx, align 4
  %v4_2d8a = icmp ult i32 %v1_2d87, 32
  br i1 %v4_2d8a, label %dec_label_pc_2d7f, label %dec_label_pc_2d8f

dec_label_pc_2d8f:                                ; preds = %dec_label_pc_2d7f
  ret void

; uselistorder directives
  uselistorder i32 %v1_2d87, { 1, 2, 0 }
  uselistorder label %dec_label_pc_2d7f, { 2, 0, 1 }
}

define i32 @function_2df0() local_unnamed_addr {
dec_label_pc_2df0:
  %tmp = load i32, i32* @eax, align 4
  ret i32 %tmp
}

define i32 @function_2e04() local_unnamed_addr {
dec_label_pc_2e04:
  %tmp = load i32, i32* @eax, align 4
  ret i32 %tmp
}

define i32 @function_2e0f() local_unnamed_addr {
dec_label_pc_2e0f:
  %eax.global-to-local = alloca i32, align 4
  %ebx.global-to-local = alloca i32, align 4
  %v0_2e0f = load i32, i32* %ebx.global-to-local, align 4
  %v1_2e0f = add i32 %v0_2e0f, 53150787
  %v2_2e0f = inttoptr i32 %v1_2e0f to i32*
  %v3_2e0f = load i32, i32* %v2_2e0f, align 4
  %v4_2e0f = add i32 %v3_2e0f, -1
  store i32 %v4_2e0f, i32* %v2_2e0f, align 4
  %v0_2e15 = load i32, i32* %eax.global-to-local, align 4
  %v2_2e15 = sdiv i32 %v0_2e15, 16
  %v0_2e15.off = add i32 %v0_2e15, 15
  %tmp97 = icmp ult i32 %v0_2e15.off, 31
  %v1_2e1a = icmp eq i1 %tmp97, false
  %v2_2e1a = zext i1 %v1_2e1a to i32
  %v4_2e1a = and i32 %v2_2e15, -256
  %v5_2e1a = or i32 %v2_2e1a, %v4_2e1a
  store i32 %v5_2e1a, i32* %eax.global-to-local, align 4
  ret i32 %v5_2e1a
}

define i32 @function_2e20(i32 %arg1) local_unnamed_addr {
dec_label_pc_2e20:
  %tmp28 = call i32 @__decompiler_undefined_function_0()
  %v0_2e20 = load i32, i32* @ebx, align 4
  %v1_2e20 = add i32 %v0_2e20, 4
  %v2_2e20 = inttoptr i32 %v1_2e20 to i32*
  %v3_2e20 = load i32, i32* %v2_2e20, align 4
  %v2_2e23 = add i32 %v0_2e20, 8
  %v3_2e23 = inttoptr i32 %v2_2e23 to i32*
  %v4_2e23 = load i32, i32* %v3_2e23, align 4
  %v15_2e23 = icmp eq i32 %v3_2e20, %v4_2e23
  br i1 %v15_2e23, label %dec_label_pc_2f8c, label %dec_label_pc_2e2c

dec_label_pc_2e2c:                                ; preds = %dec_label_pc_2e20
  %v1_2e2c = icmp eq i32 %v3_2e20, 0
  br i1 %v1_2e2c, label %dec_label_pc_2e2c.dec_label_pc_2e4e_crit_edge, label %dec_label_pc_2e30

dec_label_pc_2e2c.dec_label_pc_2e4e_crit_edge:    ; preds = %dec_label_pc_2e2c
  br label %dec_label_pc_2e4e

dec_label_pc_2e30:                                ; preds = %dec_label_pc_2e2c
  %v2_2e34 = inttoptr i32 %v3_2e20 to i32*
  store i32 %arg1, i32* %v2_2e34, align 4
  %v2_2e3a = add i32 %v3_2e20, 4
  %v3_2e3a = inttoptr i32 %v2_2e3a to i32*
  %v2_2e41 = add i32 %v3_2e20, 8
  %v3_2e41 = inttoptr i32 %v2_2e41 to i32*
  %v2_2e48 = add i32 %v3_2e20, ptrtoint (i32* @global_var_c.427 to i32)
  %v3_2e48 = inttoptr i32 %v2_2e48 to i32*
  %v0_2e4b = load i32, i32* @ebx, align 4
  %v1_2e4b = add i32 %v0_2e4b, 4
  %v2_2e4b = inttoptr i32 %v1_2e4b to i32*
  br label %dec_label_pc_2e4e

dec_label_pc_2e4e:                                ; preds = %dec_label_pc_2e2c.dec_label_pc_2e4e_crit_edge, %dec_label_pc_2e30
  %v1_2e56 = phi i32 [ %v0_2e20, %dec_label_pc_2e2c.dec_label_pc_2e4e_crit_edge ], [ %v0_2e4b, %dec_label_pc_2e30 ]
  %v0_2e4e.in = phi i32* [ @edx, %dec_label_pc_2e2c.dec_label_pc_2e4e_crit_edge ], [ %v2_2e4b, %dec_label_pc_2e30 ]
  %v0_2e4e = load i32, i32* %v0_2e4e.in, align 4
  %v1_2e4e = add i32 %v0_2e4e, ptrtoint (i16** @global_var_10.441 to i32)
  store i32 1, i32* @eax, align 4
  %v2_2e56 = add i32 %v1_2e56, 4
  %v3_2e56 = inttoptr i32 %v2_2e56 to i32*
  store i32 %v1_2e4e, i32* %v3_2e56, align 4
  br label %dec_label_pc_2e60

dec_label_pc_2e60:                                ; preds = %dec_label_pc_2f8c, %dec_label_pc_2e4e
  %v2_2e64 = xor i32 %tmp28, 612665600
  %v3_2e64 = icmp eq i32 %v2_2e64, 0
  store i32 %v2_2e64, i32* @edx, align 4
  %v1_2e6b = icmp eq i1 %v3_2e64, false
  br i1 %v1_2e6b, label %bb, label %dec_label_pc_2e60.dec_label_pc_2e71_crit_edge

dec_label_pc_2e60.dec_label_pc_2e71_crit_edge:    ; preds = %dec_label_pc_2e60
  %v0_2e7b.pre = load i32, i32* @eax, align 4
  br label %dec_label_pc_2e71

bb:                                               ; preds = %dec_label_pc_2e60
  %v2_2e6b = call i32 @function_2fee()
  br label %dec_label_pc_2e71

dec_label_pc_2e71:                                ; preds = %dec_label_pc_2e60.dec_label_pc_2e71_crit_edge, %bb
  %v0_2e7b = phi i32 [ %v0_2e7b.pre, %dec_label_pc_2e60.dec_label_pc_2e71_crit_edge ], [ %v2_2e6b, %bb ]
  ret i32 %v0_2e7b

dec_label_pc_2f8c:                                ; preds = %dec_label_pc_2e20
  %tmp35 = inttoptr i32 %v0_2e20 to i32*
  %v5_2f97 = call i32 @_ZNSt6vectorI8CNetAddrSaIS0_EE13_M_insert_auxEN9__gnu_cxx17__normal_iteratorIPS0_S2_EERKS0_(i32* %tmp35, i32 %v3_2e20)
  store i32 1, i32* @eax, align 4
  br label %dec_label_pc_2e60

; uselistorder directives
  uselistorder i32 %v3_2e20, { 5, 1, 2, 3, 4, 6, 0 }
  uselistorder label %dec_label_pc_2e71, { 1, 0 }
  uselistorder label %dec_label_pc_2e4e, { 1, 0 }
}

define i32 @function_2fca() local_unnamed_addr {
dec_label_pc_2fca:
  %v3_2fe2 = load i32, i32* @eax, align 4
  ret i32 %v3_2fe2
}

define i32 @function_2fee() local_unnamed_addr {
dec_label_pc_2fee:
  %tmp = load i32, i32* @eax, align 4
  ret i32 %tmp
}

define i32 @function_2ff4() local_unnamed_addr {
dec_label_pc_2ff4:
  %eax.global-to-local = alloca i32, align 4
  %v0_2ff4 = load i32, i32* %eax.global-to-local, align 4
  ret i32 %v0_2ff4
}

define i1 @_Z10LookupHostPKcRSt6vectorI8CNetAddrSaIS2_EEjb(i8* %pszName, i32 %vIP, i32 %nMaxSolutions, i1 %fAllowLookup) local_unnamed_addr {
dec_label_pc_3010:
  %stack_var_-40 = alloca i32, align 4
  %stack_var_-44 = alloca i32, align 4
  %stack_var_-52 = alloca i1, align 1
  %tmp19 = call i1 @__decompiler_undefined_function_5()
  %stack_var_-33 = alloca i32, align 4
  %v2_3033 = ptrtoint i1* %stack_var_-52 to i32
  store i32 %nMaxSolutions, i32* @ebp, align 4
  %tmp32 = zext i1 %fAllowLookup to i32
  store i32 %tmp32, i32* @edi, align 4
  %v4_3050 = sext i1 %tmp19 to i32
  %v1_3054 = add nsw i32 %v4_3050, -12
  %v2_3054 = inttoptr i32 %v1_3054 to i32*
  %v3_3054 = load i32, i32* %v2_3054, align 4
  store i32 %v3_3054, i32* @eax, align 4
  %v1_3057 = icmp eq i32 %v3_3054, 0
  br i1 %v1_3057, label %bb, label %dec_label_pc_305f

bb:                                               ; preds = %dec_label_pc_3010
  %v4_302f = ptrtoint i8* %pszName to i32
  %v2_3023 = ptrtoint i32* %stack_var_-33 to i32
  %v5_3059 = call i32 @function_3158(i32 %v2_3033, i32 %v4_302f, i32 %v2_3023)
  %v3_306f.pre = load i1, i1* %stack_var_-52, align 1
  br label %dec_label_pc_305f

dec_label_pc_305f:                                ; preds = %bb, %dec_label_pc_3010
  %v3_306f = phi i1 [ %v3_306f.pre, %bb ], [ %tmp19, %dec_label_pc_3010 ]
  %v4_306f = sext i1 %v3_306f to i32
  %v1_3073 = add nsw i32 %v4_306f, -12
  %v2_3073 = inttoptr i32 %v1_3073 to i32*
  %v3_3073 = load i32, i32* %v2_3073, align 4
  %v1_308e = icmp eq i32 %v3_3073, 0
  br i1 %v1_308e, label %bb33, label %dec_label_pc_3096

bb33:                                             ; preds = %dec_label_pc_305f
  %v2_305f = ptrtoint i32* %stack_var_-44 to i32
  %v4_3090 = call i32 @function_3118(i32 %v2_305f, i32 %v2_3033)
  br label %dec_label_pc_3096

dec_label_pc_3096:                                ; preds = %bb33, %dec_label_pc_305f
  %v0_3096 = phi i32 [ %v4_3090, %bb33 ], [ %v4_306f, %dec_label_pc_305f ]
  %v1_3096 = inttoptr i32 %v0_3096 to i8*
  %v2_3096 = load i8, i8* %v1_3096, align 1
  %v12_3096 = icmp eq i8 %v2_3096, 91
  %v1_3099 = icmp eq i1 %v12_3096, false
  br i1 %v1_3099, label %bb35, label %dec_label_pc_309b

bb35:                                             ; preds = %dec_label_pc_3096
  %v5_3099 = call i32 @function_3118(i32 %v3_3073, i32 %v4_306f)
  br label %dec_label_pc_309b

dec_label_pc_309b:                                ; preds = %bb35, %dec_label_pc_3096
  %v2_309b = ptrtoint i32* %stack_var_-40 to i32
  store i32 %v2_309b, i32* @ebx, align 4
  %v3_30ab = load i1, i1* %stack_var_-52, align 1
  ret i1 %v3_30ab

; uselistorder directives
  uselistorder i32 %v4_306f, { 1, 0, 2 }
  uselistorder i32 %v2_3033, { 1, 0 }
  uselistorder i1* %stack_var_-52, { 2, 0, 1 }
  uselistorder i32 (i32, i32)* @function_3118, { 1, 0 }
}

define i32 @function_3118(i32 %arg1, i32 %arg2) local_unnamed_addr {
dec_label_pc_3118:
  store i32 %arg1, i32* @edx, align 4
  %v0_311c = load i32, i32* @edi, align 4
  %v1_311c = urem i32 %v0_311c, 256
  %v0_3122 = load i32, i32* @ebp, align 4
  store i32 %v0_3122, i32* @ecx, align 4
  store i32 %arg2, i32* @eax, align 4
  %v3_3128 = inttoptr i32 %v1_311c to i8*
  call void @LookupIntern(i8* %v3_3128, i32 ptrtoint (i32* @0 to i32), i32 ptrtoint (i32* @0 to i32), i1 ptrtoint (i32* @0 to i1))
  ret i32 ptrtoint (i32* @0 to i32)
}

define i32 @function_3139(i32 %arg1, i32 %arg2, i32 %arg3, i32 %arg4) local_unnamed_addr {
dec_label_pc_3139:
  %ecx.global-to-local = alloca i32, align 4
  %edx.global-to-local = alloca i32, align 4
  %v0_3139 = load i32, i32* %ecx.global-to-local, align 4
  %v1_3139 = add i32 %v0_3139, 609520600
  %v2_3139 = inttoptr i32 %v1_3139 to i32*
  %v3_3139 = load i32, i32* %v2_3139, align 4
  %v4_3139 = add i32 %v3_3139, -1
  store i32 %v4_3139, i32* %v2_3139, align 4
  %v0_313f = load i32, i32* @eax, align 4
  %v0_3141 = load i32, i32* %edx.global-to-local, align 4
  %v2_3141 = xor i32 %v0_3141, 612665600
  %v3_3141 = icmp eq i32 %v2_3141, 0
  store i32 %v2_3141, i32* %edx.global-to-local, align 4
  %v1_3147 = icmp eq i1 %v3_3141, false
  br i1 %v1_3147, label %bb, label %dec_label_pc_3149

bb:                                               ; preds = %dec_label_pc_3139
  %v2_3147 = call i32 @function_315c()
  br label %dec_label_pc_3149

dec_label_pc_3149:                                ; preds = %bb, %dec_label_pc_3139
  %v0_3150 = phi i32 [ %v2_3147, %bb ], [ %v0_313f, %dec_label_pc_3139 ]
  ret i32 %v0_3150
}

define i32 @function_3158(i32 %arg1, i32 %arg2, i32 %arg3) local_unnamed_addr {
dec_label_pc_3158:
  %v0_315a = load i32, i32* @eax, align 4
  ret i32 %v0_315a
}

define i32 @function_315c() local_unnamed_addr {
dec_label_pc_315c:
  %v0_3161 = load i32, i32* @eax, align 4
  ret i32 %v0_3161
}

define i32 @function_316d() local_unnamed_addr {
dec_label_pc_316d:
  %tmp = load i32, i32* @eax, align 4
  ret i32 %tmp
}

define i32 @function_3189() local_unnamed_addr {
dec_label_pc_3189:
  %v0_318b = call i32 @function_316d()
  ret i32 %v0_318b
}

define void @CNetAddr.416(i32 %this, i32 %strIp, i1 %fAllowLookup) local_unnamed_addr {
dec_label_pc_3190:
  %ebx.global-to-local = alloca i32, align 4
  %edi.global-to-local = alloca i32, align 4
  %esi.global-to-local = alloca i32, align 4
  %stack_var_-28 = alloca i32, align 4
  %v0_3193 = load i32, i32* %ebx.global-to-local, align 4
  store i32 %this, i32* %ebx.global-to-local, align 4
  %v0_319b = load i32, i32* %edi.global-to-local, align 4
  %tmp118 = zext i1 %fAllowLookup to i32
  store i32 %tmp118, i32* %edi.global-to-local, align 4
  %v0_31a4 = load i32, i32* %esi.global-to-local, align 4
  store i32 %strIp, i32* %esi.global-to-local, align 4
  call void @_ZN8CNetAddr4InitEv(i32 %this)
  %tmp119 = urem i32 %tmp118, 2
  %v4_31c5 = icmp ne i32 %tmp119, 0
  %v2_31c9 = ptrtoint i32* %stack_var_-28 to i32
  %v1_31d9 = inttoptr i32 %strIp to i32*
  %v2_31d9 = load i32, i32* %v1_31d9, align 4
  store i32 0, i32* %stack_var_-28, align 4
  %v5_31f6 = inttoptr i32 %v2_31d9 to i8*
  %v7_31f6 = call i1 @_Z10LookupHostPKcRSt6vectorI8CNetAddrSaIS2_EEjb(i8* %v5_31f6, i32 %v2_31c9, i32 1, i1 %v4_31c5)
  %v5_31fb = icmp eq i1 %v7_31f6, false
  %v3_31fd = load i32, i32* %stack_var_-28, align 4
  br i1 %v5_31fb, label %dec_label_pc_3219, label %dec_label_pc_3203

dec_label_pc_3203:                                ; preds = %dec_label_pc_3190
  %v1_3203 = inttoptr i32 %v3_31fd to i32*
  %v2_3203 = load i32, i32* %v1_3203, align 4
  %v1_3205 = load i32, i32* @ebx, align 4
  %v2_3205 = inttoptr i32 %v1_3205 to i32*
  store i32 %v2_3203, i32* %v2_3205, align 4
  %v1_3207 = add i32 %v3_31fd, 4
  %v2_3207 = inttoptr i32 %v1_3207 to i32*
  %v3_3207 = load i32, i32* %v2_3207, align 4
  %v1_320a = load i32, i32* @ebx, align 4
  %v2_320a = add i32 %v1_320a, 4
  %v3_320a = inttoptr i32 %v2_320a to i32*
  store i32 %v3_3207, i32* %v3_320a, align 4
  %v1_320d = add i32 %v3_31fd, 8
  %v2_320d = inttoptr i32 %v1_320d to i32*
  %v3_320d = load i32, i32* %v2_320d, align 4
  %v1_3210 = load i32, i32* @ebx, align 4
  %v2_3210 = add i32 %v1_3210, 8
  %v3_3210 = inttoptr i32 %v2_3210 to i32*
  store i32 %v3_320d, i32* %v3_3210, align 4
  %v1_3216 = load i32, i32* @ebx, align 4
  %v2_3216 = add i32 %v1_3216, ptrtoint (i32* @global_var_c.427 to i32)
  %v3_3216 = inttoptr i32 %v2_3216 to i32*
  store i32 1707313408, i32* %v3_3216, align 4
  br label %dec_label_pc_3219

dec_label_pc_3219:                                ; preds = %dec_label_pc_3203, %dec_label_pc_3190
  %v1_3219 = icmp eq i32 %v3_31fd, 0
  br i1 %v1_3219, label %dec_label_pc_3225, label %dec_label_pc_321d

dec_label_pc_321d:                                ; preds = %dec_label_pc_3219
  br label %dec_label_pc_3225

dec_label_pc_3225:                                ; preds = %dec_label_pc_321d, %dec_label_pc_3219
  store i32 %v0_3193, i32* %ebx.global-to-local, align 4
  store i32 %v0_31a4, i32* %esi.global-to-local, align 4
  store i32 %v0_319b, i32* %edi.global-to-local, align 4
  ret void

; uselistorder directives
  uselistorder i32 %v3_31fd, { 3, 0, 1, 2 }
  uselistorder i32* %esi.global-to-local, { 0, 2, 1 }
  uselistorder i32* %edi.global-to-local, { 0, 2, 1 }
  uselistorder i32* %ebx.global-to-local, { 0, 2, 1 }
}

define i32 @function_3259() local_unnamed_addr {
dec_label_pc_3259:
  %v3_3259 = load i32, i32* @eax, align 4
  ret i32 %v3_3259
}

define void @CNetAddr.417(i32 %this, i8* %pszIp, i1 %fAllowLookup) local_unnamed_addr {
dec_label_pc_3270:
  %ebx.global-to-local = alloca i32, align 4
  %edi.global-to-local = alloca i32, align 4
  %esi.global-to-local = alloca i32, align 4
  %stack_var_-28 = alloca i32, align 4
  %v0_3273 = load i32, i32* %ebx.global-to-local, align 4
  store i32 %this, i32* %ebx.global-to-local, align 4
  %v0_327b = load i32, i32* %edi.global-to-local, align 4
  %tmp119 = zext i1 %fAllowLookup to i32
  store i32 %tmp119, i32* %edi.global-to-local, align 4
  %v0_3284 = load i32, i32* %esi.global-to-local, align 4
  %v4_3288 = ptrtoint i8* %pszIp to i32
  store i32 %v4_3288, i32* %esi.global-to-local, align 4
  call void @_ZN8CNetAddr4InitEv(i32 %this)
  %tmp120 = urem i32 %tmp119, 2
  %v4_32a5 = icmp ne i32 %tmp120, 0
  %v2_32a9 = ptrtoint i32* %stack_var_-28 to i32
  store i32 0, i32* %stack_var_-28, align 4
  %v7_32d4 = call i1 @_Z10LookupHostPKcRSt6vectorI8CNetAddrSaIS2_EEjb(i8* %pszIp, i32 %v2_32a9, i32 1, i1 %v4_32a5)
  %v5_32d9 = icmp eq i1 %v7_32d4, false
  %v3_32db = load i32, i32* %stack_var_-28, align 4
  br i1 %v5_32d9, label %dec_label_pc_32f7, label %dec_label_pc_32e1

dec_label_pc_32e1:                                ; preds = %dec_label_pc_3270
  %v1_32e1 = inttoptr i32 %v3_32db to i32*
  %v2_32e1 = load i32, i32* %v1_32e1, align 4
  %v1_32e3 = load i32, i32* @ebx, align 4
  %v2_32e3 = inttoptr i32 %v1_32e3 to i32*
  store i32 %v2_32e1, i32* %v2_32e3, align 4
  %v1_32e5 = add i32 %v3_32db, 4
  %v2_32e5 = inttoptr i32 %v1_32e5 to i32*
  %v3_32e5 = load i32, i32* %v2_32e5, align 4
  %v1_32e8 = load i32, i32* @ebx, align 4
  %v2_32e8 = add i32 %v1_32e8, 4
  %v3_32e8 = inttoptr i32 %v2_32e8 to i32*
  store i32 %v3_32e5, i32* %v3_32e8, align 4
  %v1_32eb = add i32 %v3_32db, 8
  %v2_32eb = inttoptr i32 %v1_32eb to i32*
  %v3_32eb = load i32, i32* %v2_32eb, align 4
  %v1_32ee = load i32, i32* @ebx, align 4
  %v2_32ee = add i32 %v1_32ee, 8
  %v3_32ee = inttoptr i32 %v2_32ee to i32*
  store i32 %v3_32eb, i32* %v3_32ee, align 4
  %v1_32f4 = load i32, i32* @ebx, align 4
  %v2_32f4 = add i32 %v1_32f4, ptrtoint (i32* @global_var_c.427 to i32)
  %v3_32f4 = inttoptr i32 %v2_32f4 to i32*
  store i32 1707313408, i32* %v3_32f4, align 4
  br label %dec_label_pc_32f7

dec_label_pc_32f7:                                ; preds = %dec_label_pc_32e1, %dec_label_pc_3270
  %v1_32f7 = icmp eq i32 %v3_32db, 0
  br i1 %v1_32f7, label %dec_label_pc_3303, label %dec_label_pc_32fb

dec_label_pc_32fb:                                ; preds = %dec_label_pc_32f7
  br label %dec_label_pc_3303

dec_label_pc_3303:                                ; preds = %dec_label_pc_32fb, %dec_label_pc_32f7
  store i32 %v0_3273, i32* %ebx.global-to-local, align 4
  store i32 %v0_3284, i32* %esi.global-to-local, align 4
  store i32 %v0_327b, i32* %edi.global-to-local, align 4
  ret void

; uselistorder directives
  uselistorder i32 %v3_32db, { 3, 0, 1, 2 }
}

define i32 @function_3324() local_unnamed_addr {
dec_label_pc_3324:
  %eax.global-to-local = alloca i32, align 4
  %ebx.global-to-local = alloca i32, align 4
  %v0_3324 = load i32, i32* %ebx.global-to-local, align 4
  %v1_3324 = add i32 %v0_3324, -1995430828
  %v2_3324 = inttoptr i32 %v1_3324 to i32*
  %v3_3324 = load i32, i32* %v2_3324, align 4
  %v4_3324 = add i32 %v3_3324, -1
  store i32 %v4_3324, i32* %v2_3324, align 4
  %v0_332a = load i32, i32* %eax.global-to-local, align 4
  ret i32 %v0_332a
}

define i1 @_Z17LookupHostNumericPKcRSt6vectorI8CNetAddrSaIS2_EEj(i8* %pszName, i32 %vIP, i32 %nMaxSolutions) local_unnamed_addr {
dec_label_pc_3340:
  %v8_336e = call i1 @_Z10LookupHostPKcRSt6vectorI8CNetAddrSaIS2_EEjb(i8* %pszName, i32 %vIP, i32 %nMaxSolutions, i1 false)
  ret i1 %v8_336e

; uselistorder directives
  uselistorder i1 (i8*, i32, i32, i1)* @_Z10LookupHostPKcRSt6vectorI8CNetAddrSaIS2_EEjb, { 2, 1, 0 }
}

define void @_ZNK8CNetAddr8GetGroupEv(i32 %this) local_unnamed_addr {
dec_label_pc_3390:
  %ebp.global-to-local = alloca i32, align 4
  %ebx.global-to-local = alloca i32, align 4
  %edi.global-to-local = alloca i32, align 4
  %stack_var_-33 = alloca i8, align 1
  %stack_var_-34 = alloca i8, align 1
  %stack_var_-35 = alloca i8, align 1
  %tmp129 = call i8* @__decompiler_undefined_function_1()
  %v0_3390 = load i32, i32* %ebp.global-to-local, align 4
  %v0_3391 = load i32, i32* %edi.global-to-local, align 4
  %v0_3393 = load i32, i32* %ebx.global-to-local, align 4
  store i32 %this, i32* @ebx, align 4
  %v4_339b = ptrtoint i8* %tmp129 to i32
  store i32 %v4_339b, i32* @ebp, align 4
  %v1_33ab = inttoptr i32 %this to i32*
  store i32 0, i32* %v1_33ab, align 4
  %v0_33b1 = load i32, i32* @ebx, align 4
  %v1_33b1 = add i32 %v0_33b1, 4
  %v2_33b1 = inttoptr i32 %v1_33b1 to i32*
  store i32 0, i32* %v2_33b1, align 4
  %v0_33b8 = load i32, i32* @ebx, align 4
  %v1_33b8 = add i32 %v0_33b8, 8
  %v2_33b8 = inttoptr i32 %v1_33b8 to i32*
  store i32 0, i32* %v2_33b8, align 4
  call void @_ZNK8CNetAddr7IsLocalEv(i32 612665600)
  store i32 0, i32* %edi.global-to-local, align 4
  call void @_ZNK8CNetAddr10IsRoutableEv(i32 add (i32 zext (i1 icmp eq (i8 ptrtoint (i32* @0 to i8), i8 0) to i32), i32 255))
  br i1 icmp eq (i8 and (i8 ptrtoint (i32* @0 to i8), i8 ptrtoint (i32* @0 to i8)), i8 0), label %dec_label_pc_3548, label %dec_label_pc_33ef

dec_label_pc_33ef:                                ; preds = %dec_label_pc_3390
  %v0_33ef = load i32, i32* @ebp, align 4
  store i32 ptrtoint (i32* @global_var_c.427 to i32), i32* @esi, align 4
  call void @_ZNK8CNetAddr6IsIPv4Ev(i32 %v0_33ef)
  br label %dec_label_pc_3409

dec_label_pc_3409:                                ; preds = %dec_label_pc_33ef, %dec_label_pc_3548
  %v0_340d = phi i8 [ 1, %dec_label_pc_33ef ], [ 0, %dec_label_pc_3548 ]
  %v2_3409 = ptrtoint i8* %stack_var_-35 to i32
  store i8 %v0_340d, i8* %stack_var_-35, align 1
  %v0_341d = load i32, i32* @ebx, align 4
  %v4_3420 = inttoptr i32 %v0_341d to i32*
  %v5_3420 = call i32 @_ZNSt6vectorIhSaIhEE13_M_insert_auxEN9__gnu_cxx17__normal_iteratorIPhS1_EERKh(i32* %v4_3420, i32 0, i32 %v2_3409)
  %v0_3425 = load i32, i32* @edi, align 4
  %v8_3428 = icmp sgt i32 %v0_3425, 7
  br i1 %v8_3428, label %dec_label_pc_342a, label %dec_label_pc_3488

dec_label_pc_342a:                                ; preds = %dec_label_pc_3409
  %v1_342c = urem i32 %v0_3425, 8
  %v2_3466 = ptrtoint i8* %stack_var_-34 to i32
  br label %dec_label_pc_3455

dec_label_pc_3438:                                ; preds = %dec_label_pc_3455
  %v2_343a = icmp eq i32 %v3_345a, 0
  br i1 %v2_343a, label %dec_label_pc_3443, label %dec_label_pc_343e

dec_label_pc_343e:                                ; preds = %dec_label_pc_3438
  store i8 %v5_3455, i8* %v4_345a, align 1
  %v0_3440 = load i32, i32* @ebx, align 4
  %v1_3440 = add i32 %v0_3440, 4
  %v2_3440 = inttoptr i32 %v1_3440 to i32*
  %v3_3440 = load i32, i32* %v2_3440, align 4
  %v0_3446.pre = load i32, i32* @esi, align 4
  br label %dec_label_pc_3443

dec_label_pc_3443:                                ; preds = %dec_label_pc_343e, %dec_label_pc_3438
  %v1_3450 = phi i32 [ %v0_3440, %dec_label_pc_343e ], [ %v0_345a, %dec_label_pc_3438 ]
  %v0_3446 = phi i32 [ %v0_3446.pre, %dec_label_pc_343e ], [ %v1_3455, %dec_label_pc_3438 ]
  %v0_3443 = phi i32 [ %v3_3440, %dec_label_pc_343e ], [ 0, %dec_label_pc_3438 ]
  %v1_3443 = add i32 %v0_3443, 1
  %v1_3446 = add i32 %v0_3446, 1
  store i32 %v1_3446, i32* @esi, align 4
  %v0_3449 = load i32, i32* @edi, align 4
  %v1_3449 = add i32 %v0_3449, -8
  store i32 %v1_3449, i32* @edi, align 4
  %v15_344c = icmp eq i32 %v1_3449, %v1_342c
  %v2_3450 = add i32 %v1_3450, 4
  %v3_3450 = inttoptr i32 %v2_3450 to i32*
  store i32 %v1_3443, i32* %v3_3450, align 4
  br i1 %v15_344c, label %dec_label_pc_3443.dec_label_pc_3488.loopexit_crit_edge, label %dec_label_pc_3455

dec_label_pc_3443.dec_label_pc_3488.loopexit_crit_edge: ; preds = %dec_label_pc_3443
  %v0_3488.pre.pre = load i32, i32* @edi, align 4
  br label %dec_label_pc_3488

dec_label_pc_3455:                                ; preds = %dec_label_pc_3443, %dec_label_pc_3466, %dec_label_pc_342a
  %v0_3455 = load i32, i32* @ebp, align 4
  %v1_3455 = load i32, i32* @esi, align 4
  %v3_3455 = add i32 %v1_3455, %v0_3455
  %v4_3455 = inttoptr i32 %v3_3455 to i8*
  %v5_3455 = load i8, i8* %v4_3455, align 1
  %v0_345a = load i32, i32* @ebx, align 4
  %v1_345a = add i32 %v0_345a, 4
  %v2_345a = inttoptr i32 %v1_345a to i32*
  %v3_345a = load i32, i32* %v2_345a, align 4
  %v4_345a = inttoptr i32 %v3_345a to i8*
  %v3_345d = add i32 %v0_345a, 8
  %v4_345d = inttoptr i32 %v3_345d to i32*
  %v5_345d = load i32, i32* %v4_345d, align 4
  %v16_345d = icmp eq i32 %v3_345a, %v5_345d
  store i8 %v5_3455, i8* %stack_var_-34, align 1
  %v1_3464 = icmp eq i1 %v16_345d, false
  br i1 %v1_3464, label %dec_label_pc_3438, label %dec_label_pc_3466

dec_label_pc_3466:                                ; preds = %dec_label_pc_3455
  %v4_3475 = inttoptr i32 %v0_345a to i32*
  %v5_3475 = call i32 @_ZNSt6vectorIhSaIhEE13_M_insert_auxEN9__gnu_cxx17__normal_iteratorIPhS1_EERKh(i32* %v4_3475, i32 %v3_345a, i32 %v2_3466)
  %v0_347a = load i32, i32* @esi, align 4
  %v1_347a = add i32 %v0_347a, 1
  store i32 %v1_347a, i32* @esi, align 4
  %v0_347d = load i32, i32* @edi, align 4
  %v1_347d = add i32 %v0_347d, -8
  store i32 %v1_347d, i32* @edi, align 4
  %v15_3480 = icmp eq i32 %v1_347d, %v1_342c
  %v1_3484 = icmp eq i1 %v15_3480, false
  br i1 %v1_3484, label %dec_label_pc_3455, label %dec_label_pc_3488

dec_label_pc_3488:                                ; preds = %dec_label_pc_3466, %dec_label_pc_3443.dec_label_pc_3488.loopexit_crit_edge, %dec_label_pc_3409
  %v0_3491 = phi i32 [ %v0_3425, %dec_label_pc_3409 ], [ %v0_3488.pre.pre, %dec_label_pc_3443.dec_label_pc_3488.loopexit_crit_edge ], [ %v1_347d, %dec_label_pc_3466 ]
  %v1_3488 = icmp eq i32 %v0_3491, 0
  br i1 %v1_3488, label %dec_label_pc_34bd, label %dec_label_pc_348c

dec_label_pc_348c:                                ; preds = %dec_label_pc_3488
  %v0_3493 = load i32, i32* @ebx, align 4
  %v1_3493 = add i32 %v0_3493, 4
  %v2_3493 = inttoptr i32 %v1_3493 to i32*
  %v3_3493 = load i32, i32* %v2_3493, align 4
  %v4_3493 = inttoptr i32 %v3_3493 to i8*
  %v3_3496 = urem i32 %v0_3491, 32
  %v5_3496 = icmp eq i32 %v3_3496, 0
  br i1 %v5_3496, label %bb143, label %bb

bb:                                               ; preds = %dec_label_pc_348c
  %v6_3496 = shl i32 1, %v3_3496
  %phitmp = add i32 %v6_3496, 255
  %phitmp148 = trunc i32 %phitmp to i8
  br label %bb143

bb143:                                            ; preds = %dec_label_pc_348c, %bb
  %v0_3498 = phi i8 [ 0, %dec_label_pc_348c ], [ %phitmp148, %bb ]
  %v2_349b = load i32, i32* @ebp, align 4
  %v3_349b = load i32, i32* @esi, align 4
  %v5_349b = add i32 %v3_349b, %v2_349b
  %v6_349b = inttoptr i32 %v5_349b to i8*
  %v7_349b = load i8, i8* %v6_349b, align 1
  %v8_349b = or i8 %v7_349b, %v0_3498
  %v3_349f = add i32 %v0_3493, 8
  %v4_349f = inttoptr i32 %v3_349f to i32*
  %v5_349f = load i32, i32* %v4_349f, align 4
  %v16_349f = icmp eq i32 %v3_3493, %v5_349f
  store i8 %v8_349b, i8* %stack_var_-33, align 1
  br i1 %v16_349f, label %dec_label_pc_3620, label %dec_label_pc_34ac

dec_label_pc_34ac:                                ; preds = %bb143
  %v2_34ae = icmp eq i32 %v3_3493, 0
  br i1 %v2_34ae, label %dec_label_pc_34b7, label %dec_label_pc_34b2

dec_label_pc_34b2:                                ; preds = %dec_label_pc_34ac
  store i8 %v8_349b, i8* %v4_3493, align 1
  %v0_34b4 = load i32, i32* @ebx, align 4
  %v1_34b4 = add i32 %v0_34b4, 4
  %v2_34b4 = inttoptr i32 %v1_34b4 to i32*
  %v3_34b4 = load i32, i32* %v2_34b4, align 4
  %phitmp147 = add i32 %v3_34b4, 1
  br label %dec_label_pc_34b7

dec_label_pc_34b7:                                ; preds = %dec_label_pc_34b2, %dec_label_pc_34ac
  %v1_34ba = phi i32 [ %v0_34b4, %dec_label_pc_34b2 ], [ %v0_3493, %dec_label_pc_34ac ]
  %v0_34b7 = phi i32 [ %phitmp147, %dec_label_pc_34b2 ], [ 1, %dec_label_pc_34ac ]
  %v2_34ba = add i32 %v1_34ba, 4
  %v3_34ba = inttoptr i32 %v2_34ba to i32*
  store i32 %v0_34b7, i32* %v3_34ba, align 4
  br label %dec_label_pc_34bd

dec_label_pc_34bd:                                ; preds = %dec_label_pc_3620, %dec_label_pc_34b7, %dec_label_pc_3488
  store i32 %v0_3393, i32* %ebx.global-to-local, align 4
  store i32 %v0_3391, i32* %edi.global-to-local, align 4
  store i32 %v0_3390, i32* %ebp.global-to-local, align 4
  ret void

dec_label_pc_3548:                                ; preds = %dec_label_pc_3390
  store i32 0, i32* @edi, align 4
  store i32 0, i32* @esi, align 4
  br label %dec_label_pc_3409

dec_label_pc_3620:                                ; preds = %bb143
  %v2_3620 = ptrtoint i8* %stack_var_-33 to i32
  %v4_362f = inttoptr i32 %v0_3493 to i32*
  %v5_362f = call i32 @_ZNSt6vectorIhSaIhEE13_M_insert_auxEN9__gnu_cxx17__normal_iteratorIPhS1_EERKh(i32* %v4_362f, i32 %v3_3493, i32 %v2_3620)
  br label %dec_label_pc_34bd

; uselistorder directives
  uselistorder i32 %v3_3496, { 1, 0 }
  uselistorder i32 %v3_3493, { 2, 1, 0, 3 }
  uselistorder i32 %v1_347d, { 1, 0, 2 }
  uselistorder i32 %v3_345a, { 2, 0, 3, 1 }
  uselistorder i32 %v0_345a, { 1, 2, 3, 0 }
  uselistorder i8 %v5_3455, { 1, 0 }
  uselistorder i32 %v1_342c, { 1, 0 }
  uselistorder i32 %v0_3425, { 1, 0, 2 }
  uselistorder i8* %stack_var_-35, { 1, 0 }
  uselistorder i8* %stack_var_-34, { 1, 0 }
  uselistorder void (i32)* @_ZNK8CNetAddr10IsRoutableEv, { 2, 1, 0 }
  uselistorder label %bb143, { 1, 0 }
  uselistorder label %dec_label_pc_3455, { 1, 0, 2 }
  uselistorder label %dec_label_pc_3409, { 1, 0 }
}

define i1 @_Z6LookupPKcRSt6vectorI8CServiceSaIS2_EEibj(i8* %pszName, i32 %vAddr, i32 %portDefault, i1 %fAllowLookup, i32 %nMaxSolutions) local_unnamed_addr {
dec_label_pc_36a0:
  %stack_var_-92 = alloca i32, align 4
  %v2_36d6 = load i8, i8* %pszName, align 1
  %v9_36d6 = icmp eq i8 %v2_36d6, 0
  %v1_36e5 = icmp eq i1 %v9_36d6, false
  br i1 %v1_36e5, label %dec_label_pc_3708, label %dec_label_pc_36e7

dec_label_pc_36e7:                                ; preds = %dec_label_pc_36a0
  ret i1 false

dec_label_pc_3708:                                ; preds = %dec_label_pc_36a0
  %v2_371b = ptrtoint i32* %stack_var_-92 to i32
  store i32 %v2_371b, i32* @ebx, align 4
  ret i1 false
}

define i32 @function_3765(i32* %arg1, i32 %arg2, i32 %arg3, i32 %arg4, i32 %arg5, i32 %arg6, i32 %arg7) local_unnamed_addr {
dec_label_pc_3765:
  %eax.global-to-local = alloca i32, align 4
  %ebp.global-to-local = alloca i32, align 4
  %ebx.global-to-local = alloca i32, align 4
  %ecx.global-to-local = alloca i32, align 4
  %edi.global-to-local = alloca i32, align 4
  %edx.global-to-local = alloca i32, align 4
  %esi.global-to-local = alloca i32, align 4
  %tmp110 = ptrtoint i32* %arg1 to i32
  %stack_var_70 = alloca i32, align 4
  store i32 %arg3, i32* %stack_var_70, align 4
  %stack_var_44 = alloca i32, align 4
  %v0_3765 = load i32, i32* %ebx.global-to-local, align 4
  %v1_3765 = add i32 %v0_3765, -1992547260
  %v2_3765 = inttoptr i32 %v1_3765 to i32*
  %v3_3765 = load i32, i32* %v2_3765, align 4
  %v4_3765 = add i32 %v3_3765, -1
  store i32 %v4_3765, i32* %v2_3765, align 4
  %v2_376c = ptrtoint i32* %stack_var_44 to i32
  store i32 %v2_376c, i32* @edx, align 4
  store i32 0, i32* %stack_var_44, align 4
  %v0_3788 = load i32, i32* %esi.global-to-local, align 4
  %v3_3788 = inttoptr i32 %v0_3788 to i8*
  call void @LookupIntern(i8* %v3_3788, i32 ptrtoint (i32* @0 to i32), i32 ptrtoint (i32* @0 to i32), i1 ptrtoint (i32* @0 to i1))
  store i32 ptrtoint (i32* @0 to i32), i32* %eax.global-to-local, align 4
  br i1 icmp eq (i8 and (i8 ptrtoint (i32* @0 to i8), i8 ptrtoint (i32* @0 to i8)), i8 0), label %dec_label_pc_3890, label %dec_label_pc_3798

dec_label_pc_3798:                                ; preds = %dec_label_pc_3765
  %v2_3798 = ptrtoint i32* %stack_var_70 to i32
  store i32 %v2_3798, i32* %eax.global-to-local, align 4
  call void @CService(i32 %v2_3798)
  %v3_37a4 = load i32, i32* %stack_var_44, align 4
  %v4_37ac = inttoptr i32 %v3_37a4 to i8*
  %v2_37b0 = sub i32 0, %v3_37a4
  %v2_37b6 = sdiv i32 %v2_37b0, 16
  %v2_37b0.off = sub i32 15, %v3_37a4
  %tmp131 = icmp ult i32 %v2_37b0.off, 31
  store i32 %v2_37b6, i32* @eax, align 4
  store i32 %tmp110, i32* %edx.global-to-local, align 4
  %v1_37e7 = add i32 %tmp110, 4
  %v2_37e7 = inttoptr i32 %v1_37e7 to i32*
  %v3_37e7 = load i32, i32* %v2_37e7, align 4
  store i32 %v3_37e7, i32* @ebx, align 4
  %v2_37ea = load i32, i32* %arg1, align 4
  store i32 %v2_37ea, i32* @ecx, align 4
  %v2_37ee = sub i32 %v3_37e7, %v2_37ea
  %v2_37f0 = sdiv i32 %v2_37ee, 2
  %v3_37f2 = mul i32 %v2_37f0, 954437177
  store i32 %v3_37f2, i32* @edx, align 4
  %tmp132 = icmp ugt i32 %v2_37b6, %v3_37f2
  br i1 %tmp132, label %bb, label %dec_label_pc_3800

bb:                                               ; preds = %dec_label_pc_3798
  %v7_37fa = call i32 @function_38c0(i32 %v3_37a4, i32 %v2_37b6)
  store i32 %v7_37fa, i32* %eax.global-to-local, align 4
  %v4_3800.pre = load i32, i32* @edx, align 4
  br label %dec_label_pc_3800

dec_label_pc_3800:                                ; preds = %dec_label_pc_3798, %bb
  %v4_3800 = phi i32 [ %v3_37f2, %dec_label_pc_3798 ], [ %v4_3800.pre, %bb ]
  %v10_3800 = icmp ult i32 %v2_37b6, %v4_3800
  %v1_3804 = icmp eq i1 %v10_3800, false
  br i1 %v1_3804, label %dec_label_pc_3817, label %dec_label_pc_3806

dec_label_pc_3806:                                ; preds = %dec_label_pc_3800
  store i32 %tmp110, i32* %edx.global-to-local, align 4
  %v0_3811 = load i32, i32* @ecx, align 4
  %v2_3811 = mul i32 %v2_37b6, 18
  %v3_3811 = add i32 %v0_3811, %v2_3811
  store i32 %v3_3811, i32* %eax.global-to-local, align 4
  store i32 %v3_3811, i32* %v2_37e7, align 4
  br label %dec_label_pc_3817

dec_label_pc_3817:                                ; preds = %dec_label_pc_3806, %dec_label_pc_3800
  store i32 %v2_37b6, i32* %eax.global-to-local, align 4
  store i32 1, i32* %ebx.global-to-local, align 4
  br i1 %tmp131, label %dec_label_pc_389a, label %dec_label_pc_3824

dec_label_pc_3824:                                ; preds = %dec_label_pc_3817
  %v4_3824 = urem i32 %arg2, 65536
  store i32 %v4_3824, i32* %eax.global-to-local, align 4
  store i32 0, i32* %ebx.global-to-local, align 4
  store i32 0, i32* %ecx.global-to-local, align 4
  br label %dec_label_pc_3838

dec_label_pc_3838:                                ; preds = %dec_label_pc_3838.dec_label_pc_3838_crit_edge, %dec_label_pc_3824
  %v0_3843 = phi i32 [ %v0_3843.pre, %dec_label_pc_3838.dec_label_pc_3838_crit_edge ], [ 0, %dec_label_pc_3824 ]
  %v0_383c = phi i32 [ %v0_383c.pre, %dec_label_pc_3838.dec_label_pc_3838_crit_edge ], [ 0, %dec_label_pc_3824 ]
  store i32 %tmp110, i32* %edx.global-to-local, align 4
  store i32 %v0_383c, i32* %eax.global-to-local, align 4
  %v1_383e = add i32 %v0_383c, 18
  store i32 %v1_383e, i32* %ebx.global-to-local, align 4
  %v3_3841 = load i32, i32* %arg1, align 4
  %v4_3841 = add i32 %v3_3841, %v0_383c
  store i32 %v4_3841, i32* %eax.global-to-local, align 4
  %v2_3845 = mul i32 %v0_3843, 16
  %v1_3848 = add i32 %v0_3843, 1
  store i32 %v1_3848, i32* %ecx.global-to-local, align 4
  %v6_384b = add i32 %v2_3845, %v3_37a4
  store i32 %v6_384b, i32* %edx.global-to-local, align 4
  %v15_384f = icmp eq i32 %v1_3848, %v2_37b6
  %v1_3853 = inttoptr i32 %v6_384b to i32*
  %v2_3853 = load i32, i32* %v1_3853, align 4
  store i32 %v2_3853, i32* %ebp.global-to-local, align 4
  %v1_3855 = add i32 %v6_384b, 4
  %v2_3855 = inttoptr i32 %v1_3855 to i32*
  %v3_3855 = load i32, i32* %v2_3855, align 4
  store i32 %v3_3855, i32* %edi.global-to-local, align 4
  %v1_3858 = add i32 %v6_384b, 8
  %v2_3858 = inttoptr i32 %v1_3858 to i32*
  %v3_3858 = load i32, i32* %v2_3858, align 4
  store i32 %v3_3858, i32* %esi.global-to-local, align 4
  %v1_385b = add i32 %v6_384b, ptrtoint (i32* @global_var_c.427 to i32)
  %v2_385b = inttoptr i32 %v1_385b to i32*
  %v3_385b = load i32, i32* %v2_385b, align 4
  %v2_386e = add i32 %v4_3841, 12
  %v3_386e = inttoptr i32 %v2_386e to i32*
  store i32 %v3_385b, i32* %v3_386e, align 4
  store i32 %v4_3824, i32* %edx.global-to-local, align 4
  %v0_3876 = load i32, i32* %ebp.global-to-local, align 4
  %v1_3876 = load i32, i32* %eax.global-to-local, align 4
  %v2_3876 = inttoptr i32 %v1_3876 to i32*
  store i32 %v0_3876, i32* %v2_3876, align 4
  %v0_3878 = load i32, i32* %edi.global-to-local, align 4
  %v1_3878 = load i32, i32* %eax.global-to-local, align 4
  %v2_3878 = add i32 %v1_3878, 4
  %v3_3878 = inttoptr i32 %v2_3878 to i32*
  store i32 %v0_3878, i32* %v3_3878, align 4
  %v0_387b = load i32, i32* %esi.global-to-local, align 4
  %v1_387b = load i32, i32* %eax.global-to-local, align 4
  %v2_387b = add i32 %v1_387b, 8
  %v3_387b = inttoptr i32 %v2_387b to i32*
  store i32 %v0_387b, i32* %v3_387b, align 4
  %v0_387e = load i32, i32* %edx.global-to-local, align 4
  %v1_387e = trunc i32 %v0_387e to i16
  %v2_387e = load i32, i32* %eax.global-to-local, align 4
  %v3_387e = add i32 %v2_387e, 16
  %v4_387e = inttoptr i32 %v3_387e to i16*
  store i16 %v1_387e, i16* %v4_387e, align 2
  %v1_3882 = icmp eq i1 %v15_384f, false
  br i1 %v1_3882, label %dec_label_pc_3838.dec_label_pc_3838_crit_edge, label %dec_label_pc_3884

dec_label_pc_3838.dec_label_pc_3838_crit_edge:    ; preds = %dec_label_pc_3838
  %v0_383c.pre = load i32, i32* %ebx.global-to-local, align 4
  %v0_3843.pre = load i32, i32* %ecx.global-to-local, align 4
  br label %dec_label_pc_3838

dec_label_pc_3884:                                ; preds = %dec_label_pc_3838
  store i32 1, i32* %ebx.global-to-local, align 4
  br label %dec_label_pc_389a

dec_label_pc_3890:                                ; preds = %dec_label_pc_3765
  %v3_3890 = load i32, i32* %stack_var_44, align 4
  store i32 %v3_3890, i32* %eax.global-to-local, align 4
  store i32 0, i32* %ebx.global-to-local, align 4
  %v4_3896 = inttoptr i32 %v3_3890 to i8*
  br label %dec_label_pc_389a

dec_label_pc_389a:                                ; preds = %dec_label_pc_3890, %dec_label_pc_3884, %dec_label_pc_3817
  %stack_var_20.0 = phi i8* [ %v4_3896, %dec_label_pc_3890 ], [ %v4_37ac, %dec_label_pc_3817 ], [ %v4_37ac, %dec_label_pc_3884 ]
  %v4_389a = ptrtoint i8* %stack_var_20.0 to i32
  store i32 %v4_389a, i32* @eax, align 4
  %v1_389e = icmp eq i8* %stack_var_20.0, null
  br i1 %v1_389e, label %bb130, label %dec_label_pc_38a2

bb130:                                            ; preds = %dec_label_pc_389a
  %v1_38a0 = call i32 @function_38ae()
  store i32 %v1_38a0, i32* %eax.global-to-local, align 4
  br label %dec_label_pc_38a2

dec_label_pc_38a2:                                ; preds = %bb130, %dec_label_pc_389a
  store i32 %v4_389a, i32* %eax.global-to-local, align 4
  ret i32 %v4_389a

; uselistorder directives
  uselistorder i32 %v4_389a, { 1, 0, 2 }
  uselistorder i8* %stack_var_20.0, { 1, 0 }
  uselistorder i32 %v6_384b, { 1, 0, 3, 2, 4 }
  uselistorder i32 %v0_383c, { 0, 2, 1 }
  uselistorder i32 %v0_3843, { 1, 0 }
  uselistorder i32 %v4_3824, { 1, 0 }
  uselistorder i32 %v3_37f2, { 1, 0, 2 }
  uselistorder i32 %v2_37b6, { 0, 4, 5, 3, 6, 1, 2 }
  uselistorder i32 %v3_37a4, { 1, 2, 0, 3, 4 }
  uselistorder i32* %stack_var_70, { 1, 0 }
  uselistorder i32 %tmp110, { 3, 2, 1, 0 }
  uselistorder i32* %eax.global-to-local, { 2, 0, 3, 4, 5, 6, 7, 8, 9, 10, 11, 12, 1, 13, 14 }
  uselistorder void (i8*, i32, i32, i1)* @LookupIntern, { 1, 0 }
  uselistorder label %dec_label_pc_3800, { 1, 0 }
}

define i32 @function_38ae() local_unnamed_addr {
dec_label_pc_38ae:
  %v4_38b2 = load i32, i32* @eax, align 4
  ret i32 %v4_38b2
}

define i32 @function_38ba() local_unnamed_addr {
dec_label_pc_38ba:
  %eax.global-to-local = alloca i32, align 4
  %v0_38ba = load i32, i32* %eax.global-to-local, align 4
  ret i32 %v0_38ba
}

define i32 @function_38c0(i32 %arg1, i32 %arg2) local_unnamed_addr {
dec_label_pc_38c0:
  %tmp2 = call i32 @__decompiler_undefined_function_0()
  %stack_var_106 = alloca i32, align 4
  %v0_38c0 = load i32, i32* @eax, align 4
  %v1_38c0 = load i32, i32* @edx, align 4
  %v2_38c0 = sub i32 %v0_38c0, %v1_38c0
  %v2_38ca = ptrtoint i32* %stack_var_106 to i32
  store i32 %v2_38ca, i32* @ecx, align 4
  %v0_38d2 = load i32, i32* @ebx, align 4
  %v4_38d9 = inttoptr i32 %arg1 to i32*
  %v5_38d9 = call i32 @_ZNSt6vectorI8CServiceSaIS0_EE14_M_fill_insertEN9__gnu_cxx17__normal_iteratorIPS0_S2_EEjRKS0_(i32* %v4_38d9, i32 %v0_38d2, i32 %v2_38c0, i32 %v2_38ca)
  store i32 %arg2, i32* @edx, align 4
  %v2_38ea = sub i32 %tmp2, %arg2
  %v2_38ec = sdiv i32 %v2_38ea, 16
  ret i32 %v2_38ec

; uselistorder directives
  uselistorder i32 %arg2, { 1, 0 }
}

define i32 @function_38f8(i32 %arg1) local_unnamed_addr {
dec_label_pc_38f8:
  %tmp = load i32, i32* @eax, align 4
  ret i32 %tmp
}

define i32 @function_3909() local_unnamed_addr {
dec_label_pc_3909:
  %tmp = load i32, i32* @eax, align 4
  ret i32 %tmp
}

define i32 @function_390a() local_unnamed_addr {
dec_label_pc_390a:
  %eax.global-to-local = alloca i32, align 4
  %v0_390a = load i32, i32* %eax.global-to-local, align 4
  ret i32 %v0_390a
}

define i32 @function_390b() local_unnamed_addr {
dec_label_pc_390b:
  %tmp = load i32, i32* @eax, align 4
  ret i32 %tmp
}

define i32 @function_391e() local_unnamed_addr {
dec_label_pc_391e:
  %eax.global-to-local = alloca i32, align 4
  %ebx.global-to-local = alloca i32, align 4
  %v0_391e = load i32, i32* %ebx.global-to-local, align 4
  %v1_391e = add i32 %v0_391e, -1993595820
  %v2_391e = inttoptr i32 %v1_391e to i32*
  %v3_391e = load i32, i32* %v2_391e, align 4
  %v4_391e = add i32 %v3_391e, -1
  store i32 %v4_391e, i32* %v2_391e, align 4
  %v0_3924 = load i32, i32* %eax.global-to-local, align 4
  ret i32 %v0_3924
}

define i32 @function_3931() local_unnamed_addr {
dec_label_pc_3931:
  %v0_3931 = call i32 @function_390b()
  ret i32 %v0_3931
}

define i32 @function_3933() local_unnamed_addr {
dec_label_pc_3933:
  %v0_3933 = call i32 @function_3909()
  ret i32 %v0_3933
}

define i1 @_Z6LookupPKcR8CServiceib(i8* %pszName, i32 %addr, i32 %portDefault, i1 %fAllowLookup) local_unnamed_addr {
dec_label_pc_3940:
  %stack_var_-28 = alloca i32, align 4
  store i32 %addr, i32* @ebx, align 4
  store i32 0, i32* %stack_var_-28, align 4
  %v2_3985 = ptrtoint i32* %stack_var_-28 to i32
  %v9_3994 = call i1 @_Z6LookupPKcRSt6vectorI8CServiceSaIS2_EEibj(i8* %pszName, i32 %v2_3985, i32 %portDefault, i1 %fAllowLookup, i32 1)
  %v11_3994 = sext i1 %v9_3994 to i32
  %v5_3999 = icmp eq i1 %v9_3994, false
  %v3_399b = load i32, i32* %stack_var_-28, align 4
  store i32 %v3_399b, i32* @edx, align 4
  %v1_399f = icmp eq i1 %v5_3999, false
  br i1 %v1_399f, label %bb, label %dec_label_pc_39a1

bb:                                               ; preds = %dec_label_pc_3940
  %v2_399f = call i32 @function_39c8()
  br label %dec_label_pc_39a1

dec_label_pc_39a1:                                ; preds = %bb, %dec_label_pc_3940
  %v4_39a77 = phi i32 [ %v2_399f, %bb ], [ %v11_3994, %dec_label_pc_3940 ]
  store i32 0, i32* @ebx, align 4
  %v1_39a3 = icmp eq i32 %v3_399b, 0
  br i1 %v1_39a3, label %bb26, label %dec_label_pc_39a7

bb26:                                             ; preds = %dec_label_pc_39a1
  %v1_39a5 = call i32 @function_39af()
  br label %dec_label_pc_39a7

dec_label_pc_39a7:                                ; preds = %bb26, %dec_label_pc_39a1
  %v4_39a7 = phi i32 [ %v1_39a5, %bb26 ], [ %v4_39a77, %dec_label_pc_39a1 ]
  %tmp27 = urem i32 %v4_39a7, 2
  %v5_39a7 = icmp ne i32 %tmp27, 0
  ret i1 %v5_39a7
}

define i32 @function_39af() local_unnamed_addr {
dec_label_pc_39af:
  %tmp4 = call i32 @__decompiler_undefined_function_0()
  %v3_39b3 = icmp eq i32 %tmp4, 612665600
  %v0_39ba = load i32, i32* @ebx, align 4
  store i32 %v0_39ba, i32* @eax, align 4
  %v1_39bc = icmp eq i1 %v3_39b3, false
  br i1 %v1_39bc, label %bb, label %dec_label_pc_39be

bb:                                               ; preds = %dec_label_pc_39af
  %v2_39bc = call i32 @function_39ed()
  br label %dec_label_pc_39be

dec_label_pc_39be:                                ; preds = %bb, %dec_label_pc_39af
  %v0_39c2 = phi i32 [ %v2_39bc, %bb ], [ %v0_39ba, %dec_label_pc_39af ]
  ret i32 %v0_39c2
}

define i32 @function_39c8() local_unnamed_addr {
dec_label_pc_39c8:
  %eax.global-to-local = alloca i32, align 4
  %v2_39c8 = load i32, i32* @edx, align 4
  store i32 %v2_39c8, i32* %eax.global-to-local, align 4
  %v1_39ca = load i32, i32* @ebx, align 4
  %v2_39ca = inttoptr i32 %v1_39ca to i32*
  store i32 %v2_39c8, i32* %v2_39ca, align 4
  %v0_39cc = load i32, i32* @edx, align 4
  %v1_39cc = add i32 %v0_39cc, 4
  %v2_39cc = inttoptr i32 %v1_39cc to i32*
  %v3_39cc = load i32, i32* %v2_39cc, align 4
  store i32 %v3_39cc, i32* %eax.global-to-local, align 4
  %v1_39cf = load i32, i32* @ebx, align 4
  %v2_39cf = add i32 %v1_39cf, 4
  %v3_39cf = inttoptr i32 %v2_39cf to i32*
  store i32 %v3_39cc, i32* %v3_39cf, align 4
  %v0_39d2 = load i32, i32* @edx, align 4
  %v1_39d2 = add i32 %v0_39d2, 8
  %v2_39d2 = inttoptr i32 %v1_39d2 to i32*
  %v3_39d2 = load i32, i32* %v2_39d2, align 4
  store i32 %v3_39d2, i32* %eax.global-to-local, align 4
  %v1_39d5 = load i32, i32* @ebx, align 4
  %v2_39d5 = add i32 %v1_39d5, 8
  %v3_39d5 = inttoptr i32 %v2_39d5 to i32*
  store i32 %v3_39d2, i32* %v3_39d5, align 4
  %v0_39d8 = load i32, i32* @edx, align 4
  %v1_39d8 = add i32 %v0_39d8, ptrtoint (i32* @global_var_c.427 to i32)
  %v2_39d8 = inttoptr i32 %v1_39d8 to i32*
  %v3_39d8 = load i32, i32* %v2_39d8, align 4
  store i32 %v3_39d8, i32* %eax.global-to-local, align 4
  %v1_39db = load i32, i32* @ebx, align 4
  %v2_39db = add i32 %v1_39db, ptrtoint (i32* @global_var_c.427 to i32)
  %v3_39db = inttoptr i32 %v2_39db to i32*
  store i32 %v3_39d8, i32* %v3_39db, align 4
  %v0_39de = load i32, i32* @edx, align 4
  %v1_39de = add i32 %v0_39de, ptrtoint (i16** @global_var_10.441 to i32)
  %v2_39de = inttoptr i32 %v1_39de to i16*
  %v3_39de = load i16, i16* %v2_39de, align 2
  %v4_39de = zext i16 %v3_39de to i32
  store i32 %v4_39de, i32* %eax.global-to-local, align 4
  %v2_39e2 = load i32, i32* @ebx, align 4
  %v3_39e2 = add i32 %v2_39e2, ptrtoint (i16** @global_var_10.441 to i32)
  %v4_39e2 = inttoptr i32 %v3_39e2 to i16*
  store i16 %v3_39de, i16* %v4_39e2, align 2
  %v0_39eb = load i32, i32* %eax.global-to-local, align 4
  ret i32 %v0_39eb
}

define i32 @function_39ed() local_unnamed_addr {
dec_label_pc_39ed:
  %tmp = load i32, i32* @eax, align 4
  ret i32 %tmp
}

define i32 @function_39f1() local_unnamed_addr {
dec_label_pc_39f1:
  %eax.global-to-local = alloca i32, align 4
  %ebx.global-to-local = alloca i32, align 4
  %v0_39f1 = load i32, i32* %ebx.global-to-local, align 4
  %v1_39f1 = add i32 %v0_39f1, -1994382252
  %v2_39f1 = inttoptr i32 %v1_39f1 to i32*
  %v3_39f1 = load i32, i32* %v2_39f1, align 4
  %v4_39f1 = add i32 %v3_39f1, -1
  store i32 %v4_39f1, i32* %v2_39f1, align 4
  %v0_39f7 = load i32, i32* %eax.global-to-local, align 4
  ret i32 %v0_39f7
}

define void @CService.418(i32 %this, i32 %strIpPort, i32 %portDefault, i1 %fAllowLookup) local_unnamed_addr {
dec_label_pc_3a10:
  %ebp.global-to-local = alloca i32, align 4
  %ebx.global-to-local = alloca i32, align 4
  %edi.global-to-local = alloca i32, align 4
  %esi.global-to-local = alloca i32, align 4
  %stack_var_-50 = alloca i32, align 4
  %v0_3a18 = load i32, i32* %ebx.global-to-local, align 4
  store i32 %this, i32* @ebx, align 4
  %v0_3a20 = load i32, i32* %esi.global-to-local, align 4
  %v2_3a24 = ptrtoint i32* %stack_var_-50 to i32
  store i32 %v2_3a24, i32* @esi, align 4
  %v0_3a28 = load i32, i32* %edi.global-to-local, align 4
  store i32 %strIpPort, i32* @edi, align 4
  %v0_3a30 = load i32, i32* %ebp.global-to-local, align 4
  store i32 %portDefault, i32* @ebp, align 4
  call void @_ZN8CNetAddr4InitEv(i32 %this)
  %v0_3a50 = load i32, i32* @ebx, align 4
  %v1_3a50 = add i32 %v0_3a50, ptrtoint (i16** @global_var_10.441 to i32)
  %v2_3a50 = inttoptr i32 %v1_3a50 to i16*
  store i16 0, i16* %v2_3a50, align 2
  call void @CService(i32 %v2_3a24)
  %v0_3a6f = load i32, i32* @edi, align 4
  %v1_3a6f = inttoptr i32 %v0_3a6f to i32*
  %v2_3a6f = load i32, i32* %v1_3a6f, align 4
  %v3_3a74 = sext i1 %fAllowLookup to i32
  %v4_3a74 = inttoptr i32 %v2_3a6f to i8*
  %v6_3a74 = call i1 @_Z6LookupPKcR8CServiceib(i8* %v4_3a74, i32 %v2_3a24, i32 %v3_3a74, i1 ptrtoint (i32* @0 to i1))
  %v5_3a79 = icmp eq i1 %v6_3a74, false
  br i1 %v5_3a79, label %dec_label_pc_3aa1, label %dec_label_pc_3a7d

dec_label_pc_3a7d:                                ; preds = %dec_label_pc_3a10
  %v3_3a7d = load i32, i32* %stack_var_-50, align 4
  %v1_3a81 = load i32, i32* @ebx, align 4
  %v2_3a81 = inttoptr i32 %v1_3a81 to i32*
  store i32 %v3_3a7d, i32* %v2_3a81, align 4
  %v1_3a87 = load i32, i32* @ebx, align 4
  %v2_3a87 = add i32 %v1_3a87, 4
  %v3_3a87 = inttoptr i32 %v2_3a87 to i32*
  %v1_3a8e = load i32, i32* @ebx, align 4
  %v2_3a8e = add i32 %v1_3a8e, 8
  %v3_3a8e = inttoptr i32 %v2_3a8e to i32*
  %v1_3a95 = load i32, i32* @ebx, align 4
  %v2_3a95 = add i32 %v1_3a95, ptrtoint (i32* @global_var_c.427 to i32)
  %v3_3a95 = inttoptr i32 %v2_3a95 to i32*
  %v2_3a9d = load i32, i32* @ebx, align 4
  %v3_3a9d = add i32 %v2_3a9d, ptrtoint (i16** @global_var_10.441 to i32)
  %v4_3a9d = inttoptr i32 %v3_3a9d to i16*
  br label %dec_label_pc_3aa1

dec_label_pc_3aa1:                                ; preds = %dec_label_pc_3a7d, %dec_label_pc_3a10
  store i32 %v0_3a18, i32* %ebx.global-to-local, align 4
  store i32 %v0_3a20, i32* %esi.global-to-local, align 4
  store i32 %v0_3a28, i32* %edi.global-to-local, align 4
  store i32 %v0_3a30, i32* %ebp.global-to-local, align 4
  ret void
}

define void @CService.419(i32 %this, i32 %strIpPort, i1 %fAllowLookup) local_unnamed_addr {
dec_label_pc_3ad0:
  %ebp.global-to-local = alloca i32, align 4
  %ebx.global-to-local = alloca i32, align 4
  %edi.global-to-local = alloca i32, align 4
  %esi.global-to-local = alloca i32, align 4
  %stack_var_-50 = alloca i32, align 4
  %v0_3ad3 = load i32, i32* %ebx.global-to-local, align 4
  store i32 %this, i32* @ebx, align 4
  %v0_3adb = load i32, i32* %ebp.global-to-local, align 4
  %tmp119 = zext i1 %fAllowLookup to i32
  store i32 %tmp119, i32* @ebp, align 4
  %v0_3ae4 = load i32, i32* %edi.global-to-local, align 4
  store i32 %strIpPort, i32* @edi, align 4
  %v0_3af8 = load i32, i32* %esi.global-to-local, align 4
  %v2_3afc = ptrtoint i32* %stack_var_-50 to i32
  store i32 %v2_3afc, i32* @esi, align 4
  call void @_ZN8CNetAddr4InitEv(i32 %this)
  %v0_3b08 = load i32, i32* @ebx, align 4
  %v1_3b08 = add i32 %v0_3b08, ptrtoint (i16** @global_var_10.441 to i32)
  %v2_3b08 = inttoptr i32 %v1_3b08 to i16*
  store i16 0, i16* %v2_3b08, align 2
  call void @CService(i32 %v2_3afc)
  %v0_3b16 = load i32, i32* @ebp, align 4
  %tmp120 = urem i32 %v0_3b16, 2
  %v4_3b1b = icmp ne i32 %tmp120, 0
  %v0_3b2b = load i32, i32* @edi, align 4
  %v1_3b2b = inttoptr i32 %v0_3b2b to i32*
  %v2_3b2b = load i32, i32* %v1_3b2b, align 4
  %v5_3b30 = inttoptr i32 %v2_3b2b to i8*
  %v7_3b30 = call i1 @_Z6LookupPKcR8CServiceib(i8* %v5_3b30, i32 %v2_3afc, i32 0, i1 %v4_3b1b)
  %v5_3b35 = icmp eq i1 %v7_3b30, false
  br i1 %v5_3b35, label %dec_label_pc_3b5d, label %dec_label_pc_3b39

dec_label_pc_3b39:                                ; preds = %dec_label_pc_3ad0
  %v3_3b39 = load i32, i32* %stack_var_-50, align 4
  %v1_3b3d = load i32, i32* @ebx, align 4
  %v2_3b3d = inttoptr i32 %v1_3b3d to i32*
  store i32 %v3_3b39, i32* %v2_3b3d, align 4
  %v1_3b43 = load i32, i32* @ebx, align 4
  %v2_3b43 = add i32 %v1_3b43, 4
  %v3_3b43 = inttoptr i32 %v2_3b43 to i32*
  %v1_3b4a = load i32, i32* @ebx, align 4
  %v2_3b4a = add i32 %v1_3b4a, 8
  %v3_3b4a = inttoptr i32 %v2_3b4a to i32*
  %v1_3b51 = load i32, i32* @ebx, align 4
  %v2_3b51 = add i32 %v1_3b51, ptrtoint (i32* @global_var_c.427 to i32)
  %v3_3b51 = inttoptr i32 %v2_3b51 to i32*
  %v2_3b59 = load i32, i32* @ebx, align 4
  %v3_3b59 = add i32 %v2_3b59, ptrtoint (i16** @global_var_10.441 to i32)
  %v4_3b59 = inttoptr i32 %v3_3b59 to i16*
  br label %dec_label_pc_3b5d

dec_label_pc_3b5d:                                ; preds = %dec_label_pc_3b39, %dec_label_pc_3ad0
  store i32 %v0_3ad3, i32* %ebx.global-to-local, align 4
  store i32 %v0_3af8, i32* %esi.global-to-local, align 4
  store i32 %v0_3ae4, i32* %edi.global-to-local, align 4
  store i32 %v0_3adb, i32* %ebp.global-to-local, align 4
  ret void
}

define void @CService.420(i32 %this, i8* %pszIpPort, i32 %portDefault, i1 %fAllowLookup) local_unnamed_addr {
dec_label_pc_3b90:
  %ebp.global-to-local = alloca i32, align 4
  %ebx.global-to-local = alloca i32, align 4
  %edi.global-to-local = alloca i32, align 4
  %esi.global-to-local = alloca i32, align 4
  %stack_var_-50 = alloca i32, align 4
  %v0_3b98 = load i32, i32* %ebx.global-to-local, align 4
  store i32 %this, i32* @ebx, align 4
  %v0_3ba0 = load i32, i32* %esi.global-to-local, align 4
  %v2_3ba4 = ptrtoint i32* %stack_var_-50 to i32
  store i32 %v2_3ba4, i32* @esi, align 4
  %v0_3ba8 = load i32, i32* %edi.global-to-local, align 4
  %v4_3bac = ptrtoint i8* %pszIpPort to i32
  store i32 %v4_3bac, i32* @edi, align 4
  %v0_3bb0 = load i32, i32* %ebp.global-to-local, align 4
  store i32 %portDefault, i32* @ebp, align 4
  call void @_ZN8CNetAddr4InitEv(i32 %this)
  %v0_3bd0 = load i32, i32* @ebx, align 4
  %v1_3bd0 = add i32 %v0_3bd0, ptrtoint (i16** @global_var_10.441 to i32)
  %v2_3bd0 = inttoptr i32 %v1_3bd0 to i16*
  store i16 0, i16* %v2_3bd0, align 2
  call void @CService(i32 %v2_3ba4)
  %v0_3beb = load i32, i32* @edi, align 4
  %v3_3bf2 = sext i1 %fAllowLookup to i32
  %v4_3bf2 = inttoptr i32 %v0_3beb to i8*
  %v6_3bf2 = call i1 @_Z6LookupPKcR8CServiceib(i8* %v4_3bf2, i32 %v2_3ba4, i32 %v3_3bf2, i1 ptrtoint (i32* @0 to i1))
  %v5_3bf7 = icmp eq i1 %v6_3bf2, false
  br i1 %v5_3bf7, label %dec_label_pc_3c1f, label %dec_label_pc_3bfb

dec_label_pc_3bfb:                                ; preds = %dec_label_pc_3b90
  %v3_3bfb = load i32, i32* %stack_var_-50, align 4
  %v1_3bff = load i32, i32* @ebx, align 4
  %v2_3bff = inttoptr i32 %v1_3bff to i32*
  store i32 %v3_3bfb, i32* %v2_3bff, align 4
  %v1_3c05 = load i32, i32* @ebx, align 4
  %v2_3c05 = add i32 %v1_3c05, 4
  %v3_3c05 = inttoptr i32 %v2_3c05 to i32*
  %v1_3c0c = load i32, i32* @ebx, align 4
  %v2_3c0c = add i32 %v1_3c0c, 8
  %v3_3c0c = inttoptr i32 %v2_3c0c to i32*
  %v1_3c13 = load i32, i32* @ebx, align 4
  %v2_3c13 = add i32 %v1_3c13, ptrtoint (i32* @global_var_c.427 to i32)
  %v3_3c13 = inttoptr i32 %v2_3c13 to i32*
  %v2_3c1b = load i32, i32* @ebx, align 4
  %v3_3c1b = add i32 %v2_3c1b, ptrtoint (i16** @global_var_10.441 to i32)
  %v4_3c1b = inttoptr i32 %v3_3c1b to i16*
  br label %dec_label_pc_3c1f

dec_label_pc_3c1f:                                ; preds = %dec_label_pc_3bfb, %dec_label_pc_3b90
  store i32 %v0_3b98, i32* %ebx.global-to-local, align 4
  store i32 %v0_3ba0, i32* %esi.global-to-local, align 4
  store i32 %v0_3ba8, i32* %edi.global-to-local, align 4
  store i32 %v0_3bb0, i32* %ebp.global-to-local, align 4
  ret void
}

define void @CService.421(i32 %this, i8* %pszIpPort, i1 %fAllowLookup) local_unnamed_addr {
dec_label_pc_3c50:
  %stack_var_-50 = alloca i32, align 4
  %v0_3c53 = load i32, i32* @ebx, align 4
  store i32 %this, i32* @ebx, align 4
  %v0_3c5b = load i32, i32* @ebp, align 4
  %tmp25 = zext i1 %fAllowLookup to i32
  store i32 %tmp25, i32* @ebp, align 4
  %v0_3c64 = load i32, i32* @edi, align 4
  %v4_3c68 = ptrtoint i8* %pszIpPort to i32
  store i32 %v4_3c68, i32* @edi, align 4
  %v0_3c78 = load i32, i32* @esi, align 4
  %v2_3c7c = ptrtoint i32* %stack_var_-50 to i32
  store i32 %v2_3c7c, i32* @esi, align 4
  call void @_ZN8CNetAddr4InitEv(i32 %this)
  %v0_3c88 = load i32, i32* @ebx, align 4
  %v1_3c88 = add i32 %v0_3c88, ptrtoint (i16** @global_var_10.441 to i32)
  %v2_3c88 = inttoptr i32 %v1_3c88 to i16*
  store i16 0, i16* %v2_3c88, align 2
  call void @CService(i32 %v2_3c7c)
  %v0_3c96 = load i32, i32* @ebp, align 4
  %tmp26 = urem i32 %v0_3c96, 2
  %v4_3c9b = icmp ne i32 %tmp26, 0
  %v0_3cab = load i32, i32* @edi, align 4
  %v5_3cae = inttoptr i32 %v0_3cab to i8*
  %v7_3cae = call i1 @_Z6LookupPKcR8CServiceib(i8* %v5_3cae, i32 %v2_3c7c, i32 0, i1 %v4_3c9b)
  %v5_3cb3 = icmp eq i1 %v7_3cae, false
  br i1 %v5_3cb3, label %dec_label_pc_3cdb, label %dec_label_pc_3cb7

dec_label_pc_3cb7:                                ; preds = %dec_label_pc_3c50
  %v3_3cb7 = load i32, i32* %stack_var_-50, align 4
  %v1_3cbb = load i32, i32* @ebx, align 4
  %v2_3cbb = inttoptr i32 %v1_3cbb to i32*
  store i32 %v3_3cb7, i32* %v2_3cbb, align 4
  %v1_3cc1 = load i32, i32* @ebx, align 4
  %v2_3cc1 = add i32 %v1_3cc1, 4
  %v3_3cc1 = inttoptr i32 %v2_3cc1 to i32*
  %v1_3cc8 = load i32, i32* @ebx, align 4
  %v2_3cc8 = add i32 %v1_3cc8, 8
  %v3_3cc8 = inttoptr i32 %v2_3cc8 to i32*
  %v1_3ccf = load i32, i32* @ebx, align 4
  %v2_3ccf = add i32 %v1_3ccf, ptrtoint (i32* @global_var_c.427 to i32)
  %v3_3ccf = inttoptr i32 %v2_3ccf to i32*
  %v2_3cd7 = load i32, i32* @ebx, align 4
  %v3_3cd7 = add i32 %v2_3cd7, ptrtoint (i16** @global_var_10.441 to i32)
  %v4_3cd7 = inttoptr i32 %v3_3cd7 to i16*
  br label %dec_label_pc_3cdb

dec_label_pc_3cdb:                                ; preds = %dec_label_pc_3cb7, %dec_label_pc_3c50
  store i32 %v0_3c53, i32* @ebx, align 4
  store i32 %v0_3c78, i32* @esi, align 4
  store i32 %v0_3c64, i32* @edi, align 4
  store i32 %v0_3c5b, i32* @ebp, align 4
  ret void

; uselistorder directives
  uselistorder void (i32)* @_ZN8CNetAddr4InitEv, { 8, 7, 6, 5, 4, 3, 2, 1, 0 }
}

define i32 @function_3d01() local_unnamed_addr {
dec_label_pc_3d01:
  %v3_3d01 = call i1 @_Z13LookupNumericPKcR8CServicei(i8* bitcast (i32* @0 to i8*), i32 ptrtoint (i32* @0 to i32), i32 ptrtoint (i32* @0 to i32))
  %v5_3d01 = sext i1 %v3_3d01 to i32
  ret i32 %v5_3d01
}

define i1 @_Z13LookupNumericPKcR8CServicei(i8* %pszName, i32 %addr, i32 %portDefault) local_unnamed_addr {
dec_label_pc_3d10:
  %v8_3d3e = call i1 @_Z6LookupPKcR8CServiceib(i8* %pszName, i32 %addr, i32 %portDefault, i1 false)
  ret i1 %v8_3d3e

; uselistorder directives
  uselistorder i1 (i8*, i32, i32, i1)* @_Z6LookupPKcR8CServiceib, { 4, 3, 2, 1, 0 }
}

define i1 @_Z12SetNameProxy8CServicei(%CService %addrProxy, i32 %nSocksVersion) local_unnamed_addr {
dec_label_pc_3d60:
  %ebx.global-to-local = alloca i32, align 4
  %esi.global-to-local = alloca i32, align 4
  %tmp101 = extractvalue %CService %addrProxy, 0
  %tmp102 = sext i16 %tmp101 to i32
  %stack_var_-68 = alloca i32, align 4
  %tmp118 = call i16 @__decompiler_undefined_function_2()
  %tmp120 = call i32 @__decompiler_undefined_function_0()
  %tmp122 = call i32 @__decompiler_undefined_function_0()
  %stack_var_-96 = alloca i32, align 4
  %tmp128 = call i32 @__decompiler_undefined_function_0()
  %v0_3d6a = load i32, i32* %ebx.global-to-local, align 4
  %v0_3d75 = load i32, i32* %esi.global-to-local, align 4
  store i32 %tmp102, i32* %stack_var_-96, align 4
  %v1_3dbb = icmp eq i32 %tmp128, 0
  %v1_3dbd = icmp eq i1 %v1_3dbb, false
  %v10_3dc0 = icmp eq i32 %tmp128, 5
  %v1_3dc3 = icmp eq i1 %v10_3dc0, false
  %v5_3e08 = icmp eq i1 %v1_3dbd, false
  br i1 %v1_3dc3, label %dec_label_pc_3e08, label %dec_label_pc_3dc5

dec_label_pc_3dc5:                                ; preds = %dec_label_pc_3d60
  br i1 %v5_3e08, label %dec_label_pc_3e10, label %dec_label_pc_3dc9

dec_label_pc_3dc9:                                ; preds = %dec_label_pc_3dc5
  %v2_3dc9 = ptrtoint i32* %stack_var_-96 to i32
  call void @_ZNK8CNetAddr7IsValidEv(i32 %v2_3dc9)
  br i1 icmp ne (i8 ptrtoint (i32* @0 to i8), i8 0), label %dec_label_pc_3e10, label %dec_label_pc_3de0

dec_label_pc_3de0:                                ; preds = %dec_label_pc_3e10, %dec_label_pc_3dc9
  %v0_3e00 = phi i1 [ false, %dec_label_pc_3dc9 ], [ true, %dec_label_pc_3e10 ]
  store i32 %v0_3d6a, i32* %ebx.global-to-local, align 4
  store i32 %v0_3d75, i32* %esi.global-to-local, align 4
  ret i1 %v0_3e00

dec_label_pc_3e08:                                ; preds = %dec_label_pc_3d60
  %v1_3e0a = icmp eq i1 %v5_3e08, false
  br i1 %v1_3e0a, label %bb, label %dec_label_pc_3e10

bb:                                               ; preds = %dec_label_pc_3e08
  %v7_3e0a = sext i16 %tmp118 to i32
  %v8_3e0a = call i32 @function_3ee0(i32 %tmp102, i32 %nSocksVersion, i32 %tmp122, i32 %tmp120, i32 %v7_3e0a)
  br label %dec_label_pc_3e10

dec_label_pc_3e10:                                ; preds = %bb, %dec_label_pc_3e08, %dec_label_pc_3dc9, %dec_label_pc_3dc5
  %v2_3e10 = ptrtoint i32* %stack_var_-68 to i32
  store i32 %v2_3e10, i32* @esi, align 4
  store i32 ptrtoint (i32* @global_var_4cd0.474 to i32), i32* %stack_var_-68, align 4
  %v2_3e24 = call i32 @_ZN5boost11unique_lockI14AnnotatedMixinINS_15recursive_mutexEEE4lockEv(i32* nonnull %stack_var_-68)
  %v3_3e32 = load i32, i32* %stack_var_-96, align 4
  store i32 %v3_3e32, i32* %esi.global-to-local, align 4
  %v4_3e50 = sext i16 %tmp118 to i32
  store i32 %v4_3e50, i32* bitcast ([11 x i8]* @global_var_4da0.476 to i32*), align 4
  store i32 %v3_3e32, i32* @global_var_4d90.477, align 4
  store i32 %nSocksVersion, i32* @global_var_4d94.478, align 4
  br label %dec_label_pc_3de0

; uselistorder directives
  uselistorder i1 %v5_3e08, { 1, 0 }
}

define i32 @function_3ebb() local_unnamed_addr {
dec_label_pc_3ebb:
  %tmp = load i32, i32* @eax, align 4
  ret i32 %tmp
}

define i32 @function_3ed1() local_unnamed_addr {
dec_label_pc_3ed1:
  %eax.global-to-local = alloca i32, align 4
  %tmp91 = call i32 @__decompiler_undefined_function_0()
  %v1_3ed1 = add i32 %tmp91, -1204390464
  %v2_3ed1 = inttoptr i32 %v1_3ed1 to i32*
  %v3_3ed1 = load i32, i32* %v2_3ed1, align 4
  %v4_3ed1 = add i32 %v3_3ed1, 1
  store i32 %v4_3ed1, i32* %v2_3ed1, align 4
  %v2_3ed7 = load i32, i32* %eax.global-to-local, align 4
  %v4_3ed7 = mul i32 %v2_3ed7, 2
  %v21_3ed7 = inttoptr i32 %v2_3ed7 to i32*
  store i32 %v4_3ed7, i32* %v21_3ed7, align 4
  %v2_3ed9 = load i8, i8* bitcast (i32* @eax to i8*), align 4
  %v3_3ed9 = load i32, i32* %eax.global-to-local, align 4
  %v4_3ed9 = trunc i32 %v3_3ed9 to i8
  %v5_3ed9 = add i8 %v4_3ed9, %v2_3ed9
  %v21_3ed9 = inttoptr i32 %v3_3ed9 to i8*
  store i8 %v5_3ed9, i8* %v21_3ed9, align 1
  %v0_3edb = load i32, i32* %eax.global-to-local, align 4
  ret i32 %v0_3edb

; uselistorder directives
  uselistorder i32 %v2_3ed7, { 1, 0 }
}

define i32 @function_3ee0(i32 %arg1, i32 %arg2, i32 %arg3, i32 %arg4, i32 %arg5) local_unnamed_addr {
dec_label_pc_3ee0:
  ret i32 0
}

define i32 @function_3ee8() local_unnamed_addr {
dec_label_pc_3ee8:
  %ebx.global-to-local = alloca i32, align 4
  %v0_3ee8 = load i32, i32* %ebx.global-to-local, align 4
  %v1_3ee8 = add i32 %v0_3ee8, 72
  %v2_3ee8 = inttoptr i32 %v1_3ee8 to i8*
  store i8 0, i8* %v2_3ee8, align 1
  %v0_3eec = call i32 @function_3ebb()
  ret i32 %v0_3eec
}

define i32 @function_3eee() local_unnamed_addr {
dec_label_pc_3eee:
  %v0_3eee = load i32, i32* @eax, align 4
  ret i32 %v0_3eee
}

define i32 @function_3efb() local_unnamed_addr {
dec_label_pc_3efb:
  %eax.global-to-local = alloca i32, align 4
  %v0_3efb = load i32, i32* %eax.global-to-local, align 4
  ret i32 %v0_3efb
}

define i32 @function_3f0d() local_unnamed_addr {
dec_label_pc_3f0d:
  %cf.global-to-local = alloca i1, align 1
  %eax.global-to-local = alloca i32, align 4
  %ebx.global-to-local = alloca i32, align 4
  %ecx.global-to-local = alloca i32, align 4
  %v0_3f0d = load i32, i32* %eax.global-to-local, align 4
  %v1_3f0d = load i32, i32* %ebx.global-to-local, align 4
  store i32 %v0_3f0d, i32* %ebx.global-to-local, align 4
  %v1_3f0e = trunc i32 %v1_3f0d to i8
  %v2_3f0e = load i1, i1* %cf.global-to-local, align 1
  %v3_3f0e = zext i1 %v2_3f0e to i8
  %v4_3f0e = add i8 %v3_3f0e, %v1_3f0e
  %v2_3f10 = load i32, i32* %ecx.global-to-local, align 4
  %v3_3f10 = udiv i32 %v2_3f10, 256
  %v4_3f10 = trunc i32 %v3_3f10 to i8
  %v5_3f10 = add i8 %v4_3f10, %v4_3f0e
  %v10_3f10 = icmp ult i8 %v5_3f10, %v4_3f0e
  store i1 %v10_3f10, i1* %cf.global-to-local, align 1
  %v20_3f10 = zext i8 %v5_3f10 to i32
  %v22_3f10 = and i32 %v1_3f0d, -256
  %v23_3f10 = or i32 %v20_3f10, %v22_3f10
  store i32 %v23_3f10, i32* %eax.global-to-local, align 4
  ret i32 %v23_3f10

; uselistorder directives
  uselistorder i8 %v4_3f0e, { 1, 0 }
}

define i1 @_Z12GetNameProxyRSt4pairI8CServiceiE(i32 %nameproxyInfoOut) local_unnamed_addr {
dec_label_pc_3f8d:
  %ebx.global-to-local = alloca i32, align 4
  %esi.global-to-local = alloca i32, align 4
  %stack_var_-24 = alloca i32, align 4
  %v0_3f20 = load i32, i32* %esi.global-to-local, align 4
  %v0_3f21 = load i32, i32* %ebx.global-to-local, align 4
  %v2_3f25 = ptrtoint i32* %stack_var_-24 to i32
  store i32 %v2_3f25, i32* @esi, align 4
  store i32 %nameproxyInfoOut, i32* @ebx, align 4
  store i32 ptrtoint (i32* @global_var_4cd0.474 to i32), i32* %stack_var_-24, align 4
  %v2_3f49 = call i32 @_ZN5boost11unique_lockI14AnnotatedMixinINS_15recursive_mutexEEE4lockEv(i32* nonnull %stack_var_-24)
  store i32 %v0_3f21, i32* %ebx.global-to-local, align 4
  store i32 %v0_3f20, i32* %esi.global-to-local, align 4
  ret i1 false
}

define i32 @function_3fcd() local_unnamed_addr {
dec_label_pc_3fcd:
  %tmp = load i32, i32* @eax, align 4
  ret i32 %tmp
}

define i32 @function_3fe3() local_unnamed_addr {
dec_label_pc_3fe3:
  %ebx.global-to-local = alloca i32, align 4
  %tmp91 = call i32 @__decompiler_undefined_function_0()
  %v1_3fe3 = add i32 %tmp91, -391351104
  %v2_3fe3 = inttoptr i32 %v1_3fe3 to i32*
  %v3_3fe3 = load i32, i32* %v2_3fe3, align 4
  %v4_3fe3 = add i32 %v3_3fe3, 1
  store i32 %v4_3fe3, i32* %v2_3fe3, align 4
  %v0_3fe9 = load i32, i32* %ebx.global-to-local, align 4
  %v1_3fe9 = and i32 %v0_3fe9, -65281
  %v2_3fe9 = or i32 %v1_3fe9, ptrtoint (i32* @global_var_1b00.481 to i32)
  store i32 %v2_3fe9, i32* %ebx.global-to-local, align 4
  %v2_3feb = load i8, i8* bitcast (i32* @eax to i8*), align 4
  %v3_3feb = load i32, i32* @eax, align 4
  %v4_3feb = trunc i32 %v3_3feb to i8
  %v5_3feb = add i8 %v4_3feb, %v2_3feb
  %v21_3feb = inttoptr i32 %v3_3feb to i8*
  store i8 %v5_3feb, i8* %v21_3feb, align 1
  %v0_3ff0 = load i32, i32* %ebx.global-to-local, align 4
  %v1_3ff0 = add i32 %v0_3ff0, 72
  %v2_3ff0 = inttoptr i32 %v1_3ff0 to i8*
  store i8 0, i8* %v2_3ff0, align 1
  %v0_3ff4 = call i32 @function_3fcd()
  ret i32 %v0_3ff4
}

define i32 @function_3ff6() local_unnamed_addr {
dec_label_pc_3ff6:
  %tmp = load i32, i32* @eax, align 4
  ret i32 %tmp
}

define i32 @function_4006() local_unnamed_addr {
dec_label_pc_4006:
  %eax.global-to-local = alloca i32, align 4
  %v0_4006 = load i32, i32* %eax.global-to-local, align 4
  ret i32 %v0_4006
}

define i1 @_Z7IsProxyRK8CNetAddr(i32 %addr) local_unnamed_addr {
dec_label_pc_4020:
  %ebx.global-to-local = alloca i32, align 4
  %esi.global-to-local = alloca i32, align 4
  %stack_var_-32 = alloca i32, align 4
  %stack_var_-40 = alloca i32, align 4
  %v0_4021 = load i32, i32* %esi.global-to-local, align 4
  %v0_4022 = load i32, i32* %ebx.global-to-local, align 4
  %v2_4026 = ptrtoint i32* %stack_var_-40 to i32
  store i32 %v2_4026, i32* @esi, align 4
  store i32 %addr, i32* @ebx, align 4
  store i32 ptrtoint (i32* @global_var_4cd0.474 to i32), i32* %stack_var_-40, align 4
  %v2_404a = call i32 @_ZN5boost11unique_lockI14AnnotatedMixinINS_15recursive_mutexEEE4lockEv(i32* nonnull %stack_var_-40)
  store i32 0, i32* %esi.global-to-local, align 4
  %v2_4051 = ptrtoint i32* %stack_var_-32 to i32
  br label %dec_label_pc_4055

dec_label_pc_4055:                                ; preds = %dec_label_pc_40c0, %dec_label_pc_4020
  %v0_4084 = phi i32 [ %v1_40c0, %dec_label_pc_40c0 ], [ 0, %dec_label_pc_4020 ]
  %v1_4055 = add i32 %v0_4084, ptrtoint ([21 x i8]* @global_var_4d44.482 to i32)
  %v2_4055 = inttoptr i32 %v1_4055 to i32*
  %v3_4055 = load i32, i32* %v2_4055, align 4
  %v1_405b = icmp eq i32 %v3_4055, 0
  br i1 %v1_405b, label %dec_label_pc_40c0, label %dec_label_pc_405f

dec_label_pc_405f:                                ; preds = %dec_label_pc_4055
  %v1_405f = add i32 %v0_4084, ptrtoint ([14 x i8]* @global_var_4d30.484 to i32)
  %v2_405f = inttoptr i32 %v1_405f to i32*
  %v3_405f = load i32, i32* %v2_405f, align 4
  %v0_4069 = load i32, i32* @ebx, align 4
  store i32 %v3_405f, i32* %stack_var_-32, align 4
  %v2_408e = call i1 @_ZeqRK8CNetAddrS1_(i32 %v0_4069, i32 %v2_4051)
  %v5_4093 = icmp eq i1 %v2_408e, false
  br i1 %v5_4093, label %dec_label_pc_405f.dec_label_pc_40c0_crit_edge, label %dec_label_pc_4097

dec_label_pc_405f.dec_label_pc_40c0_crit_edge:    ; preds = %dec_label_pc_405f
  %v0_40c0.pre = load i32, i32* %esi.global-to-local, align 4
  br label %dec_label_pc_40c0

dec_label_pc_4097:                                ; preds = %dec_label_pc_405f
  br label %dec_label_pc_40a3

dec_label_pc_40a3:                                ; preds = %dec_label_pc_40c8, %dec_label_pc_4097
  %storemerge = phi i32 [ 1, %dec_label_pc_4097 ], [ 0, %dec_label_pc_40c8 ]
  %v0_40ae = phi i1 [ true, %dec_label_pc_4097 ], [ false, %dec_label_pc_40c8 ]
  store i32 %storemerge, i32* %esi.global-to-local, align 4
  store i32 %v0_4022, i32* %ebx.global-to-local, align 4
  store i32 %v0_4021, i32* %esi.global-to-local, align 4
  ret i1 %v0_40ae

dec_label_pc_40c0:                                ; preds = %dec_label_pc_405f.dec_label_pc_40c0_crit_edge, %dec_label_pc_4055
  %v0_40c0 = phi i32 [ %v0_40c0.pre, %dec_label_pc_405f.dec_label_pc_40c0_crit_edge ], [ %v0_4084, %dec_label_pc_4055 ]
  %v1_40c0 = add i32 %v0_40c0, ptrtoint (i32* @global_var_18.483 to i32)
  store i32 %v1_40c0, i32* %esi.global-to-local, align 4
  %v9_40c3 = icmp eq i32 %v0_40c0, sub (i32 0, i32 add (i32 ptrtoint (i32* @global_var_18.483 to i32), i32 -96))
  %v1_40c6 = icmp eq i1 %v9_40c3, false
  br i1 %v1_40c6, label %dec_label_pc_4055, label %dec_label_pc_40c8

dec_label_pc_40c8:                                ; preds = %dec_label_pc_40c0
  br label %dec_label_pc_40a3

; uselistorder directives
  uselistorder i32 %v1_40c0, { 1, 0 }
  uselistorder i32* %esi.global-to-local, { 1, 2, 0, 3, 4, 5 }
  uselistorder i1 true, { 0, 3, 1, 2 }
  uselistorder i1 (i32, i32)* @_ZeqRK8CNetAddrS1_, { 2, 1, 0 }
}

define i32 @function_40ee() local_unnamed_addr {
dec_label_pc_40ee:
  %tmp = load i32, i32* @eax, align 4
  ret i32 %tmp
}

define i32 @function_4104() local_unnamed_addr {
dec_label_pc_4104:
  %cf.global-to-local = alloca i1, align 1
  %eax.global-to-local = alloca i32, align 4
  %ebx.global-to-local = alloca i32, align 4
  %esi.global-to-local = alloca i32, align 4
  %tmp92 = call i32 @__decompiler_undefined_function_0()
  %v1_4104 = add i32 %tmp92, -392530752
  %v2_4104 = inttoptr i32 %v1_4104 to i32*
  %v3_4104 = load i32, i32* %v2_4104, align 4
  %v4_4104 = add i32 %v3_4104, 1
  store i32 %v4_4104, i32* %v2_4104, align 4
  %v0_410a = load i32, i32* %eax.global-to-local, align 4
  %v1_410a = load i32, i32* %esi.global-to-local, align 4
  store i32 %v0_410a, i32* %esi.global-to-local, align 4
  %v1_410b = trunc i32 %v1_410a to i8
  %tmp97 = trunc i32 %v0_410a to i8
  %v5_410b = load i1, i1* %cf.global-to-local, align 1
  %v6_410b = zext i1 %v5_410b to i8
  %v7_410b = sub i8 %v1_410b, %tmp97
  %v8_410b = add i8 %v6_410b, %v7_410b
  %v18_410b = sub i8 %v7_410b, %v6_410b
  %v19_410b = icmp ult i8 %v1_410b, %v18_410b
  %v20_410b = icmp ne i8 %tmp97, -1
  %v21_410b = or i1 %v20_410b, %v19_410b
  %v22_410b = icmp ult i8 %v1_410b, %tmp97
  %v23_410b = select i1 %v5_410b, i1 %v21_410b, i1 %v22_410b
  store i1 %v23_410b, i1* %cf.global-to-local, align 1
  %v36_410b = zext i8 %v8_410b to i32
  %v38_410b = and i32 %v1_410a, -256
  %v39_410b = or i32 %v36_410b, %v38_410b
  store i32 %v39_410b, i32* @eax, align 4
  %v1_410d = add i32 %v0_410a, -112
  %v2_410d = inttoptr i32 %v1_410d to i8*
  %v3_410d = load i8, i8* %v2_410d, align 1
  %v5_410d = udiv i32 %v1_410a, 256
  %v6_410d = trunc i32 %v5_410d to i8
  %v7_410d = add i8 %v3_410d, %v6_410d
  %v12_410d = icmp ult i8 %v7_410d, %v3_410d
  store i1 %v12_410d, i1* %cf.global-to-local, align 1
  store i8 %v7_410d, i8* %v2_410d, align 1
  %v0_4110 = load i32, i32* %ebx.global-to-local, align 4
  %v1_4110 = add i32 %v0_4110, 72
  %v2_4110 = inttoptr i32 %v1_4110 to i8*
  store i8 0, i8* %v2_4110, align 1
  %v0_4114 = call i32 @function_40ee()
  store i32 %v0_4114, i32* %eax.global-to-local, align 4
  ret i32 %v0_4114

; uselistorder directives
  uselistorder i8 %v3_410d, { 1, 0 }
  uselistorder i8 %v7_410b, { 1, 0 }
  uselistorder i8 %v6_410b, { 1, 0 }
  uselistorder i8 %tmp97, { 1, 2, 0 }
  uselistorder i8 -1, { 1, 2, 0 }
}

define i32 @function_4116() local_unnamed_addr {
dec_label_pc_4116:
  %tmp = load i32, i32* @eax, align 4
  ret i32 %tmp
}

define i32 @function_411c() local_unnamed_addr {
dec_label_pc_411c:
  ret i32 -1996488678
}

define i1 @_Z13HaveNameProxyv() local_unnamed_addr {
dec_label_pc_4140:
  %ebx.global-to-local = alloca i32, align 4
  %stack_var_-24 = alloca i32, align 4
  %v0_4141 = load i32, i32* %ebx.global-to-local, align 4
  %v2_4145 = ptrtoint i32* %stack_var_-24 to i32
  store i32 %v2_4145, i32* @ebx, align 4
  store i32 ptrtoint (i32* @global_var_4cd0.474 to i32), i32* %stack_var_-24, align 4
  %v2_4165 = call i32 @_ZN5boost11unique_lockI14AnnotatedMixinINS_15recursive_mutexEEE4lockEv(i32* nonnull %stack_var_-24)
  store i32 %v0_4141, i32* %ebx.global-to-local, align 4
  ret i1 false
}

define i32 @function_41ad() local_unnamed_addr {
dec_label_pc_41ad:
  %tmp = load i32, i32* @eax, align 4
  ret i32 %tmp
}

define i32 @function_41c4() local_unnamed_addr {
dec_label_pc_41c4:
  %ebx.global-to-local = alloca i32, align 4
  %v0_41c8 = call i32 @_ZN5boost7pthread25pthread_mutex_scoped_lockD2Ev.part.21()
  store i32 %v0_41c8, i32* @eax, align 4
  %v0_41d0 = load i32, i32* %ebx.global-to-local, align 4
  %v1_41d0 = add i32 %v0_41d0, 72
  %v2_41d0 = inttoptr i32 %v1_41d0 to i8*
  store i8 0, i8* %v2_41d0, align 1
  %v0_41d4 = call i32 @function_41ad()
  ret i32 %v0_41d4
}

define i32 @function_41d6() local_unnamed_addr {
dec_label_pc_41d6:
  %tmp = load i32, i32* @eax, align 4
  ret i32 %tmp
}

define i1 @_Z8GetProxy7NetworkRSt4pairI8CServiceiE(i32 %net, i32 %proxyInfoOut) local_unnamed_addr {
dec_label_pc_4220:
  %edi.global-to-local = alloca i32, align 4
  %edx.global-to-local = alloca i32, align 4
  %stack_var_-24 = alloca i32, align 4
  %v0_4223 = load i32, i32* @ebx, align 4
  store i32 %net, i32* @ebx, align 4
  store i32 0, i32* @eax, align 4
  %v0_4237 = load i32, i32* @esi, align 4
  store i32 %proxyInfoOut, i32* @esi, align 4
  %v0_423f = load i32, i32* @edi, align 4
  %tmp15 = icmp ult i32 %net, 4
  br i1 %tmp15, label %dec_label_pc_424c, label %bb

bb:                                               ; preds = %dec_label_pc_4220
  %v8_4246 = call i32 @function_4333(i32 612665600, i32 %v0_4223, i32 %v0_4237, i32 %v0_423f)
  br label %dec_label_pc_424c

dec_label_pc_424c:                                ; preds = %dec_label_pc_4220, %bb
  %v2_424c = ptrtoint i32* %stack_var_-24 to i32
  store i32 %v2_424c, i32* @edi, align 4
  store i32 ptrtoint (i32* @global_var_4cd0.474 to i32), i32* %stack_var_-24, align 4
  %v2_4260 = call i32 @_ZN5boost11unique_lockI14AnnotatedMixinINS_15recursive_mutexEEE4lockEv(i32* nonnull %stack_var_-24)
  %v0_4265 = load i32, i32* @ebx, align 4
  store i32 0, i32* %edi.global-to-local, align 4
  %v2_426a = mul i32 %v0_4265, shl (i32 add (i32 ptrtoint (i16** @global_var_2.437 to i32), i32 1), i32 3)
  %v1_426d = add i32 %v2_426a, ptrtoint ([21 x i8]* @global_var_4d44.482 to i32)
  %v2_426d = inttoptr i32 %v1_426d to i32*
  %v3_426d = load i32, i32* %v2_426d, align 8
  store i32 %v3_426d, i32* %edx.global-to-local, align 4
  %v1_4273 = icmp eq i32 %v3_426d, 0
  %v1_4275 = icmp eq i1 %v1_4273, false
  br i1 %v1_4275, label %dec_label_pc_42a8.dec_label_pc_427e_crit_edge, label %dec_label_pc_4277

dec_label_pc_4277:                                ; preds = %dec_label_pc_424c
  br label %dec_label_pc_427e

dec_label_pc_427e:                                ; preds = %dec_label_pc_42a8.dec_label_pc_427e_crit_edge, %dec_label_pc_4277
  %v0_4289 = phi i1 [ %phitmp16, %dec_label_pc_42a8.dec_label_pc_427e_crit_edge ], [ false, %dec_label_pc_4277 ]
  store i32 0, i32* %edx.global-to-local, align 4
  store i32 %v0_4223, i32* @ebx, align 4
  store i32 %v0_4237, i32* @esi, align 4
  store i32 %v0_423f, i32* @edi, align 4
  ret i1 %v0_4289

dec_label_pc_42a8.dec_label_pc_427e_crit_edge:    ; preds = %dec_label_pc_424c
  %v1_42a8 = add i32 %v2_426a, ptrtoint ([14 x i8]* @global_var_4d30.484 to i32)
  store i32 %v1_42a8, i32* %edx.global-to-local, align 4
  %v2_42ae = inttoptr i32 %v1_42a8 to i32*
  %v3_42ae = load i32, i32* %v2_42ae, align 4
  store i32 1, i32* %edi.global-to-local, align 4
  %v1_42be = load i32, i32* @esi, align 4
  %v2_42be = inttoptr i32 %v1_42be to i32*
  store i32 %v3_42ae, i32* %v2_42be, align 4
  %v0_42c0 = load i32, i32* %edx.global-to-local, align 4
  %v1_42c0 = add i32 %v0_42c0, 4
  %v2_42c0 = inttoptr i32 %v1_42c0 to i32*
  %v3_42c0 = load i32, i32* %v2_42c0, align 4
  %v1_42c3 = load i32, i32* @esi, align 4
  %v2_42c3 = add i32 %v1_42c3, 4
  %v3_42c3 = inttoptr i32 %v2_42c3 to i32*
  store i32 %v3_42c0, i32* %v3_42c3, align 4
  %v0_42c6 = load i32, i32* %edx.global-to-local, align 4
  %v1_42c6 = add i32 %v0_42c6, 8
  %v2_42c6 = inttoptr i32 %v1_42c6 to i32*
  %v3_42c6 = load i32, i32* %v2_42c6, align 4
  %v1_42c9 = load i32, i32* @esi, align 4
  %v2_42c9 = add i32 %v1_42c9, 8
  %v3_42c9 = inttoptr i32 %v2_42c9 to i32*
  store i32 %v3_42c6, i32* %v3_42c9, align 4
  %v0_42cc = load i32, i32* %edx.global-to-local, align 4
  %v1_42cc = add i32 %v0_42cc, ptrtoint (i32* @global_var_c.427 to i32)
  %v2_42cc = inttoptr i32 %v1_42cc to i32*
  %v3_42cc = load i32, i32* %v2_42cc, align 4
  %v1_42cf = load i32, i32* @esi, align 4
  %v2_42cf = add i32 %v1_42cf, ptrtoint (i32* @global_var_c.427 to i32)
  %v3_42cf = inttoptr i32 %v2_42cf to i32*
  store i32 %v3_42cc, i32* %v3_42cf, align 4
  %v0_42d2 = load i32, i32* %edx.global-to-local, align 4
  %v1_42d2 = add i32 %v0_42d2, ptrtoint (i16** @global_var_10.441 to i32)
  %v2_42d2 = inttoptr i32 %v1_42d2 to i32*
  %v3_42d2 = load i32, i32* %v2_42d2, align 4
  %v1_42d5 = load i32, i32* @esi, align 4
  %v2_42d5 = add i32 %v1_42d5, ptrtoint (i16** @global_var_10.441 to i32)
  %v3_42d5 = inttoptr i32 %v2_42d5 to i32*
  store i32 %v3_42d2, i32* %v3_42d5, align 4
  %v0_42d8 = load i32, i32* %edx.global-to-local, align 4
  %v1_42d8 = add i32 %v0_42d8, ptrtoint (i32* @global_var_14.424 to i32)
  %v2_42d8 = inttoptr i32 %v1_42d8 to i32*
  %v3_42d8 = load i32, i32* %v2_42d8, align 4
  %v1_42db = load i32, i32* @esi, align 4
  %v2_42db = add i32 %v1_42db, ptrtoint (i32* @global_var_14.424 to i32)
  %v3_42db = inttoptr i32 %v2_42db to i32*
  store i32 %v3_42d8, i32* %v3_42db, align 4
  %v0_4289.pre = load i32, i32* %edi.global-to-local, align 4
  %phitmp = urem i32 %v0_4289.pre, 2
  %phitmp16 = icmp ne i32 %phitmp, 0
  br label %dec_label_pc_427e

; uselistorder directives
  uselistorder i32 %v2_426a, { 1, 0 }
  uselistorder i32 %v0_423f, { 1, 0 }
  uselistorder i32 %v0_4237, { 1, 0 }
  uselistorder i32 %v0_4223, { 1, 0 }
  uselistorder label %dec_label_pc_424c, { 1, 0 }
}

define i32 @function_42fd() local_unnamed_addr {
dec_label_pc_42fd:
  %tmp = load i32, i32* @eax, align 4
  ret i32 %tmp
}

define i32 @function_4314() local_unnamed_addr {
dec_label_pc_4314:
  %ebx.global-to-local = alloca i32, align 4
  %v0_431c = call i32 @_ZN5boost7pthread25pthread_mutex_scoped_lockD2Ev.part.21()
  store i32 %v0_431c, i32* @eax, align 4
  %v0_4328 = load i32, i32* %ebx.global-to-local, align 4
  %v1_4328 = add i32 %v0_4328, 72
  %v2_4328 = inttoptr i32 %v1_4328 to i8*
  store i8 0, i8* %v2_4328, align 1
  %v0_432c = call i32 @function_42fd()
  ret i32 %v0_432c

; uselistorder directives
  uselistorder i32 ()* @_ZN5boost7pthread25pthread_mutex_scoped_lockD2Ev.part.21, { 1, 0 }
}

define i32 @function_432e() local_unnamed_addr {
dec_label_pc_432e:
  %tmp = load i32, i32* @eax, align 4
  ret i32 %tmp
}

define i32 @function_4333(i32 %arg1, i32 %arg2, i32 %arg3, i32 %arg4) local_unnamed_addr {
dec_label_pc_4333:
  %v3_434b = load i32, i32* @eax, align 4
  ret i32 %v3_434b
}

define i32 @function_4362() local_unnamed_addr {
dec_label_pc_4362:
  %eax.global-to-local = alloca i32, align 4
  %v0_4362 = load i32, i32* %eax.global-to-local, align 4
  ret i32 %v0_4362
}

define i1 @_Z13ConnectSocketRK8CServiceRji(%CService %addrDest, i32 %hSocketRet, i32 %nTimeout) local_unnamed_addr {
dec_label_pc_4380:
  %ebp.global-to-local = alloca i32, align 4
  %ebx.global-to-local = alloca i32, align 4
  %edi.global-to-local = alloca i32, align 4
  %esi.global-to-local = alloca i32, align 4
  %tmp98 = extractvalue %CService %addrDest, 0
  %tmp99 = sext i16 %tmp98 to i32
  %tmp102 = call i32 @__decompiler_undefined_function_0()
  %stack_var_-120 = alloca i32, align 4
  %tmp104 = call i32 @__decompiler_undefined_function_0()
  %stack_var_-96 = alloca i32, align 4
  %v0_4386 = load i32, i32* %esi.global-to-local, align 4
  store i32 %tmp99, i32* @esi, align 4
  %v0_4394 = load i32, i32* %ebx.global-to-local, align 4
  %v2_4398 = ptrtoint i32* %stack_var_-96 to i32
  store i32 %v2_4398, i32* @ebx, align 4
  %v0_43a8 = load i32, i32* %edi.global-to-local, align 4
  store i32 %hSocketRet, i32* %edi.global-to-local, align 4
  %v0_43b6 = load i32, i32* %ebp.global-to-local, align 4
  store i32 %nTimeout, i32* @ebp, align 4
  call void @CService(i32 %v2_4398)
  %v0_43cc = load i32, i32* @esi, align 4
  call void @_ZNK8CNetAddr10GetNetworkEv(i32 %v0_43cc)
  %v2_43e3 = call i1 @_Z8GetProxy7NetworkRSt4pairI8CServiceiE(i32 ptrtoint (i32* @0 to i32), i32 %v2_4398)
  %v5_43e8 = icmp eq i1 %v2_43e3, false
  %v0_4450 = load i32, i32* @ebp, align 4
  store i32 %v0_4450, i32* @ecx, align 4
  br i1 %v5_43e8, label %dec_label_pc_4450, label %dec_label_pc_43ec

dec_label_pc_43ec:                                ; preds = %dec_label_pc_4380
  store i32 %v2_4398, i32* @eax, align 4
  %v2_43f0 = ptrtoint i32* %stack_var_-120 to i32
  store i32 %v2_43f0, i32* @edx, align 4
  store i32 -1, i32* %stack_var_-120, align 4
  %v3_43fc = call i1 @ConnectSocketDirectly(i32 -1, i32 %tmp102, i32 ptrtoint (i32* @0 to i32))
  %v5_4401 = icmp eq i1 %v3_43fc, false
  br i1 %v5_4401, label %dec_label_pc_4417, label %dec_label_pc_4405

dec_label_pc_4405:                                ; preds = %dec_label_pc_43ec
  br label %dec_label_pc_4417

dec_label_pc_4417:                                ; preds = %dec_label_pc_4405, %dec_label_pc_43ec
  br label %dec_label_pc_4419

dec_label_pc_4419:                                ; preds = %dec_label_pc_4450, %dec_label_pc_4417
  %storemerge = phi i1 [ %phitmp119, %dec_label_pc_4450 ], [ false, %dec_label_pc_4417 ]
  store i32 %v0_4394, i32* %ebx.global-to-local, align 4
  store i32 %v0_4386, i32* %esi.global-to-local, align 4
  store i32 %v0_43a8, i32* %edi.global-to-local, align 4
  store i32 %v0_43b6, i32* %ebp.global-to-local, align 4
  ret i1 %storemerge

dec_label_pc_4450:                                ; preds = %dec_label_pc_4380
  %v0_4452 = load i32, i32* @edi, align 4
  store i32 %v0_4452, i32* @edx, align 4
  %v0_4454 = load i32, i32* @esi, align 4
  store i32 %v0_4454, i32* @eax, align 4
  %v3_4456 = call i1 @ConnectSocketDirectly(i32 %tmp104, i32 %tmp102, i32 ptrtoint (i32* @0 to i32))
  %v5_4456 = sext i1 %v3_4456 to i32
  %phitmp = urem i32 %v5_4456, 2
  %phitmp119 = icmp ne i32 %phitmp, 0
  br label %dec_label_pc_4419

; uselistorder directives
  uselistorder void (i32)* @_ZNK8CNetAddr10GetNetworkEv, { 1, 0 }
  uselistorder void (i32)* @CService, { 4, 3, 2, 1, 0, 5 }
}

define i32 @function_4490(i32 %arg1) local_unnamed_addr {
dec_label_pc_4490:
  %eax.global-to-local = alloca i32, align 4
  %tmp94 = call i32 @__decompiler_undefined_function_0()
  store i32 %arg1, i32* %eax.global-to-local, align 4
  %v2_449f = inttoptr i32 %tmp94 to i32*
  store i32 %arg1, i32* %v2_449f, align 4
  %v0_44a1 = load i32, i32* %eax.global-to-local, align 4
  ret i32 %v0_44a1

; uselistorder directives
  uselistorder i32 %arg1, { 1, 0 }
}

define i32 @function_4496() local_unnamed_addr {
dec_label_pc_4496:
  %tmp = load i32, i32* @eax, align 4
  ret i32 %tmp
}

define i32 @function_44a8() local_unnamed_addr {
dec_label_pc_44a8:
  %tmp = call i32 @__decompiler_undefined_function_0()
  %stack_var_36 = alloca i32, align 4
  %v2_44a8 = ptrtoint i32* %stack_var_36 to i32
  call void @_ZNK8CService14ToStringIPPortEv(i32 %v2_44a8)
  ret i32 %tmp

; uselistorder directives
  uselistorder void (i32)* @_ZNK8CService14ToStringIPPortEv, { 3, 2, 1, 0 }
}

define i32 @function_44e2() local_unnamed_addr {
dec_label_pc_44e2:
  %tmp = call i32 @__decompiler_undefined_function_0()
  %stack_var_28 = alloca i16*, align 4
  %stack_var_68 = alloca i16, align 2
  %v0_44e2 = load i32, i32* @esi, align 4
  call void @_ZNK8CNetAddr6IsIPv4Ev(i32 %v0_44e2)
  br i1 icmp eq (i8 and (i8 ptrtoint (i32* @0 to i8), i8 ptrtoint (i32* @0 to i8)), i8 0), label %bb, label %dec_label_pc_44f2

bb:                                               ; preds = %dec_label_pc_44e2
  %v1_44ec = call i32 @function_45d0()
  br label %dec_label_pc_44f2

dec_label_pc_44f2:                                ; preds = %bb, %dec_label_pc_44e2
  %v2_44f7 = ptrtoint i16* %stack_var_68 to i32
  store i32 %v2_44f7, i32* @ebx, align 4
  store i16* bitcast (i16** @global_var_10.441 to i16*), i16** %stack_var_28, align 4
  %v0_4507 = load i32, i32* @esi, align 4
  %v3_4533 = bitcast i16** %stack_var_28 to i32*
  call void @_ZNK8CService11GetSockAddrEP8sockaddrPj(i32 %v0_4507, i32 %v2_44f7, i32* %v3_4533)
  br i1 icmp eq (i8 and (i8 ptrtoint (i32* @0 to i8), i8 ptrtoint (i32* @0 to i8)), i8 0), label %bb20, label %dec_label_pc_453c

bb20:                                             ; preds = %dec_label_pc_44f2
  %v1_453a = call i32 @function_45a8()
  br label %dec_label_pc_453c

dec_label_pc_453c:                                ; preds = %bb20, %dec_label_pc_44f2
  %v3_453c = load i16, i16* %stack_var_68, align 2
  %v15_453c = icmp eq i16 %v3_453c, 2
  %v1_4542 = icmp eq i1 %v15_453c, false
  br i1 %v1_4542, label %bb22, label %dec_label_pc_4544

bb22:                                             ; preds = %dec_label_pc_453c
  %v2_4542 = call i32 @function_45a8()
  br label %dec_label_pc_4544

dec_label_pc_4544:                                ; preds = %bb22, %dec_label_pc_453c
  ret i32 %tmp

; uselistorder directives
  uselistorder i16* %stack_var_68, { 1, 0 }
  uselistorder i32 ()* @function_45a8, { 1, 0 }
  uselistorder void (i32, i32, i32*)* @_ZNK8CService11GetSockAddrEP8sockaddrPj, { 0, 2, 1 }
  uselistorder i1 icmp eq (i8 and (i8 ptrtoint (i32* @0 to i8), i8 ptrtoint (i32* @0 to i8)), i8 0), { 1, 2, 3, 4, 5, 6, 7, 0, 8, 9, 10, 11 }
  uselistorder void (i32)* @_ZNK8CNetAddr6IsIPv4Ev, { 1, 12, 11, 0, 10, 2, 4, 9, 8, 7, 3, 6, 5 }
}

define i32 @function_45a2() local_unnamed_addr {
dec_label_pc_45a2:
  %v0_45a2 = call i32 @function_45c1()
  ret i32 %v0_45a2
}

define i32 @function_45a8() local_unnamed_addr {
dec_label_pc_45a8:
  %tmp4 = call i32 @__decompiler_undefined_function_0()
  %v10_45ac = icmp eq i32 %tmp4, -1
  %v1_45af = icmp eq i1 %v10_45ac, false
  br i1 %v1_45af, label %bb, label %dec_label_pc_45b5

bb:                                               ; preds = %dec_label_pc_45a8
  %v2_45af = call i32 @function_4669()
  br label %dec_label_pc_45b5

dec_label_pc_45b5:                                ; preds = %bb, %dec_label_pc_45a8
  %v3_45b5 = phi i32 [ %v2_45af, %bb ], [ %tmp4, %dec_label_pc_45a8 ]
  ret i32 %v3_45b5

; uselistorder directives
  uselistorder i32 %tmp4, { 1, 0 }
}

define i32 @function_45c1() local_unnamed_addr {
dec_label_pc_45c1:
  %v0_45c3 = load i32, i32* @eax, align 4
  %v4_45c3 = trunc i32 %v0_45c3 to i8
  %v5_45c3 = icmp eq i8 %v4_45c3, 0
  %v1_45c5 = icmp eq i1 %v5_45c3, false
  br i1 %v1_45c5, label %bb, label %dec_label_pc_45cb

bb:                                               ; preds = %dec_label_pc_45c1
  %v2_45c5 = call i32 @function_4496()
  br label %dec_label_pc_45cb

dec_label_pc_45cb:                                ; preds = %bb, %dec_label_pc_45c1
  %v0_45cb = phi i32 [ %v2_45c5, %bb ], [ %v0_45c3, %dec_label_pc_45c1 ]
  ret i32 %v0_45cb
}

define i32 @function_45d0() local_unnamed_addr {
dec_label_pc_45d0:
  %tmp2 = call i32 @__decompiler_undefined_function_0()
  %v10_45d4 = icmp eq i32 %tmp2, -1
  br i1 %v10_45d4, label %bb, label %dec_label_pc_45d9

bb:                                               ; preds = %dec_label_pc_45d0
  %v1_45d7 = call i32 @function_45e9()
  br label %dec_label_pc_45d9

dec_label_pc_45d9:                                ; preds = %bb, %dec_label_pc_45d0
  %v3_45d9 = phi i32 [ %v1_45d7, %bb ], [ %tmp2, %dec_label_pc_45d0 ]
  ret i32 %v3_45d9

; uselistorder directives
  uselistorder i32 %tmp2, { 1, 0 }
}

define i32 @function_45e9() local_unnamed_addr {
dec_label_pc_45e9:
  %v3_45e9 = load i32, i32* @eax, align 4
  ret i32 %v3_45e9
}

define i32 @function_45f5() local_unnamed_addr {
dec_label_pc_45f5:
  %v0_45f5 = call i32 @function_45c1()
  ret i32 %v0_45f5
}

define i32 @function_4664() local_unnamed_addr {
dec_label_pc_4664:
  %eax.global-to-local = alloca i32, align 4
  %v0_4664 = load i32, i32* %eax.global-to-local, align 4
  ret i32 %v0_4664
}

define i32 @function_4669() local_unnamed_addr {
dec_label_pc_4669:
  %v3_4669 = load i32, i32* @eax, align 4
  ret i32 %v3_4669
}

define i32 @function_4671() local_unnamed_addr {
dec_label_pc_4671:
  %eax.global-to-local = alloca i32, align 4
  %v0_4679 = load i32, i32* %eax.global-to-local, align 4
  ret i32 %v0_4679
}

define i32 @function_46a3() local_unnamed_addr {
dec_label_pc_46a3:
  %v0_46a3 = call i32 @function_45c1()
  ret i32 %v0_46a3

; uselistorder directives
  uselistorder i32 ()* @function_45c1, { 2, 1, 0 }
}

define i32 @function_46d7() local_unnamed_addr {
dec_label_pc_46d7:
  %v0_46d7 = call i32 @function_4496()
  ret i32 %v0_46d7

; uselistorder directives
  uselistorder i32 ()* @function_4496, { 1, 0 }
}

define i32 @function_46dc() local_unnamed_addr {
dec_label_pc_46dc:
  %v1_46dc = load i32, i32* @eax, align 4
  ret i32 %v1_46dc
}

define i32 @function_46e5() local_unnamed_addr {
dec_label_pc_46e5:
  %tmp = load i32, i32* @eax, align 4
  ret i32 %tmp
}

define i32 @function_46f7() local_unnamed_addr {
dec_label_pc_46f7:
  %v0_46f7 = call i32 @function_46e5()
  ret i32 %v0_46f7
}

define i32 @function_4722() local_unnamed_addr {
dec_label_pc_4722:
  %v0_4722 = call i32 @function_44e2()
  ret i32 %v0_4722
}

define i32 @function_4727() local_unnamed_addr {
dec_label_pc_4727:
  %v0_4727 = call i32 @function_46e5()
  ret i32 %v0_4727

; uselistorder directives
  uselistorder i32 ()* @function_46e5, { 1, 0 }
}

define i32 @function_4729() local_unnamed_addr {
dec_label_pc_4729:
  %eax.global-to-local = alloca i32, align 4
  %v0_4729 = load i32, i32* %eax.global-to-local, align 4
  %v1_4729 = add i32 %v0_4729, -4
  %v2_4729 = inttoptr i32 %v1_4729 to i32*
  %v3_4729 = load i32, i32* %v2_4729, align 4
  %v1_472c = add i32 %v3_4729, -1
  store i32 %v1_472c, i32* %v2_4729, align 4
  %v0_4732 = load i32, i32* %eax.global-to-local, align 4
  ret i32 %v0_4732
}

define i1 @_Z19ConnectSocketByNameR8CServiceRjPKcii(%CService %addr, i32 %hSocketRet, i8* %pszDest, i32 %portDefault, i32 %nTimeout) local_unnamed_addr {
dec_label_pc_4740:
  %v4_4798 = ptrtoint i8* %pszDest to i32
  %tmp121 = urem i32 %v4_4798, 2
  %v6_479f = icmp ne i32 %tmp121, 0
  ret i1 %v6_479f
}

define i32 @function_4822() local_unnamed_addr {
dec_label_pc_4822:
  %v0_4822 = call i32 @function_b7104826()
  ret i32 %v0_4822
}

define i32 @function_486c(i16 %arg1) local_unnamed_addr {
dec_label_pc_486c:
  %eax.global-to-local = alloca i32, align 4
  %v6_486c = load i32, i32* %eax.global-to-local, align 4
  ret i32 %v6_486c
}

define i32 @function_48a8() local_unnamed_addr {
dec_label_pc_48a8:
  %eax.global-to-local = alloca i32, align 4
  %v0_48a8 = load i32, i32* %eax.global-to-local, align 4
  ret i32 %v0_48a8
}

define i32 @function_48a9() local_unnamed_addr {
dec_label_pc_48a9:
  %tmp = load i32, i32* @eax, align 4
  ret i32 %tmp
}

define i32 @function_48b0(i32 %arg1, i32 %arg2, i32 %arg3, i32 %arg4) local_unnamed_addr {
dec_label_pc_48b0:
  %cf.global-to-local = alloca i1, align 1
  %df.global-to-local = alloca i1, align 1
  %eax.global-to-local = alloca i32, align 4
  %ebp.global-to-local = alloca i32, align 4
  %ecx.global-to-local = alloca i32, align 4
  %if.global-to-local = alloca i1, align 1
  %nt.global-to-local = alloca i1, align 1
  %tf.global-to-local = alloca i1, align 1
  %stack_var_-4 = alloca i32, align 4
  %v0_48b0 = load i32, i32* %ecx.global-to-local, align 4
  %v1_48b0 = add i32 %v0_48b0, 613714904
  %v2_48b0 = inttoptr i32 %v1_48b0 to i32*
  %v3_48b0 = load i32, i32* %v2_48b0, align 4
  %v4_48b0 = add i32 %v3_48b0, -1
  %v5_48b0 = urem i32 %v3_48b0, 16
  %v6_48b0 = add nsw i32 %v5_48b0, -1
  %v7_48b0 = icmp ugt i32 %v6_48b0, 15
  %tmp103 = sub i32 0, %v3_48b0
  %v10_48b0 = and i32 %v3_48b0, %tmp103
  %v12_48b0 = icmp eq i32 %v4_48b0, 0
  %v14_48b0 = trunc i32 %v4_48b0 to i8
  %v15_48b0 = call i8 @llvm.ctpop.i8(i8 %v14_48b0)
  %v16_48b0 = urem i8 %v15_48b0, 2
  %v17_48b0 = icmp eq i8 %v16_48b0, 0
  store i32 %v4_48b0, i32* %v2_48b0, align 4
  %v0_48b6 = load i1, i1* %cf.global-to-local, align 1
  %v1_48b6 = zext i1 %v0_48b6 to i32
  %v4_48b6 = select i1 %v17_48b0, i32 4, i32 0
  %v7_48b6 = select i1 %v7_48b0, i32 16, i32 0
  %v10_48b6 = select i1 %v12_48b0, i32 64, i32 0
  %tmp106 = ashr i32 %v4_48b0, 31
  %tmp107 = and i32 %tmp106, 128
  %v14_48b6 = load i1, i1* %tf.global-to-local, align 1
  %v16_48b6 = select i1 %v14_48b6, i32 256, i32 0
  %v17_48b6 = load i1, i1* %if.global-to-local, align 1
  %v19_48b6 = select i1 %v17_48b6, i32 512, i32 0
  %v20_48b6 = load i1, i1* %df.global-to-local, align 1
  %v22_48b6 = select i1 %v20_48b6, i32 1024, i32 0
  %tmp108 = ashr i32 %v10_48b0, 31
  %tmp109 = and i32 %tmp108, 2048
  %v26_48b6 = load i1, i1* %nt.global-to-local, align 1
  %v28_48b6 = select i1 %v26_48b6, i32 16384, i32 0
  %v29_48b6 = or i32 %v1_48b6, %v10_48b6
  %v30_48b6 = or i32 %v29_48b6, %tmp107
  %v31_48b6 = or i32 %v30_48b6, %tmp109
  %v32_48b6 = or i32 %v31_48b6, %v7_48b6
  %v33_48b6 = or i32 %v32_48b6, %v16_48b6
  %v34_48b6 = or i32 %v33_48b6, %v19_48b6
  %v35_48b6 = or i32 %v34_48b6, %v4_48b6
  %v36_48b6 = or i32 %v35_48b6, %v22_48b6
  %v37_48b6 = or i32 %v36_48b6, %v28_48b6
  %v38_48b6 = or i32 %v37_48b6, 2
  store i32 %v38_48b6, i32* %stack_var_-4, align 4
  %v2_48b7 = load i8, i8* bitcast (i32* @eax to i8*), align 4
  %v3_48b7 = load i32, i32* %eax.global-to-local, align 4
  %v4_48b7 = trunc i32 %v3_48b7 to i8
  %v5_48b7 = add i8 %v4_48b7, %v2_48b7
  %v10_48b7 = icmp ult i8 %v5_48b7, %v2_48b7
  store i1 %v10_48b7, i1* %cf.global-to-local, align 1
  %v21_48b7 = inttoptr i32 %v3_48b7 to i8*
  store i8 %v5_48b7, i8* %v21_48b7, align 1
  %v0_48b9 = load i32, i32* %ebp.global-to-local, align 4
  %v1_48b9 = add i32 %v0_48b9, 51
  %v2_48b9 = inttoptr i32 %v1_48b9 to i8*
  %v3_48b9 = load i8, i8* %v2_48b9, align 1
  %v4_48b9 = load i32, i32* %eax.global-to-local, align 4
  %v5_48b9 = udiv i32 %v4_48b9, 256
  %v6_48b9 = trunc i32 %v5_48b9 to i8
  %v7_48b9 = add i8 %v6_48b9, %v3_48b9
  %v12_48b9 = icmp ult i8 %v7_48b9, %v3_48b9
  store i1 %v12_48b9, i1* %cf.global-to-local, align 1
  store i8 %v7_48b9, i8* %v2_48b9, align 1
  %v0_48bc = load i32, i32* %eax.global-to-local, align 4
  %v1_48bc = load i1, i1* %cf.global-to-local, align 1
  %v2_48bc = zext i1 %v1_48bc to i32
  %v3_48bc = add i32 %v0_48bc, ptrtoint (i32* @global_var_14.424 to i32)
  %v4_48bc = add i32 %v3_48bc, %v2_48bc
  %v14_48bc = icmp eq i32 %v4_48bc, 0
  %v20_48bc = add i32 %v0_48bc, 20
  %v21_48bc = add i32 %v20_48bc, %v2_48bc
  %v22_48bc = icmp ule i32 %v21_48bc, %v0_48bc
  %v23_48bc = icmp ugt i32 %v0_48bc, -21
  %v24_48bc = select i1 %v1_48bc, i1 %v22_48bc, i1 %v23_48bc
  store i1 %v24_48bc, i1* %cf.global-to-local, align 1
  store i32 %v4_48bc, i32* @eax, align 4
  %v1_48c1 = icmp eq i1 %v14_48bc, false
  br i1 %v1_48c1, label %bb, label %dec_label_pc_48c7

bb:                                               ; preds = %dec_label_pc_48b0
  %v2_48c1 = load i32, i32* %stack_var_-4, align 4
  %v3_48c1 = call i32 @function_49a3(i32 %v2_48c1)
  store i32 %v3_48c1, i32* %eax.global-to-local, align 4
  br label %dec_label_pc_48c7

dec_label_pc_48c7:                                ; preds = %bb, %dec_label_pc_48b0
  %v0_48d1 = phi i32 [ %v3_48c1, %bb ], [ %v4_48bc, %dec_label_pc_48b0 ]
  %v0_48c7 = load i32, i32* @esp, align 4
  %v5_48c7 = icmp ugt i32 %v0_48c7, -173
  store i1 %v5_48c7, i1* %cf.global-to-local, align 1
  store i32 %arg4, i32* %ebp.global-to-local, align 4
  ret i32 %v0_48d1

; uselistorder directives
  uselistorder i8 %v3_48b9, { 1, 0 }
  uselistorder i8 %v2_48b7, { 1, 0 }
  uselistorder i32 %v4_48b0, { 0, 3, 2, 1 }
  uselistorder i32 %v3_48b0, { 2, 1, 0, 3 }
}

define i32 @function_48d8(i32 %arg1, i32 %arg2, i32 %arg3, i32 %arg4, i32 %arg5, i32 %arg6, i32 %arg7, i16 %arg8) local_unnamed_addr {
dec_label_pc_48d8:
  %stack_var_80 = alloca i32, align 4
  %stack_var_68 = alloca i32, align 4
  %stack_var_122 = alloca i32, align 4
  store i32 %arg4, i32* %stack_var_122, align 4
  %v2_48d8 = ptrtoint i32* %stack_var_122 to i32
  call void @CService.421(i32 %v2_48d8, i8* getelementptr inbounds ([10 x i8], [10 x i8]* @global_var_5046.500, i32 0, i32 0), i1 false)
  %v3_48f4 = load i32, i32* %stack_var_122, align 4
  %v1_48fc = load i32, i32* @ebx, align 4
  %v2_48fc = inttoptr i32 %v1_48fc to i32*
  store i32 %v3_48f4, i32* %v2_48fc, align 4
  %v1_4902 = load i32, i32* @ebx, align 4
  %v2_4902 = add i32 %v1_4902, 4
  %v3_4902 = inttoptr i32 %v2_4902 to i32*
  store i32 %arg5, i32* %v3_4902, align 4
  %v1_490c = load i32, i32* @ebx, align 4
  %v2_490c = add i32 %v1_490c, 8
  %v3_490c = inttoptr i32 %v2_490c to i32*
  store i32 %arg6, i32* %v3_490c, align 4
  %v1_4916 = load i32, i32* @ebx, align 4
  %v2_4916 = add i32 %v1_4916, ptrtoint (i32* @global_var_c.427 to i32)
  %v3_4916 = inttoptr i32 %v2_4916 to i32*
  store i32 %arg7, i32* %v3_4916, align 4
  %v4_4919 = zext i16 %arg8 to i32
  store i32 %v4_4919, i32* @eax, align 4
  %v2_4921 = load i32, i32* @ebx, align 4
  %v3_4921 = add i32 %v2_4921, ptrtoint (i16** @global_var_10.441 to i32)
  %v4_4921 = inttoptr i32 %v3_4921 to i16*
  store i16 %arg8, i16* %v4_4921, align 2
  store i32 0, i32* @ebx, align 4
  %v1_4927 = icmp eq i32 %arg3, 0
  br i1 %v1_4927, label %bb, label %dec_label_pc_492f

bb:                                               ; preds = %dec_label_pc_48d8
  %v1_4929 = call i32 @function_48a9()
  br label %dec_label_pc_492f

dec_label_pc_492f:                                ; preds = %bb, %dec_label_pc_48d8
  store i32 %arg1, i32* @ecx, align 4
  %v2_4933 = ptrtoint i32* %stack_var_68 to i32
  store i32 %v2_4933, i32* @edx, align 4
  %v2_4937 = ptrtoint i32* %stack_var_80 to i32
  store i32 %v2_4937, i32* @eax, align 4
  %v5_493b = call i1 @ConnectSocketDirectly(i32 %v2_48d8, i32 ptrtoint ([10 x i8]* @global_var_5046.500 to i32), i32 0)
  %v7_493b = sext i1 %v5_493b to i32
  store i32 %v7_493b, i32* @eax, align 4
  %v5_4940 = icmp eq i1 %v5_493b, false
  br i1 %v5_4940, label %dec_label_pc_494b, label %dec_label_pc_4944

dec_label_pc_4944:                                ; preds = %dec_label_pc_492f
  %v13_4944 = icmp eq i32 %arg3, 5
  br i1 %v13_4944, label %dec_label_pc_4958, label %dec_label_pc_494b

dec_label_pc_494b:                                ; preds = %dec_label_pc_4944, %dec_label_pc_492f
  %v0_494d = call i32 @function_48a9()
  ret i32 %v0_494d

dec_label_pc_4958:                                ; preds = %dec_label_pc_4944
  ret i32 %v7_493b

; uselistorder directives
  uselistorder i32* %stack_var_122, { 1, 2, 0 }
  uselistorder i1 (i32, i32, i32)* @ConnectSocketDirectly, { 2, 1, 0 }
  uselistorder i16 %arg8, { 1, 0 }
}

define i32 @function_4985(i32* %arg1, i32 %arg2) local_unnamed_addr {
dec_label_pc_4985:
  %tmp94 = call i32 @__decompiler_undefined_function_0()
  %v4_4987 = trunc i32 %tmp94 to i8
  %v5_4987 = icmp eq i8 %v4_4987, 0
  br i1 %v5_4987, label %bb, label %dec_label_pc_498f

bb:                                               ; preds = %dec_label_pc_4985
  %v1_4989 = call i32 @function_48a9()
  br label %dec_label_pc_498f

dec_label_pc_498f:                                ; preds = %bb, %dec_label_pc_4985
  store i32 %arg2, i32* @eax, align 4
  store i32 %arg2, i32* %arg1, align 4
  %v0_499e = call i32 @function_48a9()
  ret i32 %v0_499e

; uselistorder directives
  uselistorder i32 ()* @function_48a9, { 3, 2, 1, 0 }
  uselistorder i32 %arg2, { 1, 0 }
}

define i32 @function_49a3(i32 %arg1) local_unnamed_addr {
dec_label_pc_49a3:
  %tmp = load i32, i32* @eax, align 4
  ret i32 %tmp
}

define i32 @function_49a9() local_unnamed_addr {
dec_label_pc_49a9:
  %eax.global-to-local = alloca i32, align 4
  %v0_49a9 = load i32, i32* %eax.global-to-local, align 4
  ret i32 %v0_49a9
}

define i32 @function_49b4() local_unnamed_addr {
dec_label_pc_49b4:
  %tmp = load i32, i32* @eax, align 4
  ret i32 %tmp
}

define i32 @function_49b5() local_unnamed_addr {
dec_label_pc_49b5:
  %eax.global-to-local = alloca i32, align 4
  %v0_49b5 = load i32, i32* %eax.global-to-local, align 4
  ret i32 %v0_49b5
}

define i32 @function_49b6() local_unnamed_addr {
dec_label_pc_49b6:
  %tmp = load i32, i32* @eax, align 4
  ret i32 %tmp
}

define i32 @function_49c6() local_unnamed_addr {
dec_label_pc_49c6:
  %v0_49ca = call i32 @function_49b4()
  ret i32 %v0_49ca
}

define i32 @function_49cc() local_unnamed_addr {
dec_label_pc_49cc:
  %v0_49cc = call i32 @function_49b4()
  ret i32 %v0_49cc

; uselistorder directives
  uselistorder i32 ()* @function_49b4, { 1, 0 }
}

define i32 @function_49da() local_unnamed_addr {
dec_label_pc_49da:
  %v0_49da = call i32 @function_49b6()
  ret i32 %v0_49da
}

define i1 @_Z8SetProxy7Network8CServicei(i32 %net, %CService.3 %addrProxy, i32 %nSocksVersion) local_unnamed_addr {
dec_label_pc_49e0:
  %eax.global-to-local = alloca i32, align 4
  %ebp.global-to-local = alloca i32, align 4
  %ebx.global-to-local = alloca i32, align 4
  %ecx.global-to-local = alloca i32, align 4
  %edi.global-to-local = alloca i32, align 4
  %edx.global-to-local = alloca i32, align 4
  %esi.global-to-local = alloca i32, align 4
  %tmp104 = extractvalue %CService.3 %addrProxy, 0
  %tmp105 = sext i16 %tmp104 to i32
  %stack_var_-84 = alloca i32, align 4
  %tmp121 = call i16 @__decompiler_undefined_function_2()
  %tmp123 = call i32 @__decompiler_undefined_function_0()
  %tmp125 = call i32 @__decompiler_undefined_function_0()
  %stack_var_-112 = alloca i32, align 4
  %tmp131 = call i32 @__decompiler_undefined_function_0()
  %v0_49ed = load i32, i32* %esi.global-to-local, align 4
  store i32 %net, i32* @esi, align 4
  %v0_49fb = load i32, i32* %ebx.global-to-local, align 4
  %v0_4a06 = load i32, i32* %edi.global-to-local, align 4
  store i32 %tmp105, i32* %stack_var_-112, align 4
  %v0_4a18 = load i32, i32* %ebp.global-to-local, align 4
  store i32 0, i32* @eax, align 4
  %tmp140 = icmp ult i32 %net, 4
  br i1 %tmp140, label %dec_label_pc_4a5b, label %bb

bb:                                               ; preds = %dec_label_pc_49e0
  %v9_4a55 = sext i16 %tmp121 to i32
  %v10_4a55 = call i32 @function_4ba1(i32 %tmp105, i32 %nSocksVersion, i32 %tmp125, i32 %tmp123, i32 %v9_4a55)
  store i32 %v10_4a55, i32* %eax.global-to-local, align 4
  %phitmp = and i32 %v10_4a55, -256
  br label %dec_label_pc_4a5b

dec_label_pc_4a5b:                                ; preds = %dec_label_pc_49e0, %bb
  %v3_4a5d = phi i32 [ 0, %dec_label_pc_49e0 ], [ %phitmp, %bb ]
  %v1_4a5b = icmp eq i32 %tmp131, 0
  %v1_4a5d = icmp eq i1 %v1_4a5b, false
  %v2_4a5d = zext i1 %v1_4a5d to i32
  %v5_4a5d = or i32 %v3_4a5d, %v2_4a5d
  store i32 %v5_4a5d, i32* %eax.global-to-local, align 4
  %v10_4a60 = icmp eq i32 %tmp131, 4
  %v5_4aa8 = icmp eq i1 %v1_4a5d, false
  br i1 %v10_4a60, label %dec_label_pc_4aa8, label %dec_label_pc_4a65

dec_label_pc_4a65:                                ; preds = %dec_label_pc_4a5b
  br i1 %v5_4aa8, label %dec_label_pc_4ac0.dec_label_pc_4a70_crit_edge, label %dec_label_pc_4a69

dec_label_pc_4a69:                                ; preds = %dec_label_pc_4a65
  store i32 0, i32* %eax.global-to-local, align 4
  %v10_4a6b = icmp eq i32 %tmp131, 5
  br i1 %v10_4a6b, label %dec_label_pc_4aac, label %dec_label_pc_4a70

dec_label_pc_4a70:                                ; preds = %dec_label_pc_4ac0.dec_label_pc_4a70_crit_edge, %dec_label_pc_4aac, %dec_label_pc_4a69
  %v0_4aa0 = phi i1 [ %phitmp7, %dec_label_pc_4ac0.dec_label_pc_4a70_crit_edge ], [ false, %dec_label_pc_4aac ], [ false, %dec_label_pc_4a69 ]
  store i32 0, i32* %edx.global-to-local, align 4
  store i32 %v0_49fb, i32* %ebx.global-to-local, align 4
  store i32 %v0_49ed, i32* %esi.global-to-local, align 4
  store i32 %v0_4a06, i32* %edi.global-to-local, align 4
  store i32 %v0_4a18, i32* %ebp.global-to-local, align 4
  ret i1 %v0_4aa0

dec_label_pc_4aa8:                                ; preds = %dec_label_pc_4a5b
  br i1 %v5_4aa8, label %dec_label_pc_4ac0.dec_label_pc_4a70_crit_edge, label %dec_label_pc_4aac

dec_label_pc_4aac:                                ; preds = %dec_label_pc_4aa8, %dec_label_pc_4a69
  %v2_4aac = ptrtoint i32* %stack_var_-112 to i32
  store i32 %v2_4aac, i32* %eax.global-to-local, align 4
  call void @_ZNK8CNetAddr7IsValidEv(i32 %v2_4aac)
  store i32 ptrtoint (i32* @0 to i32), i32* %edx.global-to-local, align 4
  store i32 0, i32* %eax.global-to-local, align 4
  br i1 icmp eq (i8 ptrtoint (i32* @0 to i8), i8 0), label %dec_label_pc_4a70, label %dec_label_pc_4ac0.dec_label_pc_4a70_crit_edge

dec_label_pc_4ac0.dec_label_pc_4a70_crit_edge:    ; preds = %dec_label_pc_4a65, %dec_label_pc_4aa8, %dec_label_pc_4aac
  %v2_4ac0 = ptrtoint i32* %stack_var_-84 to i32
  store i32 %v2_4ac0, i32* @edi, align 4
  store i32 ptrtoint (i32* @global_var_4cd0.474 to i32), i32* %stack_var_-84, align 4
  %v2_4ad4 = call i32 @_ZN5boost11unique_lockI14AnnotatedMixinINS_15recursive_mutexEEE4lockEv(i32* nonnull %stack_var_-84)
  %v0_4add = load i32, i32* @esi, align 4
  %v2_4ae5 = mul i32 %v0_4add, shl (i32 add (i32 ptrtoint (i16** @global_var_2.437 to i32), i32 1), i32 3)
  store i32 %v2_4ae5, i32* %esi.global-to-local, align 4
  %v3_4ae8 = load i32, i32* %stack_var_-112, align 4
  store i32 %v3_4ae8, i32* %ebp.global-to-local, align 4
  store i32 %nSocksVersion, i32* %edi.global-to-local, align 4
  %v2_4b01 = add i32 %v2_4ae5, ptrtoint (i32* @global_var_4d3c.487 to i32)
  %v3_4b01 = inttoptr i32 %v2_4b01 to i32*
  %v4_4b07 = sext i16 %tmp121 to i32
  store i32 %v4_4b07, i32* %edx.global-to-local, align 4
  store i32 1, i32* %eax.global-to-local, align 4
  %v0_4b32 = load i32, i32* %ebp.global-to-local, align 4
  %v1_4b32 = load i32, i32* %esi.global-to-local, align 4
  %v2_4b32 = add i32 %v1_4b32, ptrtoint ([14 x i8]* @global_var_4d30.484 to i32)
  %v3_4b32 = inttoptr i32 %v2_4b32 to i32*
  store i32 %v0_4b32, i32* %v3_4b32, align 4
  %v0_4b38 = load i32, i32* %edi.global-to-local, align 4
  %v1_4b38 = load i32, i32* %esi.global-to-local, align 4
  %v2_4b38 = add i32 %v1_4b38, ptrtoint ([10 x i8]* @global_var_4d34.485 to i32)
  %v3_4b38 = inttoptr i32 %v2_4b38 to i32*
  store i32 %v0_4b38, i32* %v3_4b38, align 4
  %v0_4b3e = load i32, i32* %ecx.global-to-local, align 4
  %v1_4b3e = load i32, i32* %esi.global-to-local, align 4
  %v2_4b3e = add i32 %v1_4b3e, ptrtoint ([6 x i8]* @global_var_4d38.486 to i32)
  %v3_4b3e = inttoptr i32 %v2_4b3e to i32*
  store i32 %v0_4b3e, i32* %v3_4b3e, align 4
  %v0_4b44 = load i32, i32* %edx.global-to-local, align 4
  %v1_4b44 = load i32, i32* %esi.global-to-local, align 4
  %v2_4b44 = add i32 %v1_4b44, ptrtoint ([25 x i8]* @global_var_4d40.501 to i32)
  %v3_4b44 = inttoptr i32 %v2_4b44 to i32*
  store i32 %v0_4b44, i32* %v3_4b44, align 4
  %v1_4b4a = load i32, i32* %esi.global-to-local, align 4
  %v2_4b4a = add i32 %v1_4b4a, ptrtoint ([21 x i8]* @global_var_4d44.482 to i32)
  %v3_4b4a = inttoptr i32 %v2_4b4a to i32*
  %v0_4aa0.pre = load i32, i32* %eax.global-to-local, align 4
  %phitmp6 = urem i32 %v0_4aa0.pre, 2
  %phitmp7 = icmp ne i32 %phitmp6, 0
  br label %dec_label_pc_4a70

; uselistorder directives
  uselistorder i1 %v5_4aa8, { 1, 0 }
  uselistorder i32* %eax.global-to-local, { 1, 2, 3, 4, 5, 6, 0 }
  uselistorder i32 3, { 2, 0, 1, 3 }
  uselistorder i16** @global_var_2.437, { 2, 0, 1 }
  uselistorder i32 ptrtoint (i16** @global_var_2.437 to i32), { 1, 0, 8, 7, 6, 5, 4, 3, 2 }
  uselistorder i32 shl (i32 add (i32 ptrtoint (i16** @global_var_2.437 to i32), i32 1), i32 3), { 1, 0 }
  uselistorder i32 20, { 1, 0 }
  uselistorder i8 ptrtoint (i32* @0 to i8), { 2, 3, 0, 1 }
  uselistorder i32 ptrtoint (i32* @0 to i32), { 1, 3, 4, 2, 5, 6, 7, 8, 9, 10, 11, 12, 14, 13, 15, 16, 17, 0, 18, 19, 20, 21, 22, 23, 24, 25, 26, 27, 28, 29, 30, 31, 32, 33, 34, 35 }
  uselistorder void (i32)* @_ZNK8CNetAddr7IsValidEv, { 2, 1, 0 }
  uselistorder i32 5, { 0, 1, 6, 3, 2, 5, 4, 7 }
  uselistorder i32 %nSocksVersion, { 1, 0 }
  uselistorder label %dec_label_pc_4ac0.dec_label_pc_4a70_crit_edge, { 2, 1, 0 }
  uselistorder label %dec_label_pc_4a5b, { 1, 0 }
}

define i32 @function_4b8d() local_unnamed_addr {
dec_label_pc_4b8d:
  %eax.global-to-local = alloca i32, align 4
  %tmp91 = call i32 @__decompiler_undefined_function_0()
  %v1_4b8d = add i32 %tmp91, -1204587072
  %v2_4b8d = inttoptr i32 %v1_4b8d to i32*
  %v3_4b8d = load i32, i32* %v2_4b8d, align 4
  %v4_4b8d = add i32 %v3_4b8d, 1
  store i32 %v4_4b8d, i32* %v2_4b8d, align 4
  %v2_4b93 = load i32, i32* %eax.global-to-local, align 4
  %v4_4b93 = mul i32 %v2_4b93, 2
  %v21_4b93 = inttoptr i32 %v2_4b93 to i32*
  store i32 %v4_4b93, i32* %v21_4b93, align 4
  %v2_4b95 = load i8, i8* bitcast (i32* @eax to i8*), align 4
  %v3_4b95 = load i32, i32* %eax.global-to-local, align 4
  %v4_4b95 = trunc i32 %v3_4b95 to i8
  %v5_4b95 = add i8 %v4_4b95, %v2_4b95
  %v21_4b95 = inttoptr i32 %v3_4b95 to i8*
  store i8 %v5_4b95, i8* %v21_4b95, align 1
  %v0_4b97 = load i32, i32* %eax.global-to-local, align 4
  ret i32 %v0_4b97

; uselistorder directives
  uselistorder i32 %v2_4b93, { 1, 0 }
}

define i32 @function_4b9c() local_unnamed_addr {
dec_label_pc_4b9c:
  %tmp = load i32, i32* @eax, align 4
  ret i32 %tmp
}

define i32 @function_4ba1(i32 %arg1, i32 %arg2, i32 %arg3, i32 %arg4, i32 %arg5) local_unnamed_addr {
dec_label_pc_4ba1:
  %v3_4bb9 = load i32, i32* @eax, align 4
  ret i32 %v3_4bb9
}

define i32 @function_4bcb() local_unnamed_addr {
dec_label_pc_4bcb:
  %eax.global-to-local = alloca i32, align 4
  %v0_4bcb = load i32, i32* %eax.global-to-local, align 4
  ret i32 %v0_4bcb
}

define void @_ZNK8CService6GetKeyEv(%CService* %this) local_unnamed_addr {
dec_label_pc_4bf0:
  %eax.global-to-local = alloca i32, align 4
  %ebx.global-to-local = alloca i32, align 4
  %esi.global-to-local = alloca i32, align 4
  %stack_var_-17 = alloca i32, align 4
  %v0_4bf0 = load i32, i32* %esi.global-to-local, align 4
  %v0_4bf1 = load i32, i32* %ebx.global-to-local, align 4
  %v4_4bf5 = ptrtoint %CService* %this to i32
  store i32 %v4_4bf5, i32* @esi, align 4
  %v2_4c05 = ptrtoint i32* %stack_var_-17 to i32
  store i32 %v2_4c05, i32* %eax.global-to-local, align 4
  store i32 0, i32* %stack_var_-17, align 4
  %v1_4c12 = bitcast %CService* %this to i32*
  store i32 0, i32* %v1_4c12, align 4
  %v0_4c18 = load i32, i32* @esi, align 4
  %v1_4c18 = add i32 %v0_4c18, 4
  %v2_4c18 = inttoptr i32 %v1_4c18 to i32*
  store i32 0, i32* %v2_4c18, align 4
  %v0_4c1f = load i32, i32* @esi, align 4
  %v1_4c1f = add i32 %v0_4c1f, 8
  %v2_4c1f = inttoptr i32 %v1_4c1f to i32*
  store i32 0, i32* %v2_4c1f, align 4
  %v0_4c3a = load i32, i32* @esi, align 4
  %v5_4c3d = bitcast i32* %stack_var_-17 to i8*
  %v6_4c3d = call i32 @_ZNSt6vectorIhSaIhEE14_M_fill_insertEN9__gnu_cxx17__normal_iteratorIPhS1_EEjRKh(i32 %v0_4c3a, i32 0, i32 18, i8* %v5_4c3d)
  store i32 %v6_4c3d, i32* %eax.global-to-local, align 4
  %v0_4c42 = load i32, i32* @esi, align 4
  %v1_4c42 = inttoptr i32 %v0_4c42 to i32*
  %v2_4c42 = load i32, i32* %v1_4c42, align 4
  store i32 %v2_4c42, i32* %eax.global-to-local, align 4
  %v0_4c44 = load i32, i32* @ebx, align 4
  %v1_4c44 = inttoptr i32 %v0_4c44 to i32*
  %v2_4c44 = load i32, i32* %v1_4c44, align 4
  %v2_4c46 = inttoptr i32 %v2_4c42 to i32*
  store i32 %v2_4c44, i32* %v2_4c46, align 4
  %v0_4c48 = load i32, i32* @ebx, align 4
  %v1_4c48 = add i32 %v0_4c48, 4
  %v2_4c48 = inttoptr i32 %v1_4c48 to i32*
  %v3_4c48 = load i32, i32* %v2_4c48, align 4
  %v1_4c4b = load i32, i32* %eax.global-to-local, align 4
  %v2_4c4b = add i32 %v1_4c4b, 4
  %v3_4c4b = inttoptr i32 %v2_4c4b to i32*
  store i32 %v3_4c48, i32* %v3_4c4b, align 4
  %v0_4c4e = load i32, i32* @ebx, align 4
  %v1_4c4e = add i32 %v0_4c4e, 8
  %v2_4c4e = inttoptr i32 %v1_4c4e to i32*
  %v3_4c4e = load i32, i32* %v2_4c4e, align 4
  %v1_4c51 = load i32, i32* %eax.global-to-local, align 4
  %v2_4c51 = add i32 %v1_4c51, 8
  %v3_4c51 = inttoptr i32 %v2_4c51 to i32*
  store i32 %v3_4c4e, i32* %v3_4c51, align 4
  %v0_4c54 = load i32, i32* @ebx, align 4
  %v1_4c54 = add i32 %v0_4c54, ptrtoint (i32* @global_var_c.427 to i32)
  %v2_4c54 = inttoptr i32 %v1_4c54 to i32*
  %v3_4c54 = load i32, i32* %v2_4c54, align 4
  %v1_4c57 = load i32, i32* %eax.global-to-local, align 4
  %v2_4c57 = add i32 %v1_4c57, ptrtoint (i32* @global_var_c.427 to i32)
  %v3_4c57 = inttoptr i32 %v2_4c57 to i32*
  store i32 %v3_4c54, i32* %v3_4c57, align 4
  %v0_4c5a = load i32, i32* @esi, align 4
  %v1_4c5a = inttoptr i32 %v0_4c5a to i32*
  %v2_4c5a = load i32, i32* %v1_4c5a, align 4
  store i32 %v2_4c5a, i32* %eax.global-to-local, align 4
  %v0_4c5c = load i32, i32* @ebx, align 4
  %v1_4c5c = add i32 %v0_4c5c, ptrtoint (i8** @global_var_11.503 to i32)
  %v2_4c5c = inttoptr i32 %v1_4c5c to i8*
  %v3_4c5c = load i8, i8* %v2_4c5c, align 1
  %v3_4c60 = add i32 %v2_4c5a, ptrtoint (i16** @global_var_10.441 to i32)
  %v4_4c60 = inttoptr i32 %v3_4c60 to i8*
  store i8 %v3_4c5c, i8* %v4_4c60, align 1
  %v0_4c63 = load i32, i32* @esi, align 4
  %v1_4c63 = inttoptr i32 %v0_4c63 to i32*
  %v2_4c63 = load i32, i32* %v1_4c63, align 4
  store i32 %v2_4c63, i32* %eax.global-to-local, align 4
  %v0_4c65 = load i32, i32* @ebx, align 4
  %v1_4c65 = add i32 %v0_4c65, ptrtoint (i16** @global_var_10.441 to i32)
  %v2_4c65 = inttoptr i32 %v1_4c65 to i16*
  %v3_4c65 = load i16, i16* %v2_4c65, align 2
  %v1_4c69 = trunc i16 %v3_4c65 to i8
  %v3_4c69 = add i32 %v2_4c63, ptrtoint (i8** @global_var_11.503 to i32)
  %v4_4c69 = inttoptr i32 %v3_4c69 to i8*
  store i8 %v1_4c69, i8* %v4_4c69, align 1
  %v0_4c6c = load i32, i32* @esi, align 4
  store i32 %v0_4c6c, i32* %eax.global-to-local, align 4
  store i32 %v0_4bf1, i32* %ebx.global-to-local, align 4
  store i32 %v0_4bf0, i32* %esi.global-to-local, align 4
  ret void

; uselistorder directives
  uselistorder i32 ptrtoint (i8** @global_var_11.503 to i32), { 1, 0 }
}

define i32 @function_4c8b() local_unnamed_addr {
dec_label_pc_4c8b:
  %eax.global-to-local = alloca i32, align 4
  %v0_4c8b = load i32, i32* %eax.global-to-local, align 4
  ret i32 %v0_4c8b
}

define i32 @_ZN5boost16exception_detail10clone_baseD1Ev(i32* %arg1) local_unnamed_addr {
dec_label_pc_4cb0:
  store i32 ptrtoint (i32* @global_var_8500.504 to i32), i32* %arg1, align 4
  ret i32 0
}

define i32 @_ZNK5boost10lock_error4whatEv() {
dec_label_pc_5050:
  ret i32 ptrtoint ([18 x i8]* @global_var_4cdf.505 to i32)
}

define i32 @_ZNK5boost21thread_resource_error4whatEv() {
dec_label_pc_5080:
  ret i32 ptrtoint ([29 x i8]* @global_var_4cf1.506 to i32)
}

define i32 @_ZN5boost6detail15sp_counted_baseD1Ev(i32* %arg1) local_unnamed_addr {
dec_label_pc_50b0:
  store i32 ptrtoint (i32* @global_var_8700.507 to i32), i32* %arg1, align 4
  ret i32 0
}

