source_filename = "test"
target datalayout = "e-m:e-p:32:32-f64:32:64-f80:32-n8:16:32-S128"

%vtable_331d4_type = type { i32 (i32*)*, i32 (i32)*, i32 (i32)*, i32 (i32*)*, i32 (i32, i32)* }
%vtable_3328c_type = type { i32 (i32*)*, i32 (i32)*, i32 (i32)*, i32 (i32*)*, i32 ()* }
%vtable_33344_type = type { i32 (i32*)*, i32 (i32)*, i32 (i32)*, i32 (i32*)*, i32 (i32)* }
%vtable_333fc_type = type { i32 (i32*)*, i32 (i32)*, i32 (i32)*, i32 (i32*)*, i32 (i32, i32)* }
%vtable_334b4_type = type { i32 (i32*)*, i32 ()*, i32 (i32)*, i32 (i32*)*, i32 (i32, i32)* }
%vtable_3356c_type = type { i32 (i32*)*, i32 (i32)*, i32 (i32)*, i32 (i32*)*, i32 (i32, i32)* }
%vtable_33624_type = type { i32 (i32*)*, i32 (i32)*, i32 (i32)*, i32 (i32*)*, i32 (i32, i32)* }
%vtable_336dc_type = type { i32 (i32*)*, i32 (i32)*, i32 (i32)*, i32 (i32*)*, i32 (i32, i32)* }
%vtable_33794_type = type { i32 (i32*)*, i32 (i32)*, i32 (i32)*, i32 (i32*)*, i32 (i32, i32)* }
%vtable_3384c_type = type { i32 (i32*)*, i32 (i32)*, i32 (i32, i32)*, i32 (i32*)*, i32 ()* }
%vtable_33904_type = type { i32 (i32)*, i32 (i32)*, i32 (i32)*, i32 (i32*)*, i32 (i32)* }
%vtable_339bc_type = type { i32 (i32*)*, i32 (i32)*, i32 (i32)*, i32 (i32)*, i32 (i32)* }
%vtable_339dc_type = type { i32 (i32*)*, i32 ()*, i32 (i32)*, i32 (i32)*, i32 (i32)* }
%vtable_339fc_type = type { i32 (i32*)*, i32 (i32)*, i32 (i32)*, i32 (i32)*, i32 (i32)* }
%vtable_33a1c_type = type { i32 (i32*)*, i32 (i32)*, i32 (i32)*, i32 (i32*)*, i32 (i32, i32)* }
%vtable_33ae4_type = type { i32 (i32*)*, i32 (i32)*, i32 ()*, i32 (i32)*, i32 (i32)* }
%vtable_33b44_type = type { i32 (i32*)*, i32 (i32)*, i32 ()* }
%vtable_33b8c_type = type { i32 (i32*)*, i32 (i32)*, i32 (i32)* }
%vtable_33bcc_type = type { i32 (i32*)*, i32 (i32)*, i32 ()* }
%vtable_33be4_type = type { i32 (i32*)*, i32 (i32)*, i32 (i32)*, i32 (i32)* }
%vtable_33c44_type = type { i32 (i32*)*, i32 (i32)* }

@cf = internal unnamed_addr global i1 false
@az = internal unnamed_addr global i1 false
@zf = internal unnamed_addr global i1 false
@sf = internal unnamed_addr global i1 false
@df = internal unnamed_addr global i1 false
@of = internal unnamed_addr global i1 false
@cs = internal unnamed_addr global i16 0
@ds = internal unnamed_addr global i16 0
@st0 = internal unnamed_addr global x86_fp80 0xK00000000000000000000
@fpu_stat_TOP = internal unnamed_addr global i3 0
@eax = internal unnamed_addr global i32 0, align 8
@ecx = internal unnamed_addr global i32 0
@edx = internal unnamed_addr global i32 0, align 8
@ebx = internal unnamed_addr global i32 0, align 8
@esp = internal unnamed_addr global i32 0
@ebp = internal unnamed_addr global i32 0
@esi = internal unnamed_addr global i32 0
@edi = internal unnamed_addr global i32 0, align 8
@0 = external local_unnamed_addr global i32
@1 = external local_unnamed_addr global i32
@global_var_14a1.1905 = constant i32 134348799
@global_var_2666.1906 = constant [6 x i8] c"Error\00"
@global_var_266c.1907 = constant [8 x i8] c"Warning\00"
@global_var_2674.1908 = constant [12 x i8] c"Information\00"
@global_var_90f.1910 = constant i32 2048
@global_var_910.1911 = constant i32 8
@global_var_913.1912 = constant i32 -196769024
@global_var_914.1913 = constant i32 1710507403
@global_var_915.1914 = constant i32 862319685
@global_var_916.1915 = constant i32 87254516
@global_var_919.1916 = constant i32 5125
@global_var_91a.1917 = constant i32 20
@global_var_91d.1918 = constant i32 -402295808
@global_var_91e.1919 = constant i32 -51903116
@global_var_33ca4.1920 = constant i32 0
@global_var_10.1921 = constant i32 1709196681
@global_var_33c8c.1922 = constant i32 0
@global_var_33c6c.1923 = constant i32 7996
@global_var_33ba4.1924 = constant i32 58036
@global_var_33b6c.1927 = constant i32 60630
@global_var_30.1928 = constant i32 69485767
@global_var_33c54.1930 = constant i32 66140
@global_var_33bfc.1933 = constant i32 71841
@global_var_33c10.1934 = constant i32 218670
@global_var_51.1935 = constant i32 69071
@global_var_269c.1936 = constant [54 x i8] c"/usr/include/boost/exception/detail/exception_ptr.hpp\00"
@global_var_3b3c.1937 = constant [169 x i8] c"boost::exception_ptr boost::exception_detail::get_bad_alloc() [with int Dummy = 42, boost::exception_ptr = boost::shared_ptr<const boost::exception_detail::clone_base>]\00"
@global_var_2700.1941 = constant [8 x i8] c"px != 0\00"
@global_var_33b58.1943 = constant i32 79016
@global_var_33b00.1946 = constant i32 79289
@global_var_33b10.1947 = constant i32 218438
@global_var_275d.1953 = constant [23 x i8] c"this->is_initialized()\00"
@global_var_27ab.1959 = constant [23 x i8] c"_shared_state.unique()\00"
@global_var_80.1967 = constant i32 -1
@global_var_89d8.1970 = constant [525 x i8] c"d::basic_string<char>&)>, boost::function<void(const boost::signals2::connection&, const std::basic_string<char>&)>, boost::signals2::mutex>::invocation_state, boost::shared_ptr<T>::reference = boost::signals2::detail::signal1_impl<void, const std::basic_string<char>&, boost::signals2::optional_last_value<void>, int, std::less<int>, boost::function<void(const std::basic_string<char>&)>, boost::function<void(const boost::signals2::connection&, const std::basic_string<char>&)>, boost::signals2::mutex>::invocation_state&]\00"
@global_var_18b68.1978 = constant i32 99859
@global_var_19094.1979 = constant i32 101399
@global_var_195c0.1980 = constant i32 102723
@global_var_19b68.1981 = constant i32 104173
@global_var_1a110.1982 = constant i32 105618
@global_var_1d874.2014 = constant i32 119798
@global_var_35d20.2019 = global i32 140774
@global_var_35d28.2022 = global i32 145757
@global_var_35d30.2026 = global i32 150060
@global_var_4500.2030 = constant [873 x i8] c"t::shared_ptr<boost::signals2::detail::connection_body<std::pair<boost::signals2::detail::slot_meta_group, boost::optional<int> >, boost::signals2::slot3<bool, const std::basic_string<char>&, const std::basic_string<char>&, unsigned int, boost::function<bool(const std::basic_string<char>&, const std::basic_string<char>&, unsigned int)> >, boost::signals2::mutex> >, boost::signals2::detail::grouped_list<Group, GroupCompare, ValueType> = boost::signals2::detail::grouped_list<int, std::less<int>, boost::shared_ptr<boost::signals2::detail::connection_body<std::pair<boost::signals2::detail::slot_meta_group, boost::optional<int> >, boost::signals2::slot3<bool, const std::basic_string<char>&, const std::basic_string<char>&, unsigned int, boost::function<bool(const std::basic_string<char>&, const std::basic_string<char>&, unsigned int)> >, boost::signals2::mutex> > >]\00"
@global_var_34294.2033 = constant i32 8
@global_var_34274.2038 = constant i32 8
@global_var_3425c.2042 = constant i32 8
@2 = external global i32
@3 = internal constant [3 x i8] c"\A1\14\00"
@global_var_14.1904 = constant i8* getelementptr inbounds ([3 x i8], [3 x i8]* @3, i32 0, i32 0)
@global_var_18.1931 = external constant i8*
@global_var_89.1944 = constant i8 -115
@global_var_15.2040 = constant i8 20
@global_var_88.2056 = constant i8 0
@global_var_331d4.2066 = constant %vtable_331d4_type { i32 (i32*)* @_ZN5boost6detail17sp_counted_impl_pINS_8signals26detail12signal1_implIvRKSsNS2_19optional_last_valueIvEEiSt4lessIiENS_8functionIFvS6_EEENSB_IFvRKNS2_10connectionES6_EEENS2_5mutexEE16invocation_stateEED1Ev, i32 (i32)* @_ZN5boost6detail17sp_counted_impl_pINS_8signals26detail12signal1_implIvRKSsNS2_19optional_last_valueIvEEiSt4lessIiENS_8functionIFvS6_EEENSB_IFvRKNS2_10connectionES6_EEENS2_5mutexEE16invocation_stateEED0Ev, i32 (i32)* @_ZN5boost6detail17sp_counted_impl_pINS_8signals26detail12signal1_implIvRKSsNS2_19optional_last_valueIvEEiSt4lessIiENS_8functionIFvS6_EEENSB_IFvRKNS2_10connectionES6_EEENS2_5mutexEE16invocation_stateEE7disposeEv, i32 (i32*)* @_ZN5boost6detail15sp_counted_base7destroyEv, i32 (i32, i32)* @_ZN5boost6detail17sp_counted_impl_pINS_8signals26detail12signal1_implIvRKSsNS2_19optional_last_valueIvEEiSt4lessIiENS_8functionIFvS6_EEENSB_IFvRKNS2_10connectionES6_EEENS2_5mutexEE16invocation_stateEE11get_deleterERKSt9type_info }
@global_var_3328c.2065 = constant %vtable_3328c_type { i32 (i32*)* @_ZN5boost6detail17sp_counted_impl_pINS_8signals26detail12grouped_listIiSt4lessIiENS_10shared_ptrINS3_15connection_bodyISt4pairINS3_15slot_meta_groupENS_8optionalIiEEENS2_5slot1IvRKSsNS_8functionIFvSG_EEEEENS2_5mutexEEEEEEEED1Ev, i32 (i32)* @_ZN5boost6detail17sp_counted_impl_pINS_8signals26detail12grouped_listIiSt4lessIiENS_10shared_ptrINS3_15connection_bodyISt4pairINS3_15slot_meta_groupENS_8optionalIiEEENS2_5slot1IvRKSsNS_8functionIFvSG_EEEEENS2_5mutexEEEEEEEED0Ev, i32 (i32)* @_ZN5boost6detail17sp_counted_impl_pINS_8signals26detail12grouped_listIiSt4lessIiENS_10shared_ptrINS3_15connection_bodyISt4pairINS3_15slot_meta_groupENS_8optionalIiEEENS2_5slot1IvRKSsNS_8functionIFvSG_EEEEENS2_5mutexEEEEEEEE7disposeEv, i32 (i32*)* @_ZN5boost6detail15sp_counted_base7destroyEv, i32 ()* @_ZN5boost6detail17sp_counted_impl_pINS_8signals26detail12grouped_listIiSt4lessIiENS_10shared_ptrINS3_15connection_bodyISt4pairINS3_15slot_meta_groupENS_8optionalIiEEENS2_5slot1IvRKSsNS_8functionIFvSG_EEEEENS2_5mutexEEEEEEEE11get_deleterERKSt9type_info }
@global_var_33344.2064 = constant %vtable_33344_type { i32 (i32*)* @_ZN5boost6detail17sp_counted_impl_pINS_8signals26detail12signal1_implIbxNS2_10last_valueIbEEiSt4lessIiENS_8functionIFbxEEENS9_IFbRKNS2_10connectionExEEENS2_5mutexEE16invocation_stateEED1Ev, i32 (i32)* @_ZN5boost6detail17sp_counted_impl_pINS_8signals26detail12signal1_implIbxNS2_10last_valueIbEEiSt4lessIiENS_8functionIFbxEEENS9_IFbRKNS2_10connectionExEEENS2_5mutexEE16invocation_stateEED0Ev, i32 (i32)* @_ZN5boost6detail17sp_counted_impl_pINS_8signals26detail12signal1_implIbxNS2_10last_valueIbEEiSt4lessIiENS_8functionIFbxEEENS9_IFbRKNS2_10connectionExEEENS2_5mutexEE16invocation_stateEE7disposeEv, i32 (i32*)* @_ZN5boost6detail15sp_counted_base7destroyEv, i32 (i32)* @_ZN5boost6detail17sp_counted_impl_pINS_8signals26detail12signal1_implIbxNS2_10last_valueIbEEiSt4lessIiENS_8functionIFbxEEENS9_IFbRKNS2_10connectionExEEENS2_5mutexEE16invocation_stateEE11get_deleterERKSt9type_info }
@global_var_333fc.2063 = constant %vtable_333fc_type { i32 (i32*)* @_ZN5boost6detail17sp_counted_impl_pINS_8signals26detail12grouped_listIiSt4lessIiENS_10shared_ptrINS3_15connection_bodyISt4pairINS3_15slot_meta_groupENS_8optionalIiEEENS2_5slot1IbxNS_8functionIFbxEEEEENS2_5mutexEEEEEEEED1Ev, i32 (i32)* @_ZN5boost6detail17sp_counted_impl_pINS_8signals26detail12grouped_listIiSt4lessIiENS_10shared_ptrINS3_15connection_bodyISt4pairINS3_15slot_meta_groupENS_8optionalIiEEENS2_5slot1IbxNS_8functionIFbxEEEEENS2_5mutexEEEEEEEED0Ev, i32 (i32)* @_ZN5boost6detail17sp_counted_impl_pINS_8signals26detail12grouped_listIiSt4lessIiENS_10shared_ptrINS3_15connection_bodyISt4pairINS3_15slot_meta_groupENS_8optionalIiEEENS2_5slot1IbxNS_8functionIFbxEEEEENS2_5mutexEEEEEEEE7disposeEv, i32 (i32*)* @_ZN5boost6detail15sp_counted_base7destroyEv, i32 (i32, i32)* @_ZN5boost6detail17sp_counted_impl_pINS_8signals26detail12grouped_listIiSt4lessIiENS_10shared_ptrINS3_15connection_bodyISt4pairINS3_15slot_meta_groupENS_8optionalIiEEENS2_5slot1IbxNS_8functionIFbxEEEEENS2_5mutexEEEEEEEE11get_deleterERKSt9type_info }
@global_var_334b4.2062 = constant %vtable_334b4_type { i32 (i32*)* @_ZN5boost6detail17sp_counted_impl_pINS_8signals26detail12signal3_implIbRKSsS6_jNS2_10last_valueIbEEiSt4lessIiENS_8functionIFbS6_S6_jEEENSB_IFbRKNS2_10connectionES6_S6_jEEENS2_5mutexEE16invocation_stateEED1Ev, i32 ()* @_ZN5boost6detail17sp_counted_impl_pINS_8signals26detail12signal3_implIbRKSsS6_jNS2_10last_valueIbEEiSt4lessIiENS_8functionIFbS6_S6_jEEENSB_IFbRKNS2_10connectionES6_S6_jEEENS2_5mutexEE16invocation_stateEED0Ev, i32 (i32)* @_ZN5boost6detail17sp_counted_impl_pINS_8signals26detail12signal3_implIbRKSsS6_jNS2_10last_valueIbEEiSt4lessIiENS_8functionIFbS6_S6_jEEENSB_IFbRKNS2_10connectionES6_S6_jEEENS2_5mutexEE16invocation_stateEE7disposeEv, i32 (i32*)* @_ZN5boost6detail15sp_counted_base7destroyEv, i32 (i32, i32)* @_ZN5boost6detail17sp_counted_impl_pINS_8signals26detail12signal3_implIbRKSsS6_jNS2_10last_valueIbEEiSt4lessIiENS_8functionIFbS6_S6_jEEENSB_IFbRKNS2_10connectionES6_S6_jEEENS2_5mutexEE16invocation_stateEE11get_deleterERKSt9type_info }
@global_var_3356c.2061 = constant %vtable_3356c_type { i32 (i32*)* @_ZN5boost6detail17sp_counted_impl_pINS_8signals26detail12grouped_listIiSt4lessIiENS_10shared_ptrINS3_15connection_bodyISt4pairINS3_15slot_meta_groupENS_8optionalIiEEENS2_5slot3IbRKSsSG_jNS_8functionIFbSG_SG_jEEEEENS2_5mutexEEEEEEEED1Ev, i32 (i32)* @_ZN5boost6detail17sp_counted_impl_pINS_8signals26detail12grouped_listIiSt4lessIiENS_10shared_ptrINS3_15connection_bodyISt4pairINS3_15slot_meta_groupENS_8optionalIiEEENS2_5slot3IbRKSsSG_jNS_8functionIFbSG_SG_jEEEEENS2_5mutexEEEEEEEED0Ev, i32 (i32)* @_ZN5boost6detail17sp_counted_impl_pINS_8signals26detail12grouped_listIiSt4lessIiENS_10shared_ptrINS3_15connection_bodyISt4pairINS3_15slot_meta_groupENS_8optionalIiEEENS2_5slot3IbRKSsSG_jNS_8functionIFbSG_SG_jEEEEENS2_5mutexEEEEEEEE7disposeEv, i32 (i32*)* @_ZN5boost6detail15sp_counted_base7destroyEv, i32 (i32, i32)* @_ZN5boost6detail17sp_counted_impl_pINS_8signals26detail12grouped_listIiSt4lessIiENS_10shared_ptrINS3_15connection_bodyISt4pairINS3_15slot_meta_groupENS_8optionalIiEEENS2_5slot3IbRKSsSG_jNS_8functionIFbSG_SG_jEEEEENS2_5mutexEEEEEEEE11get_deleterERKSt9type_info }
@global_var_33624.2049 = constant %vtable_33624_type { i32 (i32*)* @_ZN5boost6detail17sp_counted_impl_pINS_8signals26detail12signal1_implISsPKcNS2_19optional_last_valueISsEEiSt4lessIiENS_8functionIFSsS6_EEENSB_IFSsRKNS2_10connectionES6_EEENS2_5mutexEE16invocation_stateEED1Ev, i32 (i32)* @_ZN5boost6detail17sp_counted_impl_pINS_8signals26detail12signal1_implISsPKcNS2_19optional_last_valueISsEEiSt4lessIiENS_8functionIFSsS6_EEENSB_IFSsRKNS2_10connectionES6_EEENS2_5mutexEE16invocation_stateEED0Ev, i32 (i32)* @_ZN5boost6detail17sp_counted_impl_pINS_8signals26detail12signal1_implISsPKcNS2_19optional_last_valueISsEEiSt4lessIiENS_8functionIFSsS6_EEENSB_IFSsRKNS2_10connectionES6_EEENS2_5mutexEE16invocation_stateEE7disposeEv, i32 (i32*)* @_ZN5boost6detail15sp_counted_base7destroyEv, i32 (i32, i32)* @_ZN5boost6detail17sp_counted_impl_pINS_8signals26detail12signal1_implISsPKcNS2_19optional_last_valueISsEEiSt4lessIiENS_8functionIFSsS6_EEENSB_IFSsRKNS2_10connectionES6_EEENS2_5mutexEE16invocation_stateEE11get_deleterERKSt9type_info }
@global_var_336dc.2048 = constant %vtable_336dc_type { i32 (i32*)* @_ZN5boost6detail17sp_counted_impl_pINS_8signals26detail12grouped_listIiSt4lessIiENS_10shared_ptrINS3_15connection_bodyISt4pairINS3_15slot_meta_groupENS_8optionalIiEEENS2_5slot1ISsPKcNS_8functionIFSsSG_EEEEENS2_5mutexEEEEEEEED1Ev, i32 (i32)* @_ZN5boost6detail17sp_counted_impl_pINS_8signals26detail12grouped_listIiSt4lessIiENS_10shared_ptrINS3_15connection_bodyISt4pairINS3_15slot_meta_groupENS_8optionalIiEEENS2_5slot1ISsPKcNS_8functionIFSsSG_EEEEENS2_5mutexEEEEEEEED0Ev, i32 (i32)* @_ZN5boost6detail17sp_counted_impl_pINS_8signals26detail12grouped_listIiSt4lessIiENS_10shared_ptrINS3_15connection_bodyISt4pairINS3_15slot_meta_groupENS_8optionalIiEEENS2_5slot1ISsPKcNS_8functionIFSsSG_EEEEENS2_5mutexEEEEEEEE7disposeEv, i32 (i32*)* @_ZN5boost6detail15sp_counted_base7destroyEv, i32 (i32, i32)* @_ZN5boost6detail17sp_counted_impl_pINS_8signals26detail12grouped_listIiSt4lessIiENS_10shared_ptrINS3_15connection_bodyISt4pairINS3_15slot_meta_groupENS_8optionalIiEEENS2_5slot1ISsPKcNS_8functionIFSsSG_EEEEENS2_5mutexEEEEEEEE11get_deleterERKSt9type_info }
@global_var_33794.2046 = constant %vtable_33794_type { i32 (i32*)* @_ZN5boost6detail17sp_counted_impl_pINS_8signals26detail15connection_bodyISt4pairINS3_15slot_meta_groupENS_8optionalIiEEENS2_5slot1IvRKSsNS_8functionIFvSC_EEEEENS2_5mutexEEEED1Ev, i32 (i32)* @_ZN5boost6detail17sp_counted_impl_pINS_8signals26detail15connection_bodyISt4pairINS3_15slot_meta_groupENS_8optionalIiEEENS2_5slot1IvRKSsNS_8functionIFvSC_EEEEENS2_5mutexEEEED0Ev, i32 (i32)* @_ZN5boost6detail17sp_counted_impl_pINS_8signals26detail15connection_bodyISt4pairINS3_15slot_meta_groupENS_8optionalIiEEENS2_5slot1IvRKSsNS_8functionIFvSC_EEEEENS2_5mutexEEEE7disposeEv, i32 (i32*)* @_ZN5boost6detail15sp_counted_base7destroyEv, i32 (i32, i32)* @_ZN5boost6detail17sp_counted_impl_pINS_8signals26detail15connection_bodyISt4pairINS3_15slot_meta_groupENS_8optionalIiEEENS2_5slot1IvRKSsNS_8functionIFvSC_EEEEENS2_5mutexEEEE11get_deleterERKSt9type_info }
@global_var_3384c.2067 = constant %vtable_3384c_type { i32 (i32*)* @_ZN5boost6detail17sp_counted_impl_pINS_8signals26detail15connection_bodyISt4pairINS3_15slot_meta_groupENS_8optionalIiEEENS2_5slot1IbxNS_8functionIFbxEEEEENS2_5mutexEEEED1Ev, i32 (i32)* @_ZN5boost6detail17sp_counted_impl_pINS_8signals26detail15connection_bodyISt4pairINS3_15slot_meta_groupENS_8optionalIiEEENS2_5slot1IbxNS_8functionIFbxEEEEENS2_5mutexEEEED0Ev, i32 (i32, i32)* @_ZN5boost6detail17sp_counted_impl_pINS_8signals26detail15connection_bodyISt4pairINS3_15slot_meta_groupENS_8optionalIiEEENS2_5slot1IbxNS_8functionIFbxEEEEENS2_5mutexEEEE7disposeEv, i32 (i32*)* @_ZN5boost6detail15sp_counted_base7destroyEv, i32 ()* @_ZN5boost6detail17sp_counted_impl_pINS_8signals26detail15connection_bodyISt4pairINS3_15slot_meta_groupENS_8optionalIiEEENS2_5slot1IbxNS_8functionIFbxEEEEENS2_5mutexEEEE11get_deleterERKSt9type_info }
@global_var_33904.2037 = constant %vtable_33904_type { i32 (i32)* @_ZN5boost6detail17sp_counted_impl_pINS_8signals26detail15connection_bodyISt4pairINS3_15slot_meta_groupENS_8optionalIiEEENS2_5slot3IbRKSsSC_jNS_8functionIFbSC_SC_jEEEEENS2_5mutexEEEED1Ev, i32 (i32)* @_ZN5boost6detail17sp_counted_impl_pINS_8signals26detail15connection_bodyISt4pairINS3_15slot_meta_groupENS_8optionalIiEEENS2_5slot3IbRKSsSC_jNS_8functionIFbSC_SC_jEEEEENS2_5mutexEEEED0Ev, i32 (i32)* @_ZN5boost6detail17sp_counted_impl_pINS_8signals26detail15connection_bodyISt4pairINS3_15slot_meta_groupENS_8optionalIiEEENS2_5slot3IbRKSsSC_jNS_8functionIFbSC_SC_jEEEEENS2_5mutexEEEE7disposeEv, i32 (i32*)* @_ZN5boost6detail15sp_counted_base7destroyEv, i32 (i32)* @_ZN5boost6detail17sp_counted_impl_pINS_8signals26detail15connection_bodyISt4pairINS3_15slot_meta_groupENS_8optionalIiEEENS2_5slot3IbRKSsSC_jNS_8functionIFbSC_SC_jEEEEENS2_5mutexEEEE11get_deleterERKSt9type_info }
@global_var_339bc.2000 = constant %vtable_339bc_type { i32 (i32*)* @_ZN5boost8signals26detail15connection_bodyISt4pairINS1_15slot_meta_groupENS_8optionalIiEEENS0_5slot1IvRKSsNS_8functionIFvSA_EEEEENS0_5mutexEED1Ev, i32 (i32)* @_ZN5boost8signals26detail15connection_bodyISt4pairINS1_15slot_meta_groupENS_8optionalIiEEENS0_5slot1IvRKSsNS_8functionIFvSA_EEEEENS0_5mutexEED0Ev, i32 (i32)* @_ZNK5boost8signals26detail15connection_bodyISt4pairINS1_15slot_meta_groupENS_8optionalIiEEENS0_5slot1IvRKSsNS_8functionIFvSA_EEEEENS0_5mutexEE9connectedEv, i32 (i32)* @_ZN5boost8signals26detail15connection_bodyISt4pairINS1_15slot_meta_groupENS_8optionalIiEEENS0_5slot1IvRKSsNS_8functionIFvSA_EEEEENS0_5mutexEE4lockEv, i32 (i32)* @_ZN5boost8signals26detail15connection_bodyISt4pairINS1_15slot_meta_groupENS_8optionalIiEEENS0_5slot1IvRKSsNS_8functionIFvSA_EEEEENS0_5mutexEE6unlockEv }
@global_var_339dc.1998 = constant %vtable_339dc_type { i32 (i32*)* @_ZN5boost8signals26detail15connection_bodyISt4pairINS1_15slot_meta_groupENS_8optionalIiEEENS0_5slot1IbxNS_8functionIFbxEEEEENS0_5mutexEED1Ev, i32 ()* @_ZN5boost8signals26detail15connection_bodyISt4pairINS1_15slot_meta_groupENS_8optionalIiEEENS0_5slot1IbxNS_8functionIFbxEEEEENS0_5mutexEED0Ev, i32 (i32)* @_ZNK5boost8signals26detail15connection_bodyISt4pairINS1_15slot_meta_groupENS_8optionalIiEEENS0_5slot1IbxNS_8functionIFbxEEEEENS0_5mutexEE9connectedEv, i32 (i32)* @_ZN5boost8signals26detail15connection_bodyISt4pairINS1_15slot_meta_groupENS_8optionalIiEEENS0_5slot1IbxNS_8functionIFbxEEEEENS0_5mutexEE4lockEv, i32 (i32)* @_ZN5boost8signals26detail15connection_bodyISt4pairINS1_15slot_meta_groupENS_8optionalIiEEENS0_5slot1IbxNS_8functionIFbxEEEEENS0_5mutexEE6unlockEv }
@global_var_339fc.1996 = constant %vtable_339fc_type { i32 (i32*)* @_ZN5boost8signals26detail15connection_bodyISt4pairINS1_15slot_meta_groupENS_8optionalIiEEENS0_5slot3IbRKSsSA_jNS_8functionIFbSA_SA_jEEEEENS0_5mutexEED1Ev, i32 (i32)* @_ZN5boost8signals26detail15connection_bodyISt4pairINS1_15slot_meta_groupENS_8optionalIiEEENS0_5slot3IbRKSsSA_jNS_8functionIFbSA_SA_jEEEEENS0_5mutexEED0Ev, i32 (i32)* @_ZNK5boost8signals26detail15connection_bodyISt4pairINS1_15slot_meta_groupENS_8optionalIiEEENS0_5slot3IbRKSsSA_jNS_8functionIFbSA_SA_jEEEEENS0_5mutexEE9connectedEv, i32 (i32)* @_ZN5boost8signals26detail15connection_bodyISt4pairINS1_15slot_meta_groupENS_8optionalIiEEENS0_5slot3IbRKSsSA_jNS_8functionIFbSA_SA_jEEEEENS0_5mutexEE4lockEv, i32 (i32)* @_ZN5boost8signals26detail15connection_bodyISt4pairINS1_15slot_meta_groupENS_8optionalIiEEENS0_5slot3IbRKSsSA_jNS_8functionIFbSA_SA_jEEEEENS0_5mutexEE6unlockEv }
@global_var_33a1c.1965 = constant %vtable_33a1c_type { i32 (i32*)* @_ZN5boost6detail17sp_counted_impl_pINS_16exception_detail10clone_implINS2_10bad_alloc_EEEED1Ev, i32 (i32)* @_ZN5boost6detail17sp_counted_impl_pINS_16exception_detail10clone_implINS2_10bad_alloc_EEEED0Ev, i32 (i32)* @_ZN5boost6detail17sp_counted_impl_pINS_16exception_detail10clone_implINS2_10bad_alloc_EEEE7disposeEv, i32 (i32*)* @_ZN5boost6detail15sp_counted_base7destroyEv, i32 (i32, i32)* @_ZN5boost6detail17sp_counted_impl_pINS_16exception_detail10clone_implINS2_10bad_alloc_EEEE11get_deleterERKSt9type_info }
@global_var_33ae4.1945 = constant %vtable_33ae4_type { i32 (i32*)* @_ZN5boost16exception_detail10clone_implINS0_19error_info_injectorINS_17bad_function_callEEEED1Ev, i32 (i32)* @_ZN5boost16exception_detail10clone_implINS0_19error_info_injectorINS_17bad_function_callEEEED0Ev, i32 ()* @pszBase58, i32 (i32)* @_ZNK5boost16exception_detail10clone_implINS0_19error_info_injectorINS_17bad_function_callEEEE5cloneEv.1903, i32 (i32)* @_ZNK5boost16exception_detail10clone_implINS0_19error_info_injectorINS_17bad_function_callEEEE7rethrowEv }
@global_var_33b44.1942 = constant %vtable_33b44_type { i32 (i32*)* @_ZN5boost16exception_detail19error_info_injectorINS_17bad_function_callEED1Ev, i32 (i32)* @_ZN5boost16exception_detail19error_info_injectorINS_17bad_function_callEED0Ev, i32 ()* @pszBase58 }
@global_var_33b8c.1925 = constant %vtable_33b8c_type { i32 (i32*)* @_ZN5boost6system12system_errorD1Ev, i32 (i32)* @_ZN5boost6system12system_errorD0Ev, i32 (i32)* @_ZNK5boost6system12system_error4whatEv }
@global_var_33bcc.1938 = constant %vtable_33bcc_type { i32 (i32*)* @_ZN5boost17bad_function_callD1Ev, i32 (i32)* @_ZN5boost17bad_function_callD0Ev, i32 ()* @pszBase58 }
@global_var_33be4.1932 = constant %vtable_33be4_type { i32 (i32*)* @_ZN5boost16exception_detail10clone_implINS0_10bad_alloc_EED1Ev, i32 (i32)* @_ZN5boost16exception_detail10clone_implINS0_10bad_alloc_EED0Ev, i32 (i32)* @_ZNK5boost16exception_detail10clone_implINS0_10bad_alloc_EE5cloneEv, i32 (i32)* @_ZNK5boost16exception_detail10clone_implINS0_10bad_alloc_EE7rethrowEv }
@global_var_33c44.1929 = constant %vtable_33c44_type { i32 (i32*)* @_ZN5boost16exception_detail10bad_alloc_D1Ev, i32 (i32)* @_ZN5boost16exception_detail10bad_alloc_D0Ev }

define i32 @pszBase58() {
dec_label_pc_0:
  %eax.global-to-local = alloca i32, align 4
  %tmp96 = load i32, i32* %eax.global-to-local, align 8
  ret i32 %tmp96
}

define void @_ZNK5boost16exception_detail10clone_implINS0_19error_info_injectorINS_17bad_function_callEEEE5cloneEv(i32 %this) local_unnamed_addr {
dec_label_pc_8:
  ret void
}

define void @"~clone_impl"(i32 %this, i32 %__in_chrg) local_unnamed_addr {
dec_label_pc_e:
  ret void
}

define i32 @function_84() local_unnamed_addr {
dec_label_pc_84:
  %v0_84 = call i32 @function_13c()
  ret i32 %v0_84
}

define i32 @function_ee() local_unnamed_addr {
dec_label_pc_ee:
  %v0_ee = call i32 @function_13c()
  ret i32 %v0_ee

; uselistorder directives
  uselistorder i32 ()* @function_13c, { 1, 0 }
}

define i32 @function_f1() local_unnamed_addr {
dec_label_pc_f1:
  %eax.global-to-local = alloca i32, align 4
  %v0_f1 = load i32, i32* %eax.global-to-local, align 8
  ret i32 %v0_f1
}

define i32 @function_fd() local_unnamed_addr {
dec_label_pc_fd:
  %v0_fd = call i32 @function_101()
  ret i32 %v0_fd
}

define i32 @function_ff() local_unnamed_addr {
dec_label_pc_ff:
  %eax.global-to-local = alloca i32, align 4
  %v0_ff = load i32, i32* %eax.global-to-local, align 8
  ret i32 %v0_ff
}

define i32 @function_101() local_unnamed_addr {
dec_label_pc_101:
  %v0_101 = load i32, i32* @ebp, align 4
  %v1_101 = add i32 %v0_101, -14
  ret i32 %v1_101
}

define i32 @function_115() local_unnamed_addr {
dec_label_pc_115:
  %eax.global-to-local = alloca i32, align 4
  %ecx.global-to-local = alloca i32, align 4
  %v0_115 = load i32, i32* %ecx.global-to-local, align 4
  %v1_115 = add i32 %v0_115, -330986045
  %v2_115 = inttoptr i32 %v1_115 to i32*
  %v3_115 = load i32, i32* %v2_115, align 4
  %v4_115 = add i32 %v3_115, -1
  store i32 %v4_115, i32* %v2_115, align 4
  %v0_11b = load i32, i32* %eax.global-to-local, align 8
  %v1_123 = call i32 @function_127(i32 %v0_11b)
  store i32 %v1_123, i32* %eax.global-to-local, align 8
  ret i32 %v1_123
}

define i32 @function_125() local_unnamed_addr {
dec_label_pc_125:
  %eax.global-to-local = alloca i32, align 4
  %v0_125 = load i32, i32* %eax.global-to-local, align 8
  ret i32 %v0_125
}

define i32 @function_127(i32 %arg1) local_unnamed_addr {
dec_label_pc_127:
  %v0_127 = load i32, i32* @ebp, align 4
  %v1_127 = add i32 %v0_127, -13
  ret i32 %v1_127
}

define i32 @function_13c() local_unnamed_addr {
dec_label_pc_13c:
  %v0_13c = load i32, i32* @ebp, align 4
  %v1_13c = add i32 %v0_13c, -12
  %v2_13c = inttoptr i32 %v1_13c to i32*
  %v3_13c = load i32, i32* %v2_13c, align 4
  %v3_13f = xor i32 %v3_13c, ptrtoint ([3 x i8]* @3 to i32)
  %v4_13f = icmp eq i32 %v3_13f, 0
  store i32 %v3_13f, i32* @eax, align 8
  br i1 %v4_13f, label %bb, label %dec_label_pc_148

bb:                                               ; preds = %dec_label_pc_13c
  %v1_146 = call i32 @function_14d()
  br label %dec_label_pc_148

dec_label_pc_148:                                 ; preds = %bb, %dec_label_pc_13c
  %v2_146 = phi i32 [ %v1_146, %bb ], [ %v3_13f, %dec_label_pc_13c ]
  ret i32 %v2_146
}

define i32 @function_14d() local_unnamed_addr {
dec_label_pc_14d:
  %v0_152 = load i32, i32* @eax, align 8
  ret i32 %v0_152
}

define void @WriteOrderPos(i64 %nOrderPos, i32 %mapValue) local_unnamed_addr {
dec_label_pc_153:
  %stack_var_-24 = alloca i32, align 4
  %v4_15a = trunc i64 %nOrderPos to i32
  %v1_174 = add i32 %v4_15a, 4
  %v2_174 = inttoptr i32 %v1_174 to i32*
  %v3_174 = load i32, i32* %v2_174, align 4
  %v1_177 = inttoptr i32 %v4_15a to i32*
  %v2_177 = load i32, i32* %v1_177, align 4
  %v1_17b = sub i32 -1, %v3_174
  %v1_17e = sub i32 -1, %v2_177
  %v2_181 = or i32 %v1_17e, %v1_17b
  %v3_181 = icmp eq i32 %v2_181, 0
  br i1 %v3_181, label %bb, label %dec_label_pc_18b

bb:                                               ; preds = %dec_label_pc_153
  %v4_185 = call i32 @function_243(i32 %mapValue, i32 %v4_15a)
  br label %dec_label_pc_18b

dec_label_pc_18b:                                 ; preds = %bb, %dec_label_pc_153
  %v3_18e = load i32, i32* %v2_174, align 4
  %v2_191 = load i32, i32* %v1_177, align 4
  %v2_193 = ptrtoint i32* %stack_var_-24 to i32
  %v3_1a1 = call i32 @_Z8i64tostrx(i32 %v2_193, i32 %v2_191, i32 %v3_18e)
  ret void
}

define i32 @function_210() local_unnamed_addr {
dec_label_pc_210:
  %eax.global-to-local = alloca i32, align 4
  %v0_210 = load i32, i32* %eax.global-to-local, align 8
  ret i32 %v0_210
}

define i32 @function_213() local_unnamed_addr {
dec_label_pc_213:
  %eax.global-to-local = alloca i32, align 4
  %v0_213 = load i32, i32* %eax.global-to-local, align 8
  ret i32 %v0_213
}

define i32 @function_21f() local_unnamed_addr {
dec_label_pc_21f:
  %v0_21f = call i32 @function_223()
  ret i32 %v0_21f
}

define i32 @function_221() local_unnamed_addr {
dec_label_pc_221:
  %eax.global-to-local = alloca i32, align 4
  %v0_221 = load i32, i32* %eax.global-to-local, align 8
  ret i32 %v0_221
}

define i32 @function_223() local_unnamed_addr {
dec_label_pc_223:
  %v0_223 = load i32, i32* @ebp, align 4
  %v1_223 = add i32 %v0_223, -13
  ret i32 %v1_223
}

define i32 @function_243(i32 %arg1, i32 %arg2) local_unnamed_addr {
dec_label_pc_243:
  %v0_244 = load i32, i32* @ebp, align 4
  %v1_244 = add i32 %v0_244, -12
  %v2_244 = inttoptr i32 %v1_244 to i32*
  %v3_244 = load i32, i32* %v2_244, align 4
  %v3_247 = xor i32 %v3_244, ptrtoint ([3 x i8]* @3 to i32)
  %v4_247 = icmp eq i32 %v3_247, 0
  store i32 %v3_247, i32* @eax, align 8
  br i1 %v4_247, label %bb, label %dec_label_pc_250

bb:                                               ; preds = %dec_label_pc_243
  %v1_24e = call i32 @function_255()
  br label %dec_label_pc_250

dec_label_pc_250:                                 ; preds = %bb, %dec_label_pc_243
  %v2_24e = phi i32 [ %v1_24e, %bb ], [ %v3_247, %dec_label_pc_243 ]
  ret i32 %v2_24e
}

define i32 @function_255() local_unnamed_addr {
dec_label_pc_255:
  %v0_259 = load i32, i32* @eax, align 8
  ret i32 %v0_259
}

define i1 @noui_ThreadSafeMessageBox(i32 %message, i32 %caption, i32 %style) local_unnamed_addr {
dec_label_pc_25a:
  ret i1 false
}

define i32 @function_289() local_unnamed_addr {
dec_label_pc_289:
  %v0_289 = load i32, i32* @ebp, align 4
  %v1_289 = add i32 %v0_289, -52
  %v2_289 = inttoptr i32 %v1_289 to i32*
  %v3_289 = load i32, i32* %v2_289, align 4
  %v10_28c = icmp eq i32 %v3_289, 268436481
  br i1 %v10_28c, label %bb, label %dec_label_pc_293

bb:                                               ; preds = %dec_label_pc_289
  %v1_291 = call i32 @function_2d8()
  br label %dec_label_pc_293

dec_label_pc_293:                                 ; preds = %bb, %dec_label_pc_289
  %v0_29a = phi i32 [ %v1_291, %bb ], [ %v3_289, %dec_label_pc_289 ]
  %v10_293 = icmp eq i32 %v0_29a, 268436482
  br i1 %v10_293, label %dec_label_pc_2a3, label %dec_label_pc_29a

dec_label_pc_29a:                                 ; preds = %dec_label_pc_293
  %v1_29a = icmp eq i32 %v0_29a, 0
  br i1 %v1_29a, label %bb104, label %dec_label_pc_29e

bb104:                                            ; preds = %dec_label_pc_29a
  %v1_29c = call i32 @function_30d()
  br label %dec_label_pc_29e

dec_label_pc_29e:                                 ; preds = %bb104, %dec_label_pc_29a
  %v0_29e = call i32 @function_342()
  ret i32 %v0_29e

dec_label_pc_2a3:                                 ; preds = %dec_label_pc_293
  %v0_2a3 = load i32, i32* @ebp, align 4
  %v1_2a3 = add i32 %v0_2a3, -24
  %v3_2b1 = call i32 @_Z1_PKc(i32 %v1_2a3, i32 ptrtoint ([6 x i8]* @global_var_2666.1906 to i32))
  %v0_2b9 = load i32, i32* @ebp, align 4
  %v1_2c0 = add i32 %v0_2b9, -28
  ret i32 %v1_2c0

; uselistorder directives
  uselistorder i32 %v0_29a, { 1, 0 }
  uselistorder i32 %v3_289, { 1, 0 }
}

define i32 @function_2d6() local_unnamed_addr {
dec_label_pc_2d6:
  %v0_2d6 = call i32 @function_354()
  ret i32 %v0_2d6
}

define i32 @function_2d8() local_unnamed_addr {
dec_label_pc_2d8:
  %v0_2d8 = load i32, i32* @ebp, align 4
  %v1_2d8 = add i32 %v0_2d8, -20
  %v3_2e6 = call i32 @_Z1_PKc(i32 %v1_2d8, i32 ptrtoint ([8 x i8]* @global_var_266c.1907 to i32))
  %v0_2ee = load i32, i32* @ebp, align 4
  %v1_2f5 = add i32 %v0_2ee, -28
  ret i32 %v1_2f5
}

define i32 @function_30b() local_unnamed_addr {
dec_label_pc_30b:
  %v0_30b = call i32 @function_354()
  ret i32 %v0_30b
}

define i32 @function_30d() local_unnamed_addr {
dec_label_pc_30d:
  %v0_30d = load i32, i32* @ebp, align 4
  %v1_30d = add i32 %v0_30d, -16
  %v3_31b = call i32 @_Z1_PKc(i32 %v1_30d, i32 ptrtoint ([12 x i8]* @global_var_2674.1908 to i32))
  %v0_323 = load i32, i32* @ebp, align 4
  %v1_32a = add i32 %v0_323, -28
  ret i32 %v1_32a

; uselistorder directives
  uselistorder i32 (i32, i32)* @_Z1_PKc, { 2, 1, 0 }
}

define i32 @function_340() local_unnamed_addr {
dec_label_pc_340:
  %v0_340 = call i32 @function_354()
  ret i32 %v0_340

; uselistorder directives
  uselistorder i32 ()* @function_354, { 2, 1, 0 }
}

define i32 @function_342() local_unnamed_addr {
dec_label_pc_342:
  %v0_342 = load i32, i32* @ebp, align 4
  %v1_349 = add i32 %v0_342, -28
  ret i32 %v1_349
}

define i32 @function_354() local_unnamed_addr {
dec_label_pc_354:
  %v0_354 = load i32, i32* @ebp, align 4
  %v1_354 = add i32 %v0_354, -44
  %v2_354 = inttoptr i32 %v1_354 to i32*
  %v3_354 = load i32, i32* %v2_354, align 4
  ret i32 %v3_354
}

define i32 @function_360() local_unnamed_addr {
dec_label_pc_360:
  %eax.global-to-local = alloca i32, align 4
  %v0_360 = load i32, i32* %eax.global-to-local, align 8
  ret i32 %v0_360
}

define i32 @function_38c() local_unnamed_addr {
dec_label_pc_38c:
  %eax.global-to-local = alloca i32, align 4
  %v0_38c = load i32, i32* %eax.global-to-local, align 8
  ret i32 %v0_38c
}

define i32 @function_3c6() local_unnamed_addr {
dec_label_pc_3c6:
  %ecx.global-to-local = alloca i32, align 4
  %edx.global-to-local = alloca i32, align 4
  %v0_3c6 = load i32, i32* %ecx.global-to-local, align 4
  %v1_3c6 = add i32 %v0_3c6, -195720232
  %v2_3c6 = inttoptr i32 %v1_3c6 to i32*
  %v3_3c6 = load i32, i32* %v2_3c6, align 4
  %v4_3c6 = add i32 %v3_3c6, -1
  store i32 %v4_3c6, i32* %v2_3c6, align 4
  %v0_3cc = load i32, i32* %edx.global-to-local, align 8
  %v3_3cc = xor i32 %v0_3cc, ptrtoint ([3 x i8]* @3 to i32)
  %v4_3cc = icmp eq i32 %v3_3cc, 0
  store i32 %v3_3cc, i32* %edx.global-to-local, align 8
  br i1 %v4_3cc, label %bb, label %dec_label_pc_3d5

bb:                                               ; preds = %dec_label_pc_3c6
  %v1_3d3 = call i32 @MAX_SCRIPTCHECK_THREADS()
  store i32 %v1_3d3, i32* @eax, align 8
  br label %dec_label_pc_3d5

dec_label_pc_3d5:                                 ; preds = %bb, %dec_label_pc_3c6
  %v0_3d5 = call i32 @function_41b()
  ret i32 %v0_3d5
}

define i32 @MAX_SCRIPT_ELEMENT_SIZE() local_unnamed_addr {
dec_label_pc_3d8:
  %eax.global-to-local = alloca i32, align 4
  %v0_3d8 = load i32, i32* %eax.global-to-local, align 8
  ret i32 %v0_3d8
}

define i32 @MAX_HASH_FUNCS() local_unnamed_addr {
dec_label_pc_3e4:
  %v0_3e4 = call i32 @function_406()
  ret i32 %v0_3e4
}

define i32 @function_3e7() local_unnamed_addr {
dec_label_pc_3e7:
  %eax.global-to-local = alloca i32, align 4
  %v0_3e7 = load i32, i32* %eax.global-to-local, align 8
  ret i32 %v0_3e7
}

define i32 @function_3f3() local_unnamed_addr {
dec_label_pc_3f3:
  %v0_3f3 = call i32 @function_406()
  ret i32 %v0_3f3
}

define i32 @function_3f6() local_unnamed_addr {
dec_label_pc_3f6:
  %eax.global-to-local = alloca i32, align 4
  %v0_3f6 = load i32, i32* %eax.global-to-local, align 8
  ret i32 %v0_3f6
}

define i32 @function_402() local_unnamed_addr {
dec_label_pc_402:
  %v0_402 = call i32 @function_406()
  ret i32 %v0_402

; uselistorder directives
  uselistorder i32 ()* @function_406, { 2, 1, 0 }
}

define i32 @function_405() local_unnamed_addr {
dec_label_pc_405:
  %eax.global-to-local = alloca i32, align 4
  %v0_405 = load i32, i32* %eax.global-to-local, align 8
  ret i32 %v0_405
}

define i32 @function_406() local_unnamed_addr {
dec_label_pc_406:
  %v0_406 = load i32, i32* @ebp, align 4
  %v1_406 = add i32 %v0_406, -28
  ret i32 %v1_406
}

define i32 @function_41b() local_unnamed_addr {
dec_label_pc_41b:
  %tmp = load i32, i32* @eax, align 8
  ret i32 %tmp
}

define i32 @MAX_SCRIPTCHECK_THREADS() local_unnamed_addr {
dec_label_pc_420:
  %v0_424 = load i32, i32* @eax, align 8
  ret i32 %v0_424
}

define i1 @noui_ThreadSafeAskFee(i64 %arg0) local_unnamed_addr {
dec_label_pc_425:
  ret i1 true
}

define void @noui_InitMessage(i32 %message) local_unnamed_addr {
dec_label_pc_45a:
  ret void
}

define i32 @function_49c() local_unnamed_addr {
dec_label_pc_49c:
  %eax.global-to-local = alloca i32, align 4
  %ecx.global-to-local = alloca i32, align 4
  %v0_49c = load i32, i32* %ecx.global-to-local, align 4
  %v1_49c = add i32 %v0_49c, -1
  store i32 %v1_49c, i32* %ecx.global-to-local, align 4
  %v0_49e = load i32, i32* %eax.global-to-local, align 8
  ret i32 %v0_49e
}

define void @_Z12noui_connectv() local_unnamed_addr {
dec_label_pc_49f:
  %stack_var_-96 = alloca i32, align 4
  %stack_var_-40 = alloca i32, align 4
  %stack_var_-124 = alloca i32, align 4
  %v2_4bc = ptrtoint i32* %stack_var_-124 to i32
  %v2_4c2 = call i32 @_ZN5boost8signals25slot3IbRKSsS3_jNS_8functionIFbS3_S3_jEEEEC1IS5_EERKT_(i32 %v2_4bc, i32 602)
  %v2_4c7 = ptrtoint i32* %stack_var_-40 to i32
  %v4_4e4 = call i32 @_ZN5boost8signals27signal3IbRKSsS3_jNS0_10last_valueIbEEiSt4lessIiENS_8functionIFbS3_S3_jEEENS8_IFbRKNS0_10connectionES3_S3_jEEENS0_5mutexEE7connectERKNS0_5slot3IbS3_S3_jSA_EENS0_16connect_positionE(i32 %v2_4c7, i32 0, i32 %v2_4bc, i32 0)
  %v1_4f2 = call i32 @_ZN5boost8signals210connectionD1Ev(i32 %v2_4c7)
  %v1_4fd = call i32 @_ZN5boost8signals25slot3IbRKSsS3_jNS_8functionIFbS3_S3_jEEEED1Ev(i32 %v2_4bc)
  %v2_50a = ptrtoint i32* %stack_var_-96 to i32
  %v2_510 = call i32 @_ZN5boost8signals25slot1IbxNS_8functionIFbxEEEEC1IS3_EERKT_(i32 %v2_50a, i32 1061)
  ret void
}

define i32 @function_5ad() local_unnamed_addr {
dec_label_pc_5ad:
  %eax.global-to-local = alloca i32, align 4
  %v0_5ad = load i32, i32* %eax.global-to-local, align 8
  ret i32 %v0_5ad
}

define i32 @function_5c4() local_unnamed_addr {
dec_label_pc_5c4:
  %eax.global-to-local = alloca i32, align 4
  %v0_5c4 = load i32, i32* %eax.global-to-local, align 8
  ret i32 %v0_5c4
}

define i32 @function_5db() local_unnamed_addr {
dec_label_pc_5db:
  %eax.global-to-local = alloca i32, align 4
  %v0_5db = load i32, i32* %eax.global-to-local, align 8
  ret i32 %v0_5db
}

define i32 @function_5f1() local_unnamed_addr {
dec_label_pc_5f1:
  %eax.global-to-local = alloca i32, align 4
  %tmp96 = load i32, i32* %eax.global-to-local, align 8
  ret i32 %tmp96
}

define i32 @function_5f6() local_unnamed_addr {
dec_label_pc_5f6:
  %eax.global-to-local = alloca i32, align 4
  %v0_5fa = load i32, i32* %eax.global-to-local, align 8
  ret i32 %v0_5fa
}

define void @__static_initialization_and_destruction_0(i32 %__initialize_p, i32 %__priority) local_unnamed_addr {
dec_label_pc_5fb:
  %v13_618 = icmp eq i32 %__initialize_p, 1
  %v1_61c = icmp eq i1 %v13_618, false
  br i1 %v1_61c, label %bb, label %dec_label_pc_622

bb:                                               ; preds = %dec_label_pc_5fb
  %v4_61c = call i32 @function_888(i32 %__priority, i32 %__initialize_p)
  br label %dec_label_pc_622

dec_label_pc_622:                                 ; preds = %bb, %dec_label_pc_5fb
  %v13_622 = icmp eq i32 %__priority, 65535
  %v1_629 = icmp eq i1 %v13_622, false
  br i1 %v1_629, label %bb9, label %dec_label_pc_62f

bb9:                                              ; preds = %dec_label_pc_622
  %v4_629 = call i32 @function_888(i32 ptrtoint (i32* @global_var_14a1.1905 to i32), i32 ptrtoint (i32* @2 to i32))
  br label %dec_label_pc_62f

dec_label_pc_62f:                                 ; preds = %bb9, %dec_label_pc_622
  ret void

; uselistorder directives
  uselistorder i32 (i32, i32)* @function_888, { 1, 0 }
  uselistorder i32 %__initialize_p, { 1, 0 }
}

define i32 @function_709() local_unnamed_addr {
dec_label_pc_709:
  %eax.global-to-local = alloca i32, align 4
  %v0_709 = load i32, i32* %eax.global-to-local, align 8
  ret i32 %v0_709
}

define i32 @function_713() local_unnamed_addr {
dec_label_pc_713:
  %eax.global-to-local = alloca i32, align 4
  %v0_713 = load i32, i32* %eax.global-to-local, align 8
  ret i32 %v0_713
}

define i32 @function_71d() local_unnamed_addr {
dec_label_pc_71d:
  %eax.global-to-local = alloca i32, align 4
  %v0_71d = load i32, i32* %eax.global-to-local, align 8
  ret i32 %v0_71d
}

define i32 @function_725() local_unnamed_addr {
dec_label_pc_725:
  %eax.global-to-local = alloca i32, align 4
  %ebx.global-to-local = alloca i32, align 4
  %v0_725 = load i32, i32* %eax.global-to-local, align 8
  %v11_725 = and i32 %v0_725, -244
  store i32 %v11_725, i32* %eax.global-to-local, align 8
  %v1_727 = inttoptr i32 %v11_725 to i32*
  %v2_727 = load i32, i32* %v1_727, align 4
  %v4_727 = or i32 %v2_727, %v11_725
  store i32 %v4_727, i32* %v1_727, align 4
  %v0_729 = load i32, i32* %eax.global-to-local, align 8
  %v1_729 = trunc i32 %v0_729 to i8
  %v2_729 = load i32, i32* @ecx, align 4
  %v3_729 = udiv i32 %v2_729, 256
  %v4_729 = trunc i32 %v3_729 to i8
  %v5_729 = add i8 %v4_729, %v1_729
  %v0_72e = load i32, i32* %ebx.global-to-local, align 8
  %v1_72e = udiv i32 %v0_72e, 256
  %v2_72e = trunc i32 %v1_72e to i8
  %v5_72e = add i8 %v2_72e, %v5_729
  %v20_72e = zext i8 %v5_72e to i32
  %v22_72e = mul nuw nsw i32 %v20_72e, 256
  %v23_72e = and i32 %v0_72e, -65281
  %v24_72e = or i32 %v22_72e, %v23_72e
  store i32 %v24_72e, i32* @ebx, align 8
  %v2_730 = add i8 %v5_729, 36
  %v16_730 = zext i8 %v2_730 to i32
  %v18_730 = and i32 %v0_729, 402652928
  %v19_730 = or i32 %v18_730, %v16_730
  %v1_732 = or i32 %v19_730, -402653175
  store i32 %v1_732, i32* %eax.global-to-local, align 8
  %v1_739 = inttoptr i32 %v1_732 to i8*
  %v2_739 = load i8, i8* %v1_739, align 1
  %v4_739 = trunc i32 %v1_732 to i8
  %v5_739 = add i8 %v2_739, %v4_739
  store i8 %v5_739, i8* %v1_739, align 1
  %v1_742 = call i32 @_ZN5boost6spirit7classic12alnum_parserC1Ev(i32 2318)
  store i32 %v1_742, i32* %eax.global-to-local, align 8
  %v1_74e = call i32 @_ZN5boost6spirit7classic12alpha_parserC1Ev(i32 ptrtoint (i32* @global_var_90f.1910 to i32))
  store i32 %v1_74e, i32* %eax.global-to-local, align 8
  %v1_75a = call i32 @_ZN5boost6spirit7classic12cntrl_parserC1Ev(i32 ptrtoint (i32* @global_var_910.1911 to i32))
  store i32 %v1_75a, i32* %eax.global-to-local, align 8
  %v1_766 = call i32 @_ZN5boost6spirit7classic12digit_parserC1Ev(i32 2321)
  store i32 %v1_766, i32* %eax.global-to-local, align 8
  %v1_772 = call i32 @_ZN5boost6spirit7classic12graph_parserC1Ev(i32 2322)
  store i32 %v1_772, i32* %eax.global-to-local, align 8
  %v1_77e = call i32 @_ZN5boost6spirit7classic12lower_parserC1Ev(i32 ptrtoint (i32* @global_var_913.1912 to i32))
  store i32 %v1_77e, i32* %eax.global-to-local, align 8
  %v1_78a = call i32 @_ZN5boost6spirit7classic12print_parserC1Ev(i32 ptrtoint (i32* @global_var_914.1913 to i32))
  store i32 %v1_78a, i32* %eax.global-to-local, align 8
  %v1_796 = call i32 @_ZN5boost6spirit7classic12punct_parserC1Ev(i32 ptrtoint (i32* @global_var_915.1914 to i32))
  store i32 %v1_796, i32* %eax.global-to-local, align 8
  %v1_7a2 = call i32 @_ZN5boost6spirit7classic12blank_parserC1Ev(i32 ptrtoint (i32* @global_var_916.1915 to i32))
  store i32 %v1_7a2, i32* %eax.global-to-local, align 8
  %v1_7ae = call i32 @_ZN5boost6spirit7classic12space_parserC1Ev(i32 2327)
  store i32 %v1_7ae, i32* %eax.global-to-local, align 8
  %v1_7ba = call i32 @_ZN5boost6spirit7classic12upper_parserC1Ev(i32 2328)
  store i32 %v1_7ba, i32* %eax.global-to-local, align 8
  %v1_7c6 = call i32 @_ZN5boost6spirit7classic13xdigit_parserC1Ev(i32 ptrtoint (i32* @global_var_919.1916 to i32))
  store i32 %v1_7c6, i32* %eax.global-to-local, align 8
  %v1_7d2 = call i32 @_ZN5boost6spirit7classic10eol_parserC1Ev(i32 ptrtoint (i32* @global_var_91a.1917 to i32))
  store i32 %v1_7d2, i32* %eax.global-to-local, align 8
  %v1_7de = call i32 @_ZN5boost6spirit7classic10end_parserC1Ev(i32 2331)
  store i32 %v1_7de, i32* %eax.global-to-local, align 8
  %v1_7ea = call i32 @_ZN5boost6spirit7classic23inhibit_case_parser_genC1Ev(i32 ptrtoint (i32* @global_var_91d.1918 to i32))
  store i32 %v1_7ea, i32* %eax.global-to-local, align 8
  %v1_7f6 = call i32 @_ZN5boost6spirit7classic23inhibit_case_parser_genC1Ev(i32 ptrtoint (i32* @global_var_91e.1919 to i32))
  store i32 %v1_7f6, i32* %eax.global-to-local, align 8
  %v1_802 = call i32 @_ZN5boost6spirit7classic11sign_parserC1Ev(i32 2342)
  store i32 %v1_802, i32* @eax, align 8
  %v1_80e = call i32 @_ZN5boost6spirit7classic11real_parserIdNS1_21ureal_parser_policiesIdEEEC1Ev(i32 2343)
  store i32 %v1_80e, i32* %eax.global-to-local, align 8
  %v1_81a = call i32 @_ZN5boost6spirit7classic11real_parserIdNS1_20real_parser_policiesIdEEEC1Ev(i32 2344)
  store i32 %v1_81a, i32* %eax.global-to-local, align 8
  %v1_826 = call i32 @_ZN5boost6spirit7classic11real_parserIdNS1_28strict_ureal_parser_policiesIdEEEC1Ev(i32 2345)
  store i32 %v1_826, i32* %eax.global-to-local, align 8
  %v1_832 = call i32 @_ZN5boost6spirit7classic11real_parserIdNS1_27strict_real_parser_policiesIdEEEC1Ev(i32 2346)
  store i32 %v1_832, i32* %eax.global-to-local, align 8
  %v1_83e = call i32 @_ZN5boost6spirit7classic14epsilon_parserC1Ev(i32 2348)
  store i32 %v1_83e, i32* %eax.global-to-local, align 8
  %v1_84a = call i32 @_ZN5boost6spirit7classic14epsilon_parserC1Ev(i32 2349)
  %v0_84f = load i32, i32* @ebp, align 4
  %v1_84f = add i32 %v0_84f, -15
  store i32 %v1_84f, i32* %eax.global-to-local, align 8
  %v2_85d = call i32 @_ZN5boost6spirit7classic18refactor_unary_genINS1_22non_nested_refactoringEEC1ERKS3_(i32 2350, i32 %v1_84f)
  %v0_862 = load i32, i32* @ebp, align 4
  %v1_862 = add i32 %v0_862, -14
  store i32 %v1_862, i32* %eax.global-to-local, align 8
  %v2_870 = call i32 @_ZN5boost6spirit7classic19refactor_action_genINS1_22non_nested_refactoringEEC1ERKS3_(i32 2351, i32 %v1_862)
  %v0_875 = load i32, i32* @ebp, align 4
  %v1_875 = add i32 %v0_875, -13
  store i32 %v1_875, i32* %eax.global-to-local, align 8
  %v2_883 = call i32 @_ZN5boost6spirit7classic17attach_action_genINS1_22non_nested_refactoringEEC1ERKS3_(i32 2352, i32 %v1_875)
  store i32 %v2_883, i32* %eax.global-to-local, align 8
  ret i32 %v2_883

; uselistorder directives
  uselistorder i32 %v1_732, { 1, 2, 0 }
  uselistorder i32 %v0_72e, { 1, 0 }
  uselistorder i32 %v11_725, { 0, 2, 1 }
  uselistorder i32* %eax.global-to-local, { 1, 2, 3, 4, 5, 6, 7, 8, 9, 10, 11, 12, 13, 14, 15, 16, 17, 18, 19, 20, 21, 22, 23, 24, 25, 26, 27, 28, 0 }
  uselistorder i32 (i32)* @_ZN5boost6spirit7classic14epsilon_parserC1Ev, { 1, 0 }
  uselistorder i32 (i32)* @_ZN5boost6spirit7classic23inhibit_case_parser_genC1Ev, { 1, 0 }
}

define i32 @function_888(i32 %arg1, i32 %arg2) local_unnamed_addr {
dec_label_pc_888:
  %v0_888 = load i32, i32* @ebp, align 4
  %v1_888 = add i32 %v0_888, -12
  %v2_888 = inttoptr i32 %v1_888 to i32*
  %v3_888 = load i32, i32* %v2_888, align 4
  %v3_88b = xor i32 %v3_888, ptrtoint ([3 x i8]* @3 to i32)
  %v4_88b = icmp eq i32 %v3_88b, 0
  store i32 %v3_88b, i32* @eax, align 8
  br i1 %v4_88b, label %bb, label %dec_label_pc_894

bb:                                               ; preds = %dec_label_pc_888
  %v1_892 = call i32 @function_899()
  br label %dec_label_pc_894

dec_label_pc_894:                                 ; preds = %bb, %dec_label_pc_888
  %v2_892 = phi i32 [ %v1_892, %bb ], [ %v3_88b, %dec_label_pc_888 ]
  ret i32 %v2_892
}

define i32 @function_899() local_unnamed_addr {
dec_label_pc_899:
  %v0_89a = load i32, i32* @eax, align 8
  ret i32 %v0_89a
}

define void @_GLOBAL__sub_I__Z12noui_connectv() local_unnamed_addr {
dec_label_pc_89b:
  call void @__static_initialization_and_destruction_0(i32 1, i32 65535)
  store i32 xor (i32 ptrtoint (i32* @global_var_14a1.1905 to i32), i32 ptrtoint ([3 x i8]* @3 to i32)), i32* @eax, align 8
  br i1 icmp eq (i32 xor (i32 ptrtoint (i32* @global_var_14a1.1905 to i32), i32 ptrtoint ([3 x i8]* @3 to i32)), i32 0), label %bb, label %dec_label_pc_8cc

bb:                                               ; preds = %dec_label_pc_89b
  %v1_8ca = call i32 @function_8d1()
  br label %dec_label_pc_8cc

dec_label_pc_8cc:                                 ; preds = %bb, %dec_label_pc_89b
  ret void

; uselistorder directives
  uselistorder i32 65535, { 1, 0 }
}

define i32 @function_8d1() local_unnamed_addr {
dec_label_pc_8d1:
  %v0_8d2 = load i32, i32* @eax, align 8
  ret i32 %v0_8d2
}

define i32 @_ZNSt9exceptionC1Ev(i32 %arg1) local_unnamed_addr {
dec_label_pc_8f4:
  ret i32 %arg1
}

define i32 @_ZN5boost6spirit7classicL5hex_pE() local_unnamed_addr {
dec_label_pc_925:
  %eax.global-to-local = alloca i32, align 4
  %v0_926 = load i32, i32* %eax.global-to-local, align 8
  ret i32 %v0_926
}

define i32 @_ZNSt9bad_allocC1Ev(i32 %arg1) local_unnamed_addr {
dec_label_pc_928:
  store i32 %arg1, i32* @eax, align 8
  %v1_945 = call i32 @function_121c(i32 %arg1)
  ret i32 %arg1
}

define i32 @_ZnwjPv(i32 %arg1, i32 %arg2) local_unnamed_addr {
dec_label_pc_966:
  store i32 %arg2, i32* @eax, align 8
  br i1 icmp eq (i32 xor (i32 ptrtoint (i32* @global_var_14a1.1905 to i32), i32 ptrtoint ([3 x i8]* @3 to i32)), i32 0), label %bb, label %dec_label_pc_992

bb:                                               ; preds = %dec_label_pc_966
  %v3_990 = call i32 @function_997(i32 %arg2, i32 %arg1)
  br label %dec_label_pc_992

dec_label_pc_992:                                 ; preds = %bb, %dec_label_pc_966
  %v4_990 = phi i32 [ %v3_990, %bb ], [ %arg2, %dec_label_pc_966 ]
  ret i32 %v4_990
}

define i32 @function_997(i32 %arg1, i32 %arg2) local_unnamed_addr {
dec_label_pc_997:
  %v0_998 = load i32, i32* @eax, align 8
  ret i32 %v0_998
}

define i32 @_ZdlPvS_(i32 %arg1, i32 %arg2) local_unnamed_addr {
dec_label_pc_999:
  store i32 xor (i32 ptrtoint (i32* @global_var_14a1.1905 to i32), i32 ptrtoint ([3 x i8]* @3 to i32)), i32* @eax, align 8
  br i1 icmp eq (i32 xor (i32 ptrtoint (i32* @global_var_14a1.1905 to i32), i32 ptrtoint ([3 x i8]* @3 to i32)), i32 0), label %bb, label %dec_label_pc_9c2

bb:                                               ; preds = %dec_label_pc_999
  %v3_9c0 = call i32 @function_9c7(i32 %arg2, i32 %arg1)
  br label %dec_label_pc_9c2

dec_label_pc_9c2:                                 ; preds = %bb, %dec_label_pc_999
  %v4_9c0 = phi i32 [ %v3_9c0, %bb ], [ xor (i32 ptrtoint (i32* @global_var_14a1.1905 to i32), i32 ptrtoint ([3 x i8]* @3 to i32)), %dec_label_pc_999 ]
  ret i32 %v4_9c0
}

define i32 @function_9c7(i32 %arg1, i32 %arg2) local_unnamed_addr {
dec_label_pc_9c7:
  %v0_9c8 = load i32, i32* @eax, align 8
  ret i32 %v0_9c8
}

define i32 @_ZNSt18_Rb_tree_node_base10_S_minimumEPS_(i32 %arg1) local_unnamed_addr {
dec_label_pc_9c9:
  %v1_9ee103 = add i32 %arg1, 8
  %v2_9ee104 = inttoptr i32 %v1_9ee103 to i32*
  %v3_9ee105 = load i32, i32* %v2_9ee104, align 4
  %v1_9f1106 = icmp eq i32 %v3_9ee105, 0
  %v1_9f3107 = icmp eq i1 %v1_9f1106, false
  %v5_9f6108 = icmp eq i1 %v1_9f3107, false
  %v1_9f8109 = icmp eq i1 %v5_9f6108, false
  store i32 %arg1, i32* @eax, align 8
  br i1 %v1_9f8109, label %dec_label_pc_9e2, label %dec_label_pc_9fa

dec_label_pc_9e2:                                 ; preds = %dec_label_pc_9c9, %dec_label_pc_9e2
  %v2_9ee110 = phi i32* [ %v2_9ee, %dec_label_pc_9e2 ], [ %v2_9ee104, %dec_label_pc_9c9 ]
  %v3_9e5 = load i32, i32* %v2_9ee110, align 4
  %v1_9ee = add i32 %v3_9e5, 8
  %v2_9ee = inttoptr i32 %v1_9ee to i32*
  %v3_9ee = load i32, i32* %v2_9ee, align 4
  %v1_9f1 = icmp eq i32 %v3_9ee, 0
  %v1_9f3 = icmp eq i1 %v1_9f1, false
  %v5_9f6 = icmp eq i1 %v1_9f3, false
  %v1_9f8 = icmp eq i1 %v5_9f6, false
  store i32 %v3_9e5, i32* @eax, align 8
  br i1 %v1_9f8, label %dec_label_pc_9e2, label %dec_label_pc_9fa

dec_label_pc_9fa:                                 ; preds = %dec_label_pc_9e2, %dec_label_pc_9c9
  %stack_var_-32.0.lcssa = phi i32 [ %arg1, %dec_label_pc_9c9 ], [ %v3_9e5, %dec_label_pc_9e2 ]
  br i1 icmp eq (i32 xor (i32 ptrtoint (i32* @global_var_14a1.1905 to i32), i32 ptrtoint ([3 x i8]* @3 to i32)), i32 0), label %bb, label %dec_label_pc_a09

bb:                                               ; preds = %dec_label_pc_9fa
  %v1_a07 = call i32 @function_a0e()
  br label %dec_label_pc_a09

dec_label_pc_a09:                                 ; preds = %bb, %dec_label_pc_9fa
  %v2_a07 = phi i32 [ %v1_a07, %bb ], [ %stack_var_-32.0.lcssa, %dec_label_pc_9fa ]
  ret i32 %v2_a07

; uselistorder directives
  uselistorder i32* %v2_9ee, { 1, 0 }
  uselistorder i32 %v3_9e5, { 0, 2, 1 }
  uselistorder label %dec_label_pc_9e2, { 1, 0 }
}

define i32 @function_a0e() local_unnamed_addr {
dec_label_pc_a0e:
  %v0_a0f = load i32, i32* @eax, align 8
  ret i32 %v0_a0f
}

define i32 @_ZNSt18_Rb_tree_node_base10_S_maximumEPS_(i32 %arg1) local_unnamed_addr {
dec_label_pc_a10:
  %ebp.global-to-local = alloca i32, align 4
  %v0_a10 = load i32, i32* %ebp.global-to-local, align 4
  %v1_a35103 = add i32 %arg1, 12
  %v2_a35104 = inttoptr i32 %v1_a35103 to i32*
  %v3_a35105 = load i32, i32* %v2_a35104, align 4
  %v1_a38106 = icmp eq i32 %v3_a35105, 0
  %v1_a3a107 = icmp eq i1 %v1_a38106, false
  %v5_a3d108 = icmp eq i1 %v1_a3a107, false
  %v1_a3f109 = icmp eq i1 %v5_a3d108, false
  br i1 %v1_a3f109, label %dec_label_pc_a29, label %dec_label_pc_a41

dec_label_pc_a29:                                 ; preds = %dec_label_pc_a10, %dec_label_pc_a29
  %v2_a35110 = phi i32* [ %v2_a35, %dec_label_pc_a29 ], [ %v2_a35104, %dec_label_pc_a10 ]
  %v3_a2c = load i32, i32* %v2_a35110, align 4
  %v1_a35 = add i32 %v3_a2c, 12
  %v2_a35 = inttoptr i32 %v1_a35 to i32*
  %v3_a35 = load i32, i32* %v2_a35, align 4
  %v1_a38 = icmp eq i32 %v3_a35, 0
  %v1_a3a = icmp eq i1 %v1_a38, false
  %v5_a3d = icmp eq i1 %v1_a3a, false
  %v1_a3f = icmp eq i1 %v5_a3d, false
  br i1 %v1_a3f, label %dec_label_pc_a29, label %dec_label_pc_a41

dec_label_pc_a41:                                 ; preds = %dec_label_pc_a29, %dec_label_pc_a10
  %v0_a56.lcssa = phi i32 [ %arg1, %dec_label_pc_a10 ], [ %v3_a2c, %dec_label_pc_a29 ]
  store i32 %v0_a10, i32* %ebp.global-to-local, align 4
  ret i32 %v0_a56.lcssa

; uselistorder directives
  uselistorder i32* %v2_a35, { 1, 0 }
  uselistorder label %dec_label_pc_a29, { 1, 0 }
}

define i32 @_ZN5boost10error_infoINS_15throw_function_EPKcEC1ES3_(i32* %arg1, i32 %arg2) local_unnamed_addr {
dec_label_pc_a58:
  store i32 %arg2, i32* %arg1, align 4
  store i32 xor (i32 ptrtoint (i32* @global_var_14a1.1905 to i32), i32 ptrtoint ([3 x i8]* @3 to i32)), i32* @eax, align 8
  br i1 icmp eq (i32 xor (i32 ptrtoint (i32* @global_var_14a1.1905 to i32), i32 ptrtoint ([3 x i8]* @3 to i32)), i32 0), label %bb, label %dec_label_pc_a89

bb:                                               ; preds = %dec_label_pc_a58
  %tmp104 = ptrtoint i32* %arg1 to i32
  %v3_a87 = call i32 @function_a8e(i32 %arg2, i32 %tmp104)
  br label %dec_label_pc_a89

dec_label_pc_a89:                                 ; preds = %bb, %dec_label_pc_a58
  %v4_a87 = phi i32 [ %v3_a87, %bb ], [ xor (i32 ptrtoint (i32* @global_var_14a1.1905 to i32), i32 ptrtoint ([3 x i8]* @3 to i32)), %dec_label_pc_a58 ]
  ret i32 %v4_a87

; uselistorder directives
  uselistorder i32* %arg1, { 1, 0 }
}

define i32 @function_a8e(i32 %arg1, i32 %arg2) local_unnamed_addr {
dec_label_pc_a8e:
  %v0_a8f = load i32, i32* @eax, align 8
  ret i32 %v0_a8f
}

define i32 @_ZN5boost10error_infoINS_11throw_file_EPKcEC1ES3_(i32* %arg1, i32 %arg2) local_unnamed_addr {
dec_label_pc_a90:
  store i32 %arg2, i32* %arg1, align 4
  store i32 xor (i32 ptrtoint (i32* @global_var_14a1.1905 to i32), i32 ptrtoint ([3 x i8]* @3 to i32)), i32* @eax, align 8
  br i1 icmp eq (i32 xor (i32 ptrtoint (i32* @global_var_14a1.1905 to i32), i32 ptrtoint ([3 x i8]* @3 to i32)), i32 0), label %bb, label %dec_label_pc_ac1

bb:                                               ; preds = %dec_label_pc_a90
  %tmp104 = ptrtoint i32* %arg1 to i32
  %v3_abf = call i32 @function_ac6(i32 %arg2, i32 %tmp104)
  br label %dec_label_pc_ac1

dec_label_pc_ac1:                                 ; preds = %bb, %dec_label_pc_a90
  %v4_abf = phi i32 [ %v3_abf, %bb ], [ xor (i32 ptrtoint (i32* @global_var_14a1.1905 to i32), i32 ptrtoint ([3 x i8]* @3 to i32)), %dec_label_pc_a90 ]
  ret i32 %v4_abf

; uselistorder directives
  uselistorder i32* %arg1, { 1, 0 }
}

define i32 @function_ac6(i32 %arg1, i32 %arg2) local_unnamed_addr {
dec_label_pc_ac6:
  %v0_ac7 = load i32, i32* @eax, align 8
  ret i32 %v0_ac7
}

define i32 @_ZN5boost10error_infoINS_11throw_line_EiEC1Ei(i32* %arg1, i32 %arg2) local_unnamed_addr {
dec_label_pc_ac8:
  %ebp.global-to-local = alloca i32, align 4
  %v0_ac8 = load i32, i32* %ebp.global-to-local, align 4
  store i32 %arg2, i32* %arg1, align 4
  store i32 %v0_ac8, i32* %ebp.global-to-local, align 4
  ret i32 xor (i32 ptrtoint (i32* @global_var_14a1.1905 to i32), i32 ptrtoint ([3 x i8]* @3 to i32))
}

define i32 @_ZN5boost9exceptionC1Ev(i32* %arg1) local_unnamed_addr {
dec_label_pc_b00:
  %tmp100 = ptrtoint i32* %arg1 to i32
  store i32 ptrtoint (i32* @global_var_33ca4.1920 to i32), i32* %arg1, align 4
  %v1_b23 = add i32 %tmp100, 4
  store i32 %v1_b23, i32* @eax, align 8
  %v1_b29 = call i32 @function_109dc(i32 %v1_b23)
  %v1_b31 = add i32 %tmp100, 8
  %v2_b31 = inttoptr i32 %v1_b31 to i32*
  store i32 0, i32* %v2_b31, align 4
  %v1_b3b = add i32 %tmp100, 12
  %v2_b3b = inttoptr i32 %v1_b3b to i32*
  store i32 0, i32* %v2_b3b, align 4
  %v1_b45 = add i32 %tmp100, ptrtoint (i32* @global_var_10.1921 to i32)
  %v2_b45 = inttoptr i32 %v1_b45 to i32*
  store i32 -1, i32* %v2_b45, align 4
  store i32 xor (i32 ptrtoint (i32* @global_var_14a1.1905 to i32), i32 ptrtoint ([3 x i8]* @3 to i32)), i32* @eax, align 8
  br i1 icmp eq (i32 xor (i32 ptrtoint (i32* @global_var_14a1.1905 to i32), i32 ptrtoint ([3 x i8]* @3 to i32)), i32 0), label %bb, label %dec_label_pc_b58

bb:                                               ; preds = %dec_label_pc_b00
  %v1_b56 = call i32 @function_b5d()
  br label %dec_label_pc_b58

dec_label_pc_b58:                                 ; preds = %bb, %dec_label_pc_b00
  %v2_b56 = phi i32 [ %v1_b56, %bb ], [ xor (i32 ptrtoint (i32* @global_var_14a1.1905 to i32), i32 ptrtoint ([3 x i8]* @3 to i32)), %dec_label_pc_b00 ]
  ret i32 %v2_b56

; uselistorder directives
  uselistorder i32 %tmp100, { 3, 2, 1, 0 }
}

define i32 @function_b5d() local_unnamed_addr {
dec_label_pc_b5d:
  %v0_b5e = load i32, i32* @eax, align 8
  ret i32 %v0_b5e
}

define i32 @_ZN5boost9exceptionD1Ev(i32* %arg1) local_unnamed_addr {
dec_label_pc_b60:
  %tmp99 = ptrtoint i32* %arg1 to i32
  store i32 ptrtoint (i32* @global_var_33ca4.1920 to i32), i32* %arg1, align 4
  %v1_b83 = add i32 %tmp99, 4
  store i32 %v1_b83, i32* @eax, align 8
  %v1_b89 = call i32 @function_10a70(i32 %v1_b83)
  %v1_b98 = call i32 @function_bbc()
  ret i32 %tmp99
}

define i32 @function_ba5() local_unnamed_addr {
dec_label_pc_ba5:
  %v0_ba5 = call i32 @function_bbc()
  ret i32 %v0_ba5

; uselistorder directives
  uselistorder i32 ()* @function_bbc, { 1, 0 }
}

define i32 @function_bbc() local_unnamed_addr {
dec_label_pc_bbc:
  %v0_bbc = load i32, i32* @ebp, align 4
  %v1_bbc = add i32 %v0_bbc, -12
  %v2_bbc = inttoptr i32 %v1_bbc to i32*
  %v3_bbc = load i32, i32* %v2_bbc, align 4
  %v3_bbf = xor i32 %v3_bbc, ptrtoint ([3 x i8]* @3 to i32)
  %v4_bbf = icmp eq i32 %v3_bbf, 0
  store i32 %v3_bbf, i32* @eax, align 8
  br i1 %v4_bbf, label %bb, label %dec_label_pc_bc8

bb:                                               ; preds = %dec_label_pc_bbc
  %v1_bc6 = call i32 @function_bcd()
  br label %dec_label_pc_bc8

dec_label_pc_bc8:                                 ; preds = %bb, %dec_label_pc_bbc
  %v2_bc6 = phi i32 [ %v1_bc6, %bb ], [ %v3_bbf, %dec_label_pc_bbc ]
  ret i32 %v2_bc6
}

define i32 @function_bcd() local_unnamed_addr {
dec_label_pc_bcd:
  %v0_bce = load i32, i32* @eax, align 8
  ret i32 %v0_bce
}

define i32 @function_121c(i32 %arg1) local_unnamed_addr {
dec_label_pc_121c:
  %tmp = load i32, i32* @eax, align 8
  ret i32 %tmp
}

define i32 @_ZN5boost9exceptionD0Ev(i32 %arg1) local_unnamed_addr {
dec_label_pc_1be8:
  store i32 %arg1, i32* @eax, align 8
  %v1_1c05 = call i32 @function_2748(i32 %arg1)
  ret i32 %arg1
}

define i32 @function_1c25() local_unnamed_addr {
dec_label_pc_1c25:
  %eax.global-to-local = alloca i32, align 4
  %ecx.global-to-local = alloca i32, align 4
  %v0_1c25 = load i32, i32* %ecx.global-to-local, align 4
  %v1_1c25 = add i32 %v0_1c25, -1
  store i32 %v1_1c25, i32* %ecx.global-to-local, align 4
  %v0_1c27 = load i32, i32* %eax.global-to-local, align 8
  ret i32 %v0_1c27
}

define i32 @_ZN5boost16exception_detail10clone_baseD1Ev(i32* %arg1) local_unnamed_addr {
dec_label_pc_1c28:
  %tmp99 = ptrtoint i32* %arg1 to i32
  store i32 ptrtoint (i32* @global_var_33c8c.1922 to i32), i32* %arg1, align 4
  %v2_1c52 = call i32 @function_1c5f(i32 %tmp99)
  ret i32 %tmp99

; uselistorder directives
  uselistorder i32 %tmp99, { 1, 0 }
}

define i32 @function_1c5f(i32 %arg1) local_unnamed_addr {
dec_label_pc_1c5f:
  %v0_1c5f = load i32, i32* @ebp, align 4
  %v1_1c5f = add i32 %v0_1c5f, -12
  %v2_1c5f = inttoptr i32 %v1_1c5f to i32*
  %v3_1c5f = load i32, i32* %v2_1c5f, align 4
  %v3_1c62 = xor i32 %v3_1c5f, ptrtoint ([3 x i8]* @3 to i32)
  ret i32 %v3_1c62
}

define i32 @_ZN5boost16exception_detail10clone_baseD0Ev(i32 %arg1) local_unnamed_addr {
dec_label_pc_1c72:
  store i32 %arg1, i32* @eax, align 8
  %v1_1c8f = call i32 @function_389a(i32 %arg1)
  ret i32 %arg1
}

define i32 @function_1c9e() local_unnamed_addr {
dec_label_pc_1c9e:
  %eax.global-to-local = alloca i32, align 4
  %ebx.global-to-local = alloca i32, align 4
  %v0_1c9e = load i32, i32* %ebx.global-to-local, align 8
  %v1_1c9e = add i32 %v0_1c9e, 862319685
  %v2_1c9e = inttoptr i32 %v1_1c9e to i32*
  %v3_1c9e = load i32, i32* %v2_1c9e, align 4
  %v4_1c9e = add i32 %v3_1c9e, -1
  store i32 %v4_1c9e, i32* %v2_1c9e, align 4
  %v0_1ca4 = load i32, i32* %eax.global-to-local, align 8
  %v1_1ca4 = add i32 %v0_1ca4, ptrtoint (i8** @global_var_14.1904 to i32)
  store i32 %v1_1ca4, i32* %eax.global-to-local, align 8
  ret i32 %v1_1ca4
}

define i32 @_ZN5boost16exception_detail20copy_boost_exceptionEPNS_9exceptionEPKS1_(i32 %arg1, i32 %arg2) local_unnamed_addr {
dec_label_pc_1cb2:
  %edx.global-to-local = alloca i32, align 4
  %stack_var_-64 = alloca i32, align 4
  %tmp97 = call i32 @__decompiler_undefined_function_0()
  %stack_var_-24 = alloca i32, align 4
  %stack_var_-28 = alloca i32, align 4
  %stack_var_-60 = alloca i32, align 4
  %v2_1cd0 = ptrtoint i32* %stack_var_-28 to i32
  store i32 %v2_1cd0, i32* %stack_var_-60, align 4
  %v1_1cd6 = call i32 @function_11b8e(i32 %v2_1cd0)
  %v1_1cde = add i32 %arg2, 4
  store i32 %v1_1cde, i32* @eax, align 8
  store i32 %v1_1cde, i32* %stack_var_-60, align 4
  %v1_1ce4 = call i32 @function_11bf8(i32 %v1_1cde)
  %v10_1cec = icmp eq i32 %v1_1ce4, 0
  br i1 %v10_1cec, label %dec_label_pc_1d2b, label %dec_label_pc_1cf2

dec_label_pc_1cf2:                                ; preds = %dec_label_pc_1cb2
  %v1_1cf5 = inttoptr i32 %v1_1ce4 to i32*
  %v2_1cf5 = load i32, i32* %v1_1cf5, align 4
  %v1_1cf7 = add i32 %v2_1cf5, ptrtoint (i8** @global_var_14.1904 to i32)
  %v1_1cfa = inttoptr i32 %v1_1cf7 to i32*
  %v2_1cfa = load i32, i32* %v1_1cfa, align 4
  store i32 %v2_1cfa, i32* @ecx, align 4
  %v2_1cfc = ptrtoint i32* %stack_var_-24 to i32
  store i32 %v1_1ce4, i32* %edx.global-to-local, align 8
  store i32 %v2_1cfc, i32* %stack_var_-60, align 4
  store i32 %v2_1cd0, i32* @eax, align 8
  store i32 %v2_1cd0, i32* %stack_var_-64, align 4
  %v3_1d1b = call i32 @function_11c28(i32 %v2_1cd0, i32 %v2_1cfc, i32 %v1_1ce4)
  store i32 %v2_1cfc, i32* @eax, align 8
  store i32 %v2_1cfc, i32* %stack_var_-64, align 4
  %v1_1d26 = call i32 @function_11bc2(i32 %v2_1cfc)
  br label %dec_label_pc_1d2b

dec_label_pc_1d2b:                                ; preds = %dec_label_pc_1cf2, %dec_label_pc_1cb2
  %stack_var_-56.0 = phi i32 [ %tmp97, %dec_label_pc_1cb2 ], [ %v1_1ce4, %dec_label_pc_1cf2 ]
  %v1_1d2e = add i32 %arg2, 12
  %v2_1d2e = inttoptr i32 %v1_1d2e to i32*
  %v3_1d2e = load i32, i32* %v2_1d2e, align 4
  store i32 %v3_1d2e, i32* %edx.global-to-local, align 8
  %v2_1d34 = add i32 %arg1, 12
  %v3_1d34 = inttoptr i32 %v2_1d34 to i32*
  store i32 %v3_1d2e, i32* %v3_1d34, align 4
  %v1_1d3a = add i32 %arg2, ptrtoint (i32* @global_var_10.1921 to i32)
  %v2_1d3a = inttoptr i32 %v1_1d3a to i32*
  %v3_1d3a = load i32, i32* %v2_1d3a, align 4
  store i32 %v3_1d3a, i32* %edx.global-to-local, align 8
  %v2_1d40 = add i32 %arg1, ptrtoint (i32* @global_var_10.1921 to i32)
  %v3_1d40 = inttoptr i32 %v2_1d40 to i32*
  store i32 %v3_1d3a, i32* %v3_1d40, align 4
  %v1_1d46 = add i32 %arg2, 8
  %v2_1d46 = inttoptr i32 %v1_1d46 to i32*
  %v3_1d46 = load i32, i32* %v2_1d46, align 4
  %v2_1d4c = add i32 %arg1, 8
  %v3_1d4c = inttoptr i32 %v2_1d4c to i32*
  store i32 %v3_1d46, i32* %v3_1d4c, align 4
  %v1_1d52 = add i32 %arg1, 4
  store i32 %v1_1d52, i32* %edx.global-to-local, align 8
  store i32 %v2_1cd0, i32* @eax, align 8
  %v1_1d58 = load i32, i32* @esp, align 4
  %v2_1d58 = add i32 %v1_1d58, 4
  %v3_1d58 = inttoptr i32 %v2_1d58 to i32*
  store i32 %v2_1cd0, i32* %v3_1d58, align 4
  %v0_1d5c = load i32, i32* %edx.global-to-local, align 8
  %v1_1d5c = load i32, i32* @esp, align 4
  %v2_1d5c = inttoptr i32 %v1_1d5c to i32*
  store i32 %v0_1d5c, i32* %v2_1d5c, align 4
  %v0_1d5f = load i32, i32* %stack_var_-64, align 4
  %v1_1d5f = load i32, i32* %stack_var_-60, align 4
  %v3_1d5f = call i32 @function_11c28(i32 %v0_1d5f, i32 %v1_1d5f, i32 %stack_var_-56.0)
  store i32 %v2_1cd0, i32* @eax, align 8
  %v1_1d67 = load i32, i32* @esp, align 4
  %v2_1d67 = inttoptr i32 %v1_1d67 to i32*
  store i32 %v2_1cd0, i32* %v2_1d67, align 4
  %v0_1d6a = load i32, i32* %stack_var_-64, align 4
  %v1_1d6a = call i32 @function_11bc2(i32 %v0_1d6a)
  store i32 xor (i32 ptrtoint (i32* @global_var_14a1.1905 to i32), i32 ptrtoint ([3 x i8]* @3 to i32)), i32* @eax, align 8
  br i1 icmp eq (i32 xor (i32 ptrtoint (i32* @global_var_14a1.1905 to i32), i32 ptrtoint ([3 x i8]* @3 to i32)), i32 0), label %bb, label %dec_label_pc_1d7b

bb:                                               ; preds = %dec_label_pc_1d2b
  %v1_1d79 = call i32 @function_1da8()
  store i32 %v1_1d79, i32* @eax, align 8
  br label %dec_label_pc_1d7b

dec_label_pc_1d7b:                                ; preds = %bb, %dec_label_pc_1d2b
  %v0_1d7b = call i32 @function_1da3()
  ret i32 %v0_1d7b

; uselistorder directives
  uselistorder i32 %v2_1cfc, { 1, 0, 2, 4, 3 }
  uselistorder i32 %v2_1cd0, { 3, 4, 5, 6, 1, 0, 2, 8, 7 }
  uselistorder i32 (i32, i32, i32)* @function_11c28, { 1, 0 }
}

define i32 @function_1d7d() local_unnamed_addr {
dec_label_pc_1d7d:
  %eax.global-to-local = alloca i32, align 4
  %v0_1d7d = load i32, i32* %eax.global-to-local, align 8
  store i32 %v0_1d7d, i32* @ebx, align 8
  %v0_1d7f = load i32, i32* @ebp, align 4
  %v1_1d7f = add i32 %v0_1d7f, -20
  store i32 %v1_1d7f, i32* @eax, align 8
  %v1_1d85 = call i32 @function_11bc2(i32 %v1_1d7f)
  store i32 %v1_1d85, i32* %eax.global-to-local, align 8
  %v0_1d8a = call i32 @function_1d8e()
  store i32 %v0_1d8a, i32* %eax.global-to-local, align 8
  ret i32 %v0_1d8a
}

define i32 @function_1d8c() local_unnamed_addr {
dec_label_pc_1d8c:
  %eax.global-to-local = alloca i32, align 4
  %v0_1d8c = load i32, i32* %eax.global-to-local, align 8
  ret i32 %v0_1d8c
}

define i32 @function_1d8e() local_unnamed_addr {
dec_label_pc_1d8e:
  %v0_1d8e = load i32, i32* @ebp, align 4
  %v1_1d8e = add i32 %v0_1d8e, -24
  store i32 %v1_1d8e, i32* @eax, align 8
  %v1_1d94 = call i32 @function_11bc2(i32 %v1_1d8e)
  %v0_1d99 = load i32, i32* @ebx, align 8
  ret i32 %v0_1d99

; uselistorder directives
  uselistorder i32 (i32)* @function_11bc2, { 3, 2, 1, 0 }
}

define i32 @function_1da3() local_unnamed_addr {
dec_label_pc_1da3:
  %v0_1da3 = load i32, i32* @eax, align 8
  ret i32 %v0_1da3
}

define i32 @function_1da8() local_unnamed_addr {
dec_label_pc_1da8:
  %v0_1dac = load i32, i32* @eax, align 8
  ret i32 %v0_1dac
}

define i32 @_ZN5boost36throw_exception_assert_compatibilityERKSt9exception(i32 %arg1) local_unnamed_addr {
dec_label_pc_1dad:
  store i32 xor (i32 ptrtoint (i32* @global_var_14a1.1905 to i32), i32 ptrtoint ([3 x i8]* @3 to i32)), i32* @eax, align 8
  br i1 icmp eq (i32 xor (i32 ptrtoint (i32* @global_var_14a1.1905 to i32), i32 ptrtoint ([3 x i8]* @3 to i32)), i32 0), label %bb, label %dec_label_pc_1dd0

bb:                                               ; preds = %dec_label_pc_1dad
  %v2_1dce = call i32 @function_1dd5(i32 %arg1)
  br label %dec_label_pc_1dd0

dec_label_pc_1dd0:                                ; preds = %bb, %dec_label_pc_1dad
  %v3_1dce = phi i32 [ %v2_1dce, %bb ], [ xor (i32 ptrtoint (i32* @global_var_14a1.1905 to i32), i32 ptrtoint ([3 x i8]* @3 to i32)), %dec_label_pc_1dad ]
  ret i32 %v3_1dce
}

define i32 @function_1dd5(i32 %arg1) local_unnamed_addr {
dec_label_pc_1dd5:
  %v0_1dd6 = load i32, i32* @eax, align 8
  ret i32 %v0_1dd6
}

define i32 @_ZNKSt9type_info4nameEv(i32 %arg1) local_unnamed_addr {
dec_label_pc_1dd8:
  %v1_1df2 = add i32 %arg1, 4
  %v2_1df2 = inttoptr i32 %v1_1df2 to i32*
  %v3_1df2 = load i32, i32* %v2_1df2, align 4
  %v1_1df5 = inttoptr i32 %v3_1df2 to i8*
  %v2_1df5 = load i8, i8* %v1_1df5, align 1
  %v11_1df8 = icmp eq i8 %v2_1df5, 42
  %v1_1dfa = icmp eq i1 %v11_1df8, false
  br i1 %v1_1dfa, label %dec_label_pc_1e0d, label %dec_label_pc_1dfc

dec_label_pc_1dfc:                                ; preds = %dec_label_pc_1dd8
  %v1_1e02 = add i32 %v3_1df2, 1
  br label %dec_label_pc_1e0d

dec_label_pc_1e0d:                                ; preds = %dec_label_pc_1dd8, %dec_label_pc_1dfc
  %storemerge = phi i32 [ %v1_1e02, %dec_label_pc_1dfc ], [ %v3_1df2, %dec_label_pc_1dd8 ]
  store i32 %storemerge, i32* @eax, align 8
  br i1 icmp eq (i32 xor (i32 ptrtoint (i32* @global_var_14a1.1905 to i32), i32 ptrtoint ([3 x i8]* @3 to i32)), i32 0), label %bb, label %dec_label_pc_1e19

bb:                                               ; preds = %dec_label_pc_1e0d
  %v1_1e17 = call i32 @function_1e1e()
  br label %dec_label_pc_1e19

dec_label_pc_1e19:                                ; preds = %bb, %dec_label_pc_1e0d
  %v2_1e17 = phi i32 [ %v1_1e17, %bb ], [ %storemerge, %dec_label_pc_1e0d ]
  ret i32 %v2_1e17

; uselistorder directives
  uselistorder i32 %v3_1df2, { 1, 0, 2 }
  uselistorder label %dec_label_pc_1e0d, { 1, 0 }
}

define i32 @function_1e1e() local_unnamed_addr {
dec_label_pc_1e1e:
  %v0_1e1f = load i32, i32* @eax, align 8
  ret i32 %v0_1e1f
}

define i32 @_ZN5boost6detail23atomic_exchange_and_addEPii(i32* %arg1, i32 %arg2) local_unnamed_addr {
dec_label_pc_1e20:
  %ebp.global-to-local = alloca i32, align 4
  %ebx.global-to-local = alloca i32, align 4
  %v0_1e20 = load i32, i32* %ebp.global-to-local, align 4
  %v0_1e23 = load i32, i32* %ebx.global-to-local, align 8
  store i32 %arg2, i32* %ebx.global-to-local, align 8
  %v2_1e49 = load i32, i32* %arg1, align 4
  %v4_1e49 = add i32 %v2_1e49, %arg2
  store i32 %v4_1e49, i32* %arg1, align 4
  store i32 %v0_1e23, i32* %ebx.global-to-local, align 8
  store i32 %v0_1e20, i32* %ebp.global-to-local, align 4
  ret i32 %v2_1e49

; uselistorder directives
  uselistorder i32 %v2_1e49, { 1, 0 }
}

define i32 @_ZN5boost6detail16atomic_incrementEPi(i32* %arg1) local_unnamed_addr {
dec_label_pc_1e6a:
  %v2_1e87 = load i32, i32* %arg1, align 4
  %v3_1e87 = add i32 %v2_1e87, 1
  store i32 %v3_1e87, i32* %arg1, align 4
  store i32 xor (i32 ptrtoint (i32* @global_var_14a1.1905 to i32), i32 ptrtoint ([3 x i8]* @3 to i32)), i32* @eax, align 8
  br i1 icmp eq (i32 xor (i32 ptrtoint (i32* @global_var_14a1.1905 to i32), i32 ptrtoint ([3 x i8]* @3 to i32)), i32 0), label %bb, label %dec_label_pc_1e96

bb:                                               ; preds = %dec_label_pc_1e6a
  %tmp100 = ptrtoint i32* %arg1 to i32
  %v2_1e94 = call i32 @function_1e9b(i32 %tmp100)
  br label %dec_label_pc_1e96

dec_label_pc_1e96:                                ; preds = %bb, %dec_label_pc_1e6a
  %v3_1e94 = phi i32 [ %v2_1e94, %bb ], [ xor (i32 ptrtoint (i32* @global_var_14a1.1905 to i32), i32 ptrtoint ([3 x i8]* @3 to i32)), %dec_label_pc_1e6a ]
  ret i32 %v3_1e94

; uselistorder directives
  uselistorder i32* %arg1, { 2, 0, 1 }
}

define i32 @function_1e9b(i32 %arg1) local_unnamed_addr {
dec_label_pc_1e9b:
  %v0_1e9c = load i32, i32* @eax, align 8
  ret i32 %v0_1e9c
}

define i32 @_ZN5boost6detail28atomic_conditional_incrementEPi(i32* %arg1) local_unnamed_addr {
dec_label_pc_1e9d:
  %ebx.global-to-local = alloca i32, align 4
  %edx.global-to-local = alloca i32, align 4
  %tmp109 = ptrtoint i32* %arg1 to i32
  store i32 %tmp109, i32* %edx.global-to-local, align 8
  %v2_1ec2 = load i32, i32* %arg1, align 4
  br label %dec_label_pc_1ec4

dec_label_pc_1ec4:                                ; preds = %dec_label_pc_1ec8, %dec_label_pc_1e9d
  %v0_1ec8 = phi i32 [ %v2_1ecb, %dec_label_pc_1ec8 ], [ %v2_1ec2, %dec_label_pc_1e9d ]
  %v1_1ec4 = icmp eq i32 %v0_1ec8, 0
  br i1 %v1_1ec4, label %dec_label_pc_1ed1, label %dec_label_pc_1ec8

dec_label_pc_1ec8:                                ; preds = %dec_label_pc_1ec4
  %v1_1eca = add i32 %v0_1ec8, 1
  store i32 %v1_1eca, i32* %ebx.global-to-local, align 8
  %v0_1ecb = load i32, i32* %edx.global-to-local, align 8
  %v1_1ecb = inttoptr i32 %v0_1ecb to i32*
  %v2_1ecb = load i32, i32* %v1_1ecb, align 4
  %v15_1ecb = icmp eq i32 %v0_1ec8, %v2_1ecb
  %v22_1ecb = select i1 %v15_1ecb, i32 %v1_1eca, i32 %v2_1ecb
  store i32 %v22_1ecb, i32* %v1_1ecb, align 4
  %v1_1ecf = icmp eq i1 %v15_1ecb, false
  br i1 %v1_1ecf, label %dec_label_pc_1ec4, label %dec_label_pc_1ed1

dec_label_pc_1ed1:                                ; preds = %dec_label_pc_1ec8, %dec_label_pc_1ec4
  %v0_1ed1 = phi i32 [ %v0_1ec8, %dec_label_pc_1ec8 ], [ 0, %dec_label_pc_1ec4 ]
  %v0_1ed6 = load i32, i32* %ebx.global-to-local, align 8
  store i32 %v0_1ed1, i32* @eax, align 8
  store i32 xor (i32 ptrtoint (i32* @global_var_14a1.1905 to i32), i32 ptrtoint ([3 x i8]* @3 to i32)), i32* %edx.global-to-local, align 8
  br i1 icmp eq (i32 xor (i32 ptrtoint (i32* @global_var_14a1.1905 to i32), i32 ptrtoint ([3 x i8]* @3 to i32)), i32 0), label %bb, label %dec_label_pc_1ee8

bb:                                               ; preds = %dec_label_pc_1ed1
  %v3_1ee6 = call i32 @function_1eed(i32 %v0_1ed1, i32 %v0_1ed6)
  br label %dec_label_pc_1ee8

dec_label_pc_1ee8:                                ; preds = %bb, %dec_label_pc_1ed1
  %v4_1ee6 = phi i32 [ %v3_1ee6, %bb ], [ %v0_1ed1, %dec_label_pc_1ed1 ]
  ret i32 %v4_1ee6

; uselistorder directives
  uselistorder i32 %v0_1ed1, { 0, 2, 1 }
  uselistorder i1 %v15_1ecb, { 1, 0 }
  uselistorder i32 %v2_1ecb, { 2, 0, 1 }
  uselistorder i32 %v0_1ec8, { 1, 0, 2, 3 }
  uselistorder i32* %ebx.global-to-local, { 1, 0 }
}

define i32 @function_1eed(i32 %arg1, i32 %arg2) local_unnamed_addr {
dec_label_pc_1eed:
  %v0_1ef3 = load i32, i32* @eax, align 8
  ret i32 %v0_1ef3
}

define i32 @_ZN5boost6detail15sp_counted_baseC1Ev(i32* %arg1) local_unnamed_addr {
dec_label_pc_1ef4:
  %tmp100 = ptrtoint i32* %arg1 to i32
  store i32 ptrtoint (i32* @global_var_33c6c.1923 to i32), i32* %arg1, align 4
  %v1_1f17 = add i32 %tmp100, 4
  %v2_1f17 = inttoptr i32 %v1_1f17 to i32*
  store i32 1, i32* %v2_1f17, align 4
  %v1_1f21 = add i32 %tmp100, 8
  %v2_1f21 = inttoptr i32 %v1_1f21 to i32*
  store i32 1, i32* %v2_1f21, align 4
  store i32 xor (i32 ptrtoint (i32* @global_var_14a1.1905 to i32), i32 ptrtoint ([3 x i8]* @3 to i32)), i32* @eax, align 8
  br i1 icmp eq (i32 xor (i32 ptrtoint (i32* @global_var_14a1.1905 to i32), i32 ptrtoint ([3 x i8]* @3 to i32)), i32 0), label %bb, label %dec_label_pc_1f34

bb:                                               ; preds = %dec_label_pc_1ef4
  %v2_1f32 = call i32 @function_1f39(i32 %tmp100)
  br label %dec_label_pc_1f34

dec_label_pc_1f34:                                ; preds = %bb, %dec_label_pc_1ef4
  %v3_1f32 = phi i32 [ %v2_1f32, %bb ], [ xor (i32 ptrtoint (i32* @global_var_14a1.1905 to i32), i32 ptrtoint ([3 x i8]* @3 to i32)), %dec_label_pc_1ef4 ]
  ret i32 %v3_1f32
}

define i32 @function_1f39(i32 %arg1) local_unnamed_addr {
dec_label_pc_1f39:
  %v0_1f3a = load i32, i32* @eax, align 8
  ret i32 %v0_1f3a
}

define i32 @_ZN5boost6detail15sp_counted_baseD1Ev(i32* %arg1) local_unnamed_addr {
dec_label_pc_1f3c:
  %tmp99 = ptrtoint i32* %arg1 to i32
  store i32 ptrtoint (i32* @global_var_33c6c.1923 to i32), i32* %arg1, align 4
  %v2_1f66 = call i32 @function_1f73(i32 %tmp99)
  ret i32 %tmp99

; uselistorder directives
  uselistorder i32 %tmp99, { 1, 0 }
}

define i32 @function_1f73(i32 %arg1) local_unnamed_addr {
dec_label_pc_1f73:
  %v0_1f73 = load i32, i32* @ebp, align 4
  %v1_1f73 = add i32 %v0_1f73, -12
  %v2_1f73 = inttoptr i32 %v1_1f73 to i32*
  %v3_1f73 = load i32, i32* %v2_1f73, align 4
  %v3_1f76 = xor i32 %v3_1f73, ptrtoint ([3 x i8]* @3 to i32)
  ret i32 %v3_1f76
}

define i32 @_ZN5boost6detail15sp_counted_baseD0Ev(i32 %arg1) local_unnamed_addr {
dec_label_pc_1f86:
  store i32 %arg1, i32* @eax, align 8
  %v1_1fa3 = call i32 @function_3ec2(i32 %arg1)
  ret i32 %arg1
}

define i32 @function_1fb2() local_unnamed_addr {
dec_label_pc_1fb2:
  %eax.global-to-local = alloca i32, align 4
  %ebx.global-to-local = alloca i32, align 4
  %v0_1fb2 = load i32, i32* %ebx.global-to-local, align 8
  %v1_1fb2 = add i32 %v0_1fb2, 862319685
  %v2_1fb2 = inttoptr i32 %v1_1fb2 to i32*
  %v3_1fb2 = load i32, i32* %v2_1fb2, align 4
  %v4_1fb2 = add i32 %v3_1fb2, -1
  store i32 %v4_1fb2, i32* %v2_1fb2, align 4
  %v0_1fb8 = load i32, i32* %eax.global-to-local, align 8
  %v1_1fb8 = add i32 %v0_1fb8, ptrtoint (i8** @global_var_14.1904 to i32)
  store i32 %v1_1fb8, i32* %eax.global-to-local, align 8
  ret i32 %v1_1fb8
}

define i32 @_ZN5boost6detail15sp_counted_base7destroyEv(i32* %arg1) {
dec_label_pc_1fc6:
  %v10_1fdd = icmp eq i32* %arg1, null
  br i1 %v10_1fdd, label %dec_label_pc_1ff5, label %dec_label_pc_1fe3

dec_label_pc_1fe3:                                ; preds = %dec_label_pc_1fc6
  br label %dec_label_pc_1ff5

dec_label_pc_1ff5:                                ; preds = %dec_label_pc_1fe3, %dec_label_pc_1fc6
  store i32 xor (i32 ptrtoint (i32* @global_var_14a1.1905 to i32), i32 ptrtoint ([3 x i8]* @3 to i32)), i32* @eax, align 8
  br i1 icmp eq (i32 xor (i32 ptrtoint (i32* @global_var_14a1.1905 to i32), i32 ptrtoint ([3 x i8]* @3 to i32)), i32 0), label %bb, label %dec_label_pc_2001

bb:                                               ; preds = %dec_label_pc_1ff5
  %v1_1fff = call i32 @function_2006()
  br label %dec_label_pc_2001

dec_label_pc_2001:                                ; preds = %bb, %dec_label_pc_1ff5
  %v2_1fff = phi i32 [ %v1_1fff, %bb ], [ xor (i32 ptrtoint (i32* @global_var_14a1.1905 to i32), i32 ptrtoint ([3 x i8]* @3 to i32)), %dec_label_pc_1ff5 ]
  ret i32 %v2_1fff
}

define i32 @function_2006() local_unnamed_addr {
dec_label_pc_2006:
  %v0_2007 = load i32, i32* @eax, align 8
  ret i32 %v0_2007
}

define i32 @_ZN5boost6detail15sp_counted_base12add_ref_copyEv(i32 %arg1) local_unnamed_addr {
dec_label_pc_2008:
  %v1_2022 = add i32 %arg1, 4
  store i32 %v1_2022, i32* @eax, align 8
  %v1_2028 = call i32 @function_3e72(i32 %v1_2022)
  store i32 xor (i32 ptrtoint (i32* @global_var_14a1.1905 to i32), i32 ptrtoint ([3 x i8]* @3 to i32)), i32* @eax, align 8
  br i1 icmp eq (i32 xor (i32 ptrtoint (i32* @global_var_14a1.1905 to i32), i32 ptrtoint ([3 x i8]* @3 to i32)), i32 0), label %bb, label %dec_label_pc_2039

bb:                                               ; preds = %dec_label_pc_2008
  %v1_2037 = call i32 @function_203e()
  br label %dec_label_pc_2039

dec_label_pc_2039:                                ; preds = %bb, %dec_label_pc_2008
  %v2_2037 = phi i32 [ %v1_2037, %bb ], [ xor (i32 ptrtoint (i32* @global_var_14a1.1905 to i32), i32 ptrtoint ([3 x i8]* @3 to i32)), %dec_label_pc_2008 ]
  ret i32 %v2_2037
}

define i32 @function_203e() local_unnamed_addr {
dec_label_pc_203e:
  %v0_203f = load i32, i32* @eax, align 8
  ret i32 %v0_203f
}

define i32 @_ZN5boost6detail15sp_counted_base12add_ref_lockEv(i32 %arg1) local_unnamed_addr {
dec_label_pc_2040:
  %v1_205a = add i32 %arg1, 4
  store i32 %v1_205a, i32* @eax, align 8
  %v1_2060 = call i32 @function_3edd(i32 %v1_205a)
  %v1_2065 = icmp eq i32 %v1_2060, 0
  %v1_2067 = icmp eq i1 %v1_2065, false
  %v2_2067 = zext i1 %v1_2067 to i32
  %v4_2067 = and i32 %v1_2060, -256
  %v5_2067 = or i32 %v2_2067, %v4_2067
  store i32 %v5_2067, i32* @eax, align 8
  br i1 icmp eq (i32 xor (i32 ptrtoint (i32* @global_var_14a1.1905 to i32), i32 ptrtoint ([3 x i8]* @3 to i32)), i32 0), label %bb, label %dec_label_pc_2076

bb:                                               ; preds = %dec_label_pc_2040
  %v1_2074 = call i32 @function_207b()
  br label %dec_label_pc_2076

dec_label_pc_2076:                                ; preds = %bb, %dec_label_pc_2040
  %v2_2074 = phi i32 [ %v1_2074, %bb ], [ %v5_2067, %dec_label_pc_2040 ]
  ret i32 %v2_2074
}

define i32 @function_207b() local_unnamed_addr {
dec_label_pc_207b:
  %v0_207c = load i32, i32* @eax, align 8
  ret i32 %v0_207c
}

define i32 @_ZN5boost6detail15sp_counted_base7releaseEv(i32* %arg1) local_unnamed_addr {
dec_label_pc_207e:
  %tmp102 = ptrtoint i32* %arg1 to i32
  %v1_2098 = add i32 %tmp102, 4
  store i32 %v1_2098, i32* @eax, align 8
  %v2_20a6 = call i32 @function_3e9e(i32 %v1_2098, i32 -1)
  %v10_20ab = icmp eq i32 %v2_20a6, 1
  %v5_20b1 = icmp eq i1 %v10_20ab, false
  br i1 %v5_20b1, label %dec_label_pc_20d2, label %dec_label_pc_20b5

dec_label_pc_20b5:                                ; preds = %dec_label_pc_207e
  store i32 %tmp102, i32* @eax, align 8
  %v1_20cd = call i32 @function_419c(i32 %tmp102)
  br label %dec_label_pc_20d2

dec_label_pc_20d2:                                ; preds = %dec_label_pc_20b5, %dec_label_pc_207e
  store i32 xor (i32 ptrtoint (i32* @global_var_14a1.1905 to i32), i32 ptrtoint ([3 x i8]* @3 to i32)), i32* @eax, align 8
  br i1 icmp eq (i32 xor (i32 ptrtoint (i32* @global_var_14a1.1905 to i32), i32 ptrtoint ([3 x i8]* @3 to i32)), i32 0), label %bb, label %dec_label_pc_20de

bb:                                               ; preds = %dec_label_pc_20d2
  %v1_20dc = call i32 @function_20e3()
  br label %dec_label_pc_20de

dec_label_pc_20de:                                ; preds = %bb, %dec_label_pc_20d2
  %v2_20dc = phi i32 [ %v1_20dc, %bb ], [ xor (i32 ptrtoint (i32* @global_var_14a1.1905 to i32), i32 ptrtoint ([3 x i8]* @3 to i32)), %dec_label_pc_20d2 ]
  ret i32 %v2_20dc

; uselistorder directives
  uselistorder i32 %tmp102, { 1, 0, 2 }
}

define i32 @function_20e3() local_unnamed_addr {
dec_label_pc_20e3:
  %v0_20e4 = load i32, i32* @eax, align 8
  ret i32 %v0_20e4
}

define i32 @_ZN5boost6detail15sp_counted_base12weak_add_refEv(i32 %arg1) local_unnamed_addr {
dec_label_pc_20e6:
  %v1_2100 = add i32 %arg1, 8
  store i32 %v1_2100, i32* @eax, align 8
  %v1_2106 = call i32 @function_3f50(i32 %v1_2100)
  ret i32 xor (i32 ptrtoint (i32* @global_var_14a1.1905 to i32), i32 ptrtoint ([3 x i8]* @3 to i32))
}

define i32 @_ZN5boost6detail15sp_counted_base12weak_releaseEv(i32* %arg1) local_unnamed_addr {
dec_label_pc_211e:
  %tmp102 = ptrtoint i32* %arg1 to i32
  %v1_2138 = add i32 %tmp102, 8
  store i32 %v1_2138, i32* @eax, align 8
  %v2_2146 = call i32 @function_3f3e(i32 %v1_2138, i32 -1)
  %v10_214b = icmp eq i32 %v2_2146, 1
  %v5_2151 = icmp eq i1 %v10_214b, false
  br i1 %v5_2151, label %dec_label_pc_2167, label %dec_label_pc_2155

dec_label_pc_2155:                                ; preds = %dec_label_pc_211e
  br label %dec_label_pc_2167

dec_label_pc_2167:                                ; preds = %dec_label_pc_2155, %dec_label_pc_211e
  ret i32 xor (i32 ptrtoint (i32* @global_var_14a1.1905 to i32), i32 ptrtoint ([3 x i8]* @3 to i32))
}

define i32 @_ZNK5boost6detail15sp_counted_base9use_countEv(i32* %arg1) local_unnamed_addr {
dec_label_pc_217a:
  %tmp100 = ptrtoint i32* %arg1 to i32
  %v1_2194 = add i32 %tmp100, 4
  %v1_2197 = inttoptr i32 %v1_2194 to i32*
  %v2_2197 = load i32, i32* %v1_2197, align 4
  store i32 %v2_2197, i32* @eax, align 8
  br i1 icmp eq (i32 xor (i32 ptrtoint (i32* @global_var_14a1.1905 to i32), i32 ptrtoint ([3 x i8]* @3 to i32)), i32 0), label %bb, label %dec_label_pc_21a5

bb:                                               ; preds = %dec_label_pc_217a
  %v2_21a3 = call i32 @function_21aa(i32 %tmp100)
  br label %dec_label_pc_21a5

dec_label_pc_21a5:                                ; preds = %bb, %dec_label_pc_217a
  %v3_21a3 = phi i32 [ %v2_21a3, %bb ], [ %v2_2197, %dec_label_pc_217a ]
  ret i32 %v3_21a3
}

define i32 @function_21aa(i32 %arg1) local_unnamed_addr {
dec_label_pc_21aa:
  %v0_21ab = load i32, i32* @eax, align 8
  ret i32 %v0_21ab
}

define i32 @_ZN5boost6detail12shared_countC1Ev(i32* %arg1) local_unnamed_addr {
dec_label_pc_21ac:
  store i32 0, i32* %arg1, align 4
  store i32 xor (i32 ptrtoint (i32* @global_var_14a1.1905 to i32), i32 ptrtoint ([3 x i8]* @3 to i32)), i32* @eax, align 8
  br i1 icmp eq (i32 xor (i32 ptrtoint (i32* @global_var_14a1.1905 to i32), i32 ptrtoint ([3 x i8]* @3 to i32)), i32 0), label %bb, label %dec_label_pc_21d8

bb:                                               ; preds = %dec_label_pc_21ac
  %tmp102 = ptrtoint i32* %arg1 to i32
  %v2_21d6 = call i32 @function_21dd(i32 %tmp102)
  br label %dec_label_pc_21d8

dec_label_pc_21d8:                                ; preds = %bb, %dec_label_pc_21ac
  %v3_21d6 = phi i32 [ %v2_21d6, %bb ], [ xor (i32 ptrtoint (i32* @global_var_14a1.1905 to i32), i32 ptrtoint ([3 x i8]* @3 to i32)), %dec_label_pc_21ac ]
  ret i32 %v3_21d6

; uselistorder directives
  uselistorder i32* %arg1, { 1, 0 }
}

define i32 @function_21dd(i32 %arg1) local_unnamed_addr {
dec_label_pc_21dd:
  %v0_21de = load i32, i32* @eax, align 8
  ret i32 %v0_21de
}

define i32 @_ZN5boost6detail12shared_countD1Ev(i32* %arg1) local_unnamed_addr {
dec_label_pc_21e0:
  %v2_21fa = load i32, i32* %arg1, align 4
  %v1_21fc = icmp eq i32 %v2_21fa, 0
  br i1 %v1_21fc, label %dec_label_pc_220d, label %dec_label_pc_2200

dec_label_pc_2200:                                ; preds = %dec_label_pc_21e0
  %v2_2203 = load i32, i32* %arg1, align 4
  store i32 %v2_2203, i32* @eax, align 8
  %v1_2208 = call i32 @function_425e(i32 %v2_2203)
  br label %dec_label_pc_220d

dec_label_pc_220d:                                ; preds = %dec_label_pc_2200, %dec_label_pc_21e0
  store i32 xor (i32 ptrtoint (i32* @global_var_14a1.1905 to i32), i32 ptrtoint ([3 x i8]* @3 to i32)), i32* @eax, align 8
  br i1 icmp eq (i32 xor (i32 ptrtoint (i32* @global_var_14a1.1905 to i32), i32 ptrtoint ([3 x i8]* @3 to i32)), i32 0), label %bb, label %dec_label_pc_2219

bb:                                               ; preds = %dec_label_pc_220d
  %v1_2217 = call i32 @function_221e()
  br label %dec_label_pc_2219

dec_label_pc_2219:                                ; preds = %bb, %dec_label_pc_220d
  %v2_2217 = phi i32 [ %v1_2217, %bb ], [ xor (i32 ptrtoint (i32* @global_var_14a1.1905 to i32), i32 ptrtoint ([3 x i8]* @3 to i32)), %dec_label_pc_220d ]
  ret i32 %v2_2217
}

define i32 @function_221e() local_unnamed_addr {
dec_label_pc_221e:
  %v0_221f = load i32, i32* @eax, align 8
  ret i32 %v0_221f
}

define i32 @_ZN5boost6detail12shared_countC1ERKS1_(i32* %arg1, i32 %arg2) local_unnamed_addr {
dec_label_pc_2220:
  %v1_2240 = inttoptr i32 %arg2 to i32*
  %v2_2240 = load i32, i32* %v1_2240, align 4
  store i32 %v2_2240, i32* %arg1, align 4
  %v1_224c = icmp eq i32 %v2_2240, 0
  br i1 %v1_224c, label %dec_label_pc_225d, label %dec_label_pc_2250

dec_label_pc_2250:                                ; preds = %dec_label_pc_2220
  %v2_2253 = load i32, i32* %arg1, align 4
  store i32 %v2_2253, i32* @eax, align 8
  %v1_2258 = call i32 @function_4228(i32 %v2_2253)
  br label %dec_label_pc_225d

dec_label_pc_225d:                                ; preds = %dec_label_pc_2250, %dec_label_pc_2220
  store i32 xor (i32 ptrtoint (i32* @global_var_14a1.1905 to i32), i32 ptrtoint ([3 x i8]* @3 to i32)), i32* @eax, align 8
  br i1 icmp eq (i32 xor (i32 ptrtoint (i32* @global_var_14a1.1905 to i32), i32 ptrtoint ([3 x i8]* @3 to i32)), i32 0), label %bb, label %dec_label_pc_2269

bb:                                               ; preds = %dec_label_pc_225d
  %v1_2267 = call i32 @function_226e()
  br label %dec_label_pc_2269

dec_label_pc_2269:                                ; preds = %bb, %dec_label_pc_225d
  %v2_2267 = phi i32 [ %v1_2267, %bb ], [ xor (i32 ptrtoint (i32* @global_var_14a1.1905 to i32), i32 ptrtoint ([3 x i8]* @3 to i32)), %dec_label_pc_225d ]
  ret i32 %v2_2267
}

define i32 @function_226e() local_unnamed_addr {
dec_label_pc_226e:
  %v0_226f = load i32, i32* @eax, align 8
  ret i32 %v0_226f
}

define i32 @_ZN5boost6detail12shared_count4swapERS1_(i32* %arg1, i32 %arg2) local_unnamed_addr {
dec_label_pc_2270:
  %v1_2290 = inttoptr i32 %arg2 to i32*
  %v2_2290 = load i32, i32* %v1_2290, align 4
  %v2_2298 = load i32, i32* %arg1, align 4
  store i32 %v2_2298, i32* %v1_2290, align 4
  store i32 %v2_2290, i32* %arg1, align 4
  store i32 xor (i32 ptrtoint (i32* @global_var_14a1.1905 to i32), i32 ptrtoint ([3 x i8]* @3 to i32)), i32* @eax, align 8
  br i1 icmp eq (i32 xor (i32 ptrtoint (i32* @global_var_14a1.1905 to i32), i32 ptrtoint ([3 x i8]* @3 to i32)), i32 0), label %bb, label %dec_label_pc_22b3

bb:                                               ; preds = %dec_label_pc_2270
  %tmp103 = ptrtoint i32* %arg1 to i32
  %v3_22b1 = call i32 @function_22b8(i32 %arg2, i32 %tmp103)
  br label %dec_label_pc_22b3

dec_label_pc_22b3:                                ; preds = %bb, %dec_label_pc_2270
  %v4_22b1 = phi i32 [ %v3_22b1, %bb ], [ xor (i32 ptrtoint (i32* @global_var_14a1.1905 to i32), i32 ptrtoint ([3 x i8]* @3 to i32)), %dec_label_pc_2270 ]
  ret i32 %v4_22b1

; uselistorder directives
  uselistorder i32* %arg1, { 2, 0, 1 }
}

define i32 @function_22b8(i32 %arg1, i32 %arg2) local_unnamed_addr {
dec_label_pc_22b8:
  %v0_22b9 = load i32, i32* @eax, align 8
  ret i32 %v0_22b9
}

define i32 @_ZNK5boost6detail12shared_count9use_countEv(i32* %arg1) local_unnamed_addr {
dec_label_pc_22ba:
  %v2_22d4 = load i32, i32* %arg1, align 4
  %v1_22d6 = icmp eq i32 %v2_22d4, 0
  br i1 %v1_22d6, label %dec_label_pc_22ee, label %dec_label_pc_22da

dec_label_pc_22da:                                ; preds = %dec_label_pc_22ba
  %v2_22dd = load i32, i32* %arg1, align 4
  store i32 %v2_22dd, i32* @eax, align 8
  %v1_22e2 = call i32 @function_4434(i32 %v2_22dd)
  br label %dec_label_pc_22ee

dec_label_pc_22ee:                                ; preds = %dec_label_pc_22ba, %dec_label_pc_22da
  %storemerge = phi i32 [ %v1_22e2, %dec_label_pc_22da ], [ 0, %dec_label_pc_22ba ]
  store i32 %storemerge, i32* @eax, align 8
  br i1 icmp eq (i32 xor (i32 ptrtoint (i32* @global_var_14a1.1905 to i32), i32 ptrtoint ([3 x i8]* @3 to i32)), i32 0), label %bb, label %dec_label_pc_22fa

bb:                                               ; preds = %dec_label_pc_22ee
  %v1_22f8 = call i32 @function_22ff()
  br label %dec_label_pc_22fa

dec_label_pc_22fa:                                ; preds = %bb, %dec_label_pc_22ee
  %v2_22f8 = phi i32 [ %v1_22f8, %bb ], [ %storemerge, %dec_label_pc_22ee ]
  ret i32 %v2_22f8

; uselistorder directives
  uselistorder label %dec_label_pc_22ee, { 1, 0 }
}

define i32 @function_22ff() local_unnamed_addr {
dec_label_pc_22ff:
  %v0_2300 = load i32, i32* @eax, align 8
  ret i32 %v0_2300
}

define i32 @_ZNK5boost6detail12shared_count6uniqueEv(i32 %arg1) local_unnamed_addr {
dec_label_pc_2302:
  store i32 %arg1, i32* @eax, align 8
  %v1_231f = call i32 @function_45bc(i32 %arg1)
  %v10_2324 = icmp eq i32 %v1_231f, 1
  %v1_2327 = zext i1 %v10_2324 to i32
  %v3_2327 = and i32 %v1_231f, -256
  %v4_2327 = or i32 %v1_2327, %v3_2327
  store i32 %v4_2327, i32* @eax, align 8
  br i1 icmp eq (i32 xor (i32 ptrtoint (i32* @global_var_14a1.1905 to i32), i32 ptrtoint ([3 x i8]* @3 to i32)), i32 0), label %bb, label %dec_label_pc_2336

bb:                                               ; preds = %dec_label_pc_2302
  %v1_2334 = call i32 @function_233b()
  br label %dec_label_pc_2336

dec_label_pc_2336:                                ; preds = %bb, %dec_label_pc_2302
  %v2_2334 = phi i32 [ %v1_2334, %bb ], [ %v4_2327, %dec_label_pc_2302 ]
  ret i32 %v2_2334

; uselistorder directives
  uselistorder i32 %v1_231f, { 1, 0 }
  uselistorder i32 %arg1, { 1, 0 }
}

define i32 @function_233b() local_unnamed_addr {
dec_label_pc_233b:
  %v0_233c = load i32, i32* @eax, align 8
  ret i32 %v0_233c
}

define i32 @_ZNK5boost6detail12shared_count5emptyEv(i32* %arg1) local_unnamed_addr {
dec_label_pc_233e:
  %v2_2358 = load i32, i32* %arg1, align 4
  %v1_235a = icmp eq i32 %v2_2358, 0
  %v1_235c = zext i1 %v1_235a to i32
  %v3_235c = and i32 %v2_2358, -256
  %v4_235c = or i32 %v1_235c, %v3_235c
  store i32 %v4_235c, i32* @eax, align 8
  br i1 icmp eq (i32 xor (i32 ptrtoint (i32* @global_var_14a1.1905 to i32), i32 ptrtoint ([3 x i8]* @3 to i32)), i32 0), label %bb, label %dec_label_pc_236b

bb:                                               ; preds = %dec_label_pc_233e
  %tmp101 = ptrtoint i32* %arg1 to i32
  %v2_2369 = call i32 @function_2370(i32 %tmp101)
  br label %dec_label_pc_236b

dec_label_pc_236b:                                ; preds = %bb, %dec_label_pc_233e
  %v3_2369 = phi i32 [ %v2_2369, %bb ], [ %v4_235c, %dec_label_pc_233e ]
  ret i32 %v3_2369

; uselistorder directives
  uselistorder i32* %arg1, { 1, 0 }
}

define i32 @function_2370(i32 %arg1) local_unnamed_addr {
dec_label_pc_2370:
  %v0_2371 = load i32, i32* @eax, align 8
  ret i32 %v0_2371
}

define i32 @_ZN5boost6detail10weak_countC1Ev(i32* %arg1) local_unnamed_addr {
dec_label_pc_2372:
  store i32 0, i32* %arg1, align 4
  store i32 xor (i32 ptrtoint (i32* @global_var_14a1.1905 to i32), i32 ptrtoint ([3 x i8]* @3 to i32)), i32* @eax, align 8
  br i1 icmp eq (i32 xor (i32 ptrtoint (i32* @global_var_14a1.1905 to i32), i32 ptrtoint ([3 x i8]* @3 to i32)), i32 0), label %bb, label %dec_label_pc_239e

bb:                                               ; preds = %dec_label_pc_2372
  %tmp102 = ptrtoint i32* %arg1 to i32
  %v2_239c = call i32 @function_23a3(i32 %tmp102)
  br label %dec_label_pc_239e

dec_label_pc_239e:                                ; preds = %bb, %dec_label_pc_2372
  %v3_239c = phi i32 [ %v2_239c, %bb ], [ xor (i32 ptrtoint (i32* @global_var_14a1.1905 to i32), i32 ptrtoint ([3 x i8]* @3 to i32)), %dec_label_pc_2372 ]
  ret i32 %v3_239c

; uselistorder directives
  uselistorder i32* %arg1, { 1, 0 }
}

define i32 @function_23a3(i32 %arg1) local_unnamed_addr {
dec_label_pc_23a3:
  %v0_23a4 = load i32, i32* @eax, align 8
  ret i32 %v0_23a4
}

define i32 @_ZN5boost6detail10weak_countC1ERKNS0_12shared_countE(i32* %arg1, i32 %arg2) local_unnamed_addr {
dec_label_pc_23a6:
  %ebp.global-to-local = alloca i32, align 4
  %stack_var_-4 = alloca i32, align 4
  %v0_23a6 = load i32, i32* %ebp.global-to-local, align 4
  store i32 %v0_23a6, i32* %stack_var_-4, align 4
  %v4_23a6 = ptrtoint i32* %stack_var_-4 to i32
  store i32 %v4_23a6, i32* %ebp.global-to-local, align 4
  %v1_23c6 = inttoptr i32 %arg2 to i32*
  %v2_23c6 = load i32, i32* %v1_23c6, align 4
  store i32 %v2_23c6, i32* %arg1, align 4
  %v1_23d2 = icmp eq i32 %v2_23c6, 0
  br i1 %v1_23d2, label %dec_label_pc_23e3, label %dec_label_pc_23d6

dec_label_pc_23d6:                                ; preds = %dec_label_pc_23a6
  %v2_23d9 = load i32, i32* %arg1, align 4
  store i32 %v2_23d9, i32* @eax, align 8
  %v1_23de = call i32 @function_448c(i32 %v2_23d9)
  %v2_23f4.pre = load i32, i32* %stack_var_-4, align 4
  br label %dec_label_pc_23e3

dec_label_pc_23e3:                                ; preds = %dec_label_pc_23d6, %dec_label_pc_23a6
  %v2_23f4 = phi i32 [ %v2_23f4.pre, %dec_label_pc_23d6 ], [ %v0_23a6, %dec_label_pc_23a6 ]
  store i32 %v2_23f4, i32* %ebp.global-to-local, align 4
  ret i32 xor (i32 ptrtoint (i32* @global_var_14a1.1905 to i32), i32 ptrtoint ([3 x i8]* @3 to i32))
}

define i32 @_ZN5boost6detail10weak_countC1ERKS1_(i32* %arg1, i32 %arg2) local_unnamed_addr {
dec_label_pc_23f6:
  %ebp.global-to-local = alloca i32, align 4
  %stack_var_-4 = alloca i32, align 4
  %v0_23f6 = load i32, i32* %ebp.global-to-local, align 4
  store i32 %v0_23f6, i32* %stack_var_-4, align 4
  %v4_23f6 = ptrtoint i32* %stack_var_-4 to i32
  store i32 %v4_23f6, i32* %ebp.global-to-local, align 4
  %v1_2416 = inttoptr i32 %arg2 to i32*
  %v2_2416 = load i32, i32* %v1_2416, align 4
  store i32 %v2_2416, i32* %arg1, align 4
  %v1_2422 = icmp eq i32 %v2_2416, 0
  br i1 %v1_2422, label %dec_label_pc_2433, label %dec_label_pc_2426

dec_label_pc_2426:                                ; preds = %dec_label_pc_23f6
  %v2_2429 = load i32, i32* %arg1, align 4
  store i32 %v2_2429, i32* @eax, align 8
  %v1_242e = call i32 @function_44dc(i32 %v2_2429)
  %v2_2444.pre = load i32, i32* %stack_var_-4, align 4
  br label %dec_label_pc_2433

dec_label_pc_2433:                                ; preds = %dec_label_pc_2426, %dec_label_pc_23f6
  %v2_2444 = phi i32 [ %v2_2444.pre, %dec_label_pc_2426 ], [ %v0_23f6, %dec_label_pc_23f6 ]
  store i32 %v2_2444, i32* %ebp.global-to-local, align 4
  ret i32 xor (i32 ptrtoint (i32* @global_var_14a1.1905 to i32), i32 ptrtoint ([3 x i8]* @3 to i32))
}

define i32 @_ZN5boost6detail10weak_countD1Ev(i32* %arg1) local_unnamed_addr {
dec_label_pc_2446:
  %ebp.global-to-local = alloca i32, align 4
  %stack_var_-4 = alloca i32, align 4
  %v0_2446 = load i32, i32* %ebp.global-to-local, align 4
  store i32 %v0_2446, i32* %stack_var_-4, align 4
  %v4_2446 = ptrtoint i32* %stack_var_-4 to i32
  store i32 %v4_2446, i32* %ebp.global-to-local, align 4
  %v2_2460 = load i32, i32* %arg1, align 4
  %v1_2462 = icmp eq i32 %v2_2460, 0
  br i1 %v1_2462, label %dec_label_pc_2473, label %dec_label_pc_2466

dec_label_pc_2466:                                ; preds = %dec_label_pc_2446
  %v2_2469 = load i32, i32* %arg1, align 4
  store i32 %v2_2469, i32* @eax, align 8
  %v1_246e = call i32 @function_4564(i32 %v2_2469)
  %v2_2484.pre = load i32, i32* %stack_var_-4, align 4
  br label %dec_label_pc_2473

dec_label_pc_2473:                                ; preds = %dec_label_pc_2466, %dec_label_pc_2446
  %v2_2484 = phi i32 [ %v2_2484.pre, %dec_label_pc_2466 ], [ %v0_2446, %dec_label_pc_2446 ]
  store i32 %v2_2484, i32* %ebp.global-to-local, align 4
  ret i32 xor (i32 ptrtoint (i32* @global_var_14a1.1905 to i32), i32 ptrtoint ([3 x i8]* @3 to i32))
}

define i32 @_ZNK5boost6detail10weak_count9use_countEv(i32* %arg1) local_unnamed_addr {
dec_label_pc_2486:
  %v2_24a0 = load i32, i32* %arg1, align 4
  %v1_24a2 = icmp eq i32 %v2_24a0, 0
  br i1 %v1_24a2, label %dec_label_pc_24ba, label %dec_label_pc_24a6

dec_label_pc_24a6:                                ; preds = %dec_label_pc_2486
  %v2_24a9 = load i32, i32* %arg1, align 4
  store i32 %v2_24a9, i32* @eax, align 8
  %v1_24ae = call i32 @function_4600(i32 %v2_24a9)
  br label %dec_label_pc_24ba

dec_label_pc_24ba:                                ; preds = %dec_label_pc_2486, %dec_label_pc_24a6
  %storemerge = phi i32 [ %v1_24ae, %dec_label_pc_24a6 ], [ 0, %dec_label_pc_2486 ]
  store i32 %storemerge, i32* @eax, align 8
  br i1 icmp eq (i32 xor (i32 ptrtoint (i32* @global_var_14a1.1905 to i32), i32 ptrtoint ([3 x i8]* @3 to i32)), i32 0), label %bb, label %dec_label_pc_24c6

bb:                                               ; preds = %dec_label_pc_24ba
  %v1_24c4 = call i32 @function_24cb()
  br label %dec_label_pc_24c6

dec_label_pc_24c6:                                ; preds = %bb, %dec_label_pc_24ba
  %v2_24c4 = phi i32 [ %v1_24c4, %bb ], [ %storemerge, %dec_label_pc_24ba ]
  ret i32 %v2_24c4

; uselistorder directives
  uselistorder label %dec_label_pc_24ba, { 1, 0 }
}

define i32 @function_24cb() local_unnamed_addr {
dec_label_pc_24cb:
  %v0_24cc = load i32, i32* @eax, align 8
  ret i32 %v0_24cc
}

define i32 @_ZN5boost6detail12shared_countC1ERKNS0_10weak_countENS0_14sp_nothrow_tagE(i32* %arg1, i32 %arg2, i32 %arg3) local_unnamed_addr {
dec_label_pc_24ce:
  %v1_24f5 = inttoptr i32 %arg2 to i32*
  %v2_24f5 = load i32, i32* %v1_24f5, align 4
  store i32 %v2_24f5, i32* %arg1, align 4
  %v1_2501 = icmp eq i32 %v2_24f5, 0
  br i1 %v1_2501, label %dec_label_pc_2520, label %dec_label_pc_2505

dec_label_pc_2505:                                ; preds = %dec_label_pc_24ce
  %v2_2508 = load i32, i32* %arg1, align 4
  store i32 %v2_2508, i32* @eax, align 8
  %v1_250d = call i32 @function_450e(i32 %v2_2508)
  %v1_2512 = xor i32 %v1_250d, 1
  %v4_2512 = trunc i32 %v1_2512 to i8
  %v5_2515 = icmp eq i8 %v4_2512, 0
  br i1 %v5_2515, label %dec_label_pc_2520, label %dec_label_pc_2525

dec_label_pc_2520:                                ; preds = %dec_label_pc_2505, %dec_label_pc_24ce
  br label %dec_label_pc_2525

dec_label_pc_2525:                                ; preds = %dec_label_pc_2505, %dec_label_pc_2520
  %storemerge = phi i1 [ true, %dec_label_pc_2520 ], [ false, %dec_label_pc_2505 ]
  br i1 %storemerge, label %dec_label_pc_2532, label %dec_label_pc_2529

dec_label_pc_2529:                                ; preds = %dec_label_pc_2525
  store i32 0, i32* %arg1, align 4
  br label %dec_label_pc_2532

dec_label_pc_2532:                                ; preds = %dec_label_pc_2529, %dec_label_pc_2525
  store i32 xor (i32 ptrtoint (i32* @global_var_14a1.1905 to i32), i32 ptrtoint ([3 x i8]* @3 to i32)), i32* @eax, align 8
  br i1 icmp eq (i32 xor (i32 ptrtoint (i32* @global_var_14a1.1905 to i32), i32 ptrtoint ([3 x i8]* @3 to i32)), i32 0), label %bb, label %dec_label_pc_253e

bb:                                               ; preds = %dec_label_pc_2532
  %v1_253c = call i32 @function_2543()
  br label %dec_label_pc_253e

dec_label_pc_253e:                                ; preds = %bb, %dec_label_pc_2532
  %v2_253c = phi i32 [ %v1_253c, %bb ], [ xor (i32 ptrtoint (i32* @global_var_14a1.1905 to i32), i32 ptrtoint ([3 x i8]* @3 to i32)), %dec_label_pc_2532 ]
  ret i32 %v2_253c

; uselistorder directives
  uselistorder label %dec_label_pc_2525, { 1, 0 }
}

define i32 @function_2543() local_unnamed_addr {
dec_label_pc_2543:
  %v0_2544 = load i32, i32* @eax, align 8
  ret i32 %v0_2544
}

define i32 @_ZN5boost6detail26sp_enable_shared_from_thisEz() local_unnamed_addr {
dec_label_pc_2545:
  store i32 xor (i32 ptrtoint (i32* @global_var_14a1.1905 to i32), i32 ptrtoint ([3 x i8]* @3 to i32)), i32* @eax, align 8
  br i1 icmp eq (i32 xor (i32 ptrtoint (i32* @global_var_14a1.1905 to i32), i32 ptrtoint ([3 x i8]* @3 to i32)), i32 0), label %bb, label %dec_label_pc_2562

bb:                                               ; preds = %dec_label_pc_2545
  %v2_2560 = call i32 @function_2567(i32 ptrtoint (i32* @global_var_14a1.1905 to i32))
  br label %dec_label_pc_2562

dec_label_pc_2562:                                ; preds = %bb, %dec_label_pc_2545
  %v3_2560 = phi i32 [ %v2_2560, %bb ], [ xor (i32 ptrtoint (i32* @global_var_14a1.1905 to i32), i32 ptrtoint ([3 x i8]* @3 to i32)), %dec_label_pc_2545 ]
  ret i32 %v3_2560
}

define i32 @function_2567(i32 %arg1) local_unnamed_addr {
dec_label_pc_2567:
  %v0_2568 = load i32, i32* @eax, align 8
  ret i32 %v0_2568
}

define i32 @_ZN5boost12noncopyable_11noncopyableC1Ev(i32 %arg1) local_unnamed_addr {
dec_label_pc_256a:
  store i32 xor (i32 ptrtoint (i32* @global_var_14a1.1905 to i32), i32 ptrtoint ([3 x i8]* @3 to i32)), i32* @eax, align 8
  br i1 icmp eq (i32 xor (i32 ptrtoint (i32* @global_var_14a1.1905 to i32), i32 ptrtoint ([3 x i8]* @3 to i32)), i32 0), label %bb, label %dec_label_pc_258d

bb:                                               ; preds = %dec_label_pc_256a
  %v2_258b = call i32 @function_2592(i32 %arg1)
  br label %dec_label_pc_258d

dec_label_pc_258d:                                ; preds = %bb, %dec_label_pc_256a
  %v3_258b = phi i32 [ %v2_258b, %bb ], [ xor (i32 ptrtoint (i32* @global_var_14a1.1905 to i32), i32 ptrtoint ([3 x i8]* @3 to i32)), %dec_label_pc_256a ]
  ret i32 %v3_258b
}

define i32 @function_2592(i32 %arg1) local_unnamed_addr {
dec_label_pc_2592:
  %v0_2593 = load i32, i32* @eax, align 8
  ret i32 %v0_2593
}

define i32 @_ZN5boost12noncopyable_11noncopyableD1Ev(i32 %arg1) local_unnamed_addr {
dec_label_pc_2594:
  store i32 xor (i32 ptrtoint (i32* @global_var_14a1.1905 to i32), i32 ptrtoint ([3 x i8]* @3 to i32)), i32* @eax, align 8
  br i1 icmp eq (i32 xor (i32 ptrtoint (i32* @global_var_14a1.1905 to i32), i32 ptrtoint ([3 x i8]* @3 to i32)), i32 0), label %bb, label %dec_label_pc_25b7

bb:                                               ; preds = %dec_label_pc_2594
  %v2_25b5 = call i32 @function_25bc(i32 %arg1)
  br label %dec_label_pc_25b7

dec_label_pc_25b7:                                ; preds = %bb, %dec_label_pc_2594
  %v3_25b5 = phi i32 [ %v2_25b5, %bb ], [ xor (i32 ptrtoint (i32* @global_var_14a1.1905 to i32), i32 ptrtoint ([3 x i8]* @3 to i32)), %dec_label_pc_2594 ]
  ret i32 %v3_25b5
}

define i32 @function_25bc(i32 %arg1) local_unnamed_addr {
dec_label_pc_25bc:
  %v0_25bd = load i32, i32* @eax, align 8
  ret i32 %v0_25bd
}

define i32 @function_2748(i32 %arg1) local_unnamed_addr {
dec_label_pc_2748:
  %tmp = load i32, i32* @eax, align 8
  ret i32 %tmp
}

define i32 @function_389a(i32 %arg1) local_unnamed_addr {
dec_label_pc_389a:
  %tmp = load i32, i32* @eax, align 8
  ret i32 %tmp
}

define i32 @function_3e72(i32 %arg1) local_unnamed_addr {
dec_label_pc_3e72:
  %tmp = load i32, i32* @eax, align 8
  ret i32 %tmp
}

define i32 @function_3e9e(i32 %arg1, i32 %arg2) local_unnamed_addr {
dec_label_pc_3e9e:
  %tmp = load i32, i32* @eax, align 8
  ret i32 %tmp
}

define i32 @function_3ec2(i32 %arg1) local_unnamed_addr {
dec_label_pc_3ec2:
  %tmp = load i32, i32* @eax, align 8
  ret i32 %tmp
}

define i32 @function_3edd(i32 %arg1) local_unnamed_addr {
dec_label_pc_3edd:
  %tmp = load i32, i32* @eax, align 8
  ret i32 %tmp
}

define i32 @function_3f3e(i32 %arg1, i32 %arg2) local_unnamed_addr {
dec_label_pc_3f3e:
  %tmp = load i32, i32* @eax, align 8
  ret i32 %tmp
}

define i32 @function_3f50(i32 %arg1) local_unnamed_addr {
dec_label_pc_3f50:
  %tmp = load i32, i32* @eax, align 8
  ret i32 %tmp
}

define i32 @function_419c(i32 %arg1) local_unnamed_addr {
dec_label_pc_419c:
  %tmp = load i32, i32* @eax, align 8
  ret i32 %tmp
}

define i32 @function_4228(i32 %arg1) local_unnamed_addr {
dec_label_pc_4228:
  %tmp = load i32, i32* @eax, align 8
  ret i32 %tmp
}

define i32 @function_425e(i32 %arg1) local_unnamed_addr {
dec_label_pc_425e:
  %tmp = load i32, i32* @eax, align 8
  ret i32 %tmp
}

define i32 @function_4434(i32 %arg1) local_unnamed_addr {
dec_label_pc_4434:
  %tmp = load i32, i32* @eax, align 8
  ret i32 %tmp
}

define i32 @function_448c(i32 %arg1) local_unnamed_addr {
dec_label_pc_448c:
  %tmp = load i32, i32* @eax, align 8
  ret i32 %tmp
}

define i32 @function_44dc(i32 %arg1) local_unnamed_addr {
dec_label_pc_44dc:
  %tmp = load i32, i32* @eax, align 8
  ret i32 %tmp
}

define i32 @function_450e(i32 %arg1) local_unnamed_addr {
dec_label_pc_450e:
  %tmp = load i32, i32* @eax, align 8
  ret i32 %tmp
}

define i32 @function_4564(i32 %arg1) local_unnamed_addr {
dec_label_pc_4564:
  %tmp = load i32, i32* @eax, align 8
  ret i32 %tmp
}

define i32 @function_45bc(i32 %arg1) local_unnamed_addr {
dec_label_pc_45bc:
  %tmp = load i32, i32* @eax, align 8
  ret i32 %tmp
}

define i32 @function_4600(i32 %arg1) local_unnamed_addr {
dec_label_pc_4600:
  %tmp = load i32, i32* @eax, align 8
  ret i32 %tmp
}

define i32 @_ZN5boost9exceptionC1ERKS0_(i32* %arg1, i32 %arg2) local_unnamed_addr {
dec_label_pc_e06c:
  %tmp103 = ptrtoint i32* %arg1 to i32
  store i32 ptrtoint (i32* @global_var_33ca4.1920 to i32), i32* %arg1, align 4
  %v1_e095 = add i32 %arg2, 4
  %v1_e09b = add i32 %tmp103, 4
  %v2_e0a5 = call i32 @function_1e22c(i32 %v1_e09b, i32 %v1_e095)
  %v1_e0ad = add i32 %arg2, 8
  %v2_e0ad = inttoptr i32 %v1_e0ad to i32*
  %v3_e0ad = load i32, i32* %v2_e0ad, align 4
  %v2_e0b3 = add i32 %tmp103, 8
  %v3_e0b3 = inttoptr i32 %v2_e0b3 to i32*
  store i32 %v3_e0ad, i32* %v3_e0b3, align 4
  %v1_e0b9 = add i32 %arg2, 12
  %v2_e0b9 = inttoptr i32 %v1_e0b9 to i32*
  %v3_e0b9 = load i32, i32* %v2_e0b9, align 4
  %v2_e0bf = add i32 %tmp103, 12
  %v3_e0bf = inttoptr i32 %v2_e0bf to i32*
  store i32 %v3_e0b9, i32* %v3_e0bf, align 4
  %v1_e0c5 = add i32 %arg2, ptrtoint (i32* @global_var_10.1921 to i32)
  %v2_e0c5 = inttoptr i32 %v1_e0c5 to i32*
  %v3_e0c5 = load i32, i32* %v2_e0c5, align 4
  %v2_e0cb = add i32 %tmp103, ptrtoint (i32* @global_var_10.1921 to i32)
  %v3_e0cb = inttoptr i32 %v2_e0cb to i32*
  store i32 %v3_e0c5, i32* %v3_e0cb, align 4
  store i32 xor (i32 ptrtoint (i32* @global_var_14a1.1905 to i32), i32 ptrtoint ([3 x i8]* @3 to i32)), i32* @eax, align 8
  br i1 icmp eq (i32 xor (i32 ptrtoint (i32* @global_var_14a1.1905 to i32), i32 ptrtoint ([3 x i8]* @3 to i32)), i32 0), label %bb, label %dec_label_pc_e0da

bb:                                               ; preds = %dec_label_pc_e06c
  %v1_e0d8 = call i32 @function_e0df()
  br label %dec_label_pc_e0da

dec_label_pc_e0da:                                ; preds = %bb, %dec_label_pc_e06c
  %v2_e0d8 = phi i32 [ %v1_e0d8, %bb ], [ xor (i32 ptrtoint (i32* @global_var_14a1.1905 to i32), i32 ptrtoint ([3 x i8]* @3 to i32)), %dec_label_pc_e06c ]
  ret i32 %v2_e0d8

; uselistorder directives
  uselistorder i32 %tmp103, { 3, 2, 1, 0 }
  uselistorder i32 %arg2, { 3, 2, 1, 0 }
}

define i32 @function_e0df() local_unnamed_addr {
dec_label_pc_e0df:
  %v0_e0e0 = load i32, i32* @eax, align 8
  ret i32 %v0_e0e0
}

define i32 @_ZN5boost10shared_ptrIKNS_16exception_detail10clone_baseEED1Ev(i32 %arg1) local_unnamed_addr {
dec_label_pc_e0e2:
  %v1_e0fc = add i32 %arg1, 4
  store i32 %v1_e0fc, i32* @eax, align 8
  %v1_e102 = call i32 @function_102c2(i32 %v1_e0fc)
  store i32 xor (i32 ptrtoint (i32* @global_var_14a1.1905 to i32), i32 ptrtoint ([3 x i8]* @3 to i32)), i32* @eax, align 8
  br i1 icmp eq (i32 xor (i32 ptrtoint (i32* @global_var_14a1.1905 to i32), i32 ptrtoint ([3 x i8]* @3 to i32)), i32 0), label %bb, label %dec_label_pc_e113

bb:                                               ; preds = %dec_label_pc_e0e2
  %v1_e111 = call i32 @function_e118()
  br label %dec_label_pc_e113

dec_label_pc_e113:                                ; preds = %bb, %dec_label_pc_e0e2
  %v2_e111 = phi i32 [ %v1_e111, %bb ], [ xor (i32 ptrtoint (i32* @global_var_14a1.1905 to i32), i32 ptrtoint ([3 x i8]* @3 to i32)), %dec_label_pc_e0e2 ]
  ret i32 %v2_e111
}

define i32 @function_e118() local_unnamed_addr {
dec_label_pc_e118:
  %v0_e119 = load i32, i32* @eax, align 8
  ret i32 %v0_e119
}

define i32 @_ZN5boost10shared_ptrIKNS_16exception_detail10clone_baseEEC1ERKS4_(i32* %arg1, i32 %arg2) local_unnamed_addr {
dec_label_pc_e11a:
  %tmp103 = ptrtoint i32* %arg1 to i32
  %v1_e13a = inttoptr i32 %arg2 to i32*
  %v2_e13a = load i32, i32* %v1_e13a, align 4
  store i32 %v2_e13a, i32* %arg1, align 4
  %v1_e144 = add i32 %arg2, 4
  store i32 %v1_e144, i32* @edx, align 8
  %v1_e14a = add i32 %tmp103, 4
  store i32 %v1_e14a, i32* @eax, align 8
  %v2_e154 = call i32 @function_1033a(i32 %v1_e14a, i32 %v1_e144)
  store i32 xor (i32 ptrtoint (i32* @global_var_14a1.1905 to i32), i32 ptrtoint ([3 x i8]* @3 to i32)), i32* @eax, align 8
  br i1 icmp eq (i32 xor (i32 ptrtoint (i32* @global_var_14a1.1905 to i32), i32 ptrtoint ([3 x i8]* @3 to i32)), i32 0), label %bb, label %dec_label_pc_e165

bb:                                               ; preds = %dec_label_pc_e11a
  %v1_e163 = call i32 @function_e16a()
  br label %dec_label_pc_e165

dec_label_pc_e165:                                ; preds = %bb, %dec_label_pc_e11a
  %v2_e163 = phi i32 [ %v1_e163, %bb ], [ xor (i32 ptrtoint (i32* @global_var_14a1.1905 to i32), i32 ptrtoint ([3 x i8]* @3 to i32)), %dec_label_pc_e11a ]
  ret i32 %v2_e163

; uselistorder directives
  uselistorder i32 %arg2, { 1, 0 }
}

define i32 @function_e16a() local_unnamed_addr {
dec_label_pc_e16a:
  %v0_e16b = load i32, i32* @eax, align 8
  ret i32 %v0_e16b
}

define i32 @_ZN5boost13function_baseC1Ev(i32* %arg1) local_unnamed_addr {
dec_label_pc_e16c:
  store i32 0, i32* %arg1, align 4
  store i32 xor (i32 ptrtoint (i32* @global_var_14a1.1905 to i32), i32 ptrtoint ([3 x i8]* @3 to i32)), i32* @eax, align 8
  br i1 icmp eq (i32 xor (i32 ptrtoint (i32* @global_var_14a1.1905 to i32), i32 ptrtoint ([3 x i8]* @3 to i32)), i32 0), label %bb, label %dec_label_pc_e198

bb:                                               ; preds = %dec_label_pc_e16c
  %tmp102 = ptrtoint i32* %arg1 to i32
  %v2_e196 = call i32 @function_e19d(i32 %tmp102)
  br label %dec_label_pc_e198

dec_label_pc_e198:                                ; preds = %bb, %dec_label_pc_e16c
  %v3_e196 = phi i32 [ %v2_e196, %bb ], [ xor (i32 ptrtoint (i32* @global_var_14a1.1905 to i32), i32 ptrtoint ([3 x i8]* @3 to i32)), %dec_label_pc_e16c ]
  ret i32 %v3_e196

; uselistorder directives
  uselistorder i32* %arg1, { 1, 0 }
}

define i32 @function_e19d(i32 %arg1) local_unnamed_addr {
dec_label_pc_e19d:
  %v0_e19e = load i32, i32* @eax, align 8
  ret i32 %v0_e19e
}

define i32 @_ZNK5boost13function_base5emptyEv(i32* %arg1) local_unnamed_addr {
dec_label_pc_e1a0:
  %v2_e1ba = load i32, i32* %arg1, align 4
  %v1_e1bc = icmp eq i32 %v2_e1ba, 0
  %v1_e1be = zext i1 %v1_e1bc to i32
  %v3_e1be = and i32 %v2_e1ba, -256
  %v4_e1be = or i32 %v1_e1be, %v3_e1be
  store i32 %v4_e1be, i32* @eax, align 8
  br i1 icmp eq (i32 xor (i32 ptrtoint (i32* @global_var_14a1.1905 to i32), i32 ptrtoint ([3 x i8]* @3 to i32)), i32 0), label %bb, label %dec_label_pc_e1cd

bb:                                               ; preds = %dec_label_pc_e1a0
  %tmp101 = ptrtoint i32* %arg1 to i32
  %v2_e1cb = call i32 @function_e1d2(i32 %tmp101)
  br label %dec_label_pc_e1cd

dec_label_pc_e1cd:                                ; preds = %bb, %dec_label_pc_e1a0
  %v3_e1cb = phi i32 [ %v2_e1cb, %bb ], [ %v4_e1be, %dec_label_pc_e1a0 ]
  ret i32 %v3_e1cb

; uselistorder directives
  uselistorder i32* %arg1, { 1, 0 }
}

define i32 @function_e1d2(i32 %arg1) local_unnamed_addr {
dec_label_pc_e1d2:
  %v0_e1d3 = load i32, i32* @eax, align 8
  ret i32 %v0_e1d3
}

define i32 @_ZNK5boost13function_base28has_trivial_copy_and_destroyEv(i32* %arg1) local_unnamed_addr {
dec_label_pc_e1d4:
  %v2_e1ee = load i32, i32* %arg1, align 4
  %v1_e1f0 = urem i32 %v2_e1ee, 2
  store i32 %v1_e1f0, i32* @eax, align 8
  br i1 icmp eq (i32 xor (i32 ptrtoint (i32* @global_var_14a1.1905 to i32), i32 ptrtoint ([3 x i8]* @3 to i32)), i32 0), label %bb, label %dec_label_pc_e1ff

bb:                                               ; preds = %dec_label_pc_e1d4
  %tmp100 = ptrtoint i32* %arg1 to i32
  %v2_e1fd = call i32 @function_e204(i32 %tmp100)
  br label %dec_label_pc_e1ff

dec_label_pc_e1ff:                                ; preds = %bb, %dec_label_pc_e1d4
  %v3_e1fd = phi i32 [ %v2_e1fd, %bb ], [ %v1_e1f0, %dec_label_pc_e1d4 ]
  ret i32 %v3_e1fd

; uselistorder directives
  uselistorder i32 %v1_e1f0, { 1, 0 }
  uselistorder i32* %arg1, { 1, 0 }
}

define i32 @function_e204(i32 %arg1) local_unnamed_addr {
dec_label_pc_e204:
  %v0_e205 = load i32, i32* @eax, align 8
  ret i32 %v0_e205
}

define i32 @_ZN5boost17bad_function_callC1Ev(i32 %arg1) local_unnamed_addr {
dec_label_pc_e206:
  %stack_var_-17 = alloca i32, align 4
  %v2_e21e = ptrtoint i32* %stack_var_-17 to i32
  ret i32 %v2_e21e
}

define i32 @function_e26a() local_unnamed_addr {
dec_label_pc_e26a:
  %eax.global-to-local = alloca i32, align 4
  %ebx.global-to-local = alloca i32, align 4
  %ecx.global-to-local = alloca i32, align 4
  %v0_e26a = load i32, i32* %ebx.global-to-local, align 8
  %v1_e26a = add i32 %v0_e26a, 13100101
  %v2_e26a = inttoptr i32 %v1_e26a to i32*
  %v3_e26a = load i32, i32* %v2_e26a, align 4
  %v4_e26a = add i32 %v3_e26a, -1
  store i32 %v4_e26a, i32* %v2_e26a, align 4
  %v3_e271 = load i32, i32* %ebx.global-to-local, align 8
  %v1_e273 = add i32 %v3_e271, 862319685
  %v2_e273 = inttoptr i32 %v1_e273 to i8*
  %v3_e273 = load i8, i8* %v2_e273, align 1
  %v4_e273 = load i32, i32* %ecx.global-to-local, align 4
  %v5_e273 = trunc i32 %v4_e273 to i8
  %v6_e273 = add i8 %v5_e273, %v3_e273
  store i8 %v6_e273, i8* %v2_e273, align 1
  %v0_e279 = load i32, i32* %eax.global-to-local, align 8
  %v1_e279 = add i32 %v0_e279, ptrtoint (i8** @global_var_14.1904 to i32)
  %v10_e279 = icmp eq i32 %v1_e279, 0
  store i32 %v1_e279, i32* @eax, align 8
  br i1 %v10_e279, label %bb, label %dec_label_pc_e280

bb:                                               ; preds = %dec_label_pc_e26a
  %v1_e27e = call i32 @function_e2ad()
  store i32 %v1_e27e, i32* @eax, align 8
  br label %dec_label_pc_e280

dec_label_pc_e280:                                ; preds = %bb, %dec_label_pc_e26a
  %v0_e280 = call i32 @function_e2a8()
  store i32 %v0_e280, i32* %eax.global-to-local, align 8
  ret i32 %v0_e280
}

define i32 @function_e283() local_unnamed_addr {
dec_label_pc_e283:
  %eax.global-to-local = alloca i32, align 4
  %v0_e283 = load i32, i32* %eax.global-to-local, align 8
  ret i32 %v0_e283
}

define i32 @function_e28f() local_unnamed_addr {
dec_label_pc_e28f:
  %v0_e28f = call i32 @function_e293()
  ret i32 %v0_e28f
}

define i32 @function_e291() local_unnamed_addr {
dec_label_pc_e291:
  %eax.global-to-local = alloca i32, align 4
  %v0_e291 = load i32, i32* %eax.global-to-local, align 8
  ret i32 %v0_e291
}

define i32 @function_e293() local_unnamed_addr {
dec_label_pc_e293:
  %v0_e293 = load i32, i32* @ebp, align 4
  %v1_e293 = add i32 %v0_e293, -13
  ret i32 %v1_e293
}

define i32 @function_e2a8() local_unnamed_addr {
dec_label_pc_e2a8:
  %tmp = load i32, i32* @eax, align 8
  ret i32 %tmp
}

define i32 @function_e2ad() local_unnamed_addr {
dec_label_pc_e2ad:
  %v0_e2b2 = load i32, i32* @eax, align 8
  ret i32 %v0_e2b2
}

define i32 @_ZN5boost6system14error_categoryD1Ev(i32* %arg1) local_unnamed_addr {
dec_label_pc_e2b4:
  %tmp99 = ptrtoint i32* %arg1 to i32
  store i32 ptrtoint (i32* @global_var_33ba4.1924 to i32), i32* %arg1, align 4
  store i32 %tmp99, i32* @eax, align 8
  %v1_e2da = call i32 @function_10848(i32 %tmp99)
  %v1_e2e9 = call i32 @function_e2f6()
  ret i32 %tmp99
}

define i32 @function_e2f6() local_unnamed_addr {
dec_label_pc_e2f6:
  %v0_e2f6 = load i32, i32* @ebp, align 4
  %v1_e2f6 = add i32 %v0_e2f6, -12
  %v2_e2f6 = inttoptr i32 %v1_e2f6 to i32*
  %v3_e2f6 = load i32, i32* %v2_e2f6, align 4
  %v3_e2f9 = xor i32 %v3_e2f6, ptrtoint ([3 x i8]* @3 to i32)
  %v4_e2f9 = icmp eq i32 %v3_e2f9, 0
  store i32 %v3_e2f9, i32* @eax, align 8
  br i1 %v4_e2f9, label %bb, label %dec_label_pc_e302

bb:                                               ; preds = %dec_label_pc_e2f6
  %v1_e300 = call i32 @function_e307()
  br label %dec_label_pc_e302

dec_label_pc_e302:                                ; preds = %bb, %dec_label_pc_e2f6
  %v2_e300 = phi i32 [ %v1_e300, %bb ], [ %v3_e2f9, %dec_label_pc_e2f6 ]
  ret i32 %v2_e300
}

define i32 @function_e307() local_unnamed_addr {
dec_label_pc_e307:
  %v0_e308 = load i32, i32* @eax, align 8
  ret i32 %v0_e308
}

define i32 @_ZN5boost6system14error_categoryD0Ev(i32 %arg1) local_unnamed_addr {
dec_label_pc_e30a:
  %v1_e327 = call i32 @function_1c5be(i32 %arg1)
  ret i32 %arg1
}

define i32 @function_e336() local_unnamed_addr {
dec_label_pc_e336:
  %eax.global-to-local = alloca i32, align 4
  %ebx.global-to-local = alloca i32, align 4
  %v0_e336 = load i32, i32* %ebx.global-to-local, align 8
  %v1_e336 = add i32 %v0_e336, 862319685
  %v2_e336 = inttoptr i32 %v1_e336 to i32*
  %v3_e336 = load i32, i32* %v2_e336, align 4
  %v4_e336 = add i32 %v3_e336, -1
  store i32 %v4_e336, i32* %v2_e336, align 4
  %v0_e33c = load i32, i32* %eax.global-to-local, align 8
  %v1_e33c = add i32 %v0_e33c, ptrtoint (i8** @global_var_14.1904 to i32)
  store i32 %v1_e33c, i32* %eax.global-to-local, align 8
  ret i32 %v1_e33c
}

define i32 @_ZNK5boost6system14error_categoryeqERKS1_(i32 %arg1, i32 %arg2) local_unnamed_addr {
dec_label_pc_e34a:
  %v15_e36a = icmp eq i32 %arg1, %arg2
  %v1_e36d = zext i1 %v15_e36a to i32
  %v3_e36d = and i32 %arg1, -256
  %v4_e36d = or i32 %v1_e36d, %v3_e36d
  store i32 %v4_e36d, i32* @eax, align 8
  br i1 icmp eq (i32 xor (i32 ptrtoint (i32* @global_var_14a1.1905 to i32), i32 ptrtoint ([3 x i8]* @3 to i32)), i32 0), label %bb, label %dec_label_pc_e37c

bb:                                               ; preds = %dec_label_pc_e34a
  %v3_e37a = call i32 @function_e381(i32 %arg2, i32 %arg1)
  br label %dec_label_pc_e37c

dec_label_pc_e37c:                                ; preds = %bb, %dec_label_pc_e34a
  %v4_e37a = phi i32 [ %v3_e37a, %bb ], [ %v4_e36d, %dec_label_pc_e34a ]
  ret i32 %v4_e37a

; uselistorder directives
  uselistorder i32 %arg2, { 1, 0 }
  uselistorder i32 %arg1, { 2, 1, 0 }
}

define i32 @function_e381(i32 %arg1, i32 %arg2) local_unnamed_addr {
dec_label_pc_e381:
  %v0_e382 = load i32, i32* @eax, align 8
  ret i32 %v0_e382
}

define i32 @_ZN5boost6system15error_conditionC1EiRKNS0_14error_categoryE(i32* %arg1, i32 %arg2, i32 %arg3) local_unnamed_addr {
dec_label_pc_e384:
  %tmp104 = ptrtoint i32* %arg1 to i32
  store i32 %arg2, i32* %arg1, align 4
  %v2_e3b5 = add i32 %tmp104, 4
  %v3_e3b5 = inttoptr i32 %v2_e3b5 to i32*
  store i32 %arg3, i32* %v3_e3b5, align 4
  store i32 xor (i32 ptrtoint (i32* @global_var_14a1.1905 to i32), i32 ptrtoint ([3 x i8]* @3 to i32)), i32* @eax, align 8
  br i1 icmp eq (i32 xor (i32 ptrtoint (i32* @global_var_14a1.1905 to i32), i32 ptrtoint ([3 x i8]* @3 to i32)), i32 0), label %bb, label %dec_label_pc_e3c4

bb:                                               ; preds = %dec_label_pc_e384
  %v4_e3c2 = call i32 @function_e3c9(i32 %arg3, i32 %arg2, i32 %tmp104)
  br label %dec_label_pc_e3c4

dec_label_pc_e3c4:                                ; preds = %bb, %dec_label_pc_e384
  %v5_e3c2 = phi i32 [ %v4_e3c2, %bb ], [ xor (i32 ptrtoint (i32* @global_var_14a1.1905 to i32), i32 ptrtoint ([3 x i8]* @3 to i32)), %dec_label_pc_e384 ]
  ret i32 %v5_e3c2
}

define i32 @function_e3c9(i32 %arg1, i32 %arg2, i32 %arg3) local_unnamed_addr {
dec_label_pc_e3c9:
  %v0_e3ca = load i32, i32* @eax, align 8
  ret i32 %v0_e3ca
}

define i32 @_ZN5boost6systemeqERKNS0_15error_conditionES3_(i32* %arg1, i32 %arg2) local_unnamed_addr {
dec_label_pc_e3cb:
  %tmp102 = ptrtoint i32* %arg1 to i32
  %v1_e3eb = add i32 %tmp102, 4
  %v2_e3eb = inttoptr i32 %v1_e3eb to i32*
  %v3_e3eb = load i32, i32* %v2_e3eb, align 4
  %v1_e3f1 = add i32 %arg2, 4
  %v2_e3f1 = inttoptr i32 %v1_e3f1 to i32*
  %v3_e3f1 = load i32, i32* %v2_e3f1, align 4
  %v12_e3f4 = icmp eq i32 %v3_e3eb, %v3_e3f1
  %v1_e3f6 = icmp eq i1 %v12_e3f4, false
  br i1 %v1_e3f6, label %dec_label_pc_e40d, label %dec_label_pc_e3f8

dec_label_pc_e3f8:                                ; preds = %dec_label_pc_e3cb
  %v2_e3fb = load i32, i32* %arg1, align 4
  %v1_e400 = inttoptr i32 %arg2 to i32*
  %v2_e400 = load i32, i32* %v1_e400, align 4
  %v12_e402 = icmp eq i32 %v2_e3fb, %v2_e400
  %v1_e404 = icmp eq i1 %v12_e402, false
  br i1 %v1_e404, label %dec_label_pc_e40d, label %dec_label_pc_e412

dec_label_pc_e40d:                                ; preds = %dec_label_pc_e3f8, %dec_label_pc_e3cb
  br label %dec_label_pc_e412

dec_label_pc_e412:                                ; preds = %dec_label_pc_e3f8, %dec_label_pc_e40d
  %storemerge = phi i32 [ 0, %dec_label_pc_e40d ], [ 1, %dec_label_pc_e3f8 ]
  store i32 %storemerge, i32* @eax, align 8
  br i1 icmp eq (i32 xor (i32 ptrtoint (i32* @global_var_14a1.1905 to i32), i32 ptrtoint ([3 x i8]* @3 to i32)), i32 0), label %bb, label %dec_label_pc_e41e

bb:                                               ; preds = %dec_label_pc_e412
  %v1_e41c = call i32 @function_e423()
  br label %dec_label_pc_e41e

dec_label_pc_e41e:                                ; preds = %bb, %dec_label_pc_e412
  %v2_e41c = phi i32 [ %v1_e41c, %bb ], [ %storemerge, %dec_label_pc_e412 ]
  ret i32 %v2_e41c

; uselistorder directives
  uselistorder label %dec_label_pc_e412, { 1, 0 }
}

define i32 @function_e423() local_unnamed_addr {
dec_label_pc_e423:
  %v0_e424 = load i32, i32* @eax, align 8
  ret i32 %v0_e424
}

define i32 @_ZNK5boost6system10error_code5valueEv(i32* %arg1) local_unnamed_addr {
dec_label_pc_e426:
  %v2_e440 = load i32, i32* %arg1, align 4
  store i32 %v2_e440, i32* @eax, align 8
  br i1 icmp eq (i32 xor (i32 ptrtoint (i32* @global_var_14a1.1905 to i32), i32 ptrtoint ([3 x i8]* @3 to i32)), i32 0), label %bb, label %dec_label_pc_e44e

bb:                                               ; preds = %dec_label_pc_e426
  %tmp100 = ptrtoint i32* %arg1 to i32
  %v2_e44c = call i32 @function_e453(i32 %tmp100)
  br label %dec_label_pc_e44e

dec_label_pc_e44e:                                ; preds = %bb, %dec_label_pc_e426
  %v3_e44c = phi i32 [ %v2_e44c, %bb ], [ %v2_e440, %dec_label_pc_e426 ]
  ret i32 %v3_e44c

; uselistorder directives
  uselistorder i32* %arg1, { 1, 0 }
}

define i32 @function_e453(i32 %arg1) local_unnamed_addr {
dec_label_pc_e453:
  %v0_e454 = load i32, i32* @eax, align 8
  ret i32 %v0_e454
}

define i32 @_ZNK5boost6system10error_code8categoryEv(i32 %arg1) local_unnamed_addr {
dec_label_pc_e456:
  %v1_e470 = add i32 %arg1, 4
  %v2_e470 = inttoptr i32 %v1_e470 to i32*
  %v3_e470 = load i32, i32* %v2_e470, align 4
  store i32 %v3_e470, i32* @eax, align 8
  br i1 icmp eq (i32 xor (i32 ptrtoint (i32* @global_var_14a1.1905 to i32), i32 ptrtoint ([3 x i8]* @3 to i32)), i32 0), label %bb, label %dec_label_pc_e47f

bb:                                               ; preds = %dec_label_pc_e456
  %v2_e47d = call i32 @function_e484(i32 %arg1)
  br label %dec_label_pc_e47f

dec_label_pc_e47f:                                ; preds = %bb, %dec_label_pc_e456
  %v3_e47d = phi i32 [ %v2_e47d, %bb ], [ %v3_e470, %dec_label_pc_e456 ]
  ret i32 %v3_e47d
}

define i32 @function_e484(i32 %arg1) local_unnamed_addr {
dec_label_pc_e484:
  %v0_e485 = load i32, i32* @eax, align 8
  ret i32 %v0_e485
}

define i32 @_ZNK5boost6system10error_code7messageEv(i32 %arg1, i32 %arg2) local_unnamed_addr {
dec_label_pc_e486:
  %v1_e4a7 = add i32 %arg2, 4
  %v2_e4a7 = inttoptr i32 %v1_e4a7 to i32*
  store i32 %arg2, i32* @eax, align 8
  %v1_e4b7 = call i32 @function_1c8ac(i32 %arg2)
  %v3_e4bf = load i32, i32* %v2_e4a7, align 4
  store i32 %arg1, i32* @eax, align 8
  br i1 icmp eq (i32 xor (i32 ptrtoint (i32* @global_var_14a1.1905 to i32), i32 ptrtoint ([3 x i8]* @3 to i32)), i32 0), label %bb, label %dec_label_pc_e4e4

bb:                                               ; preds = %dec_label_pc_e486
  %v4_e4e2 = call i32 @function_e4e9(i32 %arg1, i32 %v3_e4bf, i32 %v1_e4b7)
  br label %dec_label_pc_e4e4

dec_label_pc_e4e4:                                ; preds = %bb, %dec_label_pc_e486
  %v5_e4e2 = phi i32 [ %v4_e4e2, %bb ], [ %arg1, %dec_label_pc_e486 ]
  ret i32 %v5_e4e2

; uselistorder directives
  uselistorder i32 %arg2, { 2, 1, 0 }
}

define i32 @function_e4e9(i32 %arg1, i32 %arg2, i32 %arg3) local_unnamed_addr {
dec_label_pc_e4e9:
  %v0_e4ed = load i32, i32* @eax, align 8
  ret i32 %v0_e4ed
}

define i32 @_ZNK5boost6system14error_category23default_error_conditionEi(i32 %arg1, i32 %arg2, i32 %arg3) local_unnamed_addr {
dec_label_pc_e4f0:
  store i32 %arg1, i32* @eax, align 8
  %v3_e527 = call i32 @function_1c874(i32 %arg1, i32 %arg3, i32 %arg2)
  store i32 %arg1, i32* @eax, align 8
  br i1 icmp eq (i32 xor (i32 ptrtoint (i32* @global_var_14a1.1905 to i32), i32 ptrtoint ([3 x i8]* @3 to i32)), i32 0), label %bb, label %dec_label_pc_e53b

bb:                                               ; preds = %dec_label_pc_e4f0
  %v1_e539 = call i32 @function_e540()
  br label %dec_label_pc_e53b

dec_label_pc_e53b:                                ; preds = %bb, %dec_label_pc_e4f0
  %v2_e539 = phi i32 [ %v1_e539, %bb ], [ %arg1, %dec_label_pc_e4f0 ]
  ret i32 %v2_e539

; uselistorder directives
  uselistorder i32 %arg1, { 0, 3, 2, 1 }
}

define i32 @function_e540() local_unnamed_addr {
dec_label_pc_e540:
  %v0_e541 = load i32, i32* @eax, align 8
  ret i32 %v0_e541
}

define i32 @_ZNK5boost6system14error_category10equivalentEiRKNS0_15error_conditionE(i32* %arg1, i32 %arg2, i32 %arg3) local_unnamed_addr {
dec_label_pc_e544:
  %stack_var_-24 = alloca i32, align 4
  %v2_e571 = ptrtoint i32* %stack_var_-24 to i32
  ret i32 %v2_e571
}

define i32 @_ZNK5boost6system14error_category10equivalentERKNS0_10error_codeEi(i8 %arg1, i32 %arg2, i32 %arg3) local_unnamed_addr {
dec_label_pc_e5b0:
  %v5_e5ed = icmp eq i8 %arg1, 0
  br i1 %v5_e5ed, label %dec_label_pc_e608, label %dec_label_pc_e5f1

dec_label_pc_e5f1:                                ; preds = %dec_label_pc_e5b0
  %v15_e5fc = icmp eq i32 %arg2, %arg3
  %v1_e5ff = icmp eq i1 %v15_e5fc, false
  br i1 %v1_e5ff, label %dec_label_pc_e608, label %dec_label_pc_e60d

dec_label_pc_e608:                                ; preds = %dec_label_pc_e5f1, %dec_label_pc_e5b0
  br label %dec_label_pc_e60d

dec_label_pc_e60d:                                ; preds = %dec_label_pc_e5f1, %dec_label_pc_e608
  %storemerge = phi i32 [ 0, %dec_label_pc_e608 ], [ 1, %dec_label_pc_e5f1 ]
  store i32 %storemerge, i32* @eax, align 8
  br i1 icmp eq (i32 xor (i32 ptrtoint (i32* @global_var_14a1.1905 to i32), i32 ptrtoint ([3 x i8]* @3 to i32)), i32 0), label %bb, label %dec_label_pc_e619

bb:                                               ; preds = %dec_label_pc_e60d
  %v1_e617 = call i32 @function_e61e()
  br label %dec_label_pc_e619

dec_label_pc_e619:                                ; preds = %bb, %dec_label_pc_e60d
  %v2_e617 = phi i32 [ %v1_e617, %bb ], [ %storemerge, %dec_label_pc_e60d ]
  ret i32 %v2_e617

; uselistorder directives
  uselistorder label %dec_label_pc_e60d, { 1, 0 }
}

define i32 @function_e61e() local_unnamed_addr {
dec_label_pc_e61e:
  %v0_e61f = load i32, i32* @eax, align 8
  ret i32 %v0_e61f
}

define i32 @_ZN5boost6system12system_errorD1Ev(i32* %arg1) {
dec_label_pc_e620:
  %tmp99 = ptrtoint i32* %arg1 to i32
  store i32 ptrtoint (%vtable_33b8c_type* @global_var_33b8c.1925 to i32), i32* %arg1, align 4
  ret i32 %tmp99
}

define i32 @function_e672() local_unnamed_addr {
dec_label_pc_e672:
  %v0_e672 = call i32 @function_e69c()
  ret i32 %v0_e672
}

define i32 @function_e69c() local_unnamed_addr {
dec_label_pc_e69c:
  %v0_e69c = load i32, i32* @ebp, align 4
  %v1_e69c = add i32 %v0_e69c, -12
  %v2_e69c = inttoptr i32 %v1_e69c to i32*
  %v3_e69c = load i32, i32* %v2_e69c, align 4
  %v3_e69f = xor i32 %v3_e69c, ptrtoint ([3 x i8]* @3 to i32)
  %v4_e69f = icmp eq i32 %v3_e69f, 0
  store i32 %v3_e69f, i32* @eax, align 8
  br i1 %v4_e69f, label %bb, label %dec_label_pc_e6a8

bb:                                               ; preds = %dec_label_pc_e69c
  %v1_e6a6 = call i32 @function_e6ad()
  br label %dec_label_pc_e6a8

dec_label_pc_e6a8:                                ; preds = %bb, %dec_label_pc_e69c
  %v2_e6a6 = phi i32 [ %v1_e6a6, %bb ], [ %v3_e69f, %dec_label_pc_e69c ]
  ret i32 %v2_e6a6
}

define i32 @function_e6ad() local_unnamed_addr {
dec_label_pc_e6ad:
  %v0_e6b3 = load i32, i32* @eax, align 8
  ret i32 %v0_e6b3
}

define i32 @_ZN5boost6system12system_errorD0Ev(i32 %arg1) {
dec_label_pc_e6b4:
  store i32 %arg1, i32* @eax, align 8
  %v1_e6d1 = call i32 @function_1ccd4(i32 %arg1)
  store i32 xor (i32 ptrtoint (i32* @global_var_14a1.1905 to i32), i32 ptrtoint ([3 x i8]* @3 to i32)), i32* @eax, align 8
  br i1 icmp eq (i32 xor (i32 ptrtoint (i32* @global_var_14a1.1905 to i32), i32 ptrtoint ([3 x i8]* @3 to i32)), i32 0), label %bb, label %dec_label_pc_e6ed

bb:                                               ; preds = %dec_label_pc_e6b4
  %v2_e6eb = call i32 @function_e6f2(i32 %arg1)
  br label %dec_label_pc_e6ed

dec_label_pc_e6ed:                                ; preds = %bb, %dec_label_pc_e6b4
  %v3_e6eb = phi i32 [ %v2_e6eb, %bb ], [ xor (i32 ptrtoint (i32* @global_var_14a1.1905 to i32), i32 ptrtoint ([3 x i8]* @3 to i32)), %dec_label_pc_e6b4 ]
  ret i32 %v3_e6eb

; uselistorder directives
  uselistorder i32 %arg1, { 0, 2, 1 }
}

define i32 @function_e6f2(i32 %arg1) local_unnamed_addr {
dec_label_pc_e6f2:
  %v0_e6f3 = load i32, i32* @eax, align 8
  ret i32 %v0_e6f3
}

define i32 @_ZNK5boost6system12system_error4whatEv(i32 %arg1) {
dec_label_pc_e6f4:
  %v1_e70f = add i32 %arg1, ptrtoint (i32* @global_var_10.1921 to i32)
  ret i32 %v1_e70f
}

define i32 @function_e72e() local_unnamed_addr {
dec_label_pc_e72e:
  %eax.global-to-local = alloca i32, align 4
  %v0_e731 = load i32, i32* %eax.global-to-local, align 8
  ret i32 %v0_e731
}

define i32 @function_e7af() local_unnamed_addr {
dec_label_pc_e7af:
  %ecx.global-to-local = alloca i32, align 4
  %edx.global-to-local = alloca i32, align 4
  %v0_e7af = load i32, i32* %ecx.global-to-local, align 4
  %v1_e7af = add i32 %v0_e7af, -1948743229
  %v2_e7af = inttoptr i32 %v1_e7af to i32*
  %v3_e7af = load i32, i32* %v2_e7af, align 4
  %v4_e7af = add i32 %v3_e7af, -1
  store i32 %v4_e7af, i32* %v2_e7af, align 4
  %v0_e7b7 = load i32, i32* %edx.global-to-local, align 8
  %v3_e7b7 = xor i32 %v0_e7b7, ptrtoint ([3 x i8]* @3 to i32)
  %v4_e7b7 = icmp eq i32 %v3_e7b7, 0
  store i32 %v3_e7b7, i32* %edx.global-to-local, align 8
  br i1 %v4_e7b7, label %bb, label %dec_label_pc_e7c0

bb:                                               ; preds = %dec_label_pc_e7af
  %v1_e7be = call i32 @function_e809()
  store i32 %v1_e7be, i32* @eax, align 8
  br label %dec_label_pc_e7c0

dec_label_pc_e7c0:                                ; preds = %bb, %dec_label_pc_e7af
  %v0_e7c0 = call i32 @function_e804()
  ret i32 %v0_e7c0
}

define i32 @function_e7c3() local_unnamed_addr {
dec_label_pc_e7c3:
  %eax.global-to-local = alloca i32, align 4
  %v0_e7c3 = load i32, i32* %eax.global-to-local, align 8
  ret i32 %v0_e7c3
}

define i32 @function_e7cf() local_unnamed_addr {
dec_label_pc_e7cf:
  %ebx.global-to-local = alloca i32, align 4
  %v0_e7cf = load i32, i32* %ebx.global-to-local, align 8
  ret i32 %v0_e7cf
}

define i32 @function_e7e7() local_unnamed_addr {
dec_label_pc_e7e7:
  %eax.global-to-local = alloca i32, align 4
  %v0_e7e7 = load i32, i32* %eax.global-to-local, align 8
  ret i32 %v0_e7e7
}

define i32 @function_e7ed() local_unnamed_addr {
dec_label_pc_e7ed:
  %eax.global-to-local = alloca i32, align 4
  %v0_e7ed = load i32, i32* %eax.global-to-local, align 8
  ret i32 %v0_e7ed
}

define i32 @function_e804() local_unnamed_addr {
dec_label_pc_e804:
  %tmp = load i32, i32* @eax, align 8
  ret i32 %tmp
}

define i32 @function_e809() local_unnamed_addr {
dec_label_pc_e809:
  %v0_e80d = load i32, i32* @eax, align 8
  ret i32 %v0_e80d
}

define i32 @_ZNSt9exceptionC1ERKS_(i32 %arg1, i32 %arg2) local_unnamed_addr {
dec_label_pc_e80e:
  ret i32 %arg1
}

define i32 @function_e845() local_unnamed_addr {
dec_label_pc_e845:
  %eax.global-to-local = alloca i32, align 4
  %v0_e846 = load i32, i32* %eax.global-to-local, align 8
  ret i32 %v0_e846
}

define i32 @_Z8i64tostrx(i32 %arg1, i32 %arg2, i32 %arg3) local_unnamed_addr {
dec_label_pc_e847:
  ret i32 %arg2
}

define i32 @function_e8a9() local_unnamed_addr {
dec_label_pc_e8a9:
  %eax.global-to-local = alloca i32, align 4
  %ecx.global-to-local = alloca i32, align 4
  %v0_e8a9 = load i32, i32* %ecx.global-to-local, align 4
  %v1_e8a9 = add i32 %v0_e8a9, -1
  store i32 %v1_e8a9, i32* %ecx.global-to-local, align 4
  %v0_e8ab = load i32, i32* %eax.global-to-local, align 8
  ret i32 %v0_e8ab
}

define i32 @_Z6atoi64PKc(i32 %arg1) local_unnamed_addr {
dec_label_pc_e8ae:
  ret i32 %arg1
}

define i32 @function_e8df() local_unnamed_addr {
dec_label_pc_e8df:
  %eax.global-to-local = alloca i32, align 4
  %ebx.global-to-local = alloca i32, align 4
  %v0_e8df = load i32, i32* %ebx.global-to-local, align 8
  %v1_e8df = add i32 %v0_e8df, 862319693
  %v2_e8df = inttoptr i32 %v1_e8df to i32*
  %v3_e8df = load i32, i32* %v2_e8df, align 4
  %v4_e8df = add i32 %v3_e8df, -1
  store i32 %v4_e8df, i32* %v2_e8df, align 4
  %v0_e8e5 = load i32, i32* %eax.global-to-local, align 8
  %v1_e8e5 = or i32 %v0_e8e5, ptrtoint (i8** @global_var_14.1904 to i32)
  store i32 %v1_e8e5, i32* %eax.global-to-local, align 8
  ret i32 %v1_e8e5
}

define i32 @_ZN5boost8signals26detail23foreign_void_shared_ptrC1ERKS2_(i32* %arg1, i32 %arg2) local_unnamed_addr {
dec_label_pc_e8f4:
  %ebp.global-to-local = alloca i32, align 4
  %v0_e8f4 = load i32, i32* %ebp.global-to-local, align 4
  %v1_e914 = inttoptr i32 %arg2 to i32*
  %v2_e920 = load i32, i32* %v1_e914, align 4
  store i32 %v2_e920, i32* %arg1, align 4
  store i32 %v0_e8f4, i32* %ebp.global-to-local, align 4
  ret i32 xor (i32 ptrtoint (i32* @global_var_14a1.1905 to i32), i32 ptrtoint ([3 x i8]* @3 to i32))
}

define i32 @_ZN5boost8signals26detail23foreign_void_shared_ptrD1Ev(i32* %arg1) local_unnamed_addr {
dec_label_pc_e942:
  %v2_e95c = load i32, i32* %arg1, align 4
  %v1_e95e = icmp eq i32 %v2_e95c, 0
  br i1 %v1_e95e, label %dec_label_pc_e978, label %dec_label_pc_e962

dec_label_pc_e962:                                ; preds = %dec_label_pc_e942
  br label %dec_label_pc_e978

dec_label_pc_e978:                                ; preds = %dec_label_pc_e962, %dec_label_pc_e942
  store i32 xor (i32 ptrtoint (i32* @global_var_14a1.1905 to i32), i32 ptrtoint ([3 x i8]* @3 to i32)), i32* @eax, align 8
  br i1 icmp eq (i32 xor (i32 ptrtoint (i32* @global_var_14a1.1905 to i32), i32 ptrtoint ([3 x i8]* @3 to i32)), i32 0), label %bb, label %dec_label_pc_e984

bb:                                               ; preds = %dec_label_pc_e978
  %v1_e982 = call i32 @function_e989()
  br label %dec_label_pc_e984

dec_label_pc_e984:                                ; preds = %bb, %dec_label_pc_e978
  %v2_e982 = phi i32 [ %v1_e982, %bb ], [ xor (i32 ptrtoint (i32* @global_var_14a1.1905 to i32), i32 ptrtoint ([3 x i8]* @3 to i32)), %dec_label_pc_e978 ]
  ret i32 %v2_e982
}

define i32 @function_e989() local_unnamed_addr {
dec_label_pc_e989:
  %v0_e98a = load i32, i32* @eax, align 8
  ret i32 %v0_e98a
}

define i32 @_ZN5boost8signals26detail21foreign_void_weak_ptrC1ERKS2_(i32 %arg1, i32 %arg2) local_unnamed_addr {
dec_label_pc_e98c:
  %v1_e9af = call i32 @function_1f0dc(i32 %arg2)
  %v2_e9cc = call i32 @function_1f06c(i32 %arg1, i32 %v1_e9af)
  store i32 xor (i32 ptrtoint (i32* @global_var_14a1.1905 to i32), i32 ptrtoint ([3 x i8]* @3 to i32)), i32* @eax, align 8
  br i1 icmp eq (i32 xor (i32 ptrtoint (i32* @global_var_14a1.1905 to i32), i32 ptrtoint ([3 x i8]* @3 to i32)), i32 0), label %bb, label %dec_label_pc_e9dd

bb:                                               ; preds = %dec_label_pc_e98c
  %v1_e9db = call i32 @function_e9e2()
  br label %dec_label_pc_e9dd

dec_label_pc_e9dd:                                ; preds = %bb, %dec_label_pc_e98c
  %v2_e9db = phi i32 [ %v1_e9db, %bb ], [ xor (i32 ptrtoint (i32* @global_var_14a1.1905 to i32), i32 ptrtoint ([3 x i8]* @3 to i32)), %dec_label_pc_e98c ]
  ret i32 %v2_e9db
}

define i32 @function_e9e2() local_unnamed_addr {
dec_label_pc_e9e2:
  %v0_e9e3 = load i32, i32* @eax, align 8
  ret i32 %v0_e9e3
}

define i32 @_ZN5boost8signals26detail21foreign_void_weak_ptrD1Ev(i32 %arg1) local_unnamed_addr {
dec_label_pc_e9e4:
  store i32 xor (i32 ptrtoint (i32* @global_var_14a1.1905 to i32), i32 ptrtoint ([3 x i8]* @3 to i32)), i32* @eax, align 8
  br i1 icmp eq (i32 xor (i32 ptrtoint (i32* @global_var_14a1.1905 to i32), i32 ptrtoint ([3 x i8]* @3 to i32)), i32 0), label %bb, label %dec_label_pc_ea12

bb:                                               ; preds = %dec_label_pc_e9e4
  %v2_ea10 = call i32 @function_ea17(i32 %arg1)
  br label %dec_label_pc_ea12

dec_label_pc_ea12:                                ; preds = %bb, %dec_label_pc_e9e4
  %v3_ea10 = phi i32 [ %v2_ea10, %bb ], [ xor (i32 ptrtoint (i32* @global_var_14a1.1905 to i32), i32 ptrtoint ([3 x i8]* @3 to i32)), %dec_label_pc_e9e4 ]
  ret i32 %v3_ea10
}

define i32 @function_ea17(i32 %arg1) local_unnamed_addr {
dec_label_pc_ea17:
  %v0_ea18 = load i32, i32* @eax, align 8
  ret i32 %v0_ea18
}

define i32 @_ZNK5boost8signals26detail21foreign_void_weak_ptr4lockEv(i32 %arg1, i32 %arg2) local_unnamed_addr {
dec_label_pc_ea1a:
  store i32 %arg2, i32* @eax, align 8
  %v1_ea3d = call i32 @function_1f16a(i32 %arg2)
  store i32 %arg1, i32* @eax, align 8
  br i1 icmp eq (i32 xor (i32 ptrtoint (i32* @global_var_14a1.1905 to i32), i32 ptrtoint ([3 x i8]* @3 to i32)), i32 0), label %bb, label %dec_label_pc_ea67

bb:                                               ; preds = %dec_label_pc_ea1a
  %v3_ea65 = call i32 @function_ea6c(i32 %arg1, i32 %v1_ea3d)
  br label %dec_label_pc_ea67

dec_label_pc_ea67:                                ; preds = %bb, %dec_label_pc_ea1a
  %v4_ea65 = phi i32 [ %v3_ea65, %bb ], [ %arg1, %dec_label_pc_ea1a ]
  ret i32 %v4_ea65

; uselistorder directives
  uselistorder i32 %arg2, { 1, 0 }
}

define i32 @function_ea6c(i32 %arg1, i32 %arg2) local_unnamed_addr {
dec_label_pc_ea6c:
  %v0_ea6d = load i32, i32* @eax, align 8
  ret i32 %v0_ea6d
}

define i32 @_ZNK5boost8signals26detail21foreign_void_weak_ptr7expiredEv(i32 %arg1) local_unnamed_addr {
dec_label_pc_ea70:
  store i32 %arg1, i32* @eax, align 8
  %v1_ea8d = call i32 @function_1f1c0(i32 %arg1)
  store i32 %v1_ea8d, i32* @eax, align 8
  br i1 icmp eq (i32 xor (i32 ptrtoint (i32* @global_var_14a1.1905 to i32), i32 ptrtoint ([3 x i8]* @3 to i32)), i32 0), label %bb, label %dec_label_pc_eaaa

bb:                                               ; preds = %dec_label_pc_ea70
  %v2_eaa8 = call i32 @function_eaaf(i32 %v1_ea8d)
  br label %dec_label_pc_eaaa

dec_label_pc_eaaa:                                ; preds = %bb, %dec_label_pc_ea70
  %v3_eaa8 = phi i32 [ %v2_eaa8, %bb ], [ %v1_ea8d, %dec_label_pc_ea70 ]
  ret i32 %v3_eaa8

; uselistorder directives
  uselistorder i32 %arg1, { 1, 0 }
}

define i32 @function_eaaf(i32 %arg1) local_unnamed_addr {
dec_label_pc_eaaf:
  %v0_eab0 = load i32, i32* @eax, align 8
  ret i32 %v0_eab0
}

define i32 @_ZN5boost6detail7variant9copy_intoC1EPv(i32* %arg1, i32 %arg2) local_unnamed_addr {
dec_label_pc_eab2:
  %tmp102 = ptrtoint i32* %arg1 to i32
  %v1_ead5 = call i32 @function_1f288(i32 %tmp102)
  store i32 %arg2, i32* %arg1, align 4
  ret i32 xor (i32 ptrtoint (i32* @global_var_14a1.1905 to i32), i32 ptrtoint ([3 x i8]* @3 to i32))
}

define i32 @_ZNK5boost8signals29slot_base15tracked_objectsEv(i32 %arg1) local_unnamed_addr {
dec_label_pc_eaf6:
  store i32 %arg1, i32* @eax, align 8
  br i1 icmp eq (i32 xor (i32 ptrtoint (i32* @global_var_14a1.1905 to i32), i32 ptrtoint ([3 x i8]* @3 to i32)), i32 0), label %bb, label %dec_label_pc_eb1c

bb:                                               ; preds = %dec_label_pc_eaf6
  %v2_eb1a = call i32 @function_eb21(i32 %arg1)
  br label %dec_label_pc_eb1c

dec_label_pc_eb1c:                                ; preds = %bb, %dec_label_pc_eaf6
  %v3_eb1a = phi i32 [ %v2_eb1a, %bb ], [ %arg1, %dec_label_pc_eaf6 ]
  ret i32 %v3_eb1a
}

define i32 @function_eb21(i32 %arg1) local_unnamed_addr {
dec_label_pc_eb21:
  %v0_eb22 = load i32, i32* @eax, align 8
  ret i32 %v0_eb22
}

define i32 @_ZNK5boost8signals29slot_base7expiredEv(i32 %arg1) local_unnamed_addr {
dec_label_pc_eb24:
  %stack_var_-24 = alloca i32, align 4
  %stack_var_-17 = alloca i32, align 4
  %stack_var_-64 = alloca i32, align 4
  %stack_var_-36 = alloca i32, align 4
  %stack_var_-28 = alloca i32, align 4
  %v2_eb3b = ptrtoint i32* %stack_var_-28 to i32
  store i32 %v2_eb3b, i32* @eax, align 8
  %v1_eb41 = call i32 @function_1f35a(i32 %v2_eb3b)
  %v1_eb4c = call i32 @function_1d61a(i32 %arg1)
  store i32 %v1_eb4c, i32* @eax, align 8
  %v2_eb51 = ptrtoint i32* %stack_var_-36 to i32
  %v2_eb5b = call i32 @function_1f38e(i32 %v2_eb51, i32 %v1_eb4c)
  %v16_eb60 = ptrtoint i32* %stack_var_-64 to i32
  %v3_eb63 = load i32, i32* %stack_var_-36, align 4
  store i32 %v3_eb63, i32* %stack_var_-28, align 4
  %v2_eba6 = ptrtoint i32* %stack_var_-24 to i32
  %v2_eb7a = ptrtoint i32* %stack_var_-17 to i32
  br label %dec_label_pc_eb9b

dec_label_pc_eb6b:                                ; preds = %dec_label_pc_eb9b
  store i32 %v2_eb3b, i32* @eax, align 8
  %v1_eb6e = load i32, i32* @esp, align 4
  %v2_eb6e = inttoptr i32 %v1_eb6e to i32*
  store i32 %v2_eb3b, i32* %v2_eb6e, align 4
  %v0_eb71 = call i32 @function_1f4bc()
  %v1_eb76 = load i32, i32* @esp, align 4
  %v2_eb76 = add i32 %v1_eb76, 4
  %v3_eb76 = inttoptr i32 %v2_eb76 to i32*
  store i32 %v0_eb71, i32* %v3_eb76, align 4
  %v1_eb7d = load i32, i32* @esp, align 4
  %v2_eb7d = inttoptr i32 %v1_eb7d to i32*
  store i32 %v2_eb7a, i32* %v2_eb7d, align 4
  %v0_eb80 = call i32 @function_1f5a6()
  %v4_eb85 = trunc i32 %v0_eb80 to i8
  store i1 false, i1* @cf, align 1
  %v5_eb85 = icmp eq i8 %v4_eb85, 0
  br i1 %v5_eb85, label %dec_label_pc_eb90, label %dec_label_pc_ebd3

dec_label_pc_eb90:                                ; preds = %dec_label_pc_eb6b
  store i32 %v2_eb3b, i32* @eax, align 8
  %v1_eb93 = load i32, i32* @esp, align 4
  %v2_eb93 = inttoptr i32 %v1_eb93 to i32*
  store i32 %v2_eb3b, i32* %v2_eb93, align 4
  %v0_eb96 = call i32 @function_1f482()
  %v1_eb9e.pre = load i32, i32* @esp, align 4
  br label %dec_label_pc_eb9b

dec_label_pc_eb9b:                                ; preds = %dec_label_pc_eb90, %dec_label_pc_eb24
  %v1_eb9e = phi i32 [ %v1_eb9e.pre, %dec_label_pc_eb90 ], [ %v16_eb60, %dec_label_pc_eb24 ]
  %v2_eb9e = inttoptr i32 %v1_eb9e to i32*
  store i32 %arg1, i32* %v2_eb9e, align 4
  %v0_eba1 = load i32, i32* %stack_var_-28, align 4
  %v1_eba1 = call i32 @function_1d61a(i32 %v0_eba1)
  store i32 %v1_eba1, i32* @eax, align 8
  %v1_eba9 = load i32, i32* @esp, align 4
  %v2_eba9 = add i32 %v1_eba9, 4
  %v3_eba9 = inttoptr i32 %v2_eba9 to i32*
  store i32 %v1_eba1, i32* %v3_eba9, align 4
  %v1_ebad = load i32, i32* @esp, align 4
  %v2_ebad = inttoptr i32 %v1_ebad to i32*
  store i32 %v2_eba6, i32* %v2_ebad, align 4
  %v0_ebb0 = call i32 @function_1f3de()
  %v0_ebb5 = load i32, i32* @esp, align 4
  %v3_ebbb = inttoptr i32 %v0_ebb5 to i32*
  store i32 %v2_eba6, i32* %v3_ebbb, align 4
  store i32 %v2_eb3b, i32* @eax, align 8
  %v1_ebc2 = load i32, i32* @esp, align 4
  %v2_ebc2 = inttoptr i32 %v1_ebc2 to i32*
  store i32 %v2_eb3b, i32* %v2_ebc2, align 4
  %v0_ebc5 = load i32, i32* %stack_var_-28, align 4
  %v1_ebc5 = call i32 @function_1f42e(i32 %v0_ebc5)
  %v4_ebca = trunc i32 %v1_ebc5 to i8
  %v5_ebca = icmp eq i8 %v4_ebca, 0
  %v1_ebcc = icmp eq i1 %v5_ebca, false
  br i1 %v1_ebcc, label %dec_label_pc_eb6b, label %dec_label_pc_ebd3

dec_label_pc_ebd3:                                ; preds = %dec_label_pc_eb9b, %dec_label_pc_eb6b
  %storemerge = phi i32 [ 1, %dec_label_pc_eb6b ], [ 0, %dec_label_pc_eb9b ]
  store i32 %storemerge, i32* @eax, align 8
  br i1 icmp eq (i32 xor (i32 ptrtoint (i32* @global_var_14a1.1905 to i32), i32 ptrtoint ([3 x i8]* @3 to i32)), i32 0), label %bb, label %dec_label_pc_ebdf

bb:                                               ; preds = %dec_label_pc_ebd3
  %v1_ebdd = call i32 @function_ebe4()
  br label %dec_label_pc_ebdf

dec_label_pc_ebdf:                                ; preds = %bb, %dec_label_pc_ebd3
  %v2_ebdd = phi i32 [ %v1_ebdd, %bb ], [ %storemerge, %dec_label_pc_ebd3 ]
  ret i32 %v2_ebdd

; uselistorder directives
  uselistorder i32 %v2_eb3b, { 4, 5, 0, 1, 2, 3, 6, 7 }
  uselistorder i32 (i32)* @function_1d61a, { 1, 0 }
}

define i32 @function_ebe4() local_unnamed_addr {
dec_label_pc_ebe4:
  %v0_ebe5 = load i32, i32* @eax, align 8
  ret i32 %v0_ebe5
}

define i32 @_ZN5boost10shared_ptrIvED1Ev(i32 %arg1) local_unnamed_addr {
dec_label_pc_ebe6:
  %v1_ec00 = add i32 %arg1, 4
  store i32 %v1_ec00, i32* @eax, align 8
  %v1_ec06 = call i32 @function_10dc6(i32 %v1_ec00)
  store i32 xor (i32 ptrtoint (i32* @global_var_14a1.1905 to i32), i32 ptrtoint ([3 x i8]* @3 to i32)), i32* @eax, align 8
  br i1 icmp eq (i32 xor (i32 ptrtoint (i32* @global_var_14a1.1905 to i32), i32 ptrtoint ([3 x i8]* @3 to i32)), i32 0), label %bb, label %dec_label_pc_ec17

bb:                                               ; preds = %dec_label_pc_ebe6
  %v1_ec15 = call i32 @function_ec1c()
  br label %dec_label_pc_ec17

dec_label_pc_ec17:                                ; preds = %bb, %dec_label_pc_ebe6
  %v2_ec15 = phi i32 [ %v1_ec15, %bb ], [ xor (i32 ptrtoint (i32* @global_var_14a1.1905 to i32), i32 ptrtoint ([3 x i8]* @3 to i32)), %dec_label_pc_ebe6 ]
  ret i32 %v2_ec15
}

define i32 @function_ec1c() local_unnamed_addr {
dec_label_pc_ec1c:
  %v0_ec1d = load i32, i32* @eax, align 8
  ret i32 %v0_ec1d
}

define i32 @_ZN5boost8signals26detail23tracked_objects_visitorC1EPNS0_9slot_baseE(i32* %arg1, i32 %arg2) local_unnamed_addr {
dec_label_pc_ec1e:
  store i32 %arg2, i32* %arg1, align 4
  store i32 xor (i32 ptrtoint (i32* @global_var_14a1.1905 to i32), i32 ptrtoint ([3 x i8]* @3 to i32)), i32* @eax, align 8
  br i1 icmp eq (i32 xor (i32 ptrtoint (i32* @global_var_14a1.1905 to i32), i32 ptrtoint ([3 x i8]* @3 to i32)), i32 0), label %bb, label %dec_label_pc_ec4f

bb:                                               ; preds = %dec_label_pc_ec1e
  %tmp104 = ptrtoint i32* %arg1 to i32
  %v3_ec4d = call i32 @function_ec54(i32 %arg2, i32 %tmp104)
  br label %dec_label_pc_ec4f

dec_label_pc_ec4f:                                ; preds = %bb, %dec_label_pc_ec1e
  %v4_ec4d = phi i32 [ %v3_ec4d, %bb ], [ xor (i32 ptrtoint (i32* @global_var_14a1.1905 to i32), i32 ptrtoint ([3 x i8]* @3 to i32)), %dec_label_pc_ec1e ]
  ret i32 %v4_ec4d

; uselistorder directives
  uselistorder i32* %arg1, { 1, 0 }
}

define i32 @function_ec54(i32 %arg1, i32 %arg2) local_unnamed_addr {
dec_label_pc_ec54:
  %v0_ec55 = load i32, i32* @eax, align 8
  ret i32 %v0_ec55
}

define i32 @_ZN5boost8weak_ptrIvED1Ev(i32 %arg1) local_unnamed_addr {
dec_label_pc_ec56:
  %v1_ec70 = add i32 %arg1, 4
  store i32 %v1_ec70, i32* @eax, align 8
  %v1_ec76 = call i32 @function_1109c(i32 %v1_ec70)
  ret i32 xor (i32 ptrtoint (i32* @global_var_14a1.1905 to i32), i32 ptrtoint ([3 x i8]* @3 to i32))
}

define i32 @_ZN5boost8signals26detail20connection_body_baseC1Ev(i32* %arg1) local_unnamed_addr {
dec_label_pc_ec8e:
  %tmp100 = ptrtoint i32* %arg1 to i32
  store i32 ptrtoint (i32* @global_var_33b6c.1927 to i32), i32* %arg1, align 4
  %v1_ecb1 = add i32 %tmp100, 4
  %v2_ecb1 = inttoptr i32 %v1_ecb1 to i8*
  store i8 1, i8* %v2_ecb1, align 1
  %v1_ecb8 = add i32 %tmp100, 8
  store i32 %v1_ecb8, i32* @eax, align 8
  %v1_ecbe = call i32 @function_1f7b6(i32 %v1_ecb8)
  store i32 xor (i32 ptrtoint (i32* @global_var_14a1.1905 to i32), i32 ptrtoint ([3 x i8]* @3 to i32)), i32* @eax, align 8
  br i1 icmp eq (i32 xor (i32 ptrtoint (i32* @global_var_14a1.1905 to i32), i32 ptrtoint ([3 x i8]* @3 to i32)), i32 0), label %bb, label %dec_label_pc_eccf

bb:                                               ; preds = %dec_label_pc_ec8e
  %v1_eccd = call i32 @function_ecd4()
  br label %dec_label_pc_eccf

dec_label_pc_eccf:                                ; preds = %bb, %dec_label_pc_ec8e
  %v2_eccd = phi i32 [ %v1_eccd, %bb ], [ xor (i32 ptrtoint (i32* @global_var_14a1.1905 to i32), i32 ptrtoint ([3 x i8]* @3 to i32)), %dec_label_pc_ec8e ]
  ret i32 %v2_eccd

; uselistorder directives
  uselistorder i32 %tmp100, { 1, 0 }
}

define i32 @function_ecd4() local_unnamed_addr {
dec_label_pc_ecd4:
  %v0_ecd5 = load i32, i32* @eax, align 8
  ret i32 %v0_ecd5
}

define i32 @_ZN5boost8signals26detail20connection_body_baseD1Ev(i32* %arg1) local_unnamed_addr {
dec_label_pc_ecd6:
  %tmp100 = ptrtoint i32* %arg1 to i32
  store i32 ptrtoint (i32* @global_var_33b6c.1927 to i32), i32* %arg1, align 4
  %v1_ecf9 = add i32 %tmp100, 8
  %v1_ecff = call i32 @function_1d92c(i32 %v1_ecf9)
  store i32 xor (i32 ptrtoint (i32* @global_var_14a1.1905 to i32), i32 ptrtoint ([3 x i8]* @3 to i32)), i32* @eax, align 8
  br i1 icmp eq (i32 xor (i32 ptrtoint (i32* @global_var_14a1.1905 to i32), i32 ptrtoint ([3 x i8]* @3 to i32)), i32 0), label %bb, label %dec_label_pc_ed27

bb:                                               ; preds = %dec_label_pc_ecd6
  %v1_ed25 = call i32 @function_ed2c()
  br label %dec_label_pc_ed27

dec_label_pc_ed27:                                ; preds = %bb, %dec_label_pc_ecd6
  %v2_ed25 = phi i32 [ %v1_ed25, %bb ], [ xor (i32 ptrtoint (i32* @global_var_14a1.1905 to i32), i32 ptrtoint ([3 x i8]* @3 to i32)), %dec_label_pc_ecd6 ]
  ret i32 %v2_ed25
}

define i32 @function_ed2c() local_unnamed_addr {
dec_label_pc_ed2c:
  %v0_ed2d = load i32, i32* @eax, align 8
  ret i32 %v0_ed2d
}

define i32 @_ZN5boost8signals26detail20connection_body_baseD0Ev(i32 %arg1) local_unnamed_addr {
dec_label_pc_ed2e:
  %v1_ed4b = call i32 @function_1da04(i32 %arg1)
  ret i32 %arg1
}

define i32 @function_ed5a() local_unnamed_addr {
dec_label_pc_ed5a:
  %eax.global-to-local = alloca i32, align 4
  %ebx.global-to-local = alloca i32, align 4
  %v0_ed5a = load i32, i32* %ebx.global-to-local, align 8
  %v1_ed5a = add i32 %v0_ed5a, 862319685
  %v2_ed5a = inttoptr i32 %v1_ed5a to i32*
  %v3_ed5a = load i32, i32* %v2_ed5a, align 4
  %v4_ed5a = add i32 %v3_ed5a, -1
  store i32 %v4_ed5a, i32* %v2_ed5a, align 4
  %v0_ed60 = load i32, i32* %eax.global-to-local, align 8
  %v1_ed60 = add i32 %v0_ed60, ptrtoint (i8** @global_var_14.1904 to i32)
  store i32 %v1_ed60, i32* %eax.global-to-local, align 8
  ret i32 %v1_ed60
}

define i32 @_ZN5boost8signals26detail20connection_body_base10disconnectEv(i32 %arg1) local_unnamed_addr {
dec_label_pc_ed6e:
  %stack_var_-20 = alloca i32, align 4
  %v2_ed8c = ptrtoint i32* %stack_var_-20 to i32
  store i32 %v2_ed8c, i32* @eax, align 8
  %v2_ed92 = call i32 @function_1f8d8(i32 %v2_ed8c, i32 %arg1)
  %v1_ed9d = call i32 @function_1db2e(i32 %arg1)
  store i32 xor (i32 ptrtoint (i32* @global_var_14a1.1905 to i32), i32 ptrtoint ([3 x i8]* @3 to i32)), i32* @eax, align 8
  br i1 icmp eq (i32 xor (i32 ptrtoint (i32* @global_var_14a1.1905 to i32), i32 ptrtoint ([3 x i8]* @3 to i32)), i32 0), label %bb, label %dec_label_pc_edb9

bb:                                               ; preds = %dec_label_pc_ed6e
  %v2_edb7 = call i32 @function_edbe(i32 %v2_ed8c)
  br label %dec_label_pc_edb9

dec_label_pc_edb9:                                ; preds = %bb, %dec_label_pc_ed6e
  %v3_edb7 = phi i32 [ %v2_edb7, %bb ], [ xor (i32 ptrtoint (i32* @global_var_14a1.1905 to i32), i32 ptrtoint ([3 x i8]* @3 to i32)), %dec_label_pc_ed6e ]
  ret i32 %v3_edb7

; uselistorder directives
  uselistorder i32 %arg1, { 1, 0 }
}

define i32 @function_edbe(i32 %arg1) local_unnamed_addr {
dec_label_pc_edbe:
  %v0_edbf = load i32, i32* @eax, align 8
  ret i32 %v0_edbf
}

define i32 @_ZN5boost8signals26detail20connection_body_base17nolock_disconnectEv(i32 %arg1) local_unnamed_addr {
dec_label_pc_edc0:
  %ebp.global-to-local = alloca i32, align 4
  %v0_edc0 = load i32, i32* %ebp.global-to-local, align 4
  %v1_edda = add i32 %arg1, 4
  %v2_edda = inttoptr i32 %v1_edda to i8*
  store i8 0, i8* %v2_edda, align 1
  store i32 %v0_edc0, i32* %ebp.global-to-local, align 4
  ret i32 xor (i32 ptrtoint (i32* @global_var_14a1.1905 to i32), i32 ptrtoint ([3 x i8]* @3 to i32))
}

define i32 @_ZN5boost10shared_ptrIvEC1ERKS1_(i32* %arg1, i32 %arg2) local_unnamed_addr {
dec_label_pc_edf2:
  %tmp103 = ptrtoint i32* %arg1 to i32
  %v1_ee12 = inttoptr i32 %arg2 to i32*
  %v2_ee12 = load i32, i32* %v1_ee12, align 4
  store i32 %v2_ee12, i32* %arg1, align 4
  %v1_ee1c = add i32 %arg2, 4
  %v1_ee22 = add i32 %tmp103, 4
  store i32 %v1_ee22, i32* @eax, align 8
  %v2_ee2c = call i32 @function_11012(i32 %v1_ee22, i32 %v1_ee1c)
  ret i32 xor (i32 ptrtoint (i32* @global_var_14a1.1905 to i32), i32 ptrtoint ([3 x i8]* @3 to i32))

; uselistorder directives
  uselistorder i32 %arg2, { 1, 0 }
}

define i32 @_ZNK5boost8signals26detail20connection_body_base7blockedEv(i32 %arg1) local_unnamed_addr {
dec_label_pc_ee44:
  %v1_ee5e = add i32 %arg1, 8
  store i32 %v1_ee5e, i32* @eax, align 8
  %v1_ee64 = call i32 @function_1fadc(i32 %v1_ee5e)
  %v1_ee69 = xor i32 %v1_ee64, 1
  ret i32 %v1_ee69
}

define i32 @_ZNK5boost8signals26detail20connection_body_base21nolock_nograb_blockedEv(i32 %arg1) local_unnamed_addr {
dec_label_pc_ee80:
  store i32 %arg1, i32* @eax, align 8
  %v1_ee9d = call i32 @function_1dd58(i32 %arg1)
  %v1_eea2 = xor i32 %v1_ee9d, 1
  %v4_eea2 = trunc i32 %v1_eea2 to i8
  store i1 false, i1* @cf, align 1
  %v5_eea5 = icmp eq i8 %v4_eea2, 0
  %v1_eea7 = icmp eq i1 %v5_eea5, false
  br i1 %v1_eea7, label %dec_label_pc_eec4, label %dec_label_pc_eea9

dec_label_pc_eea9:                                ; preds = %dec_label_pc_ee80
  store i32 %arg1, i32* @eax, align 8
  %v1_eeaf = call i32 @function_1dcc4(i32 %arg1)
  %v4_eeb4 = trunc i32 %v1_eeaf to i8
  %v5_eeb4 = icmp ne i8 %v4_eeb4, 0
  %. = zext i1 %v5_eeb4 to i32
  br label %dec_label_pc_eec4

dec_label_pc_eec4:                                ; preds = %dec_label_pc_eea9, %dec_label_pc_ee80
  %storemerge = phi i32 [ 1, %dec_label_pc_ee80 ], [ %., %dec_label_pc_eea9 ]
  store i32 %storemerge, i32* @eax, align 8
  br i1 icmp eq (i32 xor (i32 ptrtoint (i32* @global_var_14a1.1905 to i32), i32 ptrtoint ([3 x i8]* @3 to i32)), i32 0), label %bb, label %dec_label_pc_eed0

bb:                                               ; preds = %dec_label_pc_eec4
  %v1_eece = call i32 @function_eed5()
  br label %dec_label_pc_eed0

dec_label_pc_eed0:                                ; preds = %bb, %dec_label_pc_eec4
  %v2_eece = phi i32 [ %v1_eece, %bb ], [ %storemerge, %dec_label_pc_eec4 ]
  ret i32 %v2_eece

; uselistorder directives
  uselistorder i32 %arg1, { 1, 0, 3, 2 }
}

define i32 @function_eed5() local_unnamed_addr {
dec_label_pc_eed5:
  %v0_eed6 = load i32, i32* @eax, align 8
  ret i32 %v0_eed6
}

define i32 @_ZNK5boost8signals26detail20connection_body_base23nolock_nograb_connectedEv(i32 %arg1) local_unnamed_addr {
dec_label_pc_eed8:
  %v1_eef2 = add i32 %arg1, 4
  %v2_eef2 = inttoptr i32 %v1_eef2 to i8*
  %v3_eef2 = load i8, i8* %v2_eef2, align 1
  %v4_eef2 = zext i8 %v3_eef2 to i32
  store i32 %v4_eef2, i32* @eax, align 8
  br i1 icmp eq (i32 xor (i32 ptrtoint (i32* @global_var_14a1.1905 to i32), i32 ptrtoint ([3 x i8]* @3 to i32)), i32 0), label %bb, label %dec_label_pc_ef02

bb:                                               ; preds = %dec_label_pc_eed8
  %v2_ef00 = call i32 @function_ef07(i32 %arg1)
  br label %dec_label_pc_ef02

dec_label_pc_ef02:                                ; preds = %bb, %dec_label_pc_eed8
  %v3_ef00 = phi i32 [ %v2_ef00, %bb ], [ %v4_eef2, %dec_label_pc_eed8 ]
  ret i32 %v3_ef00
}

define i32 @function_ef07(i32 %arg1) local_unnamed_addr {
dec_label_pc_ef07:
  %v0_ef08 = load i32, i32* @eax, align 8
  ret i32 %v0_ef08
}

define i32 @_ZN5boost8weak_ptrINS_8signals26detail20connection_body_baseEED1Ev(i32 %arg1) local_unnamed_addr {
dec_label_pc_ef0a:
  %v1_ef24 = add i32 %arg1, 4
  store i32 %v1_ef24, i32* @eax, align 8
  %v1_ef2a = call i32 @function_11350(i32 %v1_ef24)
  store i32 xor (i32 ptrtoint (i32* @global_var_14a1.1905 to i32), i32 ptrtoint ([3 x i8]* @3 to i32)), i32* @eax, align 8
  br i1 icmp eq (i32 xor (i32 ptrtoint (i32* @global_var_14a1.1905 to i32), i32 ptrtoint ([3 x i8]* @3 to i32)), i32 0), label %bb, label %dec_label_pc_ef3b

bb:                                               ; preds = %dec_label_pc_ef0a
  %v1_ef39 = call i32 @function_ef40()
  br label %dec_label_pc_ef3b

dec_label_pc_ef3b:                                ; preds = %bb, %dec_label_pc_ef0a
  %v2_ef39 = phi i32 [ %v1_ef39, %bb ], [ xor (i32 ptrtoint (i32* @global_var_14a1.1905 to i32), i32 ptrtoint ([3 x i8]* @3 to i32)), %dec_label_pc_ef0a ]
  ret i32 %v2_ef39
}

define i32 @function_ef40() local_unnamed_addr {
dec_label_pc_ef40:
  %v0_ef41 = load i32, i32* @eax, align 8
  ret i32 %v0_ef41
}

define i32 @_ZN5boost8weak_ptrINS_8signals26detail20connection_body_baseEEC1ERKS4_(i32* %arg1, i32 %arg2) local_unnamed_addr {
dec_label_pc_ef42:
  %tmp103 = ptrtoint i32* %arg1 to i32
  %v1_ef62 = inttoptr i32 %arg2 to i32*
  %v2_ef62 = load i32, i32* %v1_ef62, align 4
  store i32 %v2_ef62, i32* %arg1, align 4
  %v1_ef6c = add i32 %arg2, 4
  %v1_ef72 = add i32 %tmp103, 4
  store i32 %v1_ef72, i32* @eax, align 8
  %v2_ef7c = call i32 @function_11338(i32 %v1_ef72, i32 %v1_ef6c)
  store i32 xor (i32 ptrtoint (i32* @global_var_14a1.1905 to i32), i32 ptrtoint ([3 x i8]* @3 to i32)), i32* @eax, align 8
  br i1 icmp eq (i32 xor (i32 ptrtoint (i32* @global_var_14a1.1905 to i32), i32 ptrtoint ([3 x i8]* @3 to i32)), i32 0), label %bb, label %dec_label_pc_ef8d

bb:                                               ; preds = %dec_label_pc_ef42
  %v1_ef8b = call i32 @function_ef92()
  br label %dec_label_pc_ef8d

dec_label_pc_ef8d:                                ; preds = %bb, %dec_label_pc_ef42
  %v2_ef8b = phi i32 [ %v1_ef8b, %bb ], [ xor (i32 ptrtoint (i32* @global_var_14a1.1905 to i32), i32 ptrtoint ([3 x i8]* @3 to i32)), %dec_label_pc_ef42 ]
  ret i32 %v2_ef8b

; uselistorder directives
  uselistorder i32 %arg2, { 1, 0 }
}

define i32 @function_ef92() local_unnamed_addr {
dec_label_pc_ef92:
  %v0_ef93 = load i32, i32* @eax, align 8
  ret i32 %v0_ef93
}

define i32 @_ZN5boost8signals210connectionC1ERKNS_8weak_ptrINS0_6detail20connection_body_baseEEE(i32 %arg1, i32 %arg2) local_unnamed_addr {
dec_label_pc_ef94:
  store i32 %arg1, i32* @eax, align 8
  %v2_efbe = call i32 @function_1ded6(i32 %arg1, i32 %arg2)
  store i32 xor (i32 ptrtoint (i32* @global_var_14a1.1905 to i32), i32 ptrtoint ([3 x i8]* @3 to i32)), i32* @eax, align 8
  br i1 icmp eq (i32 xor (i32 ptrtoint (i32* @global_var_14a1.1905 to i32), i32 ptrtoint ([3 x i8]* @3 to i32)), i32 0), label %bb, label %dec_label_pc_efcf

bb:                                               ; preds = %dec_label_pc_ef94
  %v1_efcd = call i32 @function_efd4()
  br label %dec_label_pc_efcf

dec_label_pc_efcf:                                ; preds = %bb, %dec_label_pc_ef94
  %v2_efcd = phi i32 [ %v1_efcd, %bb ], [ xor (i32 ptrtoint (i32* @global_var_14a1.1905 to i32), i32 ptrtoint ([3 x i8]* @3 to i32)), %dec_label_pc_ef94 ]
  ret i32 %v2_efcd

; uselistorder directives
  uselistorder i32 %arg1, { 1, 0 }
}

define i32 @function_efd4() local_unnamed_addr {
dec_label_pc_efd4:
  %v0_efd5 = load i32, i32* @eax, align 8
  ret i32 %v0_efd5
}

define i32 @_ZN5boost8signals210connectionD1Ev(i32 %arg1) local_unnamed_addr {
dec_label_pc_efd6:
  store i32 %arg1, i32* @eax, align 8
  %v1_eff3 = call i32 @function_1dee0(i32 %arg1)
  store i32 xor (i32 ptrtoint (i32* @global_var_14a1.1905 to i32), i32 ptrtoint ([3 x i8]* @3 to i32)), i32* @eax, align 8
  br i1 icmp eq (i32 xor (i32 ptrtoint (i32* @global_var_14a1.1905 to i32), i32 ptrtoint ([3 x i8]* @3 to i32)), i32 0), label %bb, label %dec_label_pc_f004

bb:                                               ; preds = %dec_label_pc_efd6
  %v1_f002 = call i32 @function_f009()
  br label %dec_label_pc_f004

dec_label_pc_f004:                                ; preds = %bb, %dec_label_pc_efd6
  %v2_f002 = phi i32 [ %v1_f002, %bb ], [ xor (i32 ptrtoint (i32* @global_var_14a1.1905 to i32), i32 ptrtoint ([3 x i8]* @3 to i32)), %dec_label_pc_efd6 ]
  ret i32 %v2_f002

; uselistorder directives
  uselistorder i32 %arg1, { 1, 0 }
}

define i32 @function_f009() local_unnamed_addr {
dec_label_pc_f009:
  %v0_f00a = load i32, i32* @eax, align 8
  ret i32 %v0_f00a
}

define i32 @_ZN5boost11multi_index6detail21scope_guard_impl_baseC1Ev(i8* %arg1) local_unnamed_addr {
dec_label_pc_f00c:
  store i8 0, i8* %arg1, align 1
  store i32 xor (i32 ptrtoint (i32* @global_var_14a1.1905 to i32), i32 ptrtoint ([3 x i8]* @3 to i32)), i32* @eax, align 8
  br i1 icmp eq (i32 xor (i32 ptrtoint (i32* @global_var_14a1.1905 to i32), i32 ptrtoint ([3 x i8]* @3 to i32)), i32 0), label %bb, label %dec_label_pc_f035

bb:                                               ; preds = %dec_label_pc_f00c
  %v4_f023 = ptrtoint i8* %arg1 to i32
  %v3_f033 = call i32 @function_f03a(i32 %v4_f023)
  br label %dec_label_pc_f035

dec_label_pc_f035:                                ; preds = %bb, %dec_label_pc_f00c
  %v4_f033 = phi i32 [ %v3_f033, %bb ], [ xor (i32 ptrtoint (i32* @global_var_14a1.1905 to i32), i32 ptrtoint ([3 x i8]* @3 to i32)), %dec_label_pc_f00c ]
  ret i32 %v4_f033
}

define i32 @function_f03a(i32 %arg1) local_unnamed_addr {
dec_label_pc_f03a:
  %v0_f03b = load i32, i32* @eax, align 8
  ret i32 %v0_f03b
}

define i32 @_ZNK5boost11multi_index6detail21scope_guard_impl_base7dismissEv(i8* %arg1) local_unnamed_addr {
dec_label_pc_f03c:
  store i8 1, i8* %arg1, align 1
  store i32 xor (i32 ptrtoint (i32* @global_var_14a1.1905 to i32), i32 ptrtoint ([3 x i8]* @3 to i32)), i32* @eax, align 8
  br i1 icmp eq (i32 xor (i32 ptrtoint (i32* @global_var_14a1.1905 to i32), i32 ptrtoint ([3 x i8]* @3 to i32)), i32 0), label %bb, label %dec_label_pc_f065

bb:                                               ; preds = %dec_label_pc_f03c
  %v4_f053 = ptrtoint i8* %arg1 to i32
  %v3_f063 = call i32 @function_f06a(i32 %v4_f053)
  br label %dec_label_pc_f065

dec_label_pc_f065:                                ; preds = %bb, %dec_label_pc_f03c
  %v4_f063 = phi i32 [ %v3_f063, %bb ], [ xor (i32 ptrtoint (i32* @global_var_14a1.1905 to i32), i32 ptrtoint ([3 x i8]* @3 to i32)), %dec_label_pc_f03c ]
  ret i32 %v4_f063
}

define i32 @function_f06a(i32 %arg1) local_unnamed_addr {
dec_label_pc_f06a:
  %v0_f06b = load i32, i32* @eax, align 8
  ret i32 %v0_f06b
}

define i32 @_ZN5boost11multi_index6detail21scope_guard_impl_baseD1Ev(i32 %arg1) local_unnamed_addr {
dec_label_pc_f06c:
  store i32 xor (i32 ptrtoint (i32* @global_var_14a1.1905 to i32), i32 ptrtoint ([3 x i8]* @3 to i32)), i32* @eax, align 8
  br i1 icmp eq (i32 xor (i32 ptrtoint (i32* @global_var_14a1.1905 to i32), i32 ptrtoint ([3 x i8]* @3 to i32)), i32 0), label %bb, label %dec_label_pc_f08f

bb:                                               ; preds = %dec_label_pc_f06c
  %v2_f08d = call i32 @function_f094(i32 %arg1)
  br label %dec_label_pc_f08f

dec_label_pc_f08f:                                ; preds = %bb, %dec_label_pc_f06c
  %v3_f08d = phi i32 [ %v2_f08d, %bb ], [ xor (i32 ptrtoint (i32* @global_var_14a1.1905 to i32), i32 ptrtoint ([3 x i8]* @3 to i32)), %dec_label_pc_f06c ]
  ret i32 %v3_f08d
}

define i32 @function_f094(i32 %arg1) local_unnamed_addr {
dec_label_pc_f094:
  %v0_f095 = load i32, i32* @eax, align 8
  ret i32 %v0_f095
}

define i32 @_ZN5boost8signals25mutexC1Ev(i32 %arg1) local_unnamed_addr {
dec_label_pc_f096:
  ret i32 %arg1
}

define i32 @function_f0d0() local_unnamed_addr {
dec_label_pc_f0d0:
  %eax.global-to-local = alloca i32, align 4
  %ecx.global-to-local = alloca i32, align 4
  %v0_f0d0 = load i32, i32* %ecx.global-to-local, align 4
  %v1_f0d0 = add i32 %v0_f0d0, -1
  store i32 %v1_f0d0, i32* %ecx.global-to-local, align 4
  %v0_f0d2 = load i32, i32* %eax.global-to-local, align 8
  ret i32 %v0_f0d2
}

define i32 @_ZN5boost8signals25mutexD1Ev(i32 %arg1) local_unnamed_addr {
dec_label_pc_f0d4:
  ret i32 %arg1
}

define i32 @function_f0f5() local_unnamed_addr {
dec_label_pc_f0f5:
  %eax.global-to-local = alloca i32, align 4
  %ebx.global-to-local = alloca i32, align 4
  %v0_f0f5 = load i32, i32* %ebx.global-to-local, align 8
  %v1_f0f5 = add i32 %v0_f0f5, 862319685
  %v2_f0f5 = inttoptr i32 %v1_f0f5 to i32*
  %v3_f0f5 = load i32, i32* %v2_f0f5, align 4
  %v4_f0f5 = add i32 %v3_f0f5, -1
  store i32 %v4_f0f5, i32* %v2_f0f5, align 4
  %v0_f0fb = load i32, i32* %eax.global-to-local, align 8
  %v1_f0fb = add i32 %v0_f0fb, ptrtoint (i8** @global_var_14.1904 to i32)
  store i32 %v1_f0fb, i32* %eax.global-to-local, align 8
  ret i32 %v1_f0fb
}

define i32 @_ZN5boost8signals25mutex4lockEv(i32 %arg1) local_unnamed_addr {
dec_label_pc_f10a:
  ret i32 %arg1
}

define i32 @function_f13c() local_unnamed_addr {
dec_label_pc_f13c:
  %eax.global-to-local = alloca i32, align 4
  %ecx.global-to-local = alloca i32, align 4
  %v0_f13c = load i32, i32* %ecx.global-to-local, align 4
  %v1_f13c = add i32 %v0_f13c, -1
  store i32 %v1_f13c, i32* %ecx.global-to-local, align 4
  %v0_f13e = load i32, i32* %eax.global-to-local, align 8
  ret i32 %v0_f13e
}

define i32 @_ZN5boost8signals25mutex6unlockEv(i32 %arg1) local_unnamed_addr {
dec_label_pc_f140:
  ret i32 %arg1
}

define i32 @function_f161() local_unnamed_addr {
dec_label_pc_f161:
  %eax.global-to-local = alloca i32, align 4
  %ebx.global-to-local = alloca i32, align 4
  %v0_f161 = load i32, i32* %ebx.global-to-local, align 8
  %v1_f161 = add i32 %v0_f161, 862319685
  %v2_f161 = inttoptr i32 %v1_f161 to i32*
  %v3_f161 = load i32, i32* %v2_f161, align 4
  %v4_f161 = add i32 %v3_f161, -1
  store i32 %v4_f161, i32* %v2_f161, align 4
  %v0_f167 = load i32, i32* %eax.global-to-local, align 8
  %v1_f167 = add i32 %v0_f167, ptrtoint (i8** @global_var_14.1904 to i32)
  store i32 %v1_f167, i32* %eax.global-to-local, align 8
  ret i32 %v1_f167
}

define i32 @_Z1_PKc(i32 %arg1, i32 %arg2) local_unnamed_addr {
dec_label_pc_f175:
  %stack_var_-25 = alloca i32, align 4
  %stack_var_-36 = alloca i32, align 4
  %stack_var_-24 = alloca i32, align 4
  %v2_f194 = ptrtoint i32* %stack_var_-24 to i32
  store i32 %v2_f194, i32* @eax, align 8
  %v3_f1a9 = call i32 @function_1fe4b(i32 %v2_f194, i32 ptrtoint (i32* @global_var_30.1928 to i32), i32 %arg2)
  %v2_f1b1 = ptrtoint i32* %stack_var_-36 to i32
  store i32 %v2_f1b1, i32* @eax, align 8
  store i32 %v2_f194, i32* @edx, align 8
  %v2_f1be = call i32 @function_1ff19(i32 %v2_f1b1, i32 %v2_f194)
  %v3_f1c6 = load i32, i32* %stack_var_-36, align 4
  store i32 0, i32* @ebx, align 8
  store i1 false, i1* @cf, align 1
  %v1_f1ce = icmp eq i32 %v3_f1c6, 0
  br i1 %v1_f1ce, label %dec_label_pc_f1f0, label %dec_label_pc_f1d2

dec_label_pc_f1d2:                                ; preds = %dec_label_pc_f175
  store i32 %v2_f194, i32* @eax, align 8
  %v1_f1d8 = call i32 @function_1fee3(i32 %v2_f194)
  %v2_f1ee = call i32 @function_f219(i32 %arg1, i32 %v1_f1d8)
  ret i32 %v2_f1ee

dec_label_pc_f1f0:                                ; preds = %dec_label_pc_f175
  %v2_f1f0 = ptrtoint i32* %stack_var_-25 to i32
  ret i32 %v2_f1f0
}

define i32 @function_f1fd() local_unnamed_addr {
dec_label_pc_f1fd:
  %eax.global-to-local = alloca i32, align 4
  %ebx.global-to-local = alloca i32, align 4
  %ecx.global-to-local = alloca i32, align 4
  %v2_f1fd = load i8, i8* bitcast (i32* @eax to i8*), align 8
  %v3_f1fd = load i32, i32* %eax.global-to-local, align 8
  %v4_f1fd = trunc i32 %v3_f1fd to i8
  %v5_f1fd = add i8 %v4_f1fd, %v2_f1fd
  %v21_f1fd = inttoptr i32 %v3_f1fd to i8*
  store i8 %v5_f1fd, i8* %v21_f1fd, align 1
  %v0_f1ff = load i32, i32* %ebx.global-to-local, align 8
  %v1_f1ff = add i32 %v0_f1ff, 1435358277
  %v2_f1ff = inttoptr i32 %v1_f1ff to i8*
  %v3_f1ff = load i8, i8* %v2_f1ff, align 1
  %v4_f1ff = load i32, i32* %ecx.global-to-local, align 4
  %v5_f1ff = trunc i32 %v4_f1ff to i8
  %v6_f1ff = add i8 %v5_f1ff, %v3_f1ff
  store i8 %v6_f1ff, i8* %v2_f1ff, align 1
  %v0_f205 = load i32, i32* %eax.global-to-local, align 8
  ret i32 %v0_f205
}

define i32 @function_f219(i32 %arg1, i32 %arg2) local_unnamed_addr {
dec_label_pc_f219:
  %v0_f219 = load i32, i32* @ebx, align 8
  %v4_f219 = trunc i32 %v0_f219 to i8
  %v5_f219 = icmp eq i8 %v4_f219, 0
  br i1 %v5_f219, label %bb, label %dec_label_pc_f21d

bb:                                               ; preds = %dec_label_pc_f219
  %v1_f21b = call i32 @function_f228()
  br label %dec_label_pc_f21d

dec_label_pc_f21d:                                ; preds = %bb, %dec_label_pc_f219
  %v0_f21d = load i32, i32* @ebp, align 4
  %v1_f21d = add i32 %v0_f21d, -21
  ret i32 %v1_f21d
}

define i32 @function_f228() local_unnamed_addr {
dec_label_pc_f228:
  %v0_f228 = load i32, i32* @ebp, align 4
  %v1_f228 = add i32 %v0_f228, -20
  store i32 %v1_f228, i32* @eax, align 8
  %v1_f22e = call i32 @function_1fead(i32 %v1_f228)
  %v0_f233 = load i32, i32* @ebp, align 4
  %v1_f233 = add i32 %v0_f233, -44
  %v2_f233 = inttoptr i32 %v1_f233 to i32*
  %v3_f233 = load i32, i32* %v2_f233, align 4
  store i32 %v3_f233, i32* @eax, align 8
  %v1_f236 = add i32 %v0_f233, -12
  %v2_f236 = inttoptr i32 %v1_f236 to i32*
  %v3_f236 = load i32, i32* %v2_f236, align 4
  %v4_f239 = icmp eq i32 %v3_f236, ptrtoint ([3 x i8]* @3 to i32)
  br i1 %v4_f239, label %bb, label %dec_label_pc_f242

bb:                                               ; preds = %dec_label_pc_f228
  %v1_f240 = call i32 @function_f275()
  store i32 %v1_f240, i32* @eax, align 8
  br label %dec_label_pc_f242

dec_label_pc_f242:                                ; preds = %bb, %dec_label_pc_f228
  %v0_f242 = call i32 @function_f270()
  ret i32 %v0_f242
}

define i32 @function_f24b() local_unnamed_addr {
dec_label_pc_f24b:
  %eax.global-to-local = alloca i32, align 4
  %v0_f24c = load i32, i32* %eax.global-to-local, align 8
  ret i32 %v0_f24c
}

define i32 @function_f254() local_unnamed_addr {
dec_label_pc_f254:
  %eax.global-to-local = alloca i32, align 4
  %ecx.global-to-local = alloca i32, align 4
  %v0_f254 = load i32, i32* %ecx.global-to-local, align 4
  %v1_f254 = add i32 %v0_f254, -1996297229
  %v2_f254 = inttoptr i32 %v1_f254 to i32*
  %v3_f254 = load i32, i32* %v2_f254, align 4
  %v4_f254 = add i32 %v3_f254, -1
  store i32 %v4_f254, i32* %v2_f254, align 4
  %v0_f25a = load i32, i32* %eax.global-to-local, align 8
  ret i32 %v0_f25a
}

define i32 @function_f270() local_unnamed_addr {
dec_label_pc_f270:
  %tmp = load i32, i32* @eax, align 8
  ret i32 %tmp
}

define i32 @function_f275() local_unnamed_addr {
dec_label_pc_f275:
  %v0_f275 = load i32, i32* @ebp, align 4
  %v1_f275 = add i32 %v0_f275, -8
  %v1_f278 = inttoptr i32 %v1_f275 to i32*
  %v2_f278 = load i32, i32* %v1_f278, align 4
  store i32 %v2_f278, i32* @ebx, align 8
  %v1_f27a = inttoptr i32 %v0_f275 to i32*
  %v2_f27a = load i32, i32* %v1_f27a, align 4
  store i32 %v2_f27a, i32* @ebp, align 4
  %v0_f27b = load i32, i32* @eax, align 8
  ret i32 %v0_f27b
}

define i32 @_ZNSt13runtime_errorC1ERKS_(i32 %arg1, i32 %arg2) local_unnamed_addr {
dec_label_pc_f27e:
  %v2_f2a9 = call i32 @function_1da8c(i32 %arg1, i32 %arg2)
  ret i32 %arg1

; uselistorder directives
  uselistorder i32 %arg1, { 1, 0 }
}

define i32 @function_f2d2() local_unnamed_addr {
dec_label_pc_f2d2:
  %eax.global-to-local = alloca i32, align 4
  %v0_f2d2 = load i32, i32* %eax.global-to-local, align 8
  ret i32 %v0_f2d2
}

define i32 @function_f2e8() local_unnamed_addr {
dec_label_pc_f2e8:
  %tmp92 = call i32 @__decompiler_undefined_function_0()
  %v1_f2e8 = add i32 %tmp92, -12
  %v2_f2e8 = inttoptr i32 %v1_f2e8 to i32*
  %v3_f2e8 = load i32, i32* %v2_f2e8, align 4
  %v3_f2eb = xor i32 %v3_f2e8, ptrtoint ([3 x i8]* @3 to i32)
  %v4_f2eb = icmp eq i32 %v3_f2eb, 0
  store i32 %v3_f2eb, i32* @eax, align 8
  br i1 %v4_f2eb, label %bb, label %dec_label_pc_f2f4

bb:                                               ; preds = %dec_label_pc_f2e8
  %v1_f2f2 = call i32 @function_f2f9()
  br label %dec_label_pc_f2f4

dec_label_pc_f2f4:                                ; preds = %bb, %dec_label_pc_f2e8
  %v2_f2f2 = phi i32 [ %v1_f2f2, %bb ], [ %v3_f2eb, %dec_label_pc_f2e8 ]
  ret i32 %v2_f2f2
}

define i32 @function_f2f9() local_unnamed_addr {
dec_label_pc_f2f9:
  %v0_f2fe = load i32, i32* @eax, align 8
  ret i32 %v0_f2fe
}

define i32 @_ZN5boost6spirit7classic6parserINS1_14nothing_parserEEC1Ev(i32 %arg1) local_unnamed_addr {
dec_label_pc_f300:
  store i32 xor (i32 ptrtoint (i32* @global_var_14a1.1905 to i32), i32 ptrtoint ([3 x i8]* @3 to i32)), i32* @eax, align 8
  br i1 icmp eq (i32 xor (i32 ptrtoint (i32* @global_var_14a1.1905 to i32), i32 ptrtoint ([3 x i8]* @3 to i32)), i32 0), label %bb, label %dec_label_pc_f323

bb:                                               ; preds = %dec_label_pc_f300
  %v2_f321 = call i32 @function_f328(i32 %arg1)
  br label %dec_label_pc_f323

dec_label_pc_f323:                                ; preds = %bb, %dec_label_pc_f300
  %v3_f321 = phi i32 [ %v2_f321, %bb ], [ xor (i32 ptrtoint (i32* @global_var_14a1.1905 to i32), i32 ptrtoint ([3 x i8]* @3 to i32)), %dec_label_pc_f300 ]
  ret i32 %v3_f321
}

define i32 @function_f328(i32 %arg1) local_unnamed_addr {
dec_label_pc_f328:
  %v0_f329 = load i32, i32* @eax, align 8
  ret i32 %v0_f329
}

define i32 @_ZN5boost6spirit7classic14nothing_parserC1Ev(i32 %arg1) local_unnamed_addr {
dec_label_pc_f32a:
  store i32 %arg1, i32* @eax, align 8
  %v1_f347 = call i32 @function_1e62a(i32 %arg1)
  store i32 xor (i32 ptrtoint (i32* @global_var_14a1.1905 to i32), i32 ptrtoint ([3 x i8]* @3 to i32)), i32* @eax, align 8
  br i1 icmp eq (i32 xor (i32 ptrtoint (i32* @global_var_14a1.1905 to i32), i32 ptrtoint ([3 x i8]* @3 to i32)), i32 0), label %bb, label %dec_label_pc_f358

bb:                                               ; preds = %dec_label_pc_f32a
  %v1_f356 = call i32 @function_f35d()
  br label %dec_label_pc_f358

dec_label_pc_f358:                                ; preds = %bb, %dec_label_pc_f32a
  %v2_f356 = phi i32 [ %v1_f356, %bb ], [ xor (i32 ptrtoint (i32* @global_var_14a1.1905 to i32), i32 ptrtoint ([3 x i8]* @3 to i32)), %dec_label_pc_f32a ]
  ret i32 %v2_f356

; uselistorder directives
  uselistorder i32 %arg1, { 1, 0 }
}

define i32 @function_f35d() local_unnamed_addr {
dec_label_pc_f35d:
  %v0_f35e = load i32, i32* @eax, align 8
  ret i32 %v0_f35e
}

define i32 @_ZN5boost6spirit7classic6parserINS1_14anychar_parserEEC1Ev(i32 %arg1) local_unnamed_addr {
dec_label_pc_f360:
  store i32 xor (i32 ptrtoint (i32* @global_var_14a1.1905 to i32), i32 ptrtoint ([3 x i8]* @3 to i32)), i32* @eax, align 8
  br i1 icmp eq (i32 xor (i32 ptrtoint (i32* @global_var_14a1.1905 to i32), i32 ptrtoint ([3 x i8]* @3 to i32)), i32 0), label %bb, label %dec_label_pc_f383

bb:                                               ; preds = %dec_label_pc_f360
  %v2_f381 = call i32 @function_f388(i32 %arg1)
  br label %dec_label_pc_f383

dec_label_pc_f383:                                ; preds = %bb, %dec_label_pc_f360
  %v3_f381 = phi i32 [ %v2_f381, %bb ], [ xor (i32 ptrtoint (i32* @global_var_14a1.1905 to i32), i32 ptrtoint ([3 x i8]* @3 to i32)), %dec_label_pc_f360 ]
  ret i32 %v3_f381
}

define i32 @function_f388(i32 %arg1) local_unnamed_addr {
dec_label_pc_f388:
  %v0_f389 = load i32, i32* @eax, align 8
  ret i32 %v0_f389
}

define i32 @_ZN5boost6spirit7classic11char_parserINS1_14anychar_parserEEC1Ev(i32 %arg1) local_unnamed_addr {
dec_label_pc_f38a:
  %v1_f3a7 = call i32 @function_1e6ea(i32 %arg1)
  store i32 xor (i32 ptrtoint (i32* @global_var_14a1.1905 to i32), i32 ptrtoint ([3 x i8]* @3 to i32)), i32* @eax, align 8
  br i1 icmp eq (i32 xor (i32 ptrtoint (i32* @global_var_14a1.1905 to i32), i32 ptrtoint ([3 x i8]* @3 to i32)), i32 0), label %bb, label %dec_label_pc_f3b8

bb:                                               ; preds = %dec_label_pc_f38a
  %v1_f3b6 = call i32 @function_f3bd()
  br label %dec_label_pc_f3b8

dec_label_pc_f3b8:                                ; preds = %bb, %dec_label_pc_f38a
  %v2_f3b6 = phi i32 [ %v1_f3b6, %bb ], [ xor (i32 ptrtoint (i32* @global_var_14a1.1905 to i32), i32 ptrtoint ([3 x i8]* @3 to i32)), %dec_label_pc_f38a ]
  ret i32 %v2_f3b6
}

define i32 @function_f3bd() local_unnamed_addr {
dec_label_pc_f3bd:
  %v0_f3be = load i32, i32* @eax, align 8
  ret i32 %v0_f3be
}

define i32 @_ZN5boost6spirit7classic14anychar_parserC1Ev(i32 %arg1) local_unnamed_addr {
dec_label_pc_f3c0:
  store i32 %arg1, i32* @eax, align 8
  %v1_f3dd = call i32 @function_1e74a(i32 %arg1)
  store i32 xor (i32 ptrtoint (i32* @global_var_14a1.1905 to i32), i32 ptrtoint ([3 x i8]* @3 to i32)), i32* @eax, align 8
  br i1 icmp eq (i32 xor (i32 ptrtoint (i32* @global_var_14a1.1905 to i32), i32 ptrtoint ([3 x i8]* @3 to i32)), i32 0), label %bb, label %dec_label_pc_f3ee

bb:                                               ; preds = %dec_label_pc_f3c0
  %v1_f3ec = call i32 @function_f3f3()
  br label %dec_label_pc_f3ee

dec_label_pc_f3ee:                                ; preds = %bb, %dec_label_pc_f3c0
  %v2_f3ec = phi i32 [ %v1_f3ec, %bb ], [ xor (i32 ptrtoint (i32* @global_var_14a1.1905 to i32), i32 ptrtoint ([3 x i8]* @3 to i32)), %dec_label_pc_f3c0 ]
  ret i32 %v2_f3ec

; uselistorder directives
  uselistorder i32 %arg1, { 1, 0 }
}

define i32 @function_f3f3() local_unnamed_addr {
dec_label_pc_f3f3:
  %v0_f3f4 = load i32, i32* @eax, align 8
  ret i32 %v0_f3f4
}

define i32 @_ZN5boost6spirit7classic6parserINS1_12alnum_parserEEC1Ev(i32 %arg1) local_unnamed_addr {
dec_label_pc_f3f6:
  store i32 xor (i32 ptrtoint (i32* @global_var_14a1.1905 to i32), i32 ptrtoint ([3 x i8]* @3 to i32)), i32* @eax, align 8
  br i1 icmp eq (i32 xor (i32 ptrtoint (i32* @global_var_14a1.1905 to i32), i32 ptrtoint ([3 x i8]* @3 to i32)), i32 0), label %bb, label %dec_label_pc_f419

bb:                                               ; preds = %dec_label_pc_f3f6
  %v2_f417 = call i32 @function_f41e(i32 %arg1)
  br label %dec_label_pc_f419

dec_label_pc_f419:                                ; preds = %bb, %dec_label_pc_f3f6
  %v3_f417 = phi i32 [ %v2_f417, %bb ], [ xor (i32 ptrtoint (i32* @global_var_14a1.1905 to i32), i32 ptrtoint ([3 x i8]* @3 to i32)), %dec_label_pc_f3f6 ]
  ret i32 %v3_f417
}

define i32 @function_f41e(i32 %arg1) local_unnamed_addr {
dec_label_pc_f41e:
  %v0_f41f = load i32, i32* @eax, align 8
  ret i32 %v0_f41f
}

define i32 @_ZN5boost6spirit7classic11char_parserINS1_12alnum_parserEEC1Ev(i32 %arg1) local_unnamed_addr {
dec_label_pc_f420:
  store i32 %arg1, i32* @eax, align 8
  %v1_f43d = call i32 @function_1e816(i32 %arg1)
  store i32 xor (i32 ptrtoint (i32* @global_var_14a1.1905 to i32), i32 ptrtoint ([3 x i8]* @3 to i32)), i32* @eax, align 8
  br i1 icmp eq (i32 xor (i32 ptrtoint (i32* @global_var_14a1.1905 to i32), i32 ptrtoint ([3 x i8]* @3 to i32)), i32 0), label %bb, label %dec_label_pc_f44e

bb:                                               ; preds = %dec_label_pc_f420
  %v1_f44c = call i32 @function_f453()
  br label %dec_label_pc_f44e

dec_label_pc_f44e:                                ; preds = %bb, %dec_label_pc_f420
  %v2_f44c = phi i32 [ %v1_f44c, %bb ], [ xor (i32 ptrtoint (i32* @global_var_14a1.1905 to i32), i32 ptrtoint ([3 x i8]* @3 to i32)), %dec_label_pc_f420 ]
  ret i32 %v2_f44c

; uselistorder directives
  uselistorder i32 %arg1, { 1, 0 }
}

define i32 @function_f453() local_unnamed_addr {
dec_label_pc_f453:
  %v0_f454 = load i32, i32* @eax, align 8
  ret i32 %v0_f454
}

define i32 @_ZN5boost6spirit7classic12alnum_parserC1Ev(i32 %arg1) local_unnamed_addr {
dec_label_pc_f456:
  store i32 %arg1, i32* @eax, align 8
  %v1_f473 = call i32 @function_1e876(i32 %arg1)
  store i32 xor (i32 ptrtoint (i32* @global_var_14a1.1905 to i32), i32 ptrtoint ([3 x i8]* @3 to i32)), i32* @eax, align 8
  br i1 icmp eq (i32 xor (i32 ptrtoint (i32* @global_var_14a1.1905 to i32), i32 ptrtoint ([3 x i8]* @3 to i32)), i32 0), label %bb, label %dec_label_pc_f484

bb:                                               ; preds = %dec_label_pc_f456
  %v1_f482 = call i32 @function_f489()
  br label %dec_label_pc_f484

dec_label_pc_f484:                                ; preds = %bb, %dec_label_pc_f456
  %v2_f482 = phi i32 [ %v1_f482, %bb ], [ xor (i32 ptrtoint (i32* @global_var_14a1.1905 to i32), i32 ptrtoint ([3 x i8]* @3 to i32)), %dec_label_pc_f456 ]
  ret i32 %v2_f482

; uselistorder directives
  uselistorder i32 %arg1, { 1, 0 }
}

define i32 @function_f489() local_unnamed_addr {
dec_label_pc_f489:
  %v0_f48a = load i32, i32* @eax, align 8
  ret i32 %v0_f48a
}

define i32 @_ZN5boost6spirit7classic6parserINS1_12alpha_parserEEC1Ev(i32 %arg1) local_unnamed_addr {
dec_label_pc_f48c:
  store i32 xor (i32 ptrtoint (i32* @global_var_14a1.1905 to i32), i32 ptrtoint ([3 x i8]* @3 to i32)), i32* @eax, align 8
  br i1 icmp eq (i32 xor (i32 ptrtoint (i32* @global_var_14a1.1905 to i32), i32 ptrtoint ([3 x i8]* @3 to i32)), i32 0), label %bb, label %dec_label_pc_f4af

bb:                                               ; preds = %dec_label_pc_f48c
  %v2_f4ad = call i32 @function_f4b4(i32 %arg1)
  br label %dec_label_pc_f4af

dec_label_pc_f4af:                                ; preds = %bb, %dec_label_pc_f48c
  %v3_f4ad = phi i32 [ %v2_f4ad, %bb ], [ xor (i32 ptrtoint (i32* @global_var_14a1.1905 to i32), i32 ptrtoint ([3 x i8]* @3 to i32)), %dec_label_pc_f48c ]
  ret i32 %v3_f4ad
}

define i32 @function_f4b4(i32 %arg1) local_unnamed_addr {
dec_label_pc_f4b4:
  %v0_f4b5 = load i32, i32* @eax, align 8
  ret i32 %v0_f4b5
}

define i32 @_ZN5boost6spirit7classic11char_parserINS1_12alpha_parserEEC1Ev(i32 %arg1) local_unnamed_addr {
dec_label_pc_f4b6:
  store i1 false, i1* @of, align 1
  store i1 false, i1* @sf, align 1
  store i32 %arg1, i32* @eax, align 8
  %v1_f4d3 = call i32 @function_1e942(i32 %arg1)
  store i32 xor (i32 ptrtoint (i32* @global_var_14a1.1905 to i32), i32 ptrtoint ([3 x i8]* @3 to i32)), i32* @eax, align 8
  br i1 icmp eq (i32 xor (i32 ptrtoint (i32* @global_var_14a1.1905 to i32), i32 ptrtoint ([3 x i8]* @3 to i32)), i32 0), label %bb, label %dec_label_pc_f4e4

bb:                                               ; preds = %dec_label_pc_f4b6
  %v1_f4e2 = call i32 @function_f4e9()
  br label %dec_label_pc_f4e4

dec_label_pc_f4e4:                                ; preds = %bb, %dec_label_pc_f4b6
  %v2_f4e2 = phi i32 [ %v1_f4e2, %bb ], [ xor (i32 ptrtoint (i32* @global_var_14a1.1905 to i32), i32 ptrtoint ([3 x i8]* @3 to i32)), %dec_label_pc_f4b6 ]
  ret i32 %v2_f4e2

; uselistorder directives
  uselistorder i32 %arg1, { 1, 0 }
}

define i32 @function_f4e9() local_unnamed_addr {
dec_label_pc_f4e9:
  %v0_f4ea = load i32, i32* @eax, align 8
  ret i32 %v0_f4ea
}

define i32 @_ZN5boost6spirit7classic12alpha_parserC1Ev(i32 %arg1) local_unnamed_addr {
dec_label_pc_f4ec:
  store i32 %arg1, i32* @eax, align 8
  %v1_f509 = call i32 @function_1e9a2(i32 %arg1)
  store i32 xor (i32 ptrtoint (i32* @global_var_14a1.1905 to i32), i32 ptrtoint ([3 x i8]* @3 to i32)), i32* @eax, align 8
  br i1 icmp eq (i32 xor (i32 ptrtoint (i32* @global_var_14a1.1905 to i32), i32 ptrtoint ([3 x i8]* @3 to i32)), i32 0), label %bb, label %dec_label_pc_f51a

bb:                                               ; preds = %dec_label_pc_f4ec
  %v1_f518 = call i32 @function_f51f()
  br label %dec_label_pc_f51a

dec_label_pc_f51a:                                ; preds = %bb, %dec_label_pc_f4ec
  %v2_f518 = phi i32 [ %v1_f518, %bb ], [ xor (i32 ptrtoint (i32* @global_var_14a1.1905 to i32), i32 ptrtoint ([3 x i8]* @3 to i32)), %dec_label_pc_f4ec ]
  ret i32 %v2_f518

; uselistorder directives
  uselistorder i32 %arg1, { 1, 0 }
}

define i32 @function_f51f() local_unnamed_addr {
dec_label_pc_f51f:
  %v0_f520 = load i32, i32* @eax, align 8
  ret i32 %v0_f520
}

define i32 @_ZN5boost6spirit7classic6parserINS1_12cntrl_parserEEC1Ev(i32 %arg1) local_unnamed_addr {
dec_label_pc_f522:
  store i32 xor (i32 ptrtoint (i32* @global_var_14a1.1905 to i32), i32 ptrtoint ([3 x i8]* @3 to i32)), i32* @eax, align 8
  br i1 icmp eq (i32 xor (i32 ptrtoint (i32* @global_var_14a1.1905 to i32), i32 ptrtoint ([3 x i8]* @3 to i32)), i32 0), label %bb, label %dec_label_pc_f545

bb:                                               ; preds = %dec_label_pc_f522
  %v2_f543 = call i32 @function_f54a(i32 %arg1)
  br label %dec_label_pc_f545

dec_label_pc_f545:                                ; preds = %bb, %dec_label_pc_f522
  %v3_f543 = phi i32 [ %v2_f543, %bb ], [ xor (i32 ptrtoint (i32* @global_var_14a1.1905 to i32), i32 ptrtoint ([3 x i8]* @3 to i32)), %dec_label_pc_f522 ]
  ret i32 %v3_f543
}

define i32 @function_f54a(i32 %arg1) local_unnamed_addr {
dec_label_pc_f54a:
  %v0_f54b = load i32, i32* @eax, align 8
  ret i32 %v0_f54b
}

define i32 @_ZN5boost6spirit7classic11char_parserINS1_12cntrl_parserEEC1Ev(i32 %arg1) local_unnamed_addr {
dec_label_pc_f54c:
  store i32 %arg1, i32* @eax, align 8
  %v1_f569 = call i32 @function_1ea6e(i32 %arg1)
  store i32 xor (i32 ptrtoint (i32* @global_var_14a1.1905 to i32), i32 ptrtoint ([3 x i8]* @3 to i32)), i32* @eax, align 8
  br i1 icmp eq (i32 xor (i32 ptrtoint (i32* @global_var_14a1.1905 to i32), i32 ptrtoint ([3 x i8]* @3 to i32)), i32 0), label %bb, label %dec_label_pc_f57a

bb:                                               ; preds = %dec_label_pc_f54c
  %v1_f578 = call i32 @function_f57f()
  br label %dec_label_pc_f57a

dec_label_pc_f57a:                                ; preds = %bb, %dec_label_pc_f54c
  %v2_f578 = phi i32 [ %v1_f578, %bb ], [ xor (i32 ptrtoint (i32* @global_var_14a1.1905 to i32), i32 ptrtoint ([3 x i8]* @3 to i32)), %dec_label_pc_f54c ]
  ret i32 %v2_f578

; uselistorder directives
  uselistorder i32 %arg1, { 1, 0 }
}

define i32 @function_f57f() local_unnamed_addr {
dec_label_pc_f57f:
  %v0_f580 = load i32, i32* @eax, align 8
  ret i32 %v0_f580
}

define i32 @_ZN5boost6spirit7classic12cntrl_parserC1Ev(i32 %arg1) local_unnamed_addr {
dec_label_pc_f582:
  store i32 xor (i32 ptrtoint (i32* @global_var_14a1.1905 to i32), i32 ptrtoint ([3 x i8]* @3 to i32)), i32* @eax, align 8
  br i1 icmp eq (i32 xor (i32 ptrtoint (i32* @global_var_14a1.1905 to i32), i32 ptrtoint ([3 x i8]* @3 to i32)), i32 0), label %bb, label %dec_label_pc_f5b0

bb:                                               ; preds = %dec_label_pc_f582
  %v2_f5ae = call i32 @function_f5b5(i32 %arg1)
  br label %dec_label_pc_f5b0

dec_label_pc_f5b0:                                ; preds = %bb, %dec_label_pc_f582
  %v3_f5ae = phi i32 [ %v2_f5ae, %bb ], [ xor (i32 ptrtoint (i32* @global_var_14a1.1905 to i32), i32 ptrtoint ([3 x i8]* @3 to i32)), %dec_label_pc_f582 ]
  ret i32 %v3_f5ae
}

define i32 @function_f5b5(i32 %arg1) local_unnamed_addr {
dec_label_pc_f5b5:
  %v0_f5b6 = load i32, i32* @eax, align 8
  ret i32 %v0_f5b6
}

define i32 @_ZN5boost6spirit7classic6parserINS1_12digit_parserEEC1Ev(i32 %arg1) local_unnamed_addr {
dec_label_pc_f5b8:
  store i32 xor (i32 ptrtoint (i32* @global_var_14a1.1905 to i32), i32 ptrtoint ([3 x i8]* @3 to i32)), i32* @eax, align 8
  br i1 icmp eq (i32 xor (i32 ptrtoint (i32* @global_var_14a1.1905 to i32), i32 ptrtoint ([3 x i8]* @3 to i32)), i32 0), label %bb, label %dec_label_pc_f5db

bb:                                               ; preds = %dec_label_pc_f5b8
  %v2_f5d9 = call i32 @function_f5e0(i32 %arg1)
  br label %dec_label_pc_f5db

dec_label_pc_f5db:                                ; preds = %bb, %dec_label_pc_f5b8
  %v3_f5d9 = phi i32 [ %v2_f5d9, %bb ], [ xor (i32 ptrtoint (i32* @global_var_14a1.1905 to i32), i32 ptrtoint ([3 x i8]* @3 to i32)), %dec_label_pc_f5b8 ]
  ret i32 %v3_f5d9
}

define i32 @function_f5e0(i32 %arg1) local_unnamed_addr {
dec_label_pc_f5e0:
  %v0_f5e1 = load i32, i32* @eax, align 8
  ret i32 %v0_f5e1
}

define i32 @_ZN5boost6spirit7classic11char_parserINS1_12digit_parserEEC1Ev(i32 %arg1) local_unnamed_addr {
dec_label_pc_f5e2:
  store i32 xor (i32 ptrtoint (i32* @global_var_14a1.1905 to i32), i32 ptrtoint ([3 x i8]* @3 to i32)), i32* @eax, align 8
  br i1 icmp eq (i32 xor (i32 ptrtoint (i32* @global_var_14a1.1905 to i32), i32 ptrtoint ([3 x i8]* @3 to i32)), i32 0), label %bb, label %dec_label_pc_f610

bb:                                               ; preds = %dec_label_pc_f5e2
  %v2_f60e = call i32 @function_f615(i32 %arg1)
  br label %dec_label_pc_f610

dec_label_pc_f610:                                ; preds = %bb, %dec_label_pc_f5e2
  %v3_f60e = phi i32 [ %v2_f60e, %bb ], [ xor (i32 ptrtoint (i32* @global_var_14a1.1905 to i32), i32 ptrtoint ([3 x i8]* @3 to i32)), %dec_label_pc_f5e2 ]
  ret i32 %v3_f60e
}

define i32 @function_f615(i32 %arg1) local_unnamed_addr {
dec_label_pc_f615:
  %v0_f616 = load i32, i32* @eax, align 8
  ret i32 %v0_f616
}

define i32 @_ZN5boost6spirit7classic12digit_parserC1Ev(i32 %arg1) local_unnamed_addr {
dec_label_pc_f618:
  %v1_f635 = call i32 @function_1ebfa(i32 %arg1)
  store i32 xor (i32 ptrtoint (i32* @global_var_14a1.1905 to i32), i32 ptrtoint ([3 x i8]* @3 to i32)), i32* @eax, align 8
  br i1 icmp eq (i32 xor (i32 ptrtoint (i32* @global_var_14a1.1905 to i32), i32 ptrtoint ([3 x i8]* @3 to i32)), i32 0), label %bb, label %dec_label_pc_f646

bb:                                               ; preds = %dec_label_pc_f618
  %v1_f644 = call i32 @function_f64b()
  br label %dec_label_pc_f646

dec_label_pc_f646:                                ; preds = %bb, %dec_label_pc_f618
  %v2_f644 = phi i32 [ %v1_f644, %bb ], [ xor (i32 ptrtoint (i32* @global_var_14a1.1905 to i32), i32 ptrtoint ([3 x i8]* @3 to i32)), %dec_label_pc_f618 ]
  ret i32 %v2_f644
}

define i32 @function_f64b() local_unnamed_addr {
dec_label_pc_f64b:
  %v0_f64c = load i32, i32* @eax, align 8
  ret i32 %v0_f64c
}

define i32 @_ZN5boost6spirit7classic6parserINS1_12graph_parserEEC1Ev(i32 %arg1) local_unnamed_addr {
dec_label_pc_f64e:
  store i32 xor (i32 ptrtoint (i32* @global_var_14a1.1905 to i32), i32 ptrtoint ([3 x i8]* @3 to i32)), i32* @eax, align 8
  br i1 icmp eq (i32 xor (i32 ptrtoint (i32* @global_var_14a1.1905 to i32), i32 ptrtoint ([3 x i8]* @3 to i32)), i32 0), label %bb, label %dec_label_pc_f671

bb:                                               ; preds = %dec_label_pc_f64e
  %v2_f66f = call i32 @function_f676(i32 %arg1)
  br label %dec_label_pc_f671

dec_label_pc_f671:                                ; preds = %bb, %dec_label_pc_f64e
  %v3_f66f = phi i32 [ %v2_f66f, %bb ], [ xor (i32 ptrtoint (i32* @global_var_14a1.1905 to i32), i32 ptrtoint ([3 x i8]* @3 to i32)), %dec_label_pc_f64e ]
  ret i32 %v3_f66f
}

define i32 @function_f676(i32 %arg1) local_unnamed_addr {
dec_label_pc_f676:
  %v0_f677 = load i32, i32* @eax, align 8
  ret i32 %v0_f677
}

define i32 @_ZN5boost6spirit7classic11char_parserINS1_12graph_parserEEC1Ev(i32 %arg1) local_unnamed_addr {
dec_label_pc_f678:
  store i32 %arg1, i32* @eax, align 8
  %v1_f695 = call i32 @function_1ecc6(i32 %arg1)
  store i32 xor (i32 ptrtoint (i32* @global_var_14a1.1905 to i32), i32 ptrtoint ([3 x i8]* @3 to i32)), i32* @eax, align 8
  br i1 icmp eq (i32 xor (i32 ptrtoint (i32* @global_var_14a1.1905 to i32), i32 ptrtoint ([3 x i8]* @3 to i32)), i32 0), label %bb, label %dec_label_pc_f6a6

bb:                                               ; preds = %dec_label_pc_f678
  %v1_f6a4 = call i32 @function_f6ab()
  br label %dec_label_pc_f6a6

dec_label_pc_f6a6:                                ; preds = %bb, %dec_label_pc_f678
  %v2_f6a4 = phi i32 [ %v1_f6a4, %bb ], [ xor (i32 ptrtoint (i32* @global_var_14a1.1905 to i32), i32 ptrtoint ([3 x i8]* @3 to i32)), %dec_label_pc_f678 ]
  ret i32 %v2_f6a4

; uselistorder directives
  uselistorder i32 %arg1, { 1, 0 }
}

define i32 @function_f6ab() local_unnamed_addr {
dec_label_pc_f6ab:
  %v0_f6ac = load i32, i32* @eax, align 8
  ret i32 %v0_f6ac
}

define i32 @_ZN5boost6spirit7classic12graph_parserC1Ev(i32 %arg1) local_unnamed_addr {
dec_label_pc_f6ae:
  store i32 xor (i32 ptrtoint (i32* @global_var_14a1.1905 to i32), i32 ptrtoint ([3 x i8]* @3 to i32)), i32* @eax, align 8
  br i1 icmp eq (i32 xor (i32 ptrtoint (i32* @global_var_14a1.1905 to i32), i32 ptrtoint ([3 x i8]* @3 to i32)), i32 0), label %bb, label %dec_label_pc_f6dc

bb:                                               ; preds = %dec_label_pc_f6ae
  %v2_f6da = call i32 @function_f6e1(i32 %arg1)
  br label %dec_label_pc_f6dc

dec_label_pc_f6dc:                                ; preds = %bb, %dec_label_pc_f6ae
  %v3_f6da = phi i32 [ %v2_f6da, %bb ], [ xor (i32 ptrtoint (i32* @global_var_14a1.1905 to i32), i32 ptrtoint ([3 x i8]* @3 to i32)), %dec_label_pc_f6ae ]
  ret i32 %v3_f6da
}

define i32 @function_f6e1(i32 %arg1) local_unnamed_addr {
dec_label_pc_f6e1:
  %v0_f6e2 = load i32, i32* @eax, align 8
  ret i32 %v0_f6e2
}

define i32 @_ZN5boost6spirit7classic6parserINS1_12lower_parserEEC1Ev(i32 %arg1) local_unnamed_addr {
dec_label_pc_f6e4:
  store i32 xor (i32 ptrtoint (i32* @global_var_14a1.1905 to i32), i32 ptrtoint ([3 x i8]* @3 to i32)), i32* @eax, align 8
  br i1 icmp eq (i32 xor (i32 ptrtoint (i32* @global_var_14a1.1905 to i32), i32 ptrtoint ([3 x i8]* @3 to i32)), i32 0), label %bb, label %dec_label_pc_f707

bb:                                               ; preds = %dec_label_pc_f6e4
  %v2_f705 = call i32 @function_f70c(i32 %arg1)
  br label %dec_label_pc_f707

dec_label_pc_f707:                                ; preds = %bb, %dec_label_pc_f6e4
  %v3_f705 = phi i32 [ %v2_f705, %bb ], [ xor (i32 ptrtoint (i32* @global_var_14a1.1905 to i32), i32 ptrtoint ([3 x i8]* @3 to i32)), %dec_label_pc_f6e4 ]
  ret i32 %v3_f705
}

define i32 @function_f70c(i32 %arg1) local_unnamed_addr {
dec_label_pc_f70c:
  %v0_f70d = load i32, i32* @eax, align 8
  ret i32 %v0_f70d
}

define i32 @_ZN5boost6spirit7classic11char_parserINS1_12lower_parserEEC1Ev(i32 %arg1) local_unnamed_addr {
dec_label_pc_f70e:
  store i32 %arg1, i32* @eax, align 8
  %v1_f72b = call i32 @function_1edf2(i32 %arg1)
  ret i32 xor (i32 ptrtoint (i32* @global_var_14a1.1905 to i32), i32 ptrtoint ([3 x i8]* @3 to i32))

; uselistorder directives
  uselistorder i32 %arg1, { 1, 0 }
}

define i32 @_ZN5boost6spirit7classic12lower_parserC1Ev(i32 %arg1) local_unnamed_addr {
dec_label_pc_f744:
  store i32 %arg1, i32* @eax, align 8
  %v1_f761 = call i32 @function_1ee52(i32 %arg1)
  store i32 xor (i32 ptrtoint (i32* @global_var_14a1.1905 to i32), i32 ptrtoint ([3 x i8]* @3 to i32)), i32* @eax, align 8
  br i1 icmp eq (i32 xor (i32 ptrtoint (i32* @global_var_14a1.1905 to i32), i32 ptrtoint ([3 x i8]* @3 to i32)), i32 0), label %bb, label %dec_label_pc_f772

bb:                                               ; preds = %dec_label_pc_f744
  %v1_f770 = call i32 @function_f777()
  br label %dec_label_pc_f772

dec_label_pc_f772:                                ; preds = %bb, %dec_label_pc_f744
  %v2_f770 = phi i32 [ %v1_f770, %bb ], [ xor (i32 ptrtoint (i32* @global_var_14a1.1905 to i32), i32 ptrtoint ([3 x i8]* @3 to i32)), %dec_label_pc_f744 ]
  ret i32 %v2_f770

; uselistorder directives
  uselistorder i32 %arg1, { 1, 0 }
}

define i32 @function_f777() local_unnamed_addr {
dec_label_pc_f777:
  %v0_f778 = load i32, i32* @eax, align 8
  ret i32 %v0_f778
}

define i32 @_ZN5boost6spirit7classic6parserINS1_12print_parserEEC1Ev(i32 %arg1) local_unnamed_addr {
dec_label_pc_f77a:
  store i32 xor (i32 ptrtoint (i32* @global_var_14a1.1905 to i32), i32 ptrtoint ([3 x i8]* @3 to i32)), i32* @eax, align 8
  br i1 icmp eq (i32 xor (i32 ptrtoint (i32* @global_var_14a1.1905 to i32), i32 ptrtoint ([3 x i8]* @3 to i32)), i32 0), label %bb, label %dec_label_pc_f79d

bb:                                               ; preds = %dec_label_pc_f77a
  %v2_f79b = call i32 @function_f7a2(i32 %arg1)
  br label %dec_label_pc_f79d

dec_label_pc_f79d:                                ; preds = %bb, %dec_label_pc_f77a
  %v3_f79b = phi i32 [ %v2_f79b, %bb ], [ xor (i32 ptrtoint (i32* @global_var_14a1.1905 to i32), i32 ptrtoint ([3 x i8]* @3 to i32)), %dec_label_pc_f77a ]
  ret i32 %v3_f79b
}

define i32 @function_f7a2(i32 %arg1) local_unnamed_addr {
dec_label_pc_f7a2:
  %v0_f7a3 = load i32, i32* @eax, align 8
  ret i32 %v0_f7a3
}

define i32 @_ZN5boost6spirit7classic11char_parserINS1_12print_parserEEC1Ev(i32 %arg1) local_unnamed_addr {
dec_label_pc_f7a4:
  store i32 %arg1, i32* @eax, align 8
  %v1_f7c1 = call i32 @function_1ef1e(i32 %arg1)
  store i32 xor (i32 ptrtoint (i32* @global_var_14a1.1905 to i32), i32 ptrtoint ([3 x i8]* @3 to i32)), i32* @eax, align 8
  br i1 icmp eq (i32 xor (i32 ptrtoint (i32* @global_var_14a1.1905 to i32), i32 ptrtoint ([3 x i8]* @3 to i32)), i32 0), label %bb, label %dec_label_pc_f7d2

bb:                                               ; preds = %dec_label_pc_f7a4
  %v1_f7d0 = call i32 @function_f7d7()
  br label %dec_label_pc_f7d2

dec_label_pc_f7d2:                                ; preds = %bb, %dec_label_pc_f7a4
  %v2_f7d0 = phi i32 [ %v1_f7d0, %bb ], [ xor (i32 ptrtoint (i32* @global_var_14a1.1905 to i32), i32 ptrtoint ([3 x i8]* @3 to i32)), %dec_label_pc_f7a4 ]
  ret i32 %v2_f7d0

; uselistorder directives
  uselistorder i32 %arg1, { 1, 0 }
}

define i32 @function_f7d7() local_unnamed_addr {
dec_label_pc_f7d7:
  %v0_f7d8 = load i32, i32* @eax, align 8
  ret i32 %v0_f7d8
}

define i32 @_ZN5boost6spirit7classic12print_parserC1Ev(i32 %arg1) local_unnamed_addr {
dec_label_pc_f7da:
  store i1 false, i1* @cf, align 1
  store i32 %arg1, i32* @eax, align 8
  %v1_f7f7 = call i32 @function_1ef7e(i32 %arg1)
  store i32 xor (i32 ptrtoint (i32* @global_var_14a1.1905 to i32), i32 ptrtoint ([3 x i8]* @3 to i32)), i32* @eax, align 8
  br i1 icmp eq (i32 xor (i32 ptrtoint (i32* @global_var_14a1.1905 to i32), i32 ptrtoint ([3 x i8]* @3 to i32)), i32 0), label %bb, label %dec_label_pc_f808

bb:                                               ; preds = %dec_label_pc_f7da
  %v1_f806 = call i32 @function_f80d()
  br label %dec_label_pc_f808

dec_label_pc_f808:                                ; preds = %bb, %dec_label_pc_f7da
  %v2_f806 = phi i32 [ %v1_f806, %bb ], [ xor (i32 ptrtoint (i32* @global_var_14a1.1905 to i32), i32 ptrtoint ([3 x i8]* @3 to i32)), %dec_label_pc_f7da ]
  ret i32 %v2_f806

; uselistorder directives
  uselistorder i32 %arg1, { 1, 0 }
}

define i32 @function_f80d() local_unnamed_addr {
dec_label_pc_f80d:
  %v0_f80e = load i32, i32* @eax, align 8
  ret i32 %v0_f80e
}

define i32 @_ZN5boost6spirit7classic6parserINS1_12punct_parserEEC1Ev(i32 %arg1) local_unnamed_addr {
dec_label_pc_f810:
  store i32 xor (i32 ptrtoint (i32* @global_var_14a1.1905 to i32), i32 ptrtoint ([3 x i8]* @3 to i32)), i32* @eax, align 8
  br i1 icmp eq (i32 xor (i32 ptrtoint (i32* @global_var_14a1.1905 to i32), i32 ptrtoint ([3 x i8]* @3 to i32)), i32 0), label %bb, label %dec_label_pc_f833

bb:                                               ; preds = %dec_label_pc_f810
  %v2_f831 = call i32 @function_f838(i32 %arg1)
  br label %dec_label_pc_f833

dec_label_pc_f833:                                ; preds = %bb, %dec_label_pc_f810
  %v3_f831 = phi i32 [ %v2_f831, %bb ], [ xor (i32 ptrtoint (i32* @global_var_14a1.1905 to i32), i32 ptrtoint ([3 x i8]* @3 to i32)), %dec_label_pc_f810 ]
  ret i32 %v3_f831
}

define i32 @function_f838(i32 %arg1) local_unnamed_addr {
dec_label_pc_f838:
  %v0_f839 = load i32, i32* @eax, align 8
  ret i32 %v0_f839
}

define i32 @_ZN5boost6spirit7classic11char_parserINS1_12punct_parserEEC1Ev(i32 %arg1) local_unnamed_addr {
dec_label_pc_f83a:
  %v1_f857 = call i32 @function_1f04a(i32 %arg1)
  store i32 xor (i32 ptrtoint (i32* @global_var_14a1.1905 to i32), i32 ptrtoint ([3 x i8]* @3 to i32)), i32* @eax, align 8
  br i1 icmp eq (i32 xor (i32 ptrtoint (i32* @global_var_14a1.1905 to i32), i32 ptrtoint ([3 x i8]* @3 to i32)), i32 0), label %bb, label %dec_label_pc_f868

bb:                                               ; preds = %dec_label_pc_f83a
  %v1_f866 = call i32 @function_f86d()
  br label %dec_label_pc_f868

dec_label_pc_f868:                                ; preds = %bb, %dec_label_pc_f83a
  %v2_f866 = phi i32 [ %v1_f866, %bb ], [ xor (i32 ptrtoint (i32* @global_var_14a1.1905 to i32), i32 ptrtoint ([3 x i8]* @3 to i32)), %dec_label_pc_f83a ]
  ret i32 %v2_f866
}

define i32 @function_f86d() local_unnamed_addr {
dec_label_pc_f86d:
  %v0_f86e = load i32, i32* @eax, align 8
  ret i32 %v0_f86e
}

define i32 @_ZN5boost6spirit7classic12punct_parserC1Ev(i32 %arg1) local_unnamed_addr {
dec_label_pc_f870:
  store i32 xor (i32 ptrtoint (i32* @global_var_14a1.1905 to i32), i32 ptrtoint ([3 x i8]* @3 to i32)), i32* @eax, align 8
  br i1 icmp eq (i32 xor (i32 ptrtoint (i32* @global_var_14a1.1905 to i32), i32 ptrtoint ([3 x i8]* @3 to i32)), i32 0), label %bb, label %dec_label_pc_f89e

bb:                                               ; preds = %dec_label_pc_f870
  %v2_f89c = call i32 @function_f8a3(i32 %arg1)
  br label %dec_label_pc_f89e

dec_label_pc_f89e:                                ; preds = %bb, %dec_label_pc_f870
  %v3_f89c = phi i32 [ %v2_f89c, %bb ], [ xor (i32 ptrtoint (i32* @global_var_14a1.1905 to i32), i32 ptrtoint ([3 x i8]* @3 to i32)), %dec_label_pc_f870 ]
  ret i32 %v3_f89c
}

define i32 @function_f8a3(i32 %arg1) local_unnamed_addr {
dec_label_pc_f8a3:
  %v0_f8a4 = load i32, i32* @eax, align 8
  ret i32 %v0_f8a4
}

define i32 @_ZN5boost6spirit7classic6parserINS1_12blank_parserEEC1Ev(i32 %arg1) local_unnamed_addr {
dec_label_pc_f8a6:
  store i32 xor (i32 ptrtoint (i32* @global_var_14a1.1905 to i32), i32 ptrtoint ([3 x i8]* @3 to i32)), i32* @eax, align 8
  br i1 icmp eq (i32 xor (i32 ptrtoint (i32* @global_var_14a1.1905 to i32), i32 ptrtoint ([3 x i8]* @3 to i32)), i32 0), label %bb, label %dec_label_pc_f8c9

bb:                                               ; preds = %dec_label_pc_f8a6
  %v2_f8c7 = call i32 @function_f8ce(i32 %arg1)
  br label %dec_label_pc_f8c9

dec_label_pc_f8c9:                                ; preds = %bb, %dec_label_pc_f8a6
  %v3_f8c7 = phi i32 [ %v2_f8c7, %bb ], [ xor (i32 ptrtoint (i32* @global_var_14a1.1905 to i32), i32 ptrtoint ([3 x i8]* @3 to i32)), %dec_label_pc_f8a6 ]
  ret i32 %v3_f8c7
}

define i32 @function_f8ce(i32 %arg1) local_unnamed_addr {
dec_label_pc_f8ce:
  %v0_f8cf = load i32, i32* @eax, align 8
  ret i32 %v0_f8cf
}

define i32 @_ZN5boost6spirit7classic11char_parserINS1_12blank_parserEEC1Ev(i32 %arg1) local_unnamed_addr {
dec_label_pc_f8d0:
  store i32 %arg1, i32* @eax, align 8
  %v1_f8ed = call i32 @function_1f176(i32 %arg1)
  store i32 xor (i32 ptrtoint (i32* @global_var_14a1.1905 to i32), i32 ptrtoint ([3 x i8]* @3 to i32)), i32* @eax, align 8
  br i1 icmp eq (i32 xor (i32 ptrtoint (i32* @global_var_14a1.1905 to i32), i32 ptrtoint ([3 x i8]* @3 to i32)), i32 0), label %bb, label %dec_label_pc_f8fe

bb:                                               ; preds = %dec_label_pc_f8d0
  %v1_f8fc = call i32 @function_f903()
  br label %dec_label_pc_f8fe

dec_label_pc_f8fe:                                ; preds = %bb, %dec_label_pc_f8d0
  %v2_f8fc = phi i32 [ %v1_f8fc, %bb ], [ xor (i32 ptrtoint (i32* @global_var_14a1.1905 to i32), i32 ptrtoint ([3 x i8]* @3 to i32)), %dec_label_pc_f8d0 ]
  ret i32 %v2_f8fc

; uselistorder directives
  uselistorder i32 %arg1, { 1, 0 }
}

define i32 @function_f903() local_unnamed_addr {
dec_label_pc_f903:
  %v0_f904 = load i32, i32* @eax, align 8
  ret i32 %v0_f904
}

define i32 @_ZN5boost6spirit7classic12blank_parserC1Ev(i32 %arg1) local_unnamed_addr {
dec_label_pc_f906:
  store i32 xor (i32 ptrtoint (i32* @global_var_14a1.1905 to i32), i32 ptrtoint ([3 x i8]* @3 to i32)), i32* @eax, align 8
  br i1 icmp eq (i32 xor (i32 ptrtoint (i32* @global_var_14a1.1905 to i32), i32 ptrtoint ([3 x i8]* @3 to i32)), i32 0), label %bb, label %dec_label_pc_f934

bb:                                               ; preds = %dec_label_pc_f906
  %v2_f932 = call i32 @function_f939(i32 %arg1)
  br label %dec_label_pc_f934

dec_label_pc_f934:                                ; preds = %bb, %dec_label_pc_f906
  %v3_f932 = phi i32 [ %v2_f932, %bb ], [ xor (i32 ptrtoint (i32* @global_var_14a1.1905 to i32), i32 ptrtoint ([3 x i8]* @3 to i32)), %dec_label_pc_f906 ]
  ret i32 %v3_f932
}

define i32 @function_f939(i32 %arg1) local_unnamed_addr {
dec_label_pc_f939:
  %v0_f93a = load i32, i32* @eax, align 8
  ret i32 %v0_f93a
}

define i32 @_ZN5boost6spirit7classic6parserINS1_12space_parserEEC1Ev(i32 %arg1) local_unnamed_addr {
dec_label_pc_f93c:
  store i32 xor (i32 ptrtoint (i32* @global_var_14a1.1905 to i32), i32 ptrtoint ([3 x i8]* @3 to i32)), i32* @eax, align 8
  br i1 icmp eq (i32 xor (i32 ptrtoint (i32* @global_var_14a1.1905 to i32), i32 ptrtoint ([3 x i8]* @3 to i32)), i32 0), label %bb, label %dec_label_pc_f95f

bb:                                               ; preds = %dec_label_pc_f93c
  %v2_f95d = call i32 @function_f964(i32 %arg1)
  br label %dec_label_pc_f95f

dec_label_pc_f95f:                                ; preds = %bb, %dec_label_pc_f93c
  %v3_f95d = phi i32 [ %v2_f95d, %bb ], [ xor (i32 ptrtoint (i32* @global_var_14a1.1905 to i32), i32 ptrtoint ([3 x i8]* @3 to i32)), %dec_label_pc_f93c ]
  ret i32 %v3_f95d
}

define i32 @function_f964(i32 %arg1) local_unnamed_addr {
dec_label_pc_f964:
  %v0_f965 = load i32, i32* @eax, align 8
  ret i32 %v0_f965
}

define i32 @_ZN5boost6spirit7classic11char_parserINS1_12space_parserEEC1Ev(i32 %arg1) local_unnamed_addr {
dec_label_pc_f966:
  store i32 %arg1, i32* @eax, align 8
  %v1_f983 = call i32 @function_1f2a2(i32 %arg1)
  ret i32 xor (i32 ptrtoint (i32* @global_var_14a1.1905 to i32), i32 ptrtoint ([3 x i8]* @3 to i32))

; uselistorder directives
  uselistorder i32 %arg1, { 1, 0 }
}

define i32 @_ZN5boost6spirit7classic12space_parserC1Ev(i32 %arg1) local_unnamed_addr {
dec_label_pc_f99c:
  %v1_f9b9 = call i32 @function_1f302(i32 %arg1)
  store i32 xor (i32 ptrtoint (i32* @global_var_14a1.1905 to i32), i32 ptrtoint ([3 x i8]* @3 to i32)), i32* @eax, align 8
  br i1 icmp eq (i32 xor (i32 ptrtoint (i32* @global_var_14a1.1905 to i32), i32 ptrtoint ([3 x i8]* @3 to i32)), i32 0), label %bb, label %dec_label_pc_f9ca

bb:                                               ; preds = %dec_label_pc_f99c
  %v1_f9c8 = call i32 @function_f9cf()
  br label %dec_label_pc_f9ca

dec_label_pc_f9ca:                                ; preds = %bb, %dec_label_pc_f99c
  %v2_f9c8 = phi i32 [ %v1_f9c8, %bb ], [ xor (i32 ptrtoint (i32* @global_var_14a1.1905 to i32), i32 ptrtoint ([3 x i8]* @3 to i32)), %dec_label_pc_f99c ]
  ret i32 %v2_f9c8
}

define i32 @function_f9cf() local_unnamed_addr {
dec_label_pc_f9cf:
  %v0_f9d0 = load i32, i32* @eax, align 8
  ret i32 %v0_f9d0
}

define i32 @_ZN5boost6spirit7classic6parserINS1_12upper_parserEEC1Ev(i32 %arg1) local_unnamed_addr {
dec_label_pc_f9d2:
  store i32 xor (i32 ptrtoint (i32* @global_var_14a1.1905 to i32), i32 ptrtoint ([3 x i8]* @3 to i32)), i32* @eax, align 8
  br i1 icmp eq (i32 xor (i32 ptrtoint (i32* @global_var_14a1.1905 to i32), i32 ptrtoint ([3 x i8]* @3 to i32)), i32 0), label %bb, label %dec_label_pc_f9f5

bb:                                               ; preds = %dec_label_pc_f9d2
  %v2_f9f3 = call i32 @function_f9fa(i32 %arg1)
  br label %dec_label_pc_f9f5

dec_label_pc_f9f5:                                ; preds = %bb, %dec_label_pc_f9d2
  %v3_f9f3 = phi i32 [ %v2_f9f3, %bb ], [ xor (i32 ptrtoint (i32* @global_var_14a1.1905 to i32), i32 ptrtoint ([3 x i8]* @3 to i32)), %dec_label_pc_f9d2 ]
  ret i32 %v3_f9f3
}

define i32 @function_f9fa(i32 %arg1) local_unnamed_addr {
dec_label_pc_f9fa:
  %v0_f9fb = load i32, i32* @eax, align 8
  ret i32 %v0_f9fb
}

define i32 @_ZN5boost6spirit7classic11char_parserINS1_12upper_parserEEC1Ev(i32 %arg1) local_unnamed_addr {
dec_label_pc_f9fc:
  %v1_fa19 = call i32 @_ZNSt3mapISt4pairIN5boost8signals26detail15slot_meta_groupENS1_8optionalIiEEESt14_List_iteratorINS1_10shared_ptrINS3_15connection_bodyIS7_NS2_5slot3IbRKSsSD_jNS1_8functionIFbSD_SD_jEEEEENS2_5mutexEEEEEENS3_14group_key_lessIiSt4lessIiEEESaIS0_IKS7_SL_EEE6insertERKSR_(i32 %arg1)
  ret i32 xor (i32 ptrtoint (i32* @global_var_14a1.1905 to i32), i32 ptrtoint ([3 x i8]* @3 to i32))
}

define i32 @_ZN5boost6spirit7classic12upper_parserC1Ev(i32 %arg1) local_unnamed_addr {
dec_label_pc_fa32:
  store i32 %arg1, i32* @eax, align 8
  %v1_fa4f = call i32 @function_1f42e(i32 %arg1)
  store i32 xor (i32 ptrtoint (i32* @global_var_14a1.1905 to i32), i32 ptrtoint ([3 x i8]* @3 to i32)), i32* @eax, align 8
  br i1 icmp eq (i32 xor (i32 ptrtoint (i32* @global_var_14a1.1905 to i32), i32 ptrtoint ([3 x i8]* @3 to i32)), i32 0), label %bb, label %dec_label_pc_fa60

bb:                                               ; preds = %dec_label_pc_fa32
  %v1_fa5e = call i32 @function_fa65()
  br label %dec_label_pc_fa60

dec_label_pc_fa60:                                ; preds = %bb, %dec_label_pc_fa32
  %v2_fa5e = phi i32 [ %v1_fa5e, %bb ], [ xor (i32 ptrtoint (i32* @global_var_14a1.1905 to i32), i32 ptrtoint ([3 x i8]* @3 to i32)), %dec_label_pc_fa32 ]
  ret i32 %v2_fa5e

; uselistorder directives
  uselistorder i32 (i32)* @function_1f42e, { 1, 0 }
  uselistorder i32 %arg1, { 1, 0 }
}

define i32 @function_fa65() local_unnamed_addr {
dec_label_pc_fa65:
  %v0_fa66 = load i32, i32* @eax, align 8
  ret i32 %v0_fa66
}

define i32 @_ZN5boost6spirit7classic6parserINS1_13xdigit_parserEEC1Ev(i32 %arg1) local_unnamed_addr {
dec_label_pc_fa68:
  store i32 xor (i32 ptrtoint (i32* @global_var_14a1.1905 to i32), i32 ptrtoint ([3 x i8]* @3 to i32)), i32* @eax, align 8
  br i1 icmp eq (i32 xor (i32 ptrtoint (i32* @global_var_14a1.1905 to i32), i32 ptrtoint ([3 x i8]* @3 to i32)), i32 0), label %bb, label %dec_label_pc_fa8b

bb:                                               ; preds = %dec_label_pc_fa68
  %v2_fa89 = call i32 @function_fa90(i32 %arg1)
  br label %dec_label_pc_fa8b

dec_label_pc_fa8b:                                ; preds = %bb, %dec_label_pc_fa68
  %v3_fa89 = phi i32 [ %v2_fa89, %bb ], [ xor (i32 ptrtoint (i32* @global_var_14a1.1905 to i32), i32 ptrtoint ([3 x i8]* @3 to i32)), %dec_label_pc_fa68 ]
  ret i32 %v3_fa89
}

define i32 @function_fa90(i32 %arg1) local_unnamed_addr {
dec_label_pc_fa90:
  %v0_fa91 = load i32, i32* @eax, align 8
  ret i32 %v0_fa91
}

define i32 @_ZN5boost6spirit7classic11char_parserINS1_13xdigit_parserEEC1Ev(i32 %arg1) local_unnamed_addr {
dec_label_pc_fa92:
  store i32 %arg1, i32* @eax, align 8
  %v1_faaf = call i32 @function_1f4fa(i32 %arg1)
  store i32 xor (i32 ptrtoint (i32* @global_var_14a1.1905 to i32), i32 ptrtoint ([3 x i8]* @3 to i32)), i32* @eax, align 8
  br i1 icmp eq (i32 xor (i32 ptrtoint (i32* @global_var_14a1.1905 to i32), i32 ptrtoint ([3 x i8]* @3 to i32)), i32 0), label %bb, label %dec_label_pc_fac0

bb:                                               ; preds = %dec_label_pc_fa92
  %v1_fabe = call i32 @function_fac5()
  br label %dec_label_pc_fac0

dec_label_pc_fac0:                                ; preds = %bb, %dec_label_pc_fa92
  %v2_fabe = phi i32 [ %v1_fabe, %bb ], [ xor (i32 ptrtoint (i32* @global_var_14a1.1905 to i32), i32 ptrtoint ([3 x i8]* @3 to i32)), %dec_label_pc_fa92 ]
  ret i32 %v2_fabe

; uselistorder directives
  uselistorder i32 %arg1, { 1, 0 }
}

define i32 @function_fac5() local_unnamed_addr {
dec_label_pc_fac5:
  %v0_fac6 = load i32, i32* @eax, align 8
  ret i32 %v0_fac6
}

define i32 @_ZN5boost6spirit7classic13xdigit_parserC1Ev(i32 %arg1) local_unnamed_addr {
dec_label_pc_fac8:
  store i32 xor (i32 ptrtoint (i32* @global_var_14a1.1905 to i32), i32 ptrtoint ([3 x i8]* @3 to i32)), i32* @eax, align 8
  br i1 icmp eq (i32 xor (i32 ptrtoint (i32* @global_var_14a1.1905 to i32), i32 ptrtoint ([3 x i8]* @3 to i32)), i32 0), label %bb, label %dec_label_pc_faf6

bb:                                               ; preds = %dec_label_pc_fac8
  %v2_faf4 = call i32 @function_fafb(i32 %arg1)
  br label %dec_label_pc_faf6

dec_label_pc_faf6:                                ; preds = %bb, %dec_label_pc_fac8
  %v3_faf4 = phi i32 [ %v2_faf4, %bb ], [ xor (i32 ptrtoint (i32* @global_var_14a1.1905 to i32), i32 ptrtoint ([3 x i8]* @3 to i32)), %dec_label_pc_fac8 ]
  ret i32 %v3_faf4
}

define i32 @function_fafb(i32 %arg1) local_unnamed_addr {
dec_label_pc_fafb:
  %v0_fafc = load i32, i32* @eax, align 8
  ret i32 %v0_fafc
}

define i32 @_ZN5boost6spirit7classic6parserINS1_10eol_parserEEC1Ev(i32 %arg1) local_unnamed_addr {
dec_label_pc_fafe:
  store i32 xor (i32 ptrtoint (i32* @global_var_14a1.1905 to i32), i32 ptrtoint ([3 x i8]* @3 to i32)), i32* @eax, align 8
  br i1 icmp eq (i32 xor (i32 ptrtoint (i32* @global_var_14a1.1905 to i32), i32 ptrtoint ([3 x i8]* @3 to i32)), i32 0), label %bb, label %dec_label_pc_fb21

bb:                                               ; preds = %dec_label_pc_fafe
  %v2_fb1f = call i32 @function_fb26(i32 %arg1)
  br label %dec_label_pc_fb21

dec_label_pc_fb21:                                ; preds = %bb, %dec_label_pc_fafe
  %v3_fb1f = phi i32 [ %v2_fb1f, %bb ], [ xor (i32 ptrtoint (i32* @global_var_14a1.1905 to i32), i32 ptrtoint ([3 x i8]* @3 to i32)), %dec_label_pc_fafe ]
  ret i32 %v3_fb1f
}

define i32 @function_fb26(i32 %arg1) local_unnamed_addr {
dec_label_pc_fb26:
  %v0_fb27 = load i32, i32* @eax, align 8
  ret i32 %v0_fb27
}

define i32 @_ZN5boost6spirit7classic10eol_parserC1Ev(i32 %arg1) local_unnamed_addr {
dec_label_pc_fb28:
  %v1_fb45 = call i32 @function_1f626(i32 %arg1)
  store i32 xor (i32 ptrtoint (i32* @global_var_14a1.1905 to i32), i32 ptrtoint ([3 x i8]* @3 to i32)), i32* @eax, align 8
  br i1 icmp eq (i32 xor (i32 ptrtoint (i32* @global_var_14a1.1905 to i32), i32 ptrtoint ([3 x i8]* @3 to i32)), i32 0), label %bb, label %dec_label_pc_fb56

bb:                                               ; preds = %dec_label_pc_fb28
  %v1_fb54 = call i32 @function_fb5b()
  br label %dec_label_pc_fb56

dec_label_pc_fb56:                                ; preds = %bb, %dec_label_pc_fb28
  %v2_fb54 = phi i32 [ %v1_fb54, %bb ], [ xor (i32 ptrtoint (i32* @global_var_14a1.1905 to i32), i32 ptrtoint ([3 x i8]* @3 to i32)), %dec_label_pc_fb28 ]
  ret i32 %v2_fb54
}

define i32 @function_fb5b() local_unnamed_addr {
dec_label_pc_fb5b:
  %v0_fb5c = load i32, i32* @eax, align 8
  ret i32 %v0_fb5c
}

define i32 @_ZN5boost6spirit7classic6parserINS1_10end_parserEEC1Ev(i32 %arg1) local_unnamed_addr {
dec_label_pc_fb5e:
  store i32 xor (i32 ptrtoint (i32* @global_var_14a1.1905 to i32), i32 ptrtoint ([3 x i8]* @3 to i32)), i32* @eax, align 8
  br i1 icmp eq (i32 xor (i32 ptrtoint (i32* @global_var_14a1.1905 to i32), i32 ptrtoint ([3 x i8]* @3 to i32)), i32 0), label %bb, label %dec_label_pc_fb81

bb:                                               ; preds = %dec_label_pc_fb5e
  %v2_fb7f = call i32 @function_fb86(i32 %arg1)
  br label %dec_label_pc_fb81

dec_label_pc_fb81:                                ; preds = %bb, %dec_label_pc_fb5e
  %v3_fb7f = phi i32 [ %v2_fb7f, %bb ], [ xor (i32 ptrtoint (i32* @global_var_14a1.1905 to i32), i32 ptrtoint ([3 x i8]* @3 to i32)), %dec_label_pc_fb5e ]
  ret i32 %v3_fb7f
}

define i32 @function_fb86(i32 %arg1) local_unnamed_addr {
dec_label_pc_fb86:
  %v0_fb87 = load i32, i32* @eax, align 8
  ret i32 %v0_fb87
}

define i32 @_ZN5boost6spirit7classic10end_parserC1Ev(i32 %arg1) local_unnamed_addr {
dec_label_pc_fb88:
  store i32 %arg1, i32* @eax, align 8
  %v1_fba5 = call i32 @function_1f6e6(i32 %arg1)
  ret i32 xor (i32 ptrtoint (i32* @global_var_14a1.1905 to i32), i32 ptrtoint ([3 x i8]* @3 to i32))

; uselistorder directives
  uselistorder i32 %arg1, { 1, 0 }
}

define i32 @_ZN5boost6spirit7classic28inhibit_case_parser_gen_baseILi0EEC1Ev(i32 %arg1) local_unnamed_addr {
dec_label_pc_fbbe:
  ret i32 xor (i32 ptrtoint (i32* @global_var_14a1.1905 to i32), i32 ptrtoint ([3 x i8]* @3 to i32))
}

define i32 @_ZN5boost6spirit7classic23inhibit_case_parser_genC1Ev(i32 %arg1) local_unnamed_addr {
dec_label_pc_fbe8:
  store i32 %arg1, i32* @eax, align 8
  %v1_fc05 = call i32 @function_1f7a6(i32 %arg1)
  store i32 xor (i32 ptrtoint (i32* @global_var_14a1.1905 to i32), i32 ptrtoint ([3 x i8]* @3 to i32)), i32* @eax, align 8
  br i1 icmp eq (i32 xor (i32 ptrtoint (i32* @global_var_14a1.1905 to i32), i32 ptrtoint ([3 x i8]* @3 to i32)), i32 0), label %bb, label %dec_label_pc_fc16

bb:                                               ; preds = %dec_label_pc_fbe8
  %v1_fc14 = call i32 @function_fc1b()
  br label %dec_label_pc_fc16

dec_label_pc_fc16:                                ; preds = %bb, %dec_label_pc_fbe8
  %v2_fc14 = phi i32 [ %v1_fc14, %bb ], [ xor (i32 ptrtoint (i32* @global_var_14a1.1905 to i32), i32 ptrtoint ([3 x i8]* @3 to i32)), %dec_label_pc_fbe8 ]
  ret i32 %v2_fc14

; uselistorder directives
  uselistorder i32 %arg1, { 1, 0 }
}

define i32 @function_fc1b() local_unnamed_addr {
dec_label_pc_fc1b:
  %v0_fc1c = load i32, i32* @eax, align 8
  ret i32 %v0_fc1c
}

define i32 @_ZN5boost6spirit7classic6parserINS1_11sign_parserEEC1Ev(i32 %arg1) local_unnamed_addr {
dec_label_pc_fc1e:
  store i32 xor (i32 ptrtoint (i32* @global_var_14a1.1905 to i32), i32 ptrtoint ([3 x i8]* @3 to i32)), i32* @eax, align 8
  br i1 icmp eq (i32 xor (i32 ptrtoint (i32* @global_var_14a1.1905 to i32), i32 ptrtoint ([3 x i8]* @3 to i32)), i32 0), label %bb, label %dec_label_pc_fc41

bb:                                               ; preds = %dec_label_pc_fc1e
  %v2_fc3f = call i32 @function_fc46(i32 %arg1)
  br label %dec_label_pc_fc41

dec_label_pc_fc41:                                ; preds = %bb, %dec_label_pc_fc1e
  %v3_fc3f = phi i32 [ %v2_fc3f, %bb ], [ xor (i32 ptrtoint (i32* @global_var_14a1.1905 to i32), i32 ptrtoint ([3 x i8]* @3 to i32)), %dec_label_pc_fc1e ]
  ret i32 %v3_fc3f
}

define i32 @function_fc46(i32 %arg1) local_unnamed_addr {
dec_label_pc_fc46:
  %v0_fc47 = load i32, i32* @eax, align 8
  ret i32 %v0_fc47
}

define i32 @_ZN5boost6spirit7classic11sign_parserC1Ev(i32 %arg1) local_unnamed_addr {
dec_label_pc_fc48:
  store i32 %arg1, i32* @eax, align 8
  %v1_fc65 = call i32 @function_1f866(i32 %arg1)
  ret i32 xor (i32 ptrtoint (i32* @global_var_14a1.1905 to i32), i32 ptrtoint ([3 x i8]* @3 to i32))

; uselistorder directives
  uselistorder i32 %arg1, { 1, 0 }
}

define i32 @_ZN5boost6spirit7classic6parserINS1_14epsilon_parserEEC1Ev(i32 %arg1) local_unnamed_addr {
dec_label_pc_fc7e:
  store i32 xor (i32 ptrtoint (i32* @global_var_14a1.1905 to i32), i32 ptrtoint ([3 x i8]* @3 to i32)), i32* @eax, align 8
  br i1 icmp eq (i32 xor (i32 ptrtoint (i32* @global_var_14a1.1905 to i32), i32 ptrtoint ([3 x i8]* @3 to i32)), i32 0), label %bb, label %dec_label_pc_fca1

bb:                                               ; preds = %dec_label_pc_fc7e
  %v2_fc9f = call i32 @function_fca6(i32 %arg1)
  br label %dec_label_pc_fca1

dec_label_pc_fca1:                                ; preds = %bb, %dec_label_pc_fc7e
  %v3_fc9f = phi i32 [ %v2_fc9f, %bb ], [ xor (i32 ptrtoint (i32* @global_var_14a1.1905 to i32), i32 ptrtoint ([3 x i8]* @3 to i32)), %dec_label_pc_fc7e ]
  ret i32 %v3_fc9f
}

define i32 @function_fca6(i32 %arg1) local_unnamed_addr {
dec_label_pc_fca6:
  %v0_fca7 = load i32, i32* @eax, align 8
  ret i32 %v0_fca7
}

define i32 @_ZN5boost6spirit7classic14epsilon_parserC1Ev(i32 %arg1) local_unnamed_addr {
dec_label_pc_fca8:
  store i32 xor (i32 ptrtoint (i32* @global_var_14a1.1905 to i32), i32 ptrtoint ([3 x i8]* @3 to i32)), i32* @eax, align 8
  br i1 icmp eq (i32 xor (i32 ptrtoint (i32* @global_var_14a1.1905 to i32), i32 ptrtoint ([3 x i8]* @3 to i32)), i32 0), label %bb, label %dec_label_pc_fcd6

bb:                                               ; preds = %dec_label_pc_fca8
  %v2_fcd4 = call i32 @function_fcdb(i32 %arg1)
  br label %dec_label_pc_fcd6

dec_label_pc_fcd6:                                ; preds = %bb, %dec_label_pc_fca8
  %v3_fcd4 = phi i32 [ %v2_fcd4, %bb ], [ xor (i32 ptrtoint (i32* @global_var_14a1.1905 to i32), i32 ptrtoint ([3 x i8]* @3 to i32)), %dec_label_pc_fca8 ]
  ret i32 %v3_fcd4
}

define i32 @function_fcdb(i32 %arg1) local_unnamed_addr {
dec_label_pc_fcdb:
  %v0_fcdc = load i32, i32* @eax, align 8
  ret i32 %v0_fcdc
}

define i32 @_ZN5boost8signals29slot_baseD1Ev(i32 %arg1) local_unnamed_addr {
dec_label_pc_fcde:
  store i32 xor (i32 ptrtoint (i32* @global_var_14a1.1905 to i32), i32 ptrtoint ([3 x i8]* @3 to i32)), i32* @eax, align 8
  br i1 icmp eq (i32 xor (i32 ptrtoint (i32* @global_var_14a1.1905 to i32), i32 ptrtoint ([3 x i8]* @3 to i32)), i32 0), label %bb, label %dec_label_pc_fd0c

bb:                                               ; preds = %dec_label_pc_fcde
  %v2_fd0a = call i32 @function_fd11(i32 %arg1)
  br label %dec_label_pc_fd0c

dec_label_pc_fd0c:                                ; preds = %bb, %dec_label_pc_fcde
  %v3_fd0a = phi i32 [ %v2_fd0a, %bb ], [ xor (i32 ptrtoint (i32* @global_var_14a1.1905 to i32), i32 ptrtoint ([3 x i8]* @3 to i32)), %dec_label_pc_fcde ]
  ret i32 %v3_fd0a
}

define i32 @function_fd11(i32 %arg1) local_unnamed_addr {
dec_label_pc_fd11:
  %v0_fd12 = load i32, i32* @eax, align 8
  ret i32 %v0_fd12
}

define i32 @_ZN5boost8functionIFbRKSsS2_jEED1Ev(i32 %arg1) local_unnamed_addr {
dec_label_pc_fd14:
  store i32 %arg1, i32* @eax, align 8
  %v1_fd31 = call i32 @function_210fe(i32 %arg1)
  store i32 xor (i32 ptrtoint (i32* @global_var_14a1.1905 to i32), i32 ptrtoint ([3 x i8]* @3 to i32)), i32* @eax, align 8
  br i1 icmp eq (i32 xor (i32 ptrtoint (i32* @global_var_14a1.1905 to i32), i32 ptrtoint ([3 x i8]* @3 to i32)), i32 0), label %bb, label %dec_label_pc_fd42

bb:                                               ; preds = %dec_label_pc_fd14
  %v1_fd40 = call i32 @function_fd47()
  br label %dec_label_pc_fd42

dec_label_pc_fd42:                                ; preds = %bb, %dec_label_pc_fd14
  %v2_fd40 = phi i32 [ %v1_fd40, %bb ], [ xor (i32 ptrtoint (i32* @global_var_14a1.1905 to i32), i32 ptrtoint ([3 x i8]* @3 to i32)), %dec_label_pc_fd14 ]
  ret i32 %v2_fd40

; uselistorder directives
  uselistorder i32 %arg1, { 1, 0 }
}

define i32 @function_fd47() local_unnamed_addr {
dec_label_pc_fd47:
  %v0_fd48 = load i32, i32* @eax, align 8
  ret i32 %v0_fd48
}

define i32 @_ZN5boost8signals25slot3IbRKSsS3_jNS_8functionIFbS3_S3_jEEEED1Ev(i32 %arg1) local_unnamed_addr {
dec_label_pc_fd4a:
  %v1_fd65 = add i32 %arg1, 12
  store i32 %v1_fd65, i32* @eax, align 8
  %v1_fd6b = call i32 @function_1fa5e(i32 %v1_fd65)
  store i32 %arg1, i32* @eax, align 8
  %v1_fd76 = call i32 @function_1fa28(i32 %arg1)
  store i32 xor (i32 ptrtoint (i32* @global_var_14a1.1905 to i32), i32 ptrtoint ([3 x i8]* @3 to i32)), i32* @eax, align 8
  br i1 icmp eq (i32 xor (i32 ptrtoint (i32* @global_var_14a1.1905 to i32), i32 ptrtoint ([3 x i8]* @3 to i32)), i32 0), label %bb, label %dec_label_pc_fd87

bb:                                               ; preds = %dec_label_pc_fd4a
  %v1_fd85 = call i32 @function_fda5()
  store i32 %v1_fd85, i32* @eax, align 8
  br label %dec_label_pc_fd87

dec_label_pc_fd87:                                ; preds = %bb, %dec_label_pc_fd4a
  %v0_fd87 = call i32 @function_fda0()
  ret i32 %v0_fd87

; uselistorder directives
  uselistorder i32 %arg1, { 2, 1, 0 }
}

define i32 @function_fd8a() local_unnamed_addr {
dec_label_pc_fd8a:
  %eax.global-to-local = alloca i32, align 4
  %v0_fd8a = load i32, i32* %eax.global-to-local, align 8
  ret i32 %v0_fd8a
}

define i32 @function_fda0() local_unnamed_addr {
dec_label_pc_fda0:
  %tmp = load i32, i32* @eax, align 8
  ret i32 %tmp
}

define i32 @function_fda5() local_unnamed_addr {
dec_label_pc_fda5:
  %v0_fdaa = load i32, i32* @eax, align 8
  ret i32 %v0_fdaa
}

define i32 @_ZN5boost8functionIFbxEED1Ev(i32 %arg1) local_unnamed_addr {
dec_label_pc_fdac:
  store i1 false, i1* @cf, align 1
  store i32 %arg1, i32* @eax, align 8
  %v1_fdc9 = call i32 @function_212d2(i32 %arg1)
  store i32 xor (i32 ptrtoint (i32* @global_var_14a1.1905 to i32), i32 ptrtoint ([3 x i8]* @3 to i32)), i32* @eax, align 8
  br i1 icmp eq (i32 xor (i32 ptrtoint (i32* @global_var_14a1.1905 to i32), i32 ptrtoint ([3 x i8]* @3 to i32)), i32 0), label %bb, label %dec_label_pc_fdda

bb:                                               ; preds = %dec_label_pc_fdac
  %v1_fdd8 = call i32 @function_fddf()
  br label %dec_label_pc_fdda

dec_label_pc_fdda:                                ; preds = %bb, %dec_label_pc_fdac
  %v2_fdd8 = phi i32 [ %v1_fdd8, %bb ], [ xor (i32 ptrtoint (i32* @global_var_14a1.1905 to i32), i32 ptrtoint ([3 x i8]* @3 to i32)), %dec_label_pc_fdac ]
  ret i32 %v2_fdd8

; uselistorder directives
  uselistorder i32 %arg1, { 1, 0 }
}

define i32 @function_fddf() local_unnamed_addr {
dec_label_pc_fddf:
  %v0_fde0 = load i32, i32* @eax, align 8
  ret i32 %v0_fde0
}

define i32 @_ZN5boost8signals25slot1IbxNS_8functionIFbxEEEED1Ev(i32 %arg1) local_unnamed_addr {
dec_label_pc_fde2:
  %v1_fdfd = add i32 %arg1, 12
  store i32 %v1_fdfd, i32* @eax, align 8
  %v1_fe03 = call i32 @function_1fb8e(i32 %v1_fdfd)
  store i32 %arg1, i32* @eax, align 8
  %v1_fe0e = call i32 @function_1fac0(i32 %arg1)
  store i32 xor (i32 ptrtoint (i32* @global_var_14a1.1905 to i32), i32 ptrtoint ([3 x i8]* @3 to i32)), i32* @eax, align 8
  br i1 icmp eq (i32 xor (i32 ptrtoint (i32* @global_var_14a1.1905 to i32), i32 ptrtoint ([3 x i8]* @3 to i32)), i32 0), label %bb, label %dec_label_pc_fe38

bb:                                               ; preds = %dec_label_pc_fde2
  %v1_fe1d = call i32 @function_fe3d()
  br label %dec_label_pc_fe38

dec_label_pc_fe38:                                ; preds = %dec_label_pc_fde2, %bb
  %v0_fe1f = phi i32 [ xor (i32 ptrtoint (i32* @global_var_14a1.1905 to i32), i32 ptrtoint ([3 x i8]* @3 to i32)), %dec_label_pc_fde2 ], [ %v1_fe1d, %bb ]
  ret i32 %v0_fe1f

; uselistorder directives
  uselistorder i32 %arg1, { 2, 1, 0 }
  uselistorder label %dec_label_pc_fe38, { 1, 0 }
}

define i32 @function_fe21() local_unnamed_addr {
dec_label_pc_fe21:
  %eax.global-to-local = alloca i32, align 4
  %ebx.global-to-local = alloca i32, align 4
  %v0_fe21 = load i32, i32* %eax.global-to-local, align 8
  store i32 %v0_fe21, i32* %ebx.global-to-local, align 8
  %v0_fe23 = load i32, i32* @ebp, align 4
  %v1_fe23 = add i32 %v0_fe23, -28
  %v2_fe23 = inttoptr i32 %v1_fe23 to i32*
  %v3_fe23 = load i32, i32* %v2_fe23, align 4
  store i32 %v3_fe23, i32* @eax, align 8
  %v1_fe29 = call i32 @function_1fac0(i32 %v3_fe23)
  %v0_fe2e = load i32, i32* %ebx.global-to-local, align 8
  store i32 %v0_fe2e, i32* %eax.global-to-local, align 8
  ret i32 %v0_fe2e

; uselistorder directives
  uselistorder i32 (i32)* @function_1fac0, { 1, 0 }
}

define i32 @function_fe3d() local_unnamed_addr {
dec_label_pc_fe3d:
  %v0_fe42 = load i32, i32* @eax, align 8
  ret i32 %v0_fe42
}

define i32 @_ZN5boost8functionIFvRKSsEED1Ev(i32 %arg1) local_unnamed_addr {
dec_label_pc_fe44:
  store i32 %arg1, i32* @eax, align 8
  %v1_fe61 = call i32 @function_214a6(i32 %arg1)
  store i32 xor (i32 ptrtoint (i32* @global_var_14a1.1905 to i32), i32 ptrtoint ([3 x i8]* @3 to i32)), i32* @eax, align 8
  br i1 icmp eq (i32 xor (i32 ptrtoint (i32* @global_var_14a1.1905 to i32), i32 ptrtoint ([3 x i8]* @3 to i32)), i32 0), label %bb, label %dec_label_pc_fe72

bb:                                               ; preds = %dec_label_pc_fe44
  %v1_fe70 = call i32 @function_fe77()
  br label %dec_label_pc_fe72

dec_label_pc_fe72:                                ; preds = %bb, %dec_label_pc_fe44
  %v2_fe70 = phi i32 [ %v1_fe70, %bb ], [ xor (i32 ptrtoint (i32* @global_var_14a1.1905 to i32), i32 ptrtoint ([3 x i8]* @3 to i32)), %dec_label_pc_fe44 ]
  ret i32 %v2_fe70

; uselistorder directives
  uselistorder i32 %arg1, { 1, 0 }
}

define i32 @function_fe77() local_unnamed_addr {
dec_label_pc_fe77:
  %v0_fe78 = load i32, i32* @eax, align 8
  ret i32 %v0_fe78
}

define i32 @_ZN5boost8signals25slot1IvRKSsNS_8functionIFvS3_EEEED1Ev(i32 %arg1) local_unnamed_addr {
dec_label_pc_fe7a:
  %v1_fe95 = add i32 %arg1, 12
  %v1_fe9b = call i32 @function_1fcbe(i32 %v1_fe95)
  store i32 %arg1, i32* @eax, align 8
  %v1_fea6 = call i32 @function_1fb58(i32 %arg1)
  store i32 xor (i32 ptrtoint (i32* @global_var_14a1.1905 to i32), i32 ptrtoint ([3 x i8]* @3 to i32)), i32* @eax, align 8
  br i1 icmp eq (i32 xor (i32 ptrtoint (i32* @global_var_14a1.1905 to i32), i32 ptrtoint ([3 x i8]* @3 to i32)), i32 0), label %bb, label %dec_label_pc_feb7

bb:                                               ; preds = %dec_label_pc_fe7a
  %v1_feb5 = call i32 @function_fed5()
  store i32 %v1_feb5, i32* @eax, align 8
  br label %dec_label_pc_feb7

dec_label_pc_feb7:                                ; preds = %bb, %dec_label_pc_fe7a
  %v0_feb7 = call i32 @function_fed0()
  ret i32 %v0_feb7

; uselistorder directives
  uselistorder i32 %arg1, { 2, 1, 0 }
}

define i32 @function_feba() local_unnamed_addr {
dec_label_pc_feba:
  %eax.global-to-local = alloca i32, align 4
  %v0_feba = load i32, i32* %eax.global-to-local, align 8
  ret i32 %v0_feba
}

define i32 @function_fed0() local_unnamed_addr {
dec_label_pc_fed0:
  %tmp = load i32, i32* @eax, align 8
  ret i32 %tmp
}

define i32 @function_fed5() local_unnamed_addr {
dec_label_pc_fed5:
  %v0_feda = load i32, i32* @eax, align 8
  ret i32 %v0_feda
}

define i32 @_ZN5boost16exception_detail12refcount_ptrINS0_20error_info_containerEEC1Ev(i32* %arg1) local_unnamed_addr {
dec_label_pc_fedc:
  store i32 0, i32* %arg1, align 4
  store i32 xor (i32 ptrtoint (i32* @global_var_14a1.1905 to i32), i32 ptrtoint ([3 x i8]* @3 to i32)), i32* @eax, align 8
  br i1 icmp eq (i32 xor (i32 ptrtoint (i32* @global_var_14a1.1905 to i32), i32 ptrtoint ([3 x i8]* @3 to i32)), i32 0), label %bb, label %dec_label_pc_ff08

bb:                                               ; preds = %dec_label_pc_fedc
  %tmp102 = ptrtoint i32* %arg1 to i32
  %v2_ff06 = call i32 @function_ff0d(i32 %tmp102)
  br label %dec_label_pc_ff08

dec_label_pc_ff08:                                ; preds = %bb, %dec_label_pc_fedc
  %v3_ff06 = phi i32 [ %v2_ff06, %bb ], [ xor (i32 ptrtoint (i32* @global_var_14a1.1905 to i32), i32 ptrtoint ([3 x i8]* @3 to i32)), %dec_label_pc_fedc ]
  ret i32 %v3_ff06

; uselistorder directives
  uselistorder i32* %arg1, { 1, 0 }
}

define i32 @function_ff0d(i32 %arg1) local_unnamed_addr {
dec_label_pc_ff0d:
  %v0_ff0e = load i32, i32* @eax, align 8
  ret i32 %v0_ff0e
}

define i32 @_ZN5boost16exception_detail12refcount_ptrINS0_20error_info_containerEED1Ev(i32 %arg1) local_unnamed_addr {
dec_label_pc_ff10:
  %v1_ff2d = call i32 @function_21618(i32 %arg1)
  ret i32 xor (i32 ptrtoint (i32* @global_var_14a1.1905 to i32), i32 ptrtoint ([3 x i8]* @3 to i32))
}

define i32 @_ZNK5boost16exception_detail12refcount_ptrINS0_20error_info_containerEE3getEv(i32* %arg1) local_unnamed_addr {
dec_label_pc_ff46:
  %ebp.global-to-local = alloca i32, align 4
  %v0_ff46 = load i32, i32* %ebp.global-to-local, align 4
  %v2_ff60 = load i32, i32* %arg1, align 4
  store i32 %v0_ff46, i32* %ebp.global-to-local, align 4
  ret i32 %v2_ff60
}

define i32 @_ZN5boost16exception_detail12refcount_ptrINS0_20error_info_containerEEaSERKS3_(i32 %arg1, i32* %arg2) local_unnamed_addr {
dec_label_pc_ff76:
  %v2_ff96 = load i32, i32* %arg2, align 4
  store i32 %arg1, i32* @eax, align 8
  %v2_ffa2 = call i32 @function_200e8(i32 %arg1, i32 %v2_ff96)
  store i32 %arg1, i32* @eax, align 8
  br i1 icmp eq (i32 xor (i32 ptrtoint (i32* @global_var_14a1.1905 to i32), i32 ptrtoint ([3 x i8]* @3 to i32)), i32 0), label %bb, label %dec_label_pc_ffb6

bb:                                               ; preds = %dec_label_pc_ff76
  %v1_ffb4 = call i32 @function_ffbb()
  br label %dec_label_pc_ffb6

dec_label_pc_ffb6:                                ; preds = %bb, %dec_label_pc_ff76
  %v2_ffb4 = phi i32 [ %v1_ffb4, %bb ], [ %arg1, %dec_label_pc_ff76 ]
  ret i32 %v2_ffb4

; uselistorder directives
  uselistorder i32 %arg1, { 0, 3, 2, 1 }
}

define i32 @function_ffbb() local_unnamed_addr {
dec_label_pc_ffbb:
  %v0_ffbc = load i32, i32* @eax, align 8
  ret i32 %v0_ffbc
}

define i32 @_ZN5boost16exception_detail10clone_baseC1ERKS1_(i32* %arg1, i32 %arg2) local_unnamed_addr {
dec_label_pc_ffbe:
  %ebp.global-to-local = alloca i32, align 4
  %v0_ffbe = load i32, i32* %ebp.global-to-local, align 4
  store i32 ptrtoint (i32* @global_var_33c8c.1922 to i32), i32* %arg1, align 4
  store i32 %v0_ffbe, i32* %ebp.global-to-local, align 4
  ret i32 xor (i32 ptrtoint (i32* @global_var_14a1.1905 to i32), i32 ptrtoint ([3 x i8]* @3 to i32))
}

define i32 @_ZN5boost3argILi1EEC1Ev(i32 %arg1) local_unnamed_addr {
dec_label_pc_fff8:
  store i32 xor (i32 ptrtoint (i32* @global_var_14a1.1905 to i32), i32 ptrtoint ([3 x i8]* @3 to i32)), i32* @eax, align 8
  br i1 icmp eq (i32 xor (i32 ptrtoint (i32* @global_var_14a1.1905 to i32), i32 ptrtoint ([3 x i8]* @3 to i32)), i32 0), label %bb, label %dec_label_pc_1001b

bb:                                               ; preds = %dec_label_pc_fff8
  %v2_10019 = call i32 @function_10020(i32 %arg1)
  br label %dec_label_pc_1001b

dec_label_pc_1001b:                               ; preds = %bb, %dec_label_pc_fff8
  %v3_10019 = phi i32 [ %v2_10019, %bb ], [ xor (i32 ptrtoint (i32* @global_var_14a1.1905 to i32), i32 ptrtoint ([3 x i8]* @3 to i32)), %dec_label_pc_fff8 ]
  ret i32 %v3_10019
}

define i32 @function_10020(i32 %arg1) local_unnamed_addr {
dec_label_pc_10020:
  %v0_10021 = load i32, i32* @eax, align 8
  ret i32 %v0_10021
}

define i32 @_ZN5boost3argILi2EEC1Ev(i32 %arg1) local_unnamed_addr {
dec_label_pc_10022:
  ret i32 xor (i32 ptrtoint (i32* @global_var_14a1.1905 to i32), i32 ptrtoint ([3 x i8]* @3 to i32))
}

define i32 @_ZN5boost3argILi3EEC1Ev(i32 %arg1) local_unnamed_addr {
dec_label_pc_1004c:
  ret i32 xor (i32 ptrtoint (i32* @global_var_14a1.1905 to i32), i32 ptrtoint ([3 x i8]* @3 to i32))
}

define i32 @_ZN5boost3argILi4EEC1Ev(i32 %arg1) local_unnamed_addr {
dec_label_pc_10076:
  ret i32 xor (i32 ptrtoint (i32* @global_var_14a1.1905 to i32), i32 ptrtoint ([3 x i8]* @3 to i32))
}

define i32 @_ZN5boost3argILi5EEC1Ev(i32 %arg1) local_unnamed_addr {
dec_label_pc_100a0:
  store i32 xor (i32 ptrtoint (i32* @global_var_14a1.1905 to i32), i32 ptrtoint ([3 x i8]* @3 to i32)), i32* @eax, align 8
  br i1 icmp eq (i32 xor (i32 ptrtoint (i32* @global_var_14a1.1905 to i32), i32 ptrtoint ([3 x i8]* @3 to i32)), i32 0), label %bb, label %dec_label_pc_100c3

bb:                                               ; preds = %dec_label_pc_100a0
  %v2_100c1 = call i32 @function_100c8(i32 %arg1)
  br label %dec_label_pc_100c3

dec_label_pc_100c3:                               ; preds = %bb, %dec_label_pc_100a0
  %v3_100c1 = phi i32 [ %v2_100c1, %bb ], [ xor (i32 ptrtoint (i32* @global_var_14a1.1905 to i32), i32 ptrtoint ([3 x i8]* @3 to i32)), %dec_label_pc_100a0 ]
  ret i32 %v3_100c1
}

define i32 @function_100c8(i32 %arg1) local_unnamed_addr {
dec_label_pc_100c8:
  %v0_100c9 = load i32, i32* @eax, align 8
  ret i32 %v0_100c9
}

define i32 @_ZN5boost3argILi6EEC1Ev(i32 %arg1) local_unnamed_addr {
dec_label_pc_100ca:
  ret i32 xor (i32 ptrtoint (i32* @global_var_14a1.1905 to i32), i32 ptrtoint ([3 x i8]* @3 to i32))
}

define i32 @_ZN5boost3argILi7EEC1Ev(i32 %arg1) local_unnamed_addr {
dec_label_pc_100f4:
  ret i32 xor (i32 ptrtoint (i32* @global_var_14a1.1905 to i32), i32 ptrtoint ([3 x i8]* @3 to i32))
}

define i32 @_ZN5boost3argILi8EEC1Ev(i32 %arg1) local_unnamed_addr {
dec_label_pc_1011e:
  ret i32 xor (i32 ptrtoint (i32* @global_var_14a1.1905 to i32), i32 ptrtoint ([3 x i8]* @3 to i32))
}

define i32 @_ZN5boost3argILi9EEC1Ev(i32 %arg1) local_unnamed_addr {
dec_label_pc_10148:
  store i32 xor (i32 ptrtoint (i32* @global_var_14a1.1905 to i32), i32 ptrtoint ([3 x i8]* @3 to i32)), i32* @eax, align 8
  br i1 icmp eq (i32 xor (i32 ptrtoint (i32* @global_var_14a1.1905 to i32), i32 ptrtoint ([3 x i8]* @3 to i32)), i32 0), label %bb, label %dec_label_pc_1016b

bb:                                               ; preds = %dec_label_pc_10148
  %v2_10169 = call i32 @function_10170(i32 %arg1)
  br label %dec_label_pc_1016b

dec_label_pc_1016b:                               ; preds = %bb, %dec_label_pc_10148
  %v3_10169 = phi i32 [ %v2_10169, %bb ], [ xor (i32 ptrtoint (i32* @global_var_14a1.1905 to i32), i32 ptrtoint ([3 x i8]* @3 to i32)), %dec_label_pc_10148 ]
  ret i32 %v3_10169
}

define i32 @function_10170(i32 %arg1) local_unnamed_addr {
dec_label_pc_10170:
  %v0_10171 = load i32, i32* @eax, align 8
  ret i32 %v0_10171
}

define i32 @_ZN5boost16exception_detail12refcount_ptrINS0_20error_info_containerEE5adoptEPS2_(i32* %arg1, i32 %arg2) local_unnamed_addr {
dec_label_pc_10172:
  %tmp102 = ptrtoint i32* %arg1 to i32
  store i1 false, i1* @cf, align 1
  store i32 %tmp102, i32* @eax, align 8
  %v1_10195 = call i32 @function_2187a(i32 %tmp102)
  store i32 %arg2, i32* %arg1, align 4
  store i32 %tmp102, i32* @eax, align 8
  %v1_101a8 = call i32 @function_218e0(i32 %tmp102)
  ret i32 xor (i32 ptrtoint (i32* @global_var_14a1.1905 to i32), i32 ptrtoint ([3 x i8]* @3 to i32))

; uselistorder directives
  uselistorder i32 %tmp102, { 3, 2, 1, 0 }
}

define i32 @_ZN5boost16exception_detail12refcount_ptrINS0_20error_info_containerEEC1ERKS3_(i32* %arg1, i32 %arg2) local_unnamed_addr {
dec_label_pc_101c0:
  %ebp.global-to-local = alloca i32, align 4
  %v0_101c0 = load i32, i32* %ebp.global-to-local, align 4
  %v1_101e0 = inttoptr i32 %arg2 to i32*
  %v2_101e0 = load i32, i32* %v1_101e0, align 4
  store i32 %v2_101e0, i32* %arg1, align 4
  store i32 %v0_101c0, i32* %ebp.global-to-local, align 4
  ret i32 xor (i32 ptrtoint (i32* @global_var_14a1.1905 to i32), i32 ptrtoint ([3 x i8]* @3 to i32))
}

define i32 @_ZN5boost16exception_detail10bad_alloc_C1Ev(i32* %arg1) local_unnamed_addr {
dec_label_pc_10206:
  %tmp100 = ptrtoint i32* %arg1 to i32
  store i32 %tmp100, i32* @eax, align 8
  %v2_10223 = call i32 @function_10d06(i32 %tmp100)
  %v1_1022b = add i32 %tmp100, ptrtoint (i8** @global_var_14.1904 to i32)
  %v2_10231 = call i32 @function_10b2e(i32 %v1_1022b)
  store i32 ptrtoint (%vtable_33c44_type* @global_var_33c44.1929 to i32), i32* %arg1, align 4
  %v2_10242 = inttoptr i32 %v1_1022b to i32*
  store i32 ptrtoint (i32* @global_var_33c54.1930 to i32), i32* %v2_10242, align 4
  ret i32 xor (i32 ptrtoint (i32* @global_var_14a1.1905 to i32), i32 ptrtoint ([3 x i8]* @3 to i32))

; uselistorder directives
  uselistorder i32 %tmp100, { 2, 1, 0 }
}

define i32 @_ZThn20_N5boost16exception_detail10bad_alloc_D1Ev(i32 %arg1) local_unnamed_addr {
dec_label_pc_1025c:
  %v5_1025c = sub i32 %arg1, ptrtoint (i8** @global_var_14.1904 to i32)
  %v2_10261 = call i32 @function_204c2(i32 %v5_1025c)
  ret i32 %v2_10261
}

define i32 @_ZN5boost16exception_detail10bad_alloc_D1Ev(i32* %arg1) {
dec_label_pc_10266:
  %tmp99 = ptrtoint i32* %arg1 to i32
  store i32 ptrtoint (%vtable_33c44_type* @global_var_33c44.1929 to i32), i32* %arg1, align 4
  %v1_10289 = add i32 %tmp99, ptrtoint (i8** @global_var_14.1904 to i32)
  %v2_10289 = inttoptr i32 %v1_10289 to i32*
  store i32 ptrtoint (i32* @global_var_33c54.1930 to i32), i32* %v2_10289, align 4
  ret i32 %v1_10289
}

define i32 @function_102c2(i32 %arg1) local_unnamed_addr {
dec_label_pc_102c2:
  %v0_102c3 = load i32, i32* @eax, align 8
  %v3_102c3 = xor i32 %v0_102c3, ptrtoint ([3 x i8]* @3 to i32)
  ret i32 %v3_102c3
}

define i32 @_ZThn20_N5boost16exception_detail10bad_alloc_D0Ev(i32 %arg1) local_unnamed_addr {
dec_label_pc_102d4:
  %v5_102d4 = sub i32 %arg1, ptrtoint (i8** @global_var_14.1904 to i32)
  %v2_102d9 = call i32 @_ZN5boost16exception_detail10bad_alloc_D0Ev(i32 %v5_102d4)
  ret i32 %v2_102d9
}

define i32 @_ZN5boost16exception_detail10bad_alloc_D0Ev(i32 %arg1) {
dec_label_pc_102dc:
  store i32 %arg1, i32* @eax, align 8
  %v1_102f9 = call i32 @function_2053a(i32 %arg1)
  store i32 xor (i32 ptrtoint (i32* @global_var_14a1.1905 to i32), i32 ptrtoint ([3 x i8]* @3 to i32)), i32* @eax, align 8
  br i1 icmp eq (i32 xor (i32 ptrtoint (i32* @global_var_14a1.1905 to i32), i32 ptrtoint ([3 x i8]* @3 to i32)), i32 0), label %bb, label %dec_label_pc_10315

bb:                                               ; preds = %dec_label_pc_102dc
  %v2_10313 = call i32 @function_1031a(i32 %arg1)
  br label %dec_label_pc_10315

dec_label_pc_10315:                               ; preds = %bb, %dec_label_pc_102dc
  %v3_10313 = phi i32 [ %v2_10313, %bb ], [ xor (i32 ptrtoint (i32* @global_var_14a1.1905 to i32), i32 ptrtoint ([3 x i8]* @3 to i32)), %dec_label_pc_102dc ]
  ret i32 %v3_10313

; uselistorder directives
  uselistorder i32 %arg1, { 0, 2, 1 }
}

define i32 @function_1031a(i32 %arg1) local_unnamed_addr {
dec_label_pc_1031a:
  %v0_1031b = load i32, i32* @eax, align 8
  ret i32 %v0_1031b
}

define i32 @_ZNSt9bad_allocC1ERKS_(i32 %arg1, i32 %arg2) local_unnamed_addr {
dec_label_pc_1031c:
  ret i32 0
}

define i32 @function_1033a(i32 %arg1, i32 %arg2) local_unnamed_addr {
dec_label_pc_1033a:
  %v0_1033a = load i32, i32* @ebp, align 4
  %v1_1033d = add i32 %v0_1033a, 1
  store i32 %v1_1033d, i32* @ebp, align 4
  %v0_10341 = load i32, i32* @eax, align 8
  %v11_10341 = and i32 %v0_10341, -252
  store i32 %v11_10341, i32* @eax, align 8
  %v1_10346 = call i32 @function_1eb2a(i32 %v11_10341)
  %v0_1034b = load i32, i32* @ebp, align 4
  %v1_1034b = add i32 %v0_1034b, -28
  %v2_1034b = inttoptr i32 %v1_1034b to i32*
  %v3_1034b = load i32, i32* %v2_1034b, align 4
  %v1_1034e = inttoptr i32 %v3_1034b to i32*
  store i32 8, i32* %v1_1034e, align 4
  %v0_10354 = load i32, i32* @ebp, align 4
  %v1_10354 = add i32 %v0_10354, -12
  %v2_10354 = inttoptr i32 %v1_10354 to i32*
  %v3_10354 = load i32, i32* %v2_10354, align 4
  %v3_10357 = xor i32 %v3_10354, ptrtoint ([3 x i8]* @3 to i32)
  %v4_10357 = icmp eq i32 %v3_10357, 0
  store i32 %v3_10357, i32* @eax, align 8
  br i1 %v4_10357, label %bb, label %dec_label_pc_10360

bb:                                               ; preds = %dec_label_pc_1033a
  %v1_1035e = call i32 @function_10365()
  br label %dec_label_pc_10360

dec_label_pc_10360:                               ; preds = %bb, %dec_label_pc_1033a
  %v3_1035e = phi i32 [ %v1_1035e, %bb ], [ %v3_10357, %dec_label_pc_1033a ]
  ret i32 %v3_1035e

; uselistorder directives
  uselistorder i32 %v11_10341, { 1, 0 }
}

define i32 @function_10365() local_unnamed_addr {
dec_label_pc_10365:
  %v0_10366 = load i32, i32* @eax, align 8
  ret i32 %v0_10366
}

define i32 @_ZN5boost16exception_detail10bad_alloc_C1ERKS1_(i32* %arg1, i32 %arg2) local_unnamed_addr {
dec_label_pc_10368:
  %tmp104 = ptrtoint i32* %arg1 to i32
  store i32 %tmp104, i32* @eax, align 8
  %v4_10392 = call i32 @function_1e3d4(i32 %tmp104, i32 %arg2)
  %v1_103a0 = add i32 %tmp104, ptrtoint (i8** @global_var_14.1904 to i32)
  store i32 ptrtoint (%vtable_33c44_type* @global_var_33c44.1929 to i32), i32* %arg1, align 4
  %v2_103bb = inttoptr i32 %v1_103a0 to i32*
  store i32 ptrtoint (i32* @global_var_33c54.1930 to i32), i32* %v2_103bb, align 4
  ret i32 xor (i32 ptrtoint (i32* @global_var_14a1.1905 to i32), i32 ptrtoint ([3 x i8]* @3 to i32))

; uselistorder directives
  uselistorder i32 %tmp104, { 2, 1, 0 }
  uselistorder i32 (i32)* @_ZN5boost16exception_detail10bad_alloc_D0Ev, { 1, 0 }
  uselistorder i32 ptrtoint (%vtable_33c44_type* @global_var_33c44.1929 to i32), { 2, 1, 0 }
}

define i32 @_ZN5boost16exception_detail10clone_implINS0_10bad_alloc_EEC1ERKS3_(i32* %arg1, i32 %arg2) local_unnamed_addr {
dec_label_pc_103d6:
  %tmp104 = ptrtoint i32* %arg1 to i32
  %v4_10400 = call i32 @function_2073e(i32 %tmp104, i32 %arg2)
  %v1_10408 = add i32 %arg2, ptrtoint (i8** @global_var_18.1931 to i32)
  %v1_1040e = add i32 %tmp104, ptrtoint (i8** @global_var_18.1931 to i32)
  %v5_1040e = icmp ult i32 %v1_1040e, %tmp104
  store i1 %v5_1040e, i1* @cf, align 1
  %v4_10418 = call i32 @function_20394(i32 %v1_1040e, i32 %v1_10408)
  store i32 ptrtoint (%vtable_33be4_type* @global_var_33be4.1932 to i32), i32* %arg1, align 4
  %v1_10429 = add i32 %tmp104, ptrtoint (i8** @global_var_14.1904 to i32)
  %v2_10429 = inttoptr i32 %v1_10429 to i32*
  store i32 ptrtoint (i32* @global_var_33bfc.1933 to i32), i32* %v2_10429, align 4
  %v2_10433 = inttoptr i32 %v1_1040e to i32*
  store i32 ptrtoint (i32* @global_var_33c10.1934 to i32), i32* %v2_10433, align 4
  ret i32 xor (i32 ptrtoint (i32* @global_var_14a1.1905 to i32), i32 ptrtoint ([3 x i8]* @3 to i32))

; uselistorder directives
  uselistorder i32 %tmp104, { 3, 1, 2, 0 }
  uselistorder i32 %arg2, { 1, 0 }
}

define i32 @_ZN5boost16exception_detail13get_bad_allocILi42EEENS_10shared_ptrIKNS0_10clone_baseEEEv(i32 %arg1) local_unnamed_addr {
dec_label_pc_10454:
  %stack_var_-36 = alloca i32, align 4
  %stack_var_-40 = alloca i32, align 4
  %stack_var_-44 = alloca i32, align 4
  %stack_var_-96 = alloca i32, align 4
  %stack_var_-68 = alloca i32, align 4
  %v2_1046e = ptrtoint i32* %stack_var_-68 to i32
  %v2_10480 = ptrtoint i32* %stack_var_-96 to i32
  store i32 %v2_10480, i32* @eax, align 8
  %v2_10486 = call i32 @function_21c40(i32 %v2_10480, i32 %v2_1046e)
  %v2_10493 = ptrtoint i32* %stack_var_-44 to i32
  store i32 %v2_10493, i32* @eax, align 8
  %v2_10499 = call i32 @function_10f1c(i32 %v2_10493, i32 ptrtoint (i32* @global_var_51.1935 to i32))
  %v2_104a6 = ptrtoint i32* %stack_var_-40 to i32
  store i32 %v2_104a6, i32* @eax, align 8
  %v2_104ac = call i32 @function_10ee4(i32 %v2_104a6, i32 ptrtoint ([54 x i8]* @global_var_269c.1936 to i32))
  %v2_104b9 = ptrtoint i32* %stack_var_-36 to i32
  %v2_104bf = call i32 @function_10eac(i32 %v2_104b9, i32 ptrtoint ([169 x i8]* @global_var_3b3c.1937 to i32))
  store i32 %v2_10480, i32* @eax, align 8
  %v2_104d1 = call i32 @function_21dc6(i32 %v2_10480, i32 %v2_104b9)
  store i32 %v2_104d1, i32* @eax, align 8
  %v2_104e0 = call i32 @function_21e08(i32 %v2_104d1, i32 %v2_104a6)
  %v2_104ef = call i32 @function_21e4a(i32 %v2_104e0, i32 %v2_10493)
  %v2_104f9 = load i8, i8* inttoptr (i32 66644 to i8*), align 4
  %v3_104f9 = zext i8 %v2_104f9 to i32
  ret i32 %v3_104f9
}

define i32 @function_10527() local_unnamed_addr {
dec_label_pc_10527:
  %eax.global-to-local = alloca i32, align 4
  %v0_10527 = load i32, i32* %eax.global-to-local, align 8
  ret i32 %v0_10527
}

define i32 @function_105aa() local_unnamed_addr {
dec_label_pc_105aa:
  %eax.global-to-local = alloca i32, align 4
  %ebx.global-to-local = alloca i32, align 4
  %v0_105aa = load i32, i32* %eax.global-to-local, align 8
  store i32 %v0_105aa, i32* @edi, align 8
  %v0_105ac = load i32, i32* %ebx.global-to-local, align 8
  store i32 %v0_105aa, i32* @ebx, align 8
  %v1_105b6 = call i32 @function_105ba(i32 %v0_105ac)
  store i32 %v1_105b6, i32* %eax.global-to-local, align 8
  ret i32 %v1_105b6
}

define i32 @function_105b8() local_unnamed_addr {
dec_label_pc_105b8:
  %eax.global-to-local = alloca i32, align 4
  %v0_105b8 = load i32, i32* %eax.global-to-local, align 8
  ret i32 %v0_105b8
}

define i32 @function_105ba(i32 %arg1) local_unnamed_addr {
dec_label_pc_105ba:
  %v0_105ba = load i32, i32* @esi, align 4
  %v4_105bc = trunc i32 %v0_105ba to i8
  %v5_105bc = icmp eq i8 %v4_105bc, 0
  %v1_105be = icmp eq i1 %v5_105bc, false
  br i1 %v1_105be, label %bb, label %dec_label_pc_105c0

bb:                                               ; preds = %dec_label_pc_105ba
  %v2_105be = call i32 @function_105cc()
  br label %dec_label_pc_105c0

dec_label_pc_105c0:                               ; preds = %bb, %dec_label_pc_105ba
  %v2_105c0 = phi i32 [ %v2_105be, %bb ], [ %v0_105ba, %dec_label_pc_105ba ]
  ret i32 %v2_105c0
}

define i32 @function_105cc() local_unnamed_addr {
dec_label_pc_105cc:
