source_filename = "test"
target datalayout = "e-m:e-p:32:32-f64:32:64-f80:32-n8:16:32-S128"

%vtable_2b270_type = type { i32 (i32)*, i32 (i32)*, i32 (i32)*, i32 (i32*)*, i32 (i32)* }
%vtable_2b330_type = type { i32 (i32*)*, i32 (i32)*, i32 (i32)*, i32 (i32)*, i32 (i32)* }
%vtable_2b390_type = type { i32 (i32*)*, i32 (i32)*, i32 (i32)* }
%vtable_2b3b8_type = type { i32 (i32*)*, i32 (i32)*, i32 (i8)* }
%vtable_2b410_type = type { i32 (i32*)*, i32 (i32)*, i32 (i32)*, i32 (i32)* }
%vtable_2b470_type = type { i32 (i32*)*, i32 (i32)* }
%vtable_2b498_type = type { i32 (i32*)*, i32 (i32)*, i32 (i32)* }
%vtable_2b4d0_type = type { i32 (i32*)*, i32 (i32)*, i32 (i32)* }
%vtable_2b4e8_type = type { i32 (i32*)*, i32 (i32)*, i32 ()* }
%"vector<json_spirit::Pair_impl<json_spirit::Config_vector<std::basic_string<char,std::char_traits<char>,std::allocator<char>>>>,std::allocator<json_spirit::Pair_impl<json_spirit::Config_vector<std::basic_string<char,std::char_traits<char>,std::allocator<char>>>>>>.3" = type { i32 }
%"vector<json_spirit::Value_impl<json_spirit::Config_vector<std::basic_string<char,std::char_traits<char>,std::allocator<char>>>>,std::allocator<json_spirit::Value_impl<json_spirit::Config_vector<std::basic_string<char,std::char_traits<char>,std::allocator<char>>>>>>" = type { i32 }
%"Value_impl<json_spirit::Config_vector<std::basic_string<char,std::char_traits<char>,std::allocator<char>>>>" = type { i32 }
%"Value_impl<json_spirit::Config_vector<std::basic_string<char,std::char_traits<char>,std::allocator<char>>>>.4" = type { i32 }
%"Value_impl<json_spirit::Config_vector<std::basic_string<char,std::char_traits<char>,std::allocator<char>>>>.5" = type { i32 }
%"Value_impl<json_spirit::Config_vector<std::basic_string<char,std::char_traits<char>,std::allocator<char>>>>.6" = type { i32 }
%"Value_impl<json_spirit::Config_vector<std::basic_string<char,std::char_traits<char>,std::allocator<char>>>>.7" = type { i32 }
%"Value_impl<json_spirit::Config_vector<std::basic_string<char,std::char_traits<char>,std::allocator<char>>>>.8" = type { i32 }
%"Value_impl<json_spirit::Config_vector<std::basic_string<char,std::char_traits<char>,std::allocator<char>>>>.9" = type { i32 }
%"Value_impl<json_spirit::Config_vector<std::basic_string<char,std::char_traits<char>,std::allocator<char>>>>.10" = type { i32 }
%"Value_impl<json_spirit::Config_vector<std::basic_string<char,std::char_traits<char>,std::allocator<char>>>>.11" = type { i32 }
%"Value_impl<json_spirit::Config_vector<std::basic_string<char,std::char_traits<char>,std::allocator<char>>>>.12" = type { i32 }

@cf = internal unnamed_addr global i1 false
@zf = internal unnamed_addr global i1 false
@df = internal unnamed_addr global i1 false
@of = internal unnamed_addr global i1 false
@ds = internal unnamed_addr global i16 0
@st0 = internal unnamed_addr global x86_fp80 0xK00000000000000000000
@fpu_stat_TOP = internal unnamed_addr global i3 0
@eax = internal unnamed_addr global i32 0
@ecx = internal unnamed_addr global i32 0
@edx = internal unnamed_addr global i32 0, align 8
@ebx = internal unnamed_addr global i32 0
@esp = internal unnamed_addr global i32 0
@ebp = internal unnamed_addr global i32 0
@esi = internal unnamed_addr global i32 0
@edi = internal unnamed_addr global i32 0
@global_var_2b914.1801 = global i32 0
@global_var_c000.1802 = constant [1850 x i8] c">, std::allocator<json_spirit::Pair_impl<json_spirit::Config_vector<std::basic_string<char> > > > > >, boost::recursive_wrapper<std::vector<json_spirit::Value_impl<json_spirit::Config_vector<std::basic_string<char> > >, std::allocator<json_spirit::Value_impl<json_spirit::Config_vector<std::basic_string<char> > > > > >, bool, long long int, double, boost::detail::variant::void_, boost::detail::variant::void_, boost::detail::variant::void_, boost::detail::variant::void_, boost::detail::variant::void_, boost::detail::variant::void_, boost::detail::variant::void_, boost::detail::variant::void_, boost::detail::variant::void_, boost::detail::variant::void_, boost::detail::variant::void_, boost::detail::variant::void_, boost::detail::variant::void_, boost::detail::variant::void_>::assigner, VPCV = const void*, NBF = boost::variant<std::basic_string<char>, boost::recursive_wrapper<std::vector<json_spirit::Pair_impl<json_spirit::Config_vector<std::basic_string<char> > >, std::allocator<json_spirit::Pair_impl<json_spirit::Config_vector<std::basic_string<char> > > > > >, boost::recursive_wrapper<std::vector<json_spirit::Value_impl<json_spirit::Config_vector<std::basic_string<char> > >, std::allocator<json_spirit::Value_impl<json_spirit::Config_vector<std::basic_string<char> > > > > >, bool, long long int, double, boost::detail::variant::void_, boost::detail::variant::void_, boost::detail::variant::void_, boost::detail::variant::void_, boost::detail::variant::void_, boost::detail::variant::void_, boost::detail::variant::void_, boost::detail::variant::void_, boost::detail::variant::void_, boost::detail::variant::void_, boost::detail::variant::void_, boost::detail::variant::void_, boost::detail::variant::void_, boost::detail::variant::void_>::has_fallback_type_, typename Visitor::result_type = void, mpl_::true_ = mpl_::bool_<true>]\00"
@global_var_2b518.1804 = constant i32 0
@global_var_2b500.1805 = constant i32 0
@global_var_5a68.1808 = constant [18 x i8] c"boost::lock_error\00"
@global_var_2b4b0.1809 = constant i32 54120
@global_var_5b08.1813 = constant [50 x i8] c"boost::bad_get: failed value get using boost::get\00"
@global_var_2b3d0.1814 = constant i32 57452
@global_var_30.1817 = constant i32 862319685
@global_var_5c.1819 = constant i32 -402295808
@global_var_34.1820 = constant i32 5125
@global_var_38.1821 = constant i32 -402295808
@global_var_2b3a4.1823 = constant i32 80911
@global_var_2b34c.1825 = constant i32 81185
@global_var_2b35c.1826 = constant i32 178566
@global_var_2b608.1827 = constant i32 8
@global_var_2b480.1829 = constant i32 70616
@global_var_2b428.1831 = constant i32 84325
@global_var_2b43c.1832 = constant i32 178798
@global_var_60d0.1833 = constant [54 x i8] c"/usr/include/boost/exception/detail/exception_ptr.hpp\00"
@global_var_6288.1834 = constant [169 x i8] c"boost::exception_ptr boost::exception_detail::get_bad_alloc() [with int Dummy = 42, boost::exception_ptr = boost::shared_ptr<const boost::exception_detail::clone_base>]\00"
@global_var_2bd08.1836 = constant [17 x i8] c"0123456789abcdef\00"
@global_var_610b.1838 = constant [22 x i8] c"vector::_M_insert_aux\00"
@global_var_613c.1840 = constant [24 x i8] c"vector::_M_range_insert\00"
@global_var_1e7e0.1844 = constant i32 123748
@global_var_1f2c4.1845 = constant i32 126537
@global_var_20b80.1852 = constant i32 132869
@global_var_21de8.1853 = constant i32 137580
@global_var_22664.1856 = constant i32 139750
@global_var_23840.1857 = constant i32 144323
@global_var_24974.1862 = constant i32 148727
@global_var_27240.1870 = constant i32 159171
@global_var_8b00.1873 = constant [903 x i8] c"asic_string<char> > >, std::allocator<json_spirit::Pair_impl<json_spirit::Config_vector<std::basic_string<char> > > > > >, boost::recursive_wrapper<std::vector<json_spirit::Value_impl<json_spirit::Config_vector<std::basic_string<char> > >, std::allocator<json_spirit::Value_impl<json_spirit::Config_vector<std::basic_string<char> > > > > >, bool, long long int, double, boost::detail::variant::void_, boost::detail::variant::void_, boost::detail::variant::void_, boost::detail::variant::void_, boost::detail::variant::void_, boost::detail::variant::void_, boost::detail::variant::void_, boost::detail::variant::void_, boost::detail::variant::void_, boost::detail::variant::void_, boost::detail::variant::void_, boost::detail::variant::void_, boost::detail::variant::void_, boost::detail::variant::void_>::has_fallback_type_, typename Visitor::result_type = const bool*, mpl_::true_ = mpl_::bool_<true>]\00"
@0 = external global i32
@global_var_89.1818 = constant i8 -95
@global_var_2bc08.1837 = external constant i8*
@global_var_88.1843 = constant i8 116
@global_var_2b270.1841 = constant %vtable_2b270_type { i32 (i32)* @_ZN5boost6detail17sp_counted_impl_pINS_16exception_detail10clone_implINS2_10bad_alloc_EEEED1Ev, i32 (i32)* @_ZN5boost6detail17sp_counted_impl_pINS_16exception_detail10clone_implINS2_10bad_alloc_EEEED0Ev, i32 (i32)* @_ZN5boost6detail17sp_counted_impl_pINS_16exception_detail10clone_implINS2_10bad_alloc_EEEE7disposeEv, i32 (i32*)* @_ZN5boost6detail15sp_counted_base7destroyEv, i32 (i32)* @_ZN5boost6detail17sp_counted_impl_pINS_16exception_detail10clone_implINS2_10bad_alloc_EEEE11get_deleterERKSt9type_info }
@global_var_2b330.1824 = constant %vtable_2b330_type { i32 (i32*)* @_ZN5boost16exception_detail10clone_implINS0_19error_info_injectorINS_10lock_errorEEEED1Ev, i32 (i32)* @_ZN5boost16exception_detail10clone_implINS0_19error_info_injectorINS_10lock_errorEEEED0Ev, i32 (i32)* @_ZNK5boost10lock_error4whatEv, i32 (i32)* @_ZNK5boost16exception_detail10clone_implINS0_19error_info_injectorINS_10lock_errorEEEE5cloneEv.1797, i32 (i32)* @_ZNK5boost16exception_detail10clone_implINS0_19error_info_injectorINS_10lock_errorEEEE7rethrowEv }
@global_var_2b390.1822 = constant %vtable_2b390_type { i32 (i32*)* @_ZN5boost16exception_detail19error_info_injectorINS_10lock_errorEED1Ev, i32 (i32)* @_ZN5boost16exception_detail19error_info_injectorINS_10lock_errorEED0Ev, i32 (i32)* @_ZNK5boost10lock_error4whatEv }
@global_var_2b3b8.1815 = constant %vtable_2b3b8_type { i32 (i32*)* @_ZN5boost6system12system_errorD1Ev, i32 (i32)* @_ZN5boost6system12system_errorD0Ev, i32 (i8)* @_ZNK5boost6system12system_error4whatEv }
@global_var_2b410.1830 = constant %vtable_2b410_type { i32 (i32*)* @_ZN5boost16exception_detail10clone_implINS0_10bad_alloc_EED1Ev, i32 (i32)* @_ZN5boost16exception_detail10clone_implINS0_10bad_alloc_EED0Ev, i32 (i32)* @_ZNK5boost16exception_detail10clone_implINS0_10bad_alloc_EE5cloneEv, i32 (i32)* @_ZNK5boost16exception_detail10clone_implINS0_10bad_alloc_EE7rethrowEv }
@global_var_2b470.1828 = constant %vtable_2b470_type { i32 (i32*)* @_ZN5boost16exception_detail10bad_alloc_D1Ev, i32 (i32)* @_ZN5boost16exception_detail10bad_alloc_D0Ev }
@global_var_2b498.1839 = constant %vtable_2b498_type { i32 (i32*)* @_ZN5boost7bad_getD1Ev, i32 (i32)* @_ZN5boost7bad_getD0Ev, i32 (i32)* @_ZNK5boost7bad_get4whatEv }
@global_var_2b4d0.1807 = constant %vtable_2b4d0_type { i32 (i32*)* @_ZN5boost10lock_errorD1Ev, i32 (i32)* @_ZN5boost10lock_errorD0Ev, i32 (i32)* @_ZNK5boost10lock_error4whatEv }
@global_var_2b4e8.1806 = constant %vtable_2b4e8_type { i32 (i32*)* @_ZN5boost16thread_exceptionD1Ev, i32 (i32)* @_ZN5boost16thread_exceptionD0Ev, i32 ()* @_ZL13EnterCriticalPKcS0_iPvb }

define i32 @_ZL13EnterCriticalPKcS0_iPvb() {
dec_label_pc_0:
  %eax.global-to-local = alloca i32, align 4
  %v2_1 = load i32, i32* %eax.global-to-local, align 4
  ret i32 %v2_1
}

define void @_ZNK5boost16exception_detail10clone_implINS0_19error_info_injectorINS_10lock_errorEEEE5cloneEv(i32 %this) local_unnamed_addr {
dec_label_pc_8:
  ret void
}

define void @"~clone_impl"(i32 %this, i32 %__in_chrg) local_unnamed_addr {
dec_label_pc_e:
  ret void
}

define void @LeaveCritical() local_unnamed_addr {
dec_label_pc_42:
  ret void
}

define i32 @function_64() local_unnamed_addr {
dec_label_pc_64:
  %eax.global-to-local = alloca i32, align 4
  %v0_65 = load i32, i32* %eax.global-to-local, align 4
  ret i32 %v0_65
}

define double @_Z13GetDifficultyPK11CBlockIndexi(i32 %blockindex, i32 %algo) local_unnamed_addr {
dec_label_pc_66:
  %st0.global-to-local = alloca x86_fp80, align 4
  %v10_83 = icmp eq i32 %blockindex, 0
  %v1_87 = icmp eq i1 %v10_83, false
  br i1 %v1_87, label %bb, label %dec_label_pc_66.dec_label_pc_89_crit_edge

dec_label_pc_66.dec_label_pc_89_crit_edge:        ; preds = %dec_label_pc_66
  %v5_87.pre = load x86_fp80, x86_fp80* %st0.global-to-local, align 4
  br label %dec_label_pc_89

bb:                                               ; preds = %dec_label_pc_66
  %v4_87 = call x86_fp80 @function_fd(i32 %algo, i32 %blockindex)
  store x86_fp80 %v4_87, x86_fp80* %st0.global-to-local, align 4
  br label %dec_label_pc_89

dec_label_pc_89:                                  ; preds = %dec_label_pc_66.dec_label_pc_89_crit_edge, %bb
  %v5_87 = phi x86_fp80 [ %v5_87.pre, %dec_label_pc_66.dec_label_pc_89_crit_edge ], [ %v4_87, %bb ]
  %v6_87 = fptrunc x86_fp80 %v5_87 to double
  ret double %v6_87

; uselistorder directives
  uselistorder label %dec_label_pc_89, { 1, 0 }
}

define i32 @function_96() local_unnamed_addr {
dec_label_pc_96:
  %eax.global-to-local = alloca i32, align 4
  %v0_99 = load i32, i32* %eax.global-to-local, align 4
  %v1_99 = trunc i32 %v0_99 to i8
  %v2_99 = and i8 %v1_99, 4
  %v8_99 = zext i8 %v2_99 to i32
  %v10_99 = and i32 %v0_99, -256
  %v11_99 = or i32 %v8_99, %v10_99
  store i32 %v11_99, i32* %eax.global-to-local, align 4
  %v1_9b = inttoptr i32 %v11_99 to i8*
  %v2_9b = load i8, i8* %v1_9b, align 4
  %v5_9b = add i8 %v2_9b, %v2_99
  store i8 %v5_9b, i8* %v1_9b, align 4
  %v0_9d = load i32, i32* %eax.global-to-local, align 4
  %v1_9d = inttoptr i32 %v0_9d to i8*
  %v2_9d = load i8, i8* %v1_9d, align 1
  %v4_9d = trunc i32 %v0_9d to i8
  %v5_9d = add i8 %v2_9d, %v4_9d
  store i8 %v5_9d, i8* %v1_9d, align 1
  %v0_9f = load i32, i32* %eax.global-to-local, align 4
  %v1_a2 = call i32 @_ZNK12CChainParams16ProofOfWorkLimitEi(i32 %v0_9f)
  store i32 %v1_a2, i32* %eax.global-to-local, align 4
  %v1_aa = call i32 @_ZNK7CBigNum10GetCompactEv(i32 %v1_a2)
  store i32 %v1_aa, i32* %eax.global-to-local, align 4
  %v1_af = load i32, i32* @ebp, align 4
  %v2_af = add i32 %v1_af, -20
  %v3_af = inttoptr i32 %v2_af to i32*
  store i32 %v1_aa, i32* %v3_af, align 4
  %v0_b2 = load i32, i32* %eax.global-to-local, align 4
  ret i32 %v0_b2
}

define i32 @function_b4() local_unnamed_addr {
dec_label_pc_b4:
  %eax.global-to-local = alloca i32, align 4
  %tmp96 = load i32, i32* %eax.global-to-local, align 4
  ret i32 %tmp96
}

define i32 @function_d5() local_unnamed_addr {
dec_label_pc_d5:
  %eax.global-to-local = alloca i32, align 4
  %ebx.global-to-local = alloca i32, align 4
  %v0_d5 = load i32, i32* %ebx.global-to-local, align 4
  %v1_d5 = add i32 %v0_d5, 1418317909
  %v2_d5 = inttoptr i32 %v1_d5 to i32*
  %v3_d5 = load i32, i32* %v2_d5, align 4
  %v4_d5 = add i32 %v3_d5, -1
  store i32 %v4_d5, i32* %v2_d5, align 4
  %v0_db = load i32, i32* %eax.global-to-local, align 4
  %v11_db = and i32 %v0_db, -252
  store i32 %v11_db, i32* %eax.global-to-local, align 4
  %v1_e0 = call i32 @_ZNK12CChainParams16ProofOfWorkLimitEi(i32 %v11_db)
  store i32 %v1_e0, i32* %eax.global-to-local, align 4
  %v1_e8 = call i32 @_ZNK7CBigNum10GetCompactEv(i32 %v1_e0)
  store i32 %v1_e8, i32* %eax.global-to-local, align 4
  %v1_ed = load i32, i32* @ebp, align 4
  %v2_ed = add i32 %v1_ed, -20
  %v3_ed = inttoptr i32 %v2_ed to i32*
  store i32 %v1_e8, i32* %v3_ed, align 4
  %v0_f0 = load i32, i32* %eax.global-to-local, align 4
  ret i32 %v0_f0

; uselistorder directives
  uselistorder i32 %v11_db, { 1, 0 }
  uselistorder i32 (i32)* @_ZNK7CBigNum10GetCompactEv, { 1, 0 }
  uselistorder i32 (i32)* @_ZNK12CChainParams16ProofOfWorkLimitEi, { 1, 0 }
}

define i32 @function_f2() local_unnamed_addr {
dec_label_pc_f2:
  %eax.global-to-local = alloca i32, align 4
  %tmp91 = call i32 @__decompiler_undefined_function_0()
  %v1_f2 = add i32 %tmp91, -44
  %v2_f2 = inttoptr i32 %v1_f2 to i32*
  %v3_f2 = load i32, i32* %v2_f2, align 4
  store i32 %v3_f2, i32* %eax.global-to-local, align 4
  %v1_f5 = add i32 %v3_f2, 108
  %v2_f5 = inttoptr i32 %v1_f5 to i32*
  %v3_f5 = load i32, i32* %v2_f5, align 4
  store i32 %v3_f5, i32* %eax.global-to-local, align 4
  %v2_f8 = add i32 %tmp91, -20
  %v3_f8 = inttoptr i32 %v2_f8 to i32*
  store i32 %v3_f5, i32* %v3_f8, align 4
  %v0_fb = load i32, i32* %eax.global-to-local, align 4
  ret i32 %v0_fb

; uselistorder directives
  uselistorder i32 %tmp91, { 1, 0 }
}

define x86_fp80 @function_fd(i32 %arg1, i32 %arg2) local_unnamed_addr {
dec_label_pc_fd:
  %eax.global-to-local = alloca i32, align 4
  %edx.global-to-local = alloca i32, align 4
  %fpu_stat_TOP.global-to-local = alloca i3, align 1
  %st0.global-to-local = alloca x86_fp80, align 4
  %v0_fd = load i32, i32* @ebp, align 4
  %v1_fd = add i32 %v0_fd, -44
  %v2_fd = inttoptr i32 %v1_fd to i32*
  %v3_fd = load i32, i32* %v2_fd, align 4
  store i32 %v3_fd, i32* %eax.global-to-local, align 4
  %v1_100 = add i32 %v3_fd, 108
  %v2_100 = inttoptr i32 %v1_100 to i32*
  %v3_100 = load i32, i32* %v2_100, align 4
  store i32 %v3_100, i32* %eax.global-to-local, align 4
  %v2_103 = add i32 %v0_fd, -20
  %v3_103 = inttoptr i32 %v2_103 to i32*
  store i32 %v3_100, i32* %v3_103, align 4
  %v0_106 = load i32, i32* @ebp, align 4
  %v1_106 = add i32 %v0_106, -20
  %v2_106 = inttoptr i32 %v1_106 to i32*
  %v3_106 = load i32, i32* %v2_106, align 4
  %v2_109 = udiv i32 %v3_106, 16777216
  store i32 %v2_109, i32* %eax.global-to-local, align 4
  %v2_10c = add i32 %v0_106, -16
  %v3_10c = inttoptr i32 %v2_10c to i32*
  store i32 %v2_109, i32* %v3_10c, align 4
  %v0_10f = load i32, i32* @ebp, align 4
  %v1_10f = add i32 %v0_10f, -20
  %v2_10f = inttoptr i32 %v1_10f to i32*
  %v3_10f = load i32, i32* %v2_10f, align 4
  %v1_112 = urem i32 %v3_10f, 16777216
  store i32 %v1_112, i32* %eax.global-to-local, align 4
  store i32 0, i32* %edx.global-to-local, align 8
  %v2_11c = add i32 %v0_10f, -56
  %v3_11c = inttoptr i32 %v2_11c to i32*
  store i32 %v1_112, i32* %v3_11c, align 4
  %v0_11f = load i32, i32* %edx.global-to-local, align 8
  %v1_11f = load i32, i32* @ebp, align 4
  %v2_11f = add i32 %v1_11f, -52
  %v3_11f = inttoptr i32 %v2_11f to i32*
  store i32 %v0_11f, i32* %v3_11f, align 4
  %v0_122 = load i32, i32* @ebp, align 4
  %v1_122 = add i32 %v0_122, -56
  %v2_122 = inttoptr i32 %v1_122 to i64*
  %v3_122 = load i64, i64* %v2_122, align 4
  %v4_122 = sitofp i64 %v3_122 to x86_fp80
  %v5_122 = load i3, i3* @fpu_stat_TOP, align 1
  %v4_12b = fdiv x86_fp80 0xK400EFFFF000000000000, %v4_122
  store x86_fp80 %v4_12b, x86_fp80* %st0.global-to-local, align 4
  %v3_12d = add i32 %v0_122, -32
  %v4_12d = fptrunc x86_fp80 %v4_12b to double
  %v5_12d = inttoptr i32 %v3_12d to double*
  store double %v4_12d, double* %v5_12d, align 4
  br label %dec_label_pc_144

dec_label_pc_132:                                 ; preds = %dec_label_pc_144
  %v1_132 = add i32 %v19_140, -32
  %v2_132 = inttoptr i32 %v1_132 to double*
  %v3_132 = load double, double* %v2_132, align 4
  %v4_132 = fpext double %v3_132 to x86_fp80
  %v4_13b = fmul x86_fp80 %v4_132, 0xK40078000000000000000
  store x86_fp80 %v4_13b, x86_fp80* %st0.global-to-local, align 4
  %v4_13d = fptrunc x86_fp80 %v4_13b to double
  store double %v4_13d, double* %v2_132, align 4
  %v3_140 = load i32, i32* %v2_144, align 4
  %v4_140 = add i32 %v3_140, 1
  store i32 %v4_140, i32* %v2_144, align 4
  %v0_144.pre = load i32, i32* @ebp, align 4
  br label %dec_label_pc_144

dec_label_pc_144:                                 ; preds = %dec_label_pc_132, %dec_label_pc_fd
  %v19_140 = phi i32 [ %v0_144.pre, %dec_label_pc_132 ], [ %v0_122, %dec_label_pc_fd ]
  %v1_144 = add i32 %v19_140, -16
  %v2_144 = inttoptr i32 %v1_144 to i32*
  %v3_144 = load i32, i32* %v2_144, align 4
  %v4_144 = add i32 %v3_144, -28
  %tmp = sub i32 27, %v3_144
  %v11_144 = and i32 %tmp, %v3_144
  %v12_144 = icmp slt i32 %v11_144, 0
  %v13_144 = icmp eq i32 %v4_144, 0
  %v14_144 = icmp slt i32 %v4_144, 0
  %v3_148 = icmp ne i1 %v14_144, %v12_144
  %v4_148 = or i1 %v13_144, %v3_148
  %v5_148 = zext i1 %v4_148 to i32
  %v6_148 = load i32, i32* %eax.global-to-local, align 4
  %v7_148 = and i32 %v6_148, -256
  %v8_148 = or i32 %v5_148, %v7_148
  store i32 %v8_148, i32* %eax.global-to-local, align 4
  %v5_14b = icmp eq i1 %v4_148, false
  %v1_14d = icmp eq i1 %v5_14b, false
  br i1 %v1_14d, label %dec_label_pc_132, label %dec_label_pc_163.preheader

dec_label_pc_163.preheader:                       ; preds = %dec_label_pc_144
  %v6_122 = add i3 %v5_122, -1
  br label %dec_label_pc_163

dec_label_pc_151:                                 ; preds = %dec_label_pc_163
  %v4_15a = fmul x86_fp80 %v4_151, 0xK3FF78000000000000000
  store x86_fp80 %v4_15a, x86_fp80* %st0.global-to-local, align 4
  %v4_15c = fptrunc x86_fp80 %v4_15a to double
  store double %v4_15c, double* %v2_151, align 4
  %v3_15f = load i32, i32* %v2_163, align 4
  %v4_15f = add i32 %v3_15f, -1
  store i32 %v4_15f, i32* %v2_163, align 4
  %v0_163.pre = load i32, i32* @ebp, align 4
  %v7_167.pre = load i32, i32* %eax.global-to-local, align 4
  br label %dec_label_pc_163

dec_label_pc_163:                                 ; preds = %dec_label_pc_163.preheader, %dec_label_pc_151
  %v7_167 = phi i32 [ %v8_148, %dec_label_pc_163.preheader ], [ %v7_167.pre, %dec_label_pc_151 ]
  %v19_15f = phi i32 [ %v19_140, %dec_label_pc_163.preheader ], [ %v0_163.pre, %dec_label_pc_151 ]
  %v1_163 = add i32 %v19_15f, -16
  %v2_163 = inttoptr i32 %v1_163 to i32*
  %v3_163 = load i32, i32* %v2_163, align 4
  %v4_163 = add i32 %v3_163, -29
  %tmp11 = sub i32 28, %v3_163
  %v11_163 = and i32 %tmp11, %v3_163
  %v12_163 = icmp slt i32 %v11_163, 0
  %v13_163 = icmp eq i32 %v4_163, 0
  %v14_163 = icmp slt i32 %v4_163, 0
  %v3_167 = icmp eq i1 %v14_163, %v12_163
  %v4_167 = icmp eq i1 %v13_163, false
  %v5_167 = icmp eq i1 %v3_167, %v4_167
  %v6_167 = zext i1 %v5_167 to i32
  %v8_167 = and i32 %v7_167, -256
  %v9_167 = or i32 %v6_167, %v8_167
  store i32 %v9_167, i32* %eax.global-to-local, align 4
  %v5_16a = icmp eq i1 %v5_167, false
  %v1_16c = icmp eq i1 %v5_16a, false
  %v1_151 = add i32 %v19_15f, -32
  %v2_151 = inttoptr i32 %v1_151 to double*
  %v3_151 = load double, double* %v2_151, align 4
  %v4_151 = fpext double %v3_151 to x86_fp80
  store x86_fp80 %v4_151, x86_fp80* %st0.global-to-local, align 4
  br i1 %v1_16c, label %dec_label_pc_151, label %dec_label_pc_16e

dec_label_pc_16e:                                 ; preds = %dec_label_pc_163
  store i3 %v6_122, i3* %fpu_stat_TOP.global-to-local, align 1
  %v1_171 = add i32 %v19_15f, -12
  %v2_171 = inttoptr i32 %v1_171 to i32*
  %v3_171 = load i32, i32* %v2_171, align 4
  store i32 %v3_171, i32* %eax.global-to-local, align 4
  %v1_174 = load i32, i32* inttoptr (i32 20 to i32*), align 4
  %v2_174 = xor i32 %v1_174, %v3_171
  %v3_174 = icmp eq i32 %v2_174, 0
  store i32 %v2_174, i32* @eax, align 4
  br i1 %v3_174, label %bb, label %dec_label_pc_17d

bb:                                               ; preds = %dec_label_pc_16e
  %v1_17b = call i32 @function_184()
  store i32 %v1_17b, i32* %eax.global-to-local, align 4
  %v0_17d.pre = load i3, i3* %fpu_stat_TOP.global-to-local, align 1
  %v3_17d.pre = load x86_fp80, x86_fp80* %st0.global-to-local, align 4
  br label %dec_label_pc_17d

dec_label_pc_17d:                                 ; preds = %bb, %dec_label_pc_16e
  %v3_17d = phi x86_fp80 [ %v3_17d.pre, %bb ], [ %v4_151, %dec_label_pc_16e ]
  %v0_17d = phi i3 [ %v0_17d.pre, %bb ], [ %v6_122, %dec_label_pc_16e ]
  %v2_17d = add i3 %v0_17d, 1
  store i3 %v2_17d, i3* %fpu_stat_TOP.global-to-local, align 1
  ret x86_fp80 %v3_17d

; uselistorder directives
  uselistorder x86_fp80 %v4_151, { 0, 2, 1 }
  uselistorder double* %v2_151, { 1, 0 }
  uselistorder i32 %v4_163, { 1, 0 }
  uselistorder i32* %v2_163, { 2, 1, 0 }
  uselistorder i3 %v6_122, { 1, 0 }
  uselistorder i32 %v4_144, { 1, 0 }
  uselistorder i32* %v2_144, { 2, 1, 0 }
  uselistorder i32 %v19_140, { 0, 2, 1 }
  uselistorder i32 %v1_112, { 1, 0 }
  uselistorder i32 %v2_109, { 1, 0 }
  uselistorder x86_fp80* %st0.global-to-local, { 1, 2, 3, 0, 4 }
  uselistorder i32* %eax.global-to-local, { 0, 1, 3, 2, 4, 5, 6, 7, 8, 9 }
  uselistorder i32 108, { 1, 0 }
  uselistorder label %dec_label_pc_163, { 1, 0 }
}

define i32 @function_184() local_unnamed_addr {
dec_label_pc_184:
  %v0_185 = load i32, i32* @eax, align 4
  ret i32 %v0_185
}

define %"vector<json_spirit::Pair_impl<json_spirit::Config_vector<std::basic_string<char,std::char_traits<char>,std::allocator<char>>>>,std::allocator<json_spirit::Pair_impl<json_spirit::Config_vector<std::basic_string<char,std::char_traits<char>,std::allocator<char>>>>>>.3" @_Z11blockToJSONRK6CBlockPK11CBlockIndex(i32 %block, i32 %blockindex) local_unnamed_addr {
dec_label_pc_186:
  %stack_var_-900 = alloca i32, align 4
  %txs_-1152 = alloca %"vector<json_spirit::Value_impl<json_spirit::Config_vector<std::basic_string<char,std::char_traits<char>,std::allocator<char>>>>,std::allocator<json_spirit::Value_impl<json_spirit::Config_vector<std::basic_string<char,std::char_traits<char>,std::allocator<char>>>>>>", align 8
  %v4_193 = insertvalue %"vector<json_spirit::Value_impl<json_spirit::Config_vector<std::basic_string<char,std::char_traits<char>,std::allocator<char>>>>,std::allocator<json_spirit::Value_impl<json_spirit::Config_vector<std::basic_string<char,std::char_traits<char>,std::allocator<char>>>>>>" undef, i32 %block, 0
  store %"vector<json_spirit::Value_impl<json_spirit::Config_vector<std::basic_string<char,std::char_traits<char>,std::allocator<char>>>>,std::allocator<json_spirit::Value_impl<json_spirit::Config_vector<std::basic_string<char,std::char_traits<char>,std::allocator<char>>>>>>" %v4_193, %"vector<json_spirit::Value_impl<json_spirit::Config_vector<std::basic_string<char,std::char_traits<char>,std::allocator<char>>>>,std::allocator<json_spirit::Value_impl<json_spirit::Config_vector<std::basic_string<char,std::char_traits<char>,std::allocator<char>>>>>>"* %txs_-1152, align 8
  %v4_1b6 = getelementptr inbounds %"vector<json_spirit::Value_impl<json_spirit::Config_vector<std::basic_string<char,std::char_traits<char>,std::allocator<char>>>>,std::allocator<json_spirit::Value_impl<json_spirit::Config_vector<std::basic_string<char,std::char_traits<char>,std::allocator<char>>>>>>", %"vector<json_spirit::Value_impl<json_spirit::Config_vector<std::basic_string<char,std::char_traits<char>,std::allocator<char>>>>,std::allocator<json_spirit::Value_impl<json_spirit::Config_vector<std::basic_string<char,std::char_traits<char>,std::allocator<char>>>>>>"* %txs_-1152, i32 0, i32 0
  %v5_1b6 = load i32, i32* %v4_1b6, align 8
  %v1_1bf = call i32 @_ZNSt6vectorIN11json_spirit9Pair_implINS0_13Config_vectorISsEEEESaIS4_EEC1Ev(i32 %v5_1b6)
  %v2_1ca = ptrtoint i32* %stack_var_-900 to i32
  %v5_1d4 = insertvalue %"vector<json_spirit::Pair_impl<json_spirit::Config_vector<std::basic_string<char,std::char_traits<char>,std::allocator<char>>>>,std::allocator<json_spirit::Pair_impl<json_spirit::Config_vector<std::basic_string<char,std::char_traits<char>,std::allocator<char>>>>>>.3" undef, i32 %v2_1ca, 0
  ret %"vector<json_spirit::Pair_impl<json_spirit::Config_vector<std::basic_string<char,std::char_traits<char>,std::allocator<char>>>>,std::allocator<json_spirit::Pair_impl<json_spirit::Config_vector<std::basic_string<char,std::char_traits<char>,std::allocator<char>>>>>>.3" %v5_1d4
}

define i32 @function_330() local_unnamed_addr {
dec_label_pc_330:
  %eax.global-to-local = alloca i32, align 4
  %ecx.global-to-local = alloca i32, align 4
  %tmp91 = call i32 @__decompiler_undefined_function_0()
  %v1_330 = add i32 %tmp91, -254843
  %v2_330 = inttoptr i32 %v1_330 to i32*
  %v3_330 = load i32, i32* %v2_330, align 4
  %v4_330 = add i32 %v3_330, -1
  store i32 %v4_330, i32* %v2_330, align 4
  %v0_336 = load i32, i32* %ecx.global-to-local, align 4
  %v1_336 = add i32 %v0_336, -955767740
  %v2_336 = inttoptr i32 %v1_336 to i32*
  %v3_336 = load i32, i32* %v2_336, align 4
  %v4_336 = add i32 %v3_336, -1
  store i32 %v4_336, i32* %v2_336, align 4
  %v0_33d = load i32, i32* %eax.global-to-local, align 4
  %v11_33d = and i32 %v0_33d, -252
  store i32 %v11_33d, i32* @eax, align 4
  %v0_33f = call i32 @function_39c()
  store i32 %v0_33f, i32* %eax.global-to-local, align 4
  ret i32 %v0_33f
}

define i32 @function_39c() local_unnamed_addr {
dec_label_pc_39c:
  %v0_39c = load i32, i32* @eax, align 4
  ret i32 %v0_39c
}

define i32 @function_607() local_unnamed_addr {
dec_label_pc_607:
  %ebx.global-to-local = alloca i32, align 4
  %ecx.global-to-local = alloca i32, align 4
  %v0_607 = load i32, i32* %ebx.global-to-local, align 4
  %v1_607 = add i32 %v0_607, -294779
  %v2_607 = inttoptr i32 %v1_607 to i8*
  %v3_607 = load i8, i8* %v2_607, align 1
  %v4_607 = load i32, i32* %ecx.global-to-local, align 4
  %v5_607 = trunc i32 %v4_607 to i8
  %v6_607 = add i8 %v5_607, %v3_607
  store i8 %v6_607, i8* %v2_607, align 1
  %v0_60d = load i32, i32* %ecx.global-to-local, align 4
  %v1_60d = add i32 %v0_60d, -857201660
  %v2_60d = inttoptr i32 %v1_60d to i32*
  %v3_60d = load i32, i32* %v2_60d, align 4
  %v4_60d = add i32 %v3_60d, -1
  store i32 %v4_60d, i32* %v2_60d, align 4
  %v0_613 = call i32 @function_85890618()
  ret i32 %v0_613
}

define i32 @function_7d1() local_unnamed_addr {
dec_label_pc_7d1:
  %eax.global-to-local = alloca i32, align 4
  %v0_7d1 = load i32, i32* %eax.global-to-local, align 4
  %v24_7d3 = and i32 %v0_7d1, -248
  store i32 %v24_7d3, i32* @eax, align 4
  %v0_7d4 = call i32 @function_ec830000()
  store i32 %v0_7d4, i32* %eax.global-to-local, align 4
  ret i32 %v0_7d4
}

define i32 @function_99e() local_unnamed_addr {
dec_label_pc_99e:
  %eax.global-to-local = alloca i32, align 4
  %ebp.global-to-local = alloca i32, align 4
  %ebx.global-to-local = alloca i32, align 4
  %ecx.global-to-local = alloca i32, align 4
  %edx.global-to-local = alloca i32, align 4
  %stack_var_-1076 = alloca i32, align 4
  %stack_var_-1080 = alloca i32, align 4
  %stack_var_-1084 = alloca i32, align 4
  %stack_var_-4 = alloca i32, align 4
  %v0_99e = load i32, i32* %ebp.global-to-local, align 4
  %v1_99e = add i32 %v0_99e, -292731
  %v2_99e = inttoptr i32 %v1_99e to i32*
  %v3_99e = load i32, i32* %v2_99e, align 4
  %v4_99e = add i32 %v3_99e, -1
  store i32 %v4_99e, i32* %v2_99e, align 4
  %v0_9a4 = load i32, i32* %ecx.global-to-local, align 4
  %v1_9a4 = add i32 %v0_9a4, 1273504772
  %v2_9a4 = inttoptr i32 %v1_9a4 to i32*
  %v3_9a4 = load i32, i32* %v2_9a4, align 4
  %v4_9a4 = add i32 %v3_9a4, -1
  store i32 %v4_9a4, i32* %v2_9a4, align 4
  %v2_9aa = load i32, i32* %ecx.global-to-local, align 4
  %v3_9aa = load i32, i32* %eax.global-to-local, align 4
  %v4_9aa = and i32 %v3_9aa, %v2_9aa
  %v12_9aa = inttoptr i32 %v2_9aa to i32*
  store i32 %v4_9aa, i32* %v12_9aa, align 4
  %v0_9ac = load i32, i32* %ebx.global-to-local, align 4
  %v1_9ac = add i32 %v0_9ac, -294779
  %v2_9ac = inttoptr i32 %v1_9ac to i8*
  %v3_9ac = load i8, i8* %v2_9ac, align 1
  %v4_9ac = load i32, i32* %ecx.global-to-local, align 4
  %v5_9ac = trunc i32 %v4_9ac to i8
  %v6_9ac = add i8 %v5_9ac, %v3_9ac
  store i8 %v6_9ac, i8* %v2_9ac, align 1
  %v0_9b2 = load i32, i32* %ebp.global-to-local, align 4
  %v1_9b2 = add i32 %v0_9b2, -2054336432
  %v2_9b2 = inttoptr i32 %v1_9b2 to i32*
  %v3_9b2 = load i32, i32* %v2_9b2, align 4
  %v4_9b2 = add i32 %v3_9b2, -1
  store i32 %v4_9b2, i32* %v2_9b2, align 4
  %v1_9b8 = load i32, i32* %ebp.global-to-local, align 4
  store i32 %v1_9b8, i32* %stack_var_-4, align 4
  %v4_9b8 = ptrtoint i32* %stack_var_-4 to i32
  store i32 %v4_9b8, i32* @ebp, align 4
  %v0_9c4 = load i32, i32* %edx.global-to-local, align 8
  %v0_9c8 = load i32, i32* %eax.global-to-local, align 4
  %v3_9cb = call i32 @_ZN5boost15foreach_detail_7containIKSt6vectorI12CTransactionSaIS3_EEEENS0_8auto_anyIPT_EERS8_PN4mpl_5bool_ILb0EEE(i32 %v0_9c8, i32 %v0_9c4, i32 0)
  %v2_9d3 = ptrtoint i32* %stack_var_-1084 to i32
  store i32 %v2_9d3, i32* %eax.global-to-local, align 4
  %v1_9e8 = call i32 @_ZNK5boost15foreach_detail_13auto_any_basecvbEv(i32 %v2_9d3)
  store i32 %v1_9e8, i32* %eax.global-to-local, align 4
  %v4_9ed = trunc i32 %v1_9e8 to i8
  %v5_9ed = icmp eq i8 %v4_9ed, 0
  %v1_9ef = icmp eq i1 %v5_9ed, false
  br i1 %v1_9ef, label %bb, label %dec_label_pc_9f5

bb:                                               ; preds = %dec_label_pc_99e
  %v2_9ef = call i32 @function_bd4()
  store i32 %v2_9ef, i32* %eax.global-to-local, align 4
  br label %dec_label_pc_9f5

dec_label_pc_9f5:                                 ; preds = %bb, %dec_label_pc_99e
  %v2_9f5 = ptrtoint i32* %stack_var_-1080 to i32
  store i32 %v2_9f5, i32* %eax.global-to-local, align 4
  store i32 %v2_9d3, i32* %edx.global-to-local, align 8
  %v4_a18 = call i32 @_ZN5boost15foreach_detail_5beginISt6vectorI12CTransactionSaIS3_EEN4mpl_5bool_ILb1EEEEENS0_8auto_anyINS0_16foreach_iteratorIT_T0_E4typeEEERKNS0_13auto_any_baseEPNS0_9type2typeISB_SC_EEPNS7_ILb0EEE(i32 %v2_9f5, i32 %v2_9d3, i32 0, i32 0)
  store i32 %v2_9f5, i32* %eax.global-to-local, align 4
  %v1_a35 = call i32 @_ZNK5boost15foreach_detail_13auto_any_basecvbEv(i32 %v2_9f5)
  store i32 %v1_a35, i32* %eax.global-to-local, align 4
  %v4_a3a = trunc i32 %v1_a35 to i8
  %v5_a3a = icmp eq i8 %v4_a3a, 0
  %v1_a3c = icmp eq i1 %v5_a3a, false
  br i1 %v1_a3c, label %bb116, label %dec_label_pc_a42

bb116:                                            ; preds = %dec_label_pc_9f5
  %v2_a3c = call i32 @function_bd4()
  store i32 %v2_a3c, i32* %eax.global-to-local, align 4
  br label %dec_label_pc_a42

dec_label_pc_a42:                                 ; preds = %bb116, %dec_label_pc_9f5
  %v2_a42 = ptrtoint i32* %stack_var_-1076 to i32
  store i32 %v2_a42, i32* %eax.global-to-local, align 4
  store i32 %v2_9d3, i32* %edx.global-to-local, align 8
  %v5_a65 = call i32 @_ZN5boost15foreach_detail_3endISt6vectorI12CTransactionSaIS3_EEN4mpl_5bool_ILb1EEEEENS0_8auto_anyINS0_16foreach_iteratorIT_T0_E4typeEEERKNS0_13auto_any_baseEPNS0_9type2typeISB_SC_EEPNS7_ILb0EEE(i32 %v2_a42, i32* nonnull %stack_var_-1084, i32 0, i32 0)
  store i32 %v2_a42, i32* %eax.global-to-local, align 4
  %v1_a82 = call i32 @_ZNK5boost15foreach_detail_13auto_any_basecvbEv(i32 %v2_a42)
  store i32 %v1_a82, i32* %eax.global-to-local, align 4
  %v4_a87 = trunc i32 %v1_a82 to i8
  %v5_a87 = icmp eq i8 %v4_a87, 0
  %v1_a89 = icmp eq i1 %v5_a87, false
  br i1 %v1_a89, label %bb118, label %dec_label_pc_a8f

bb118:                                            ; preds = %dec_label_pc_a42
  %v2_a89 = call i32 @function_bd4()
  store i32 %v2_a89, i32* %eax.global-to-local, align 4
  br label %dec_label_pc_a8f

dec_label_pc_a8f:                                 ; preds = %bb118, %dec_label_pc_a42
  %v2_a96 = call i32 @function_b8e(i32 1)
  store i32 %v2_a96, i32* %eax.global-to-local, align 4
  ret i32 %v2_a96

; uselistorder directives
  uselistorder i32 %v2_a42, { 1, 0, 2, 3 }
  uselistorder i32 %v2_9f5, { 1, 0, 2, 3 }
  uselistorder i32 %v2_9d3, { 0, 2, 1, 4, 3 }
  uselistorder i32 %v2_9aa, { 1, 0 }
  uselistorder i32* %eax.global-to-local, { 3, 2, 4, 5, 6, 1, 7, 8, 9, 0, 10, 11, 12, 13 }
  uselistorder i32 ()* @function_bd4, { 2, 1, 0 }
}

define i32 @function_a9b() local_unnamed_addr {
dec_label_pc_a9b:
  %v0_a9b = load i32, i32* @ebp, align 4
  %v1_a9b = add i32 %v0_a9b, -988
  %v1_aa4 = inttoptr i32 %v1_a9b to i8*
  %v2_aa4 = call i32 @_ZN5boost15foreach_detail_9set_falseERb(i8* %v1_aa4)
  %v4_aa9 = trunc i32 %v2_aa4 to i8
  %v5_aa9 = icmp eq i8 %v4_aa9, 0
  %v1_aab = icmp eq i1 %v5_aa9, false
  br i1 %v1_aab, label %bb, label %dec_label_pc_ab1

bb:                                               ; preds = %dec_label_pc_a9b
  %v2_aab = call i32 @function_b6d()
  br label %dec_label_pc_ab1

dec_label_pc_ab1:                                 ; preds = %bb, %dec_label_pc_a9b
  %v0_ab9 = load i32, i32* @ebp, align 4
  %v1_ab9 = add i32 %v0_ab9, -1016
  %v2_ab9 = inttoptr i32 %v1_ab9 to i32*
  %v3_ab9 = load i32, i32* %v2_ab9, align 4
  %v2_ac2 = call i32 @_ZN5boost15foreach_detail_5derefISt6vectorI12CTransactionSaIS3_EEN4mpl_5bool_ILb1EEEEENS0_17foreach_referenceIT_T0_E4typeERKNS0_13auto_any_baseEPNS0_9type2typeISA_SB_EE(i32 %v3_ab9, i32 0)
  %v1_ac7 = load i32, i32* @ebp, align 4
  %v2_ac7 = add i32 %v1_ac7, -1008
  %v3_ac7 = inttoptr i32 %v2_ac7 to i32*
  store i32 %v2_ac2, i32* %v3_ac7, align 4
  %v0_acd = call i32 @function_b5b()
  ret i32 %v0_acd
}

define i32 @function_ad2() local_unnamed_addr {
dec_label_pc_ad2:
  %eax.global-to-local = alloca i32, align 4
  %tmp96 = load i32, i32* %eax.global-to-local, align 4
  ret i32 %tmp96
}

define i32 @function_b5b() local_unnamed_addr {
dec_label_pc_b5b:
  %v0_b5b = load i32, i32* @ebp, align 4
  %v1_b5b = add i32 %v0_b5b, -988
  %v2_b5b = inttoptr i32 %v1_b5b to i8*
  %v3_b5b = load i8, i8* %v2_b5b, align 1
  %v4_b5b = zext i8 %v3_b5b to i32
  %v1_b62 = xor i32 %v4_b5b, 1
  ret i32 %v1_b62
}

define i32 @function_b6d() local_unnamed_addr {
dec_label_pc_b6d:
  %v0_b6d = load i32, i32* @ebp, align 4
  %v1_b6d = add i32 %v0_b6d, -988
  %v2_b6d = inttoptr i32 %v1_b6d to i8*
  %v3_b6d = load i8, i8* %v2_b6d, align 1
  %v5_b74 = icmp eq i8 %v3_b6d, 0
  br i1 %v5_b74, label %bb, label %dec_label_pc_b78

bb:                                               ; preds = %dec_label_pc_b6d
  %v2_b76 = call i32 @function_b8e(i32 ptrtoint (i32* @0 to i32))
  %v0_b80.pre = load i32, i32* @ebp, align 4
  br label %dec_label_pc_b78

dec_label_pc_b78:                                 ; preds = %bb, %dec_label_pc_b6d
  %v0_b80 = phi i32 [ %v0_b80.pre, %bb ], [ %v0_b6d, %dec_label_pc_b6d ]
  %v1_b80 = add i32 %v0_b80, -1016
  %v2_b80 = inttoptr i32 %v1_b80 to i32*
  %v3_b80 = load i32, i32* %v2_b80, align 4
  %v2_b89 = call i32 @_ZN5boost15foreach_detail_4nextISt6vectorI12CTransactionSaIS3_EEN4mpl_5bool_ILb1EEEEEvRKNS0_13auto_any_baseEPNS0_9type2typeIT_T0_EE(i32 %v3_b80, i32 0)
  ret i32 %v2_b89

; uselistorder directives
  uselistorder i32 (i32)* @function_b8e, { 1, 0 }
}

define i32 @function_b8e(i32 %arg1) local_unnamed_addr {
dec_label_pc_b8e:
  %v0_b8e = load i32, i32* @ebp, align 4
  %v1_b8e = add i32 %v0_b8e, -988
  %v2_b8e = inttoptr i32 %v1_b8e to i8*
  %v3_b8e = load i8, i8* %v2_b8e, align 1
  %v5_b95 = icmp eq i8 %v3_b8e, 0
  br i1 %v5_b95, label %dec_label_pc_bc7, label %dec_label_pc_b99

dec_label_pc_b99:                                 ; preds = %dec_label_pc_b8e
  %v1_ba1 = add i32 %v0_b8e, -1012
  %v2_ba1 = inttoptr i32 %v1_ba1 to i32*
  %v3_ba1 = load i32, i32* %v2_ba1, align 4
  %v1_bab = add i32 %v0_b8e, -1016
  %v2_bab = inttoptr i32 %v1_bab to i32*
  %v3_bab = load i32, i32* %v2_bab, align 4
  %v3_bb4 = call i32 @_ZN5boost15foreach_detail_4doneISt6vectorI12CTransactionSaIS3_EEN4mpl_5bool_ILb1EEEEEbRKNS0_13auto_any_baseESB_PNS0_9type2typeIT_T0_EE(i32 %v3_bab, i32 %v3_ba1, i32 0)
  %v1_bb9 = xor i32 %v3_bb4, 1
  %v4_bb9 = trunc i32 %v1_bb9 to i8
  %v5_bbc = icmp eq i8 %v4_bb9, 0
  br i1 %v5_bbc, label %dec_label_pc_bc7, label %dec_label_pc_bcc

dec_label_pc_bc7:                                 ; preds = %dec_label_pc_b99, %dec_label_pc_b8e
  br label %dec_label_pc_bcc

dec_label_pc_bcc:                                 ; preds = %dec_label_pc_b99, %dec_label_pc_bc7
  %storemerge = phi i32 [ 0, %dec_label_pc_bc7 ], [ 1, %dec_label_pc_b99 ]
  ret i32 %storemerge

; uselistorder directives
  uselistorder i32 %v0_b8e, { 1, 0, 2 }
  uselistorder i32 -1016, { 2, 0, 1 }
  uselistorder i32 -988, { 3, 0, 1, 2 }
  uselistorder label %dec_label_pc_bcc, { 1, 0 }
}

define i32 @function_bd4() local_unnamed_addr {
dec_label_pc_bd4:
  %v0_bd4 = load i32, i32* @ebp, align 4
  %v1_bd4 = add i32 %v0_bd4, -1144
  %v1_bde = add i32 %v0_bd4, -152
  %v2_be7 = inttoptr i32 %v1_bde to i32*
  %v3_be7 = call i32 @_ZN11json_spirit10Value_implINS_13Config_vectorISsEEEC1ERKSt6vectorIS3_SaIS3_EE(i32* %v2_be7, i32 %v1_bd4)
  %v0_bec = load i32, i32* @ebp, align 4
  %v1_bec = add i32 %v0_bec, -987
  ret i32 %v1_bec
}

define i32 @function_11c0() local_unnamed_addr {
dec_label_pc_11c0:
  %cf.global-to-local = alloca i1, align 1
  %eax.global-to-local = alloca i32, align 4
  %ecx.global-to-local = alloca i32, align 4
  %v0_11c0 = load i32, i32* @ebp, align 4
  %v1_11c0 = add i32 %v0_11c0, -292731
  %v2_11c0 = inttoptr i32 %v1_11c0 to i32*
  %v3_11c0 = load i32, i32* %v2_11c0, align 4
  %v4_11c0 = add i32 %v3_11c0, -1
  store i32 %v4_11c0, i32* %v2_11c0, align 4
  %v0_11c6 = load i32, i32* %ecx.global-to-local, align 4
  %v1_11c6 = add i32 %v0_11c6, 1609049092
  %v2_11c6 = inttoptr i32 %v1_11c6 to i32*
  %v3_11c6 = load i32, i32* %v2_11c6, align 4
  %v4_11c6 = add i32 %v3_11c6, -1
  store i32 %v4_11c6, i32* %v2_11c6, align 4
  %v2_11cc = load i32, i32* %ecx.global-to-local, align 4
  %v3_11cc = load i32, i32* %eax.global-to-local, align 4
  %v4_11cc = load i1, i1* %cf.global-to-local, align 1
  %v5_11cc = zext i1 %v4_11cc to i32
  %v6_11cc = sub i32 %v2_11cc, %v3_11cc
  %v7_11cc = add i32 %v5_11cc, %v6_11cc
  %v17_11cc = sub i32 %v6_11cc, %v5_11cc
  %v18_11cc = icmp ult i32 %v2_11cc, %v17_11cc
  %v19_11cc = icmp ne i32 %v3_11cc, -1
  %v20_11cc = or i1 %v19_11cc, %v18_11cc
  %v21_11cc = icmp ult i32 %v2_11cc, %v3_11cc
  %v22_11cc = select i1 %v4_11cc, i1 %v20_11cc, i1 %v21_11cc
  store i1 %v22_11cc, i1* %cf.global-to-local, align 1
  %v37_11cc = inttoptr i32 %v2_11cc to i32*
  store i32 %v7_11cc, i32* %v37_11cc, align 4
  %v0_11ce = load i32, i32* @ebp, align 4
  %v1_11ce = add i32 %v0_11ce, -250747
  %v2_11ce = inttoptr i32 %v1_11ce to i8*
  %v3_11ce = load i8, i8* %v2_11ce, align 1
  %v4_11ce = load i32, i32* %ecx.global-to-local, align 4
  %v5_11ce = trunc i32 %v4_11ce to i8
  %v6_11ce = add i8 %v5_11ce, %v3_11ce
  store i8 %v6_11ce, i8* %v2_11ce, align 1
  %v0_11d4 = load i32, i32* %ecx.global-to-local, align 4
  %v1_11d4 = add i32 %v0_11d4, -1243077628
  %v2_11d4 = inttoptr i32 %v1_11d4 to i32*
  %v3_11d4 = load i32, i32* %v2_11d4, align 4
  %v4_11d4 = add i32 %v3_11d4, -1
  store i32 %v4_11d4, i32* %v2_11d4, align 4
  %v2_11db = load i8, i8* bitcast (i32* @eax to i8*), align 4
  %v3_11db = load i32, i32* %eax.global-to-local, align 4
  %v4_11db = trunc i32 %v3_11db to i8
  %v5_11db = add i8 %v4_11db, %v2_11db
  %v10_11db = icmp ult i8 %v5_11db, %v2_11db
  store i1 %v10_11db, i1* %cf.global-to-local, align 1
  %v21_11db = inttoptr i32 %v3_11db to i8*
  store i8 %v5_11db, i8* %v21_11db, align 1
  %v0_11dd = call i32 @function_1720()
  store i32 %v0_11dd, i32* %eax.global-to-local, align 4
  ret i32 %v0_11dd

; uselistorder directives
  uselistorder i8 %v2_11db, { 1, 0 }
  uselistorder i32 %v6_11cc, { 1, 0 }
  uselistorder i32 %v5_11cc, { 1, 0 }
  uselistorder i32 %v3_11cc, { 1, 0, 2 }
}

define i32 @function_11e2() local_unnamed_addr {
dec_label_pc_11e2:
  %v0_11e4 = load i32, i32* @ebp, align 4
  %v1_11e4 = add i32 %v0_11e4, -736
  %v1_11ed = call i32 @_ZN11json_spirit9Pair_implINS_13Config_vectorISsEEED1Ev(i32 %v1_11e4)
  %v0_11f2 = call i32 @function_11f6()
  ret i32 %v0_11f2
}

define i32 @function_11f4() local_unnamed_addr {
dec_label_pc_11f4:
  %eax.global-to-local = alloca i32, align 4
  %v0_11f4 = load i32, i32* %eax.global-to-local, align 4
  ret i32 %v0_11f4
}

define i32 @function_11f6() local_unnamed_addr {
dec_label_pc_11f6:
  %v0_11f6 = load i32, i32* @ebp, align 4
  %v1_11f6 = add i32 %v0_11f6, -1128
  %v1_1204 = call i32 @function_1208(i32 %v1_11f6)
  ret i32 %v1_1204
}

define i32 @function_1206() local_unnamed_addr {
dec_label_pc_1206:
  %eax.global-to-local = alloca i32, align 4
  %v0_1206 = load i32, i32* %eax.global-to-local, align 4
  ret i32 %v0_1206
}

define i32 @function_1208(i32 %arg1) local_unnamed_addr {
dec_label_pc_1208:
  %v0_1208 = load i32, i32* @ebp, align 4
  %v1_1208 = add i32 %v0_1208, -997
  ret i32 %v1_1208
}

define i32 @function_1215() local_unnamed_addr {
dec_label_pc_1215:
  %eax.global-to-local = alloca i32, align 4
  %ecx.global-to-local = alloca i32, align 4
  %v0_1215 = load i32, i32* @ebp, align 4
  %v1_1215 = add i32 %v0_1215, -89979
  %v2_1215 = inttoptr i32 %v1_1215 to i32*
  %v3_1215 = load i32, i32* %v2_1215, align 4
  %v4_1215 = add i32 %v3_1215, -1
  store i32 %v4_1215, i32* %v2_1215, align 4
  %v0_121b = load i32, i32* %ecx.global-to-local, align 4
  %v1_121b = add i32 %v0_121b, -722983932
  %v2_121b = inttoptr i32 %v1_121b to i32*
  %v3_121b = load i32, i32* %v2_121b, align 4
  %v4_121b = add i32 %v3_121b, -1
  store i32 %v4_121b, i32* %v2_121b, align 4
  %v2_1221 = load i8, i8* bitcast (i32* @eax to i8*), align 4
  %v3_1221 = load i32, i32* %eax.global-to-local, align 4
  %v4_1221 = trunc i32 %v3_1221 to i8
  %v5_1221 = add i8 %v4_1221, %v2_1221
  %v21_1221 = inttoptr i32 %v3_1221 to i8*
  store i8 %v5_1221, i8* %v21_1221, align 1
  %v0_1224 = call i32 @function_1228()
  store i32 %v0_1224, i32* %eax.global-to-local, align 4
  ret i32 %v0_1224
}

define i32 @function_1226() local_unnamed_addr {
dec_label_pc_1226:
  %eax.global-to-local = alloca i32, align 4
  %v0_1226 = load i32, i32* %eax.global-to-local, align 4
  ret i32 %v0_1226
}

define i32 @function_1228() local_unnamed_addr {
dec_label_pc_1228:
  %v0_1228 = load i32, i32* @ebp, align 4
  %v1_1228 = add i32 %v0_1228, -1132
  ret i32 %v1_1228
}

define i32 @function_1236() local_unnamed_addr {
dec_label_pc_1236:
  %v0_1236 = call i32 @function_1708()
  ret i32 %v0_1236
}

define i32 @function_123b() local_unnamed_addr {
dec_label_pc_123b:
  %v0_123d = load i32, i32* @ebp, align 4
  %v1_123d = add i32 %v0_123d, -712
  %v1_1246 = call i32 @_ZN11json_spirit9Pair_implINS_13Config_vectorISsEEED1Ev(i32 %v1_123d)
  %v0_124b = call i32 @function_124f()
  ret i32 %v0_124b
}

define i32 @function_124d() local_unnamed_addr {
dec_label_pc_124d:
  %eax.global-to-local = alloca i32, align 4
  %v0_124d = load i32, i32* %eax.global-to-local, align 4
  ret i32 %v0_124d
}

define i32 @function_124f() local_unnamed_addr {
dec_label_pc_124f:
  %v0_124f = load i32, i32* @ebp, align 4
  %v1_124f = add i32 %v0_124f, -1124
  ret i32 %v1_124f
}

define i32 @function_125d() local_unnamed_addr {
dec_label_pc_125d:
  %v0_125d = call i32 @function_1261()
  ret i32 %v0_125d
}

define i32 @function_125f() local_unnamed_addr {
dec_label_pc_125f:
  %eax.global-to-local = alloca i32, align 4
  %v0_125f = load i32, i32* %eax.global-to-local, align 4
  ret i32 %v0_125f
}

define i32 @function_1261() local_unnamed_addr {
dec_label_pc_1261:
  %v0_1261 = load i32, i32* @ebp, align 4
  %v1_1261 = add i32 %v0_1261, -996
  ret i32 %v1_1261
}

define i32 @function_126e() local_unnamed_addr {
dec_label_pc_126e:
  %eax.global-to-local = alloca i32, align 4
  %ecx.global-to-local = alloca i32, align 4
  %v0_126e = load i32, i32* @ebp, align 4
  %v1_126e = add i32 %v0_126e, -84859
  %v2_126e = inttoptr i32 %v1_126e to i32*
  %v3_126e = load i32, i32* %v2_126e, align 4
  %v4_126e = add i32 %v3_126e, -1
  store i32 %v4_126e, i32* %v2_126e, align 4
  %v0_1274 = load i32, i32* %ecx.global-to-local, align 4
  %v1_1274 = add i32 %v0_1274, 2078811140
  %v2_1274 = inttoptr i32 %v1_1274 to i32*
  %v3_1274 = load i32, i32* %v2_1274, align 4
  %v4_1274 = add i32 %v3_1274, -1
  store i32 %v4_1274, i32* %v2_1274, align 4
  %v2_127a = load i8, i8* bitcast (i32* @eax to i8*), align 4
  %v3_127a = load i32, i32* %eax.global-to-local, align 4
  %v4_127a = trunc i32 %v3_127a to i8
  %v5_127a = add i8 %v4_127a, %v2_127a
  %v21_127a = inttoptr i32 %v3_127a to i8*
  store i8 %v5_127a, i8* %v21_127a, align 1
  %v1_127d = call i32 @function_16f6(i32 ptrtoint (i32* @0 to i32))
  store i32 %v1_127d, i32* %eax.global-to-local, align 4
  ret i32 %v1_127d
}

define i32 @function_1282() local_unnamed_addr {
dec_label_pc_1282:
  %v0_1284 = load i32, i32* @ebp, align 4
  %v1_1284 = add i32 %v0_1284, -688
  %v1_128d = call i32 @_ZN11json_spirit9Pair_implINS_13Config_vectorISsEEED1Ev(i32 %v1_1284)
  %v0_1292 = call i32 @function_1296()
  ret i32 %v0_1292
}

define i32 @function_1294() local_unnamed_addr {
dec_label_pc_1294:
  %eax.global-to-local = alloca i32, align 4
  %v0_1294 = load i32, i32* %eax.global-to-local, align 4
  ret i32 %v0_1294
}

define i32 @function_1296() local_unnamed_addr {
dec_label_pc_1296:
  %v0_1296 = load i32, i32* @ebp, align 4
  %v1_1296 = add i32 %v0_1296, -1120
  %v1_12a4 = call i32 @function_12a8(i32 %v1_1296)
  ret i32 %v1_12a4
}

define i32 @function_12a6() local_unnamed_addr {
dec_label_pc_12a6:
  %eax.global-to-local = alloca i32, align 4
  %v0_12a6 = load i32, i32* %eax.global-to-local, align 4
  ret i32 %v0_12a6
}

define i32 @function_12a8(i32 %arg1) local_unnamed_addr {
dec_label_pc_12a8:
  %v0_12a8 = load i32, i32* @ebp, align 4
  %v1_12a8 = add i32 %v0_12a8, -995
  ret i32 %v1_12a8
}

define i32 @function_12b5() local_unnamed_addr {
dec_label_pc_12b5:
  %eax.global-to-local = alloca i32, align 4
  %ecx.global-to-local = alloca i32, align 4
  %v0_12b5 = load i32, i32* @ebp, align 4
  %v1_12b5 = add i32 %v0_12b5, -79739
  %v2_12b5 = inttoptr i32 %v1_12b5 to i32*
  %v3_12b5 = load i32, i32* %v2_12b5, align 4
  %v4_12b5 = add i32 %v3_12b5, -1
  store i32 %v4_12b5, i32* %v2_12b5, align 4
  %v0_12bb = load i32, i32* %ecx.global-to-local, align 4
  %v1_12bb = add i32 %v0_12bb, 887628804
  %v2_12bb = inttoptr i32 %v1_12bb to i32*
  %v3_12bb = load i32, i32* %v2_12bb, align 4
  %v4_12bb = add i32 %v3_12bb, -1
  store i32 %v4_12bb, i32* %v2_12bb, align 4
  %v2_12c1 = load i8, i8* bitcast (i32* @eax to i8*), align 4
  %v3_12c1 = load i32, i32* %eax.global-to-local, align 4
  %v4_12c1 = trunc i32 %v3_12c1 to i8
  %v5_12c1 = add i8 %v4_12c1, %v2_12c1
  %v21_12c1 = inttoptr i32 %v3_12c1 to i8*
  store i8 %v5_12c1, i8* %v21_12c1, align 1
  %v1_12c4 = call i32 @function_16f6(i32 ptrtoint (i32* @0 to i32))
  store i32 %v1_12c4, i32* %eax.global-to-local, align 4
  ret i32 %v1_12c4
}

define i32 @function_12c9() local_unnamed_addr {
dec_label_pc_12c9:
  %v0_12cb = load i32, i32* @ebp, align 4
  %v1_12cb = add i32 %v0_12cb, -664
  %v1_12d4 = call i32 @_ZN11json_spirit9Pair_implINS_13Config_vectorISsEEED1Ev(i32 %v1_12cb)
  %v0_12d9 = call i32 @function_12dd()
  ret i32 %v0_12d9
}

define i32 @function_12db() local_unnamed_addr {
dec_label_pc_12db:
  %eax.global-to-local = alloca i32, align 4
  %v0_12db = load i32, i32* %eax.global-to-local, align 4
  ret i32 %v0_12db
}

define i32 @function_12dd() local_unnamed_addr {
dec_label_pc_12dd:
  %v0_12dd = load i32, i32* @ebp, align 4
  %v1_12dd = add i32 %v0_12dd, -1116
  ret i32 %v1_12dd
}

define i32 @function_12eb() local_unnamed_addr {
dec_label_pc_12eb:
  %v0_12eb = call i32 @function_12ef()
  ret i32 %v0_12eb
}

define i32 @function_12ed() local_unnamed_addr {
dec_label_pc_12ed:
  %eax.global-to-local = alloca i32, align 4
  %v0_12ed = load i32, i32* %eax.global-to-local, align 4
  ret i32 %v0_12ed
}

define i32 @function_12ef() local_unnamed_addr {
dec_label_pc_12ef:
  %v0_12ef = load i32, i32* @ebp, align 4
  %v1_12ef = add i32 %v0_12ef, -994
  ret i32 %v1_12ef
}

define i32 @function_12fc() local_unnamed_addr {
dec_label_pc_12fc:
  %eax.global-to-local = alloca i32, align 4
  %ecx.global-to-local = alloca i32, align 4
  %v0_12fc = load i32, i32* @ebp, align 4
  %v1_12fc = add i32 %v0_12fc, -74619
  %v2_12fc = inttoptr i32 %v1_12fc to i32*
  %v3_12fc = load i32, i32* %v2_12fc, align 4
  %v4_12fc = add i32 %v3_12fc, -1
  store i32 %v4_12fc, i32* %v2_12fc, align 4
  %v0_1302 = load i32, i32* %ecx.global-to-local, align 4
  %v1_1302 = add i32 %v0_1302, -303553532
  %v2_1302 = inttoptr i32 %v1_1302 to i32*
  %v3_1302 = load i32, i32* %v2_1302, align 4
  %v4_1302 = add i32 %v3_1302, -1
  store i32 %v4_1302, i32* %v2_1302, align 4
  %v2_1309 = load i8, i8* bitcast (i32* @eax to i8*), align 4
  %v3_1309 = load i32, i32* %eax.global-to-local, align 4
  %v4_1309 = trunc i32 %v3_1309 to i8
  %v5_1309 = add i8 %v4_1309, %v2_1309
  %v21_1309 = inttoptr i32 %v3_1309 to i8*
  store i8 %v5_1309, i8* %v21_1309, align 1
  %v1_130b = call i32 @function_16f6(i32 ptrtoint (i32* @0 to i32))
  store i32 %v1_130b, i32* %eax.global-to-local, align 4
  ret i32 %v1_130b
}

define i32 @function_1310() local_unnamed_addr {
dec_label_pc_1310:
  %v0_1312 = load i32, i32* @ebp, align 4
  %v1_1312 = add i32 %v0_1312, -640
  %v1_131b = call i32 @_ZN11json_spirit9Pair_implINS_13Config_vectorISsEEED1Ev(i32 %v1_1312)
  %v0_1320 = call i32 @function_1324()
  ret i32 %v0_1320
}

define i32 @function_1322() local_unnamed_addr {
dec_label_pc_1322:
  %eax.global-to-local = alloca i32, align 4
  %v0_1322 = load i32, i32* %eax.global-to-local, align 4
  ret i32 %v0_1322
}

define i32 @function_1324() local_unnamed_addr {
dec_label_pc_1324:
  %v0_1324 = load i32, i32* @ebp, align 4
  %v1_1324 = add i32 %v0_1324, -1112
  ret i32 %v1_1324
}

define i32 @function_1332() local_unnamed_addr {
dec_label_pc_1332:
  %v0_1332 = call i32 @function_1336()
  ret i32 %v0_1332
}

define i32 @function_1334() local_unnamed_addr {
dec_label_pc_1334:
  %eax.global-to-local = alloca i32, align 4
  %v0_1334 = load i32, i32* %eax.global-to-local, align 4
  ret i32 %v0_1334
}

define i32 @function_1336() local_unnamed_addr {
dec_label_pc_1336:
  %v0_1336 = load i32, i32* @ebp, align 4
  %v1_1344 = add i32 %v0_1336, -272
  %v1_134d = call i32 @_ZN11json_spirit10Value_implINS_13Config_vectorISsEEED1Ev(i32 %v1_1344)
  %v1_1352 = call i32 @function_16f6(i32 %v1_1344)
  ret i32 %v1_1352
}

define i32 @function_1357() local_unnamed_addr {
dec_label_pc_1357:
  %v0_1359 = load i32, i32* @ebp, align 4
  %v1_1359 = add i32 %v0_1359, -616
  %v1_1362 = call i32 @_ZN11json_spirit9Pair_implINS_13Config_vectorISsEEED1Ev(i32 %v1_1359)
  %v0_1367 = call i32 @function_136b()
  ret i32 %v0_1367
}

define i32 @function_1369() local_unnamed_addr {
dec_label_pc_1369:
  %eax.global-to-local = alloca i32, align 4
  %v0_1369 = load i32, i32* %eax.global-to-local, align 4
  ret i32 %v0_1369
}

define i32 @function_136b() local_unnamed_addr {
dec_label_pc_136b:
  %v0_136b = load i32, i32* @ebp, align 4
  %v1_136b = add i32 %v0_136b, -1108
  ret i32 %v1_136b
}

define i32 @function_1379() local_unnamed_addr {
dec_label_pc_1379:
  %v0_1379 = call i32 @function_137d()
  ret i32 %v0_1379
}

define i32 @function_137b() local_unnamed_addr {
dec_label_pc_137b:
  %eax.global-to-local = alloca i32, align 4
  %v0_137b = load i32, i32* %eax.global-to-local, align 4
  ret i32 %v0_137b
}

define i32 @function_137d() local_unnamed_addr {
dec_label_pc_137d:
  %v0_137d = load i32, i32* @ebp, align 4
  %v1_137d = add i32 %v0_137d, -992
  ret i32 %v1_137d
}

define i32 @function_138a() local_unnamed_addr {
dec_label_pc_138a:
  %eax.global-to-local = alloca i32, align 4
  %ecx.global-to-local = alloca i32, align 4
  %v0_138a = load i32, i32* @ebp, align 4
  %v1_138a = add i32 %v0_138a, -64379
  %v2_138a = inttoptr i32 %v1_138a to i32*
  %v3_138a = load i32, i32* %v2_138a, align 4
  %v4_138a = add i32 %v3_138a, -1
  store i32 %v4_138a, i32* %v2_138a, align 4
  %v0_1390 = load i32, i32* %ecx.global-to-local, align 4
  %v1_1390 = add i32 %v0_1390, 1609049092
  %v2_1390 = inttoptr i32 %v1_1390 to i32*
  %v3_1390 = load i32, i32* %v2_1390, align 4
  %v4_1390 = add i32 %v3_1390, -1
  store i32 %v4_1390, i32* %v2_1390, align 4
  %v2_1397 = load i8, i8* bitcast (i32* @eax to i8*), align 4
  %v3_1397 = load i32, i32* %eax.global-to-local, align 4
  %v4_1397 = trunc i32 %v3_1397 to i8
  %v5_1397 = add i8 %v4_1397, %v2_1397
  %v21_1397 = inttoptr i32 %v3_1397 to i8*
  store i8 %v5_1397, i8* %v21_1397, align 1
  %v1_1399 = call i32 @function_16f6(i32 ptrtoint (i32* @0 to i32))
  store i32 %v1_1399, i32* %eax.global-to-local, align 4
  ret i32 %v1_1399

; uselistorder directives
  uselistorder i32* %eax.global-to-local, { 1, 0 }
}

define i32 @function_139e() local_unnamed_addr {
dec_label_pc_139e:
  %v0_13a0 = load i32, i32* @ebp, align 4
  %v1_13a0 = add i32 %v0_13a0, -592
  %v1_13a9 = call i32 @_ZN11json_spirit9Pair_implINS_13Config_vectorISsEEED1Ev(i32 %v1_13a0)
  %v0_13ae = call i32 @function_13b2()
  ret i32 %v0_13ae
}

define i32 @function_13b0() local_unnamed_addr {
dec_label_pc_13b0:
  %eax.global-to-local = alloca i32, align 4
  %v0_13b0 = load i32, i32* %eax.global-to-local, align 4
  ret i32 %v0_13b0
}

define i32 @function_13b2() local_unnamed_addr {
dec_label_pc_13b2:
  %v0_13b2 = load i32, i32* @ebp, align 4
  %v1_13b2 = add i32 %v0_13b2, -1100
  ret i32 %v1_13b2
}

define i32 @function_13c0() local_unnamed_addr {
dec_label_pc_13c0:
  %v0_13c0 = call i32 @function_13c4()
  ret i32 %v0_13c0
}

define i32 @function_13c2() local_unnamed_addr {
dec_label_pc_13c2:
  %eax.global-to-local = alloca i32, align 4
  %v0_13c2 = load i32, i32* %eax.global-to-local, align 4
  ret i32 %v0_13c2
}

define i32 @function_13c4() local_unnamed_addr {
dec_label_pc_13c4:
  %v0_13c4 = load i32, i32* @ebp, align 4
  %v1_13c4 = add i32 %v0_13c4, -991
  ret i32 %v1_13c4
}

define i32 @function_13d1() local_unnamed_addr {
dec_label_pc_13d1:
  %eax.global-to-local = alloca i32, align 4
  %ecx.global-to-local = alloca i32, align 4
  %v0_13d1 = load i32, i32* @ebp, align 4
  %v1_13d1 = add i32 %v0_13d1, -59259
  %v2_13d1 = inttoptr i32 %v1_13d1 to i32*
  %v3_13d1 = load i32, i32* %v2_13d1, align 4
  %v4_13d1 = add i32 %v3_13d1, -1
  store i32 %v4_13d1, i32* %v2_13d1, align 4
  %v0_13d7 = load i32, i32* %ecx.global-to-local, align 4
  %v1_13d7 = add i32 %v0_13d7, 417866756
  %v2_13d7 = inttoptr i32 %v1_13d7 to i32*
  %v3_13d7 = load i32, i32* %v2_13d7, align 4
  %v4_13d7 = add i32 %v3_13d7, -1
  store i32 %v4_13d7, i32* %v2_13d7, align 4
  %v2_13de = load i8, i8* bitcast (i32* @eax to i8*), align 4
  %v3_13de = load i32, i32* %eax.global-to-local, align 4
  %v4_13de = trunc i32 %v3_13de to i8
  %v5_13de = add i8 %v4_13de, %v2_13de
  %v21_13de = inttoptr i32 %v3_13de to i8*
  store i8 %v5_13de, i8* %v21_13de, align 1
  %v0_13e0 = call i32 @function_13e4()
  store i32 %v0_13e0, i32* %eax.global-to-local, align 4
  ret i32 %v0_13e0

; uselistorder directives
  uselistorder i32* %eax.global-to-local, { 1, 0 }
}

define i32 @function_13e2() local_unnamed_addr {
dec_label_pc_13e2:
  %eax.global-to-local = alloca i32, align 4
  %v0_13e2 = load i32, i32* %eax.global-to-local, align 4
  ret i32 %v0_13e2
}

define i32 @function_13e4() local_unnamed_addr {
dec_label_pc_13e4:
  %v0_13e4 = load i32, i32* @ebp, align 4
  %v1_13e4 = add i32 %v0_13e4, -1104
  ret i32 %v1_13e4
}

define i32 @function_13f2() local_unnamed_addr {
dec_label_pc_13f2:
  %v1_13f2 = call i32 @function_16f6(i32 ptrtoint (i32* @0 to i32))
  ret i32 %v1_13f2
}

define i32 @function_13f7() local_unnamed_addr {
dec_label_pc_13f7:
  %v0_13f9 = load i32, i32* @ebp, align 4
  %v1_13f9 = add i32 %v0_13f9, -568
  %v1_1402 = call i32 @_ZN11json_spirit9Pair_implINS_13Config_vectorISsEEED1Ev(i32 %v1_13f9)
  %v0_1407 = call i32 @function_140b()
  ret i32 %v0_1407
}

define i32 @function_1409() local_unnamed_addr {
dec_label_pc_1409:
  %eax.global-to-local = alloca i32, align 4
  %v0_1409 = load i32, i32* %eax.global-to-local, align 4
  ret i32 %v0_1409
}

define i32 @function_140b() local_unnamed_addr {
dec_label_pc_140b:
  %v0_140b = load i32, i32* @ebp, align 4
  %v1_140b = add i32 %v0_140b, -1092
  ret i32 %v1_140b
}

define i32 @function_1419() local_unnamed_addr {
dec_label_pc_1419:
  %v0_1419 = call i32 @function_141d()
  ret i32 %v0_1419
}

define i32 @function_141b() local_unnamed_addr {
dec_label_pc_141b:
  %eax.global-to-local = alloca i32, align 4
  %v0_141b = load i32, i32* %eax.global-to-local, align 4
  ret i32 %v0_141b
}

define i32 @function_141d() local_unnamed_addr {
dec_label_pc_141d:
  %v0_141d = load i32, i32* @ebp, align 4
  %v1_141d = add i32 %v0_141d, -990
  ret i32 %v1_141d
}

define i32 @function_142a() local_unnamed_addr {
dec_label_pc_142a:
  %eax.global-to-local = alloca i32, align 4
  %ecx.global-to-local = alloca i32, align 4
  %v0_142a = load i32, i32* @ebp, align 4
  %v1_142a = add i32 %v0_142a, -54139
  %v2_142a = inttoptr i32 %v1_142a to i32*
  %v3_142a = load i32, i32* %v2_142a, align 4
  %v4_142a = add i32 %v3_142a, -1
  store i32 %v4_142a, i32* %v2_142a, align 4
  %v0_1430 = load i32, i32* %ecx.global-to-local, align 4
  %v1_1430 = add i32 %v0_1430, -1075305468
  %v2_1430 = inttoptr i32 %v1_1430 to i32*
  %v3_1430 = load i32, i32* %v2_1430, align 4
  %v4_1430 = add i32 %v3_1430, -1
  store i32 %v4_1430, i32* %v2_1430, align 4
  %v2_1437 = load i8, i8* bitcast (i32* @eax to i8*), align 4
  %v3_1437 = load i32, i32* %eax.global-to-local, align 4
  %v4_1437 = trunc i32 %v3_1437 to i8
  %v5_1437 = add i8 %v4_1437, %v2_1437
  %v21_1437 = inttoptr i32 %v3_1437 to i8*
  store i8 %v5_1437, i8* %v21_1437, align 1
  %v0_1439 = call i32 @function_143d()
  store i32 %v0_1439, i32* %eax.global-to-local, align 4
  ret i32 %v0_1439

; uselistorder directives
  uselistorder i32* %eax.global-to-local, { 1, 0 }
}

define i32 @function_143b() local_unnamed_addr {
dec_label_pc_143b:
  %eax.global-to-local = alloca i32, align 4
  %v0_143b = load i32, i32* %eax.global-to-local, align 4
  ret i32 %v0_143b
}

define i32 @function_143d() local_unnamed_addr {
dec_label_pc_143d:
  %v0_143d = load i32, i32* @ebp, align 4
  %v1_143d = add i32 %v0_143d, -1096
  ret i32 %v1_143d
}

define i32 @function_144b() local_unnamed_addr {
dec_label_pc_144b:
  %v1_144b = call i32 @function_16f6(i32 ptrtoint (i32* @0 to i32))
  ret i32 %v1_144b
}

define i32 @function_1450() local_unnamed_addr {
dec_label_pc_1450:
  %v0_1452 = load i32, i32* @ebp, align 4
  %v1_1452 = add i32 %v0_1452, -544
  %v1_145b = call i32 @_ZN11json_spirit9Pair_implINS_13Config_vectorISsEEED1Ev(i32 %v1_1452)
  %v0_1460 = call i32 @function_1464()
  ret i32 %v0_1460
}

define i32 @function_1462() local_unnamed_addr {
dec_label_pc_1462:
  %eax.global-to-local = alloca i32, align 4
  %v0_1462 = load i32, i32* %eax.global-to-local, align 4
  ret i32 %v0_1462
}

define i32 @function_1464() local_unnamed_addr {
dec_label_pc_1464:
  %v0_1464 = load i32, i32* @ebp, align 4
  %v1_1464 = add i32 %v0_1464, -1084
  ret i32 %v1_1464
}

define i32 @function_1472() local_unnamed_addr {
dec_label_pc_1472:
  %v0_1472 = call i32 @function_1476()
  ret i32 %v0_1472
}

define i32 @function_1474() local_unnamed_addr {
dec_label_pc_1474:
  %eax.global-to-local = alloca i32, align 4
  %v0_1474 = load i32, i32* %eax.global-to-local, align 4
  ret i32 %v0_1474
}

define i32 @function_1476() local_unnamed_addr {
dec_label_pc_1476:
  %v0_1476 = load i32, i32* @ebp, align 4
  %v1_1484 = add i32 %v0_1476, -192
  %v1_148d = call i32 @_ZN11json_spirit10Value_implINS_13Config_vectorISsEEED1Ev(i32 %v1_1484)
  %v0_1492 = call i32 @function_1496()
  ret i32 %v0_1492
}

define i32 @function_1494() local_unnamed_addr {
dec_label_pc_1494:
  %eax.global-to-local = alloca i32, align 4
  %v0_1494 = load i32, i32* %eax.global-to-local, align 4
  ret i32 %v0_1494
}

define i32 @function_1496() local_unnamed_addr {
dec_label_pc_1496:
  %v0_1496 = load i32, i32* @ebp, align 4
  %v1_1496 = add i32 %v0_1496, -1088
  %v1_14a4 = call i32 @function_16f6(i32 %v1_1496)
  ret i32 %v1_14a4
}

define i32 @function_14a9() local_unnamed_addr {
dec_label_pc_14a9:
  %v0_14ab = load i32, i32* @ebp, align 4
  %v1_14ab = add i32 %v0_14ab, -172
  %v1_14b4 = call i32 @_ZN11json_spirit10Value_implINS_13Config_vectorISsEEED1Ev(i32 %v1_14ab)
  %v0_14b9 = call i32 @function_14bd()
  ret i32 %v0_14b9
}

define i32 @function_14bb() local_unnamed_addr {
dec_label_pc_14bb:
  %eax.global-to-local = alloca i32, align 4
  %v0_14bb = load i32, i32* %eax.global-to-local, align 4
  ret i32 %v0_14bb
}

define i32 @function_14bd() local_unnamed_addr {
dec_label_pc_14bd:
  %v0_14bd = load i32, i32* @ebp, align 4
  %v1_14bd = add i32 %v0_14bd, -1068
  ret i32 %v1_14bd
}

define i32 @function_14cb() local_unnamed_addr {
dec_label_pc_14cb:
  %v1_14cb = call i32 @function_16e4(i32 ptrtoint (i32* @0 to i32))
  ret i32 %v1_14cb
}

define i32 @function_14d0() local_unnamed_addr {
dec_label_pc_14d0:
  %v0_14d2 = load i32, i32* @ebp, align 4
  %v1_14d2 = add i32 %v0_14d2, -520
  %v1_14db = call i32 @_ZN11json_spirit9Pair_implINS_13Config_vectorISsEEED1Ev(i32 %v1_14d2)
  %v0_14e0 = call i32 @function_14e4()
  ret i32 %v0_14e0
}

define i32 @function_14e2() local_unnamed_addr {
dec_label_pc_14e2:
  %eax.global-to-local = alloca i32, align 4
  %v0_14e2 = load i32, i32* %eax.global-to-local, align 4
  ret i32 %v0_14e2
}

define i32 @function_14e4() local_unnamed_addr {
dec_label_pc_14e4:
  %v0_14e4 = load i32, i32* @ebp, align 4
  %v1_14e4 = add i32 %v0_14e4, -1064
  ret i32 %v1_14e4
}

define i32 @function_14f2() local_unnamed_addr {
dec_label_pc_14f2:
  %v0_14f2 = call i32 @function_14f6()
  ret i32 %v0_14f2
}

define i32 @function_14f4() local_unnamed_addr {
dec_label_pc_14f4:
  %eax.global-to-local = alloca i32, align 4
  %v0_14f4 = load i32, i32* %eax.global-to-local, align 4
  ret i32 %v0_14f4
}

define i32 @function_14f6() local_unnamed_addr {
dec_label_pc_14f6:
  %v0_14f6 = load i32, i32* @ebp, align 4
  %v1_1504 = add i32 %v0_14f6, -152
  %v1_150d = call i32 @_ZN11json_spirit10Value_implINS_13Config_vectorISsEEED1Ev(i32 %v1_1504)
  %v1_1512 = call i32 @function_16e4(i32 %v1_1504)
  ret i32 %v1_1512
}

define i32 @function_1517() local_unnamed_addr {
dec_label_pc_1517:
  %v0_1519 = load i32, i32* @ebp, align 4
  %v1_1519 = add i32 %v0_1519, -496
  %v1_1522 = call i32 @_ZN11json_spirit9Pair_implINS_13Config_vectorISsEEED1Ev(i32 %v1_1519)
  %v0_1527 = call i32 @function_152b()
  ret i32 %v0_1527
}

define i32 @function_1529() local_unnamed_addr {
dec_label_pc_1529:
  %eax.global-to-local = alloca i32, align 4
  %v0_1529 = load i32, i32* %eax.global-to-local, align 4
  ret i32 %v0_1529
}

define i32 @function_152b() local_unnamed_addr {
dec_label_pc_152b:
  %v0_152b = load i32, i32* @ebp, align 4
  %v1_152b = add i32 %v0_152b, -1060
  ret i32 %v1_152b
}

define i32 @function_1539() local_unnamed_addr {
dec_label_pc_1539:
  %v0_1539 = call i32 @function_153d()
  ret i32 %v0_1539
}

define i32 @function_153b() local_unnamed_addr {
dec_label_pc_153b:
  %eax.global-to-local = alloca i32, align 4
  %v0_153b = load i32, i32* %eax.global-to-local, align 4
  ret i32 %v0_153b
}

define i32 @function_153d() local_unnamed_addr {
dec_label_pc_153d:
  %v0_153d = load i32, i32* @ebp, align 4
  %v1_153d = add i32 %v0_153d, -986
  ret i32 %v1_153d
}

define i32 @function_154a() local_unnamed_addr {
dec_label_pc_154a:
  %eax.global-to-local = alloca i32, align 4
  %ecx.global-to-local = alloca i32, align 4
  %v0_154a = load i32, i32* @ebp, align 4
  %v1_154a = add i32 %v0_154a, -33659
  %v2_154a = inttoptr i32 %v1_154a to i32*
  %v3_154a = load i32, i32* %v2_154a, align 4
  %v4_154a = add i32 %v3_154a, -1
  store i32 %v4_154a, i32* %v2_154a, align 4
  %v0_1550 = load i32, i32* %ecx.global-to-local, align 4
  %v1_1550 = add i32 %v0_1550, -1612176380
  %v2_1550 = inttoptr i32 %v1_1550 to i32*
  %v3_1550 = load i32, i32* %v2_1550, align 4
  %v4_1550 = add i32 %v3_1550, -1
  store i32 %v4_1550, i32* %v2_1550, align 4
  %v2_1557 = load i8, i8* bitcast (i32* @eax to i8*), align 4
  %v3_1557 = load i32, i32* %eax.global-to-local, align 4
  %v4_1557 = trunc i32 %v3_1557 to i8
  %v5_1557 = add i8 %v4_1557, %v2_1557
  %v21_1557 = inttoptr i32 %v3_1557 to i8*
  store i8 %v5_1557, i8* %v21_1557, align 1
  %v1_1559 = call i32 @function_16e4(i32 ptrtoint (i32* @0 to i32))
  store i32 %v1_1559, i32* %eax.global-to-local, align 4
  ret i32 %v1_1559
}

define i32 @function_155e() local_unnamed_addr {
dec_label_pc_155e:
  %v0_1560 = load i32, i32* @ebp, align 4
  %v1_1560 = add i32 %v0_1560, -472
  %v1_1569 = call i32 @_ZN11json_spirit9Pair_implINS_13Config_vectorISsEEED1Ev(i32 %v1_1560)
  %v0_156e = call i32 @function_1572()
  ret i32 %v0_156e
}

define i32 @function_1570() local_unnamed_addr {
dec_label_pc_1570:
  %eax.global-to-local = alloca i32, align 4
  %v0_1570 = load i32, i32* %eax.global-to-local, align 4
  ret i32 %v0_1570
}

define i32 @function_1572() local_unnamed_addr {
dec_label_pc_1572:
  %v0_1572 = load i32, i32* @ebp, align 4
  %v1_1572 = add i32 %v0_1572, -1056
  ret i32 %v1_1572
}

define i32 @function_1580() local_unnamed_addr {
dec_label_pc_1580:
  %v0_1580 = call i32 @function_1584()
  ret i32 %v0_1580
}

define i32 @function_1582() local_unnamed_addr {
dec_label_pc_1582:
  %eax.global-to-local = alloca i32, align 4
  %v0_1582 = load i32, i32* %eax.global-to-local, align 4
  ret i32 %v0_1582
}

define i32 @function_1584() local_unnamed_addr {
dec_label_pc_1584:
  %v0_1584 = load i32, i32* @ebp, align 4
  %v1_1584 = add i32 %v0_1584, -985
  ret i32 %v1_1584
}

define i32 @function_1591(i32 %arg1) local_unnamed_addr {
dec_label_pc_1591:
  %eax.global-to-local = alloca i32, align 4
  %v0_1591 = load i32, i32* @ebp, align 4
  %v1_1591 = add i32 %v0_1591, 76124229
  %v2_1591 = inttoptr i32 %v1_1591 to i32*
  %v3_1591 = load i32, i32* %v2_1591, align 4
  %v4_1591 = add i32 %v3_1591, -1
  store i32 %v4_1591, i32* %v2_1591, align 4
  %v0_1597 = load i32, i32* %eax.global-to-local, align 4
  %v1_1597 = trunc i32 %v0_1597 to i8
  %v2_1597 = and i8 %v1_1597, -24
  %v8_1597 = zext i8 %v2_1597 to i32
  %v10_1597 = and i32 %v0_1597, -256
  %v11_1597 = or i32 %v8_1597, %v10_1597
  store i32 %v11_1597, i32* %eax.global-to-local, align 4
  %v1_159b = inttoptr i32 %v11_1597 to i8*
  %v2_159b = load i8, i8* %v1_159b, align 8
  %v5_159b = add i8 %v2_159b, %v2_1597
  store i8 %v5_159b, i8* %v1_159b, align 8
  %v1_159d = call i32 @function_16e4(i32 ptrtoint (i32* @0 to i32))
  store i32 %v1_159d, i32* %eax.global-to-local, align 4
  ret i32 %v1_159d
}

define i32 @function_15a2() local_unnamed_addr {
dec_label_pc_15a2:
  %v0_15a4 = load i32, i32* @ebp, align 4
  %v1_15a4 = add i32 %v0_15a4, -448
  %v1_15ad = call i32 @_ZN11json_spirit9Pair_implINS_13Config_vectorISsEEED1Ev(i32 %v1_15a4)
  %v0_15b2 = call i32 @function_15b6()
  ret i32 %v0_15b2
}

define i32 @function_15b4() local_unnamed_addr {
dec_label_pc_15b4:
  %eax.global-to-local = alloca i32, align 4
  %v0_15b4 = load i32, i32* %eax.global-to-local, align 4
  ret i32 %v0_15b4
}

define i32 @function_15b6() local_unnamed_addr {
dec_label_pc_15b6:
  %v0_15b6 = load i32, i32* @ebp, align 4
  %v1_15b6 = add i32 %v0_15b6, -1048
  %v1_15c4 = call i32 @function_15c8(i32 %v1_15b6)
  ret i32 %v1_15c4
}

define i32 @function_15c6() local_unnamed_addr {
dec_label_pc_15c6:
  %eax.global-to-local = alloca i32, align 4
  %v0_15c6 = load i32, i32* %eax.global-to-local, align 4
  ret i32 %v0_15c6
}

define i32 @function_15c8(i32 %arg1) local_unnamed_addr {
dec_label_pc_15c8:
  %v0_15c8 = load i32, i32* @ebp, align 4
  %v1_15c8 = add i32 %v0_15c8, -984
  ret i32 %v1_15c8
}

define i32 @function_15d5(i16 %arg1) local_unnamed_addr {
dec_label_pc_15d5:
  %eax.global-to-local = alloca i32, align 4
  %v0_15d5 = load i32, i32* @ebp, align 4
  %v1_15d5 = add i32 %v0_15d5, 76129349
  %v2_15d5 = inttoptr i32 %v1_15d5 to i32*
  %v3_15d5 = load i32, i32* %v2_15d5, align 4
  %v4_15d5 = add i32 %v3_15d5, -1
  store i32 %v4_15d5, i32* %v2_15d5, align 4
  %v0_15db = load i32, i32* %eax.global-to-local, align 4
  %v1_15db = trunc i32 %v0_15db to i8
  %v2_15db = and i8 %v1_15db, -24
  %v8_15db = zext i8 %v2_15db to i32
  %v10_15db = and i32 %v0_15db, -256
  %v11_15db = or i32 %v8_15db, %v10_15db
  store i32 %v11_15db, i32* %eax.global-to-local, align 4
  %v1_15df = inttoptr i32 %v11_15db to i8*
  %v2_15df = load i8, i8* %v1_15df, align 8
  %v5_15df = add i8 %v2_15df, %v2_15db
  store i8 %v5_15df, i8* %v1_15df, align 8
  %v0_15e1 = call i32 @function_15e5()
  store i32 %v0_15e1, i32* %eax.global-to-local, align 4
  ret i32 %v0_15e1
}

define i32 @function_15e3() local_unnamed_addr {
dec_label_pc_15e3:
  %eax.global-to-local = alloca i32, align 4
  %v0_15e3 = load i32, i32* %eax.global-to-local, align 4
  ret i32 %v0_15e3
}

define i32 @function_15e5() local_unnamed_addr {
dec_label_pc_15e5:
  %v0_15e5 = load i32, i32* @ebp, align 4
  %v1_15e5 = add i32 %v0_15e5, -1052
  ret i32 %v1_15e5
}

define i32 @function_15f3() local_unnamed_addr {
dec_label_pc_15f3:
  %v1_15f3 = call i32 @function_16e4(i32 ptrtoint (i32* @0 to i32))
  ret i32 %v1_15f3
}

define i32 @function_15f8() local_unnamed_addr {
dec_label_pc_15f8:
  %v0_15fa = load i32, i32* @ebp, align 4
  %v1_15fa = add i32 %v0_15fa, -424
  %v1_1603 = call i32 @_ZN11json_spirit9Pair_implINS_13Config_vectorISsEEED1Ev(i32 %v1_15fa)
  %v0_1608 = call i32 @function_160c()
  ret i32 %v0_1608
}

define i32 @function_160a() local_unnamed_addr {
dec_label_pc_160a:
  %eax.global-to-local = alloca i32, align 4
  %v0_160a = load i32, i32* %eax.global-to-local, align 4
  ret i32 %v0_160a
}

define i32 @function_160c() local_unnamed_addr {
dec_label_pc_160c:
  %v0_160c = load i32, i32* @ebp, align 4
  %v1_160c = add i32 %v0_160c, -1044
  ret i32 %v1_160c
}

define i32 @function_161a() local_unnamed_addr {
dec_label_pc_161a:
  %v0_161a = call i32 @function_161e()
  ret i32 %v0_161a
}

define i32 @function_161c() local_unnamed_addr {
dec_label_pc_161c:
  %eax.global-to-local = alloca i32, align 4
  %v0_161c = load i32, i32* %eax.global-to-local, align 4
  ret i32 %v0_161c
}

define i32 @function_161e() local_unnamed_addr {
dec_label_pc_161e:
  %v0_161e = load i32, i32* @ebp, align 4
  %v1_162c = add i32 %v0_161e, -72
  %v1_1632 = call i32 @_ZN11json_spirit10Value_implINS_13Config_vectorISsEEED1Ev(i32 %v1_162c)
  %v1_1637 = call i32 @function_16e4(i32 %v1_162c)
  ret i32 %v1_1637
}

define i32 @function_163c() local_unnamed_addr {
dec_label_pc_163c:
  %v0_163e = load i32, i32* @ebp, align 4
  %v1_163e = add i32 %v0_163e, -400
  %v1_1647 = call i32 @_ZN11json_spirit9Pair_implINS_13Config_vectorISsEEED1Ev(i32 %v1_163e)
  %v0_164c = call i32 @function_1650()
  ret i32 %v0_164c
}

define i32 @function_164e() local_unnamed_addr {
dec_label_pc_164e:
  %eax.global-to-local = alloca i32, align 4
  %v0_164e = load i32, i32* %eax.global-to-local, align 4
  ret i32 %v0_164e
}

define i32 @function_1650() local_unnamed_addr {
dec_label_pc_1650:
  %v0_1650 = load i32, i32* @ebp, align 4
  %v1_1650 = add i32 %v0_1650, -1036
  ret i32 %v1_1650
}

define i32 @function_165e() local_unnamed_addr {
dec_label_pc_165e:
  %v0_165e = call i32 @function_1662()
  ret i32 %v0_165e
}

define i32 @function_1660() local_unnamed_addr {
dec_label_pc_1660:
  %eax.global-to-local = alloca i32, align 4
  %v0_1660 = load i32, i32* %eax.global-to-local, align 4
  ret i32 %v0_1660
}

define i32 @function_1662() local_unnamed_addr {
dec_label_pc_1662:
  %v0_1662 = load i32, i32* @ebp, align 4
  %v1_1662 = add i32 %v0_1662, -982
  ret i32 %v1_1662
}

define i32 @function_166f() local_unnamed_addr {
dec_label_pc_166f:
  %eax.global-to-local = alloca i32, align 4
  %v0_166f = load i32, i32* @ebp, align 4
  %v1_166f = add i32 %v0_166f, 76139589
  %v2_166f = inttoptr i32 %v1_166f to i32*
  %v3_166f = load i32, i32* %v2_166f, align 4
  %v4_166f = add i32 %v3_166f, -1
  store i32 %v4_166f, i32* %v2_166f, align 4
  %v0_1675 = load i32, i32* %eax.global-to-local, align 4
  %v1_1675 = trunc i32 %v0_1675 to i8
  %v2_1675 = and i8 %v1_1675, -24
  %v8_1675 = zext i8 %v2_1675 to i32
  %v10_1675 = and i32 %v0_1675, -256
  %v11_1675 = or i32 %v8_1675, %v10_1675
  store i32 %v11_1675, i32* %eax.global-to-local, align 4
  %v1_1679 = inttoptr i32 %v11_1675 to i8*
  %v2_1679 = load i8, i8* %v1_1679, align 8
  %v5_1679 = add i8 %v2_1679, %v2_1675
  store i8 %v5_1679, i8* %v1_1679, align 8
  %v0_167b = call i32 @function_167f()
  store i32 %v0_167b, i32* %eax.global-to-local, align 4
  ret i32 %v0_167b
}

define i32 @function_167d() local_unnamed_addr {
dec_label_pc_167d:
  %eax.global-to-local = alloca i32, align 4
  %v0_167d = load i32, i32* %eax.global-to-local, align 4
  ret i32 %v0_167d
}

define i32 @function_167f() local_unnamed_addr {
dec_label_pc_167f:
  %v0_167f = load i32, i32* @ebp, align 4
  %v1_167f = add i32 %v0_167f, -1040
  ret i32 %v1_167f
}

define i32 @function_168d() local_unnamed_addr {
dec_label_pc_168d:
  %v1_168d = call i32 @function_16e4(i32 ptrtoint (i32* @0 to i32))
  ret i32 %v1_168d
}

define i32 @function_168f() local_unnamed_addr {
dec_label_pc_168f:
  %v0_1691 = load i32, i32* @ebp, align 4
  %v1_1691 = add i32 %v0_1691, -376
  %v1_169a = call i32 @_ZN11json_spirit9Pair_implINS_13Config_vectorISsEEED1Ev(i32 %v1_1691)
  %v0_169f = call i32 @function_16a3()
  ret i32 %v0_169f
}

define i32 @function_16a1() local_unnamed_addr {
dec_label_pc_16a1:
  %eax.global-to-local = alloca i32, align 4
  %v0_16a1 = load i32, i32* %eax.global-to-local, align 4
  ret i32 %v0_16a1
}

define i32 @function_16a3() local_unnamed_addr {
dec_label_pc_16a3:
  %v0_16a3 = load i32, i32* @ebp, align 4
  %v1_16a3 = add i32 %v0_16a3, -1028
  ret i32 %v1_16a3
}

define i32 @function_16b1() local_unnamed_addr {
dec_label_pc_16b1:
  %v0_16b1 = call i32 @function_16b5()
  ret i32 %v0_16b1
}

define i32 @function_16b3() local_unnamed_addr {
dec_label_pc_16b3:
  %eax.global-to-local = alloca i32, align 4
  %v0_16b3 = load i32, i32* %eax.global-to-local, align 4
  ret i32 %v0_16b3
}

define i32 @function_16b5() local_unnamed_addr {
dec_label_pc_16b5:
  %v0_16b5 = load i32, i32* @ebp, align 4
  %v1_16b5 = add i32 %v0_16b5, -981
  ret i32 %v1_16b5
}

define i32 @function_16c2() local_unnamed_addr {
dec_label_pc_16c2:
  %eax.global-to-local = alloca i32, align 4
  %ecx.global-to-local = alloca i32, align 4
  %v0_16c2 = load i32, i32* @ebp, align 4
  %v1_16c2 = add i32 %v0_16c2, 76144709
  %v2_16c2 = inttoptr i32 %v1_16c2 to i32*
  %v3_16c2 = load i32, i32* %v2_16c2, align 4
  %v4_16c2 = add i32 %v3_16c2, -1
  store i32 %v4_16c2, i32* %v2_16c2, align 4
  %v0_16c8 = load i32, i32* %eax.global-to-local, align 4
  %v1_16c8 = trunc i32 %v0_16c8 to i8
  %v2_16c8 = and i8 %v1_16c8, -24
  %v8_16c8 = zext i8 %v2_16c8 to i32
  %v10_16c8 = and i32 %v0_16c8, -256
  %v11_16c8 = or i32 %v8_16c8, %v10_16c8
  store i32 %v11_16c8, i32* %eax.global-to-local, align 4
  %v0_16ca = load i32, i32* %ecx.global-to-local, align 4
  %v1_16ca = udiv i32 %v0_16ca, 256
  %v4_16ca = udiv i32 %v0_16c8, 256
  %v6_16ca = sub nsw i32 %v1_16ca, %v4_16ca
  %v21_16ca = and i32 %v6_16ca, 255
  %v23_16ca = mul nuw nsw i32 %v21_16ca, 256
  %v24_16ca = and i32 %v0_16ca, -65281
  %v25_16ca = or i32 %v23_16ca, %v24_16ca
  store i32 %v25_16ca, i32* %ecx.global-to-local, align 4
  %v1_16cc = inttoptr i32 %v11_16c8 to i8*
  %v2_16cc = load i8, i8* %v1_16cc, align 8
  %v5_16cc = add i8 %v2_16cc, %v2_16c8
  store i8 %v5_16cc, i8* %v1_16cc, align 8
  %v0_16ce = call i32 @function_16d2()
  store i32 %v0_16ce, i32* %eax.global-to-local, align 4
  ret i32 %v0_16ce

; uselistorder directives
  uselistorder i32 %v0_16ca, { 1, 0 }
}

define i32 @function_16d0() local_unnamed_addr {
dec_label_pc_16d0:
  %eax.global-to-local = alloca i32, align 4
  %v0_16d0 = load i32, i32* %eax.global-to-local, align 4
  ret i32 %v0_16d0
}

define i32 @function_16d2() local_unnamed_addr {
dec_label_pc_16d2:
  %v0_16d2 = load i32, i32* @ebp, align 4
  %v1_16d2 = add i32 %v0_16d2, -1032
  %v1_16e0 = call i32 @function_16e4(i32 %v1_16d2)
  ret i32 %v1_16e0

; uselistorder directives
  uselistorder i32 (i32)* @function_16e4, { 7, 6, 5, 4, 3, 2, 1, 0 }
}

define i32 @function_16e3() local_unnamed_addr {
dec_label_pc_16e3:
  %eax.global-to-local = alloca i32, align 4
  %v0_16e3 = load i32, i32* %eax.global-to-local, align 4
  ret i32 %v0_16e3
}

define i32 @function_16e4(i32 %arg1) local_unnamed_addr {
dec_label_pc_16e4:
  %v0_16e4 = load i32, i32* @ebp, align 4
  %v1_16e4 = add i32 %v0_16e4, -1144
  %v1_16ed = inttoptr i32 %v1_16e4 to i32*
  %v2_16ed = call i32 @_ZNSt6vectorIN11json_spirit10Value_implINS0_13Config_vectorISsEEEESaIS4_EED1Ev(i32* %v1_16ed)
  %v1_16f2 = call i32 @function_16f6(i32 %v1_16e4)
  ret i32 %v1_16f2

; uselistorder directives
  uselistorder i32 (i32)* @function_16f6, { 8, 7, 6, 5, 4, 3, 2, 1, 0 }
}

define i32 @function_16f5() local_unnamed_addr {
dec_label_pc_16f5:
  %eax.global-to-local = alloca i32, align 4
  %v0_16f5 = load i32, i32* %eax.global-to-local, align 4
  ret i32 %v0_16f5
}

define i32 @function_16f6(i32 %arg1) local_unnamed_addr {
dec_label_pc_16f6:
  %v0_16f6 = load i32, i32* @ebp, align 4
  %v1_16f6 = add i32 %v0_16f6, -980
  %v1_16ff = call i32 @_ZN9CMerkleTxD1Ev(i32 %v1_16f6)
  %v0_1704 = call i32 @function_1708()
  ret i32 %v0_1704

; uselistorder directives
  uselistorder i32 ()* @function_1708, { 1, 0 }
}

define i32 @function_1707() local_unnamed_addr {
dec_label_pc_1707:
  %eax.global-to-local = alloca i32, align 4
  %v0_1707 = load i32, i32* %eax.global-to-local, align 4
  ret i32 %v0_1707
}

define i32 @function_1708() local_unnamed_addr {
dec_label_pc_1708:
  %v0_1708 = load i32, i32* @ebp, align 4
  %v1_1708 = add i32 %v0_1708, -1148
  %v2_1708 = inttoptr i32 %v1_1708 to i32*
  %v3_1708 = load i32, i32* %v2_1708, align 4
  %v1_1711 = inttoptr i32 %v3_1708 to i32*
  %v2_1711 = call i32 @_ZNSt6vectorIN11json_spirit9Pair_implINS0_13Config_vectorISsEEEESaIS4_EED1Ev(i32* %v1_1711)
  %v0_1716 = load i32, i32* @ebx, align 4
  ret i32 %v0_1716
}

define i32 @function_1720() local_unnamed_addr {
dec_label_pc_1720:
  %v0_1720 = load i32, i32* @ebp, align 4
  %v1_1720 = add i32 %v0_1720, -1148
  %v2_1720 = inttoptr i32 %v1_1720 to i32*
  %v3_1720 = load i32, i32* %v2_1720, align 4
  store i32 %v3_1720, i32* @eax, align 4
  %v1_1726 = add i32 %v0_1720, -12
  %v2_1726 = inttoptr i32 %v1_1726 to i32*
  %v3_1726 = load i32, i32* %v2_1726, align 4
  %v1_1729 = load i32, i32* inttoptr (i32 20 to i32*), align 4
  %v3_1729 = icmp eq i32 %v1_1729, %v3_1726
  br i1 %v3_1729, label %bb, label %dec_label_pc_1732

bb:                                               ; preds = %dec_label_pc_1720
  %v1_1730 = call i32 @function_1737()
  br label %dec_label_pc_1732

dec_label_pc_1732:                                ; preds = %bb, %dec_label_pc_1720
  %v2_1730 = phi i32 [ %v1_1730, %bb ], [ %v3_1720, %dec_label_pc_1720 ]
  ret i32 %v2_1730

; uselistorder directives
  uselistorder i32 -1148, { 1, 0 }
}

define i32 @function_1737() local_unnamed_addr {
dec_label_pc_1737:
  %v0_173b = load i32, i32* @eax, align 4
  ret i32 %v0_173b
}

define %"Value_impl<json_spirit::Config_vector<std::basic_string<char,std::char_traits<char>,std::allocator<char>>>>" @_Z13getblockcountRKSt6vectorIN11json_spirit10Value_implINS0_13Config_vectorISsEEEESaIS4_EEb(%"vector<json_spirit::Value_impl<json_spirit::Config_vector<std::basic_string<char,std::char_traits<char>,std::allocator<char>>>>,std::allocator<json_spirit::Value_impl<json_spirit::Config_vector<std::basic_string<char,std::char_traits<char>,std::allocator<char>>>>>>" %params, i1 %fHelp) local_unnamed_addr {
dec_label_pc_173e:
  %stack_var_-17 = alloca i32, align 4
  %tmp112 = call i8 @__decompiler_undefined_function_4()
  %v10_1763 = icmp eq i8 %tmp112, 0
  %v1_1767 = icmp eq i1 %v10_1763, false
  br i1 %v1_1767, label %dec_label_pc_1784, label %dec_label_pc_1769

dec_label_pc_1769:                                ; preds = %dec_label_pc_173e
  %v4_174f = sext i1 %fHelp to i32
  %v2_176f = inttoptr i32 %v4_174f to i32*
  %v3_176f = call i32 @_ZNKSt6vectorIN11json_spirit10Value_implINS0_13Config_vectorISsEEEESaIS4_EE4sizeEv(i32* %v2_176f)
  %v1_1774 = icmp ne i32 %v3_176f, 0
  %. = zext i1 %v1_1774 to i32
  br label %dec_label_pc_1784

dec_label_pc_1784:                                ; preds = %dec_label_pc_1769, %dec_label_pc_173e
  %storemerge = phi i32 [ 1, %dec_label_pc_173e ], [ %., %dec_label_pc_1769 ]
  store i32 %storemerge, i32* @eax, align 4
  %v5_1784 = icmp eq i32 %storemerge, 0
  br i1 %v5_1784, label %bb, label %dec_label_pc_1788

bb:                                               ; preds = %dec_label_pc_1784
  %v1_1786 = call i32 @function_17f9()
  br label %dec_label_pc_1788

dec_label_pc_1788:                                ; preds = %bb, %dec_label_pc_1784
  %v2_1796 = ptrtoint i32* %stack_var_-17 to i32
  %v6_1799 = insertvalue %"Value_impl<json_spirit::Config_vector<std::basic_string<char,std::char_traits<char>,std::allocator<char>>>>" undef, i32 %v2_1796, 0
  ret %"Value_impl<json_spirit::Config_vector<std::basic_string<char,std::char_traits<char>,std::allocator<char>>>>" %v6_1799
}

define i32 @function_17f9() local_unnamed_addr {
dec_label_pc_17f9:
  %tmp = load i32, i32* @eax, align 4
  ret i32 %tmp
}

define i32 @function_182b() local_unnamed_addr {
dec_label_pc_182b:
  %v0_182b = call i32 @function_182f()
  ret i32 %v0_182b
}

define i32 @function_182d() local_unnamed_addr {
dec_label_pc_182d:
  %eax.global-to-local = alloca i32, align 4
  %v0_182d = load i32, i32* %eax.global-to-local, align 4
  ret i32 %v0_182d
}

define i32 @function_182f() local_unnamed_addr {
dec_label_pc_182f:
  %v0_182f = load i32, i32* @ebp, align 4
  %v1_182f = add i32 %v0_182f, -13
  ret i32 %v1_182f
}

define i32 @function_184c() local_unnamed_addr {
dec_label_pc_184c:
  %eax.global-to-local = alloca i32, align 4
  %tmp96 = load i32, i32* %eax.global-to-local, align 4
  ret i32 %tmp96
}

define i32 @function_1851(i32 %arg1, i32 %arg2, i32 %arg3) local_unnamed_addr {
dec_label_pc_1851:
  %eax.global-to-local = alloca i32, align 4
  %v0_1857 = load i32, i32* %eax.global-to-local, align 4
  ret i32 %v0_1857
}

define %"Value_impl<json_spirit::Config_vector<std::basic_string<char,std::char_traits<char>,std::allocator<char>>>>.4" @_Z16getbestblockhashRKSt6vectorIN11json_spirit10Value_implINS0_13Config_vectorISsEEEESaIS4_EEb(%"vector<json_spirit::Value_impl<json_spirit::Config_vector<std::basic_string<char,std::char_traits<char>,std::allocator<char>>>>,std::allocator<json_spirit::Value_impl<json_spirit::Config_vector<std::basic_string<char,std::char_traits<char>,std::allocator<char>>>>>>" %params, i1 %fHelp) local_unnamed_addr {
dec_label_pc_185a:
  %tmp111 = call i8 @__decompiler_undefined_function_4()
  %v10_187f = icmp eq i8 %tmp111, 0
  %v1_1883 = icmp eq i1 %v10_187f, false
  br i1 %v1_1883, label %dec_label_pc_18a0, label %dec_label_pc_1885

dec_label_pc_1885:                                ; preds = %dec_label_pc_185a
  %v4_186b = sext i1 %fHelp to i32
  %v2_188b = inttoptr i32 %v4_186b to i32*
  %v3_188b = call i32 @_ZNKSt6vectorIN11json_spirit10Value_implINS0_13Config_vectorISsEEEESaIS4_EE4sizeEv(i32* %v2_188b)
  %v1_1890 = icmp ne i32 %v3_188b, 0
  %. = zext i1 %v1_1890 to i32
  br label %dec_label_pc_18a0

dec_label_pc_18a0:                                ; preds = %dec_label_pc_1885, %dec_label_pc_185a
  %storemerge = phi i32 [ 1, %dec_label_pc_185a ], [ %., %dec_label_pc_1885 ]
  %v5_18a0 = icmp eq i32 %storemerge, 0
  br i1 %v5_18a0, label %bb, label %dec_label_pc_18a4

bb:                                               ; preds = %dec_label_pc_18a0
  %v1_18a2 = call i32 @function_1915()
  br label %dec_label_pc_18a4

dec_label_pc_18a4:                                ; preds = %bb, %dec_label_pc_18a0
  %v3_18a4 = phi i32 [ %v1_18a2, %bb ], [ %storemerge, %dec_label_pc_18a0 ]
  %v4_18a4 = insertvalue %"Value_impl<json_spirit::Config_vector<std::basic_string<char,std::char_traits<char>,std::allocator<char>>>>.4" undef, i32 %v3_18a4, 0
  ret %"Value_impl<json_spirit::Config_vector<std::basic_string<char,std::char_traits<char>,std::allocator<char>>>>.4" %v4_18a4

; uselistorder directives
  uselistorder i32 %storemerge, { 1, 0 }
}

define i32 @function_18b1() local_unnamed_addr {
dec_label_pc_18b1:
  %eax.global-to-local = alloca i32, align 4
  %v0_18b1 = load i32, i32* %eax.global-to-local, align 4
  ret i32 %v0_18b1
}

define i32 @function_1915() local_unnamed_addr {
dec_label_pc_1915:
  %v0_1915 = load i32, i32* @ebp, align 4
  %v1_1915 = add i32 %v0_1915, -20
  ret i32 %v1_1915
}

define i32 @function_1947() local_unnamed_addr {
dec_label_pc_1947:
  %ebx.global-to-local = alloca i32, align 4
  %edx.global-to-local = alloca i32, align 4
  %v0_1947 = load i32, i32* %ebx.global-to-local, align 4
  %v1_1947 = add i32 %v0_1947, 1435231301
  %v2_1947 = inttoptr i32 %v1_1947 to i32*
  %v3_1947 = load i32, i32* %v2_1947, align 4
  %v4_1947 = add i32 %v3_1947, -1
  store i32 %v4_1947, i32* %v2_1947, align 4
  %v0_194e = load i32, i32* %edx.global-to-local, align 8
  %v1_194e = load i32, i32* inttoptr (i32 20 to i32*), align 4
  %v2_194e = xor i32 %v1_194e, %v0_194e
  %v3_194e = icmp eq i32 %v2_194e, 0
  store i32 %v2_194e, i32* %edx.global-to-local, align 8
  br i1 %v3_194e, label %bb, label %dec_label_pc_1957

bb:                                               ; preds = %dec_label_pc_1947
  %v1_1955 = call i32 @function_19a3()
  store i32 %v1_1955, i32* @eax, align 4
  br label %dec_label_pc_1957

dec_label_pc_1957:                                ; preds = %bb, %dec_label_pc_1947
  %v0_1957 = call i32 @function_199e()
  ret i32 %v0_1957
}

define i32 @function_1966() local_unnamed_addr {
dec_label_pc_1966:
  %v0_1966 = call i32 @function_196a()
  ret i32 %v0_1966
}

define i32 @function_1968() local_unnamed_addr {
dec_label_pc_1968:
  %eax.global-to-local = alloca i32, align 4
  %v0_1968 = load i32, i32* %eax.global-to-local, align 4
  ret i32 %v0_1968
}

define i32 @function_196a() local_unnamed_addr {
dec_label_pc_196a:
  %v0_196a = load i32, i32* @ebp, align 4
  %v1_196a = add i32 %v0_196a, -13
  ret i32 %v1_196a
}

define i32 @function_1988() local_unnamed_addr {
dec_label_pc_1988:
  %eax.global-to-local = alloca i32, align 4
  %v0_1988 = load i32, i32* %eax.global-to-local, align 4
  ret i32 %v0_1988
}

define i32 @function_199e() local_unnamed_addr {
dec_label_pc_199e:
  %tmp = load i32, i32* @eax, align 4
  ret i32 %tmp
}

define i32 @function_19a3() local_unnamed_addr {
dec_label_pc_19a3:
  %v0_19a9 = load i32, i32* @eax, align 4
  ret i32 %v0_19a9
}

define %"Value_impl<json_spirit::Config_vector<std::basic_string<char,std::char_traits<char>,std::allocator<char>>>>.5" @_Z13getdifficultyRKSt6vectorIN11json_spirit10Value_implINS0_13Config_vectorISsEEEESaIS4_EEb(%"vector<json_spirit::Value_impl<json_spirit::Config_vector<std::basic_string<char,std::char_traits<char>,std::allocator<char>>>>,std::allocator<json_spirit::Value_impl<json_spirit::Config_vector<std::basic_string<char,std::char_traits<char>,std::allocator<char>>>>>>" %params, i1 %fHelp) local_unnamed_addr {
dec_label_pc_19ac:
  %tmp111 = call i8 @__decompiler_undefined_function_4()
  %v10_19d1 = icmp eq i8 %tmp111, 0
  %v1_19d5 = icmp eq i1 %v10_19d1, false
  br i1 %v1_19d5, label %dec_label_pc_19f2, label %dec_label_pc_19d7

dec_label_pc_19d7:                                ; preds = %dec_label_pc_19ac
  %v4_19bd = sext i1 %fHelp to i32
  %v2_19dd = inttoptr i32 %v4_19bd to i32*
  %v3_19dd = call i32 @_ZNKSt6vectorIN11json_spirit10Value_implINS0_13Config_vectorISsEEEESaIS4_EE4sizeEv(i32* %v2_19dd)
  %v1_19e2 = icmp ne i32 %v3_19dd, 0
  %. = zext i1 %v1_19e2 to i32
  br label %dec_label_pc_19f2

dec_label_pc_19f2:                                ; preds = %dec_label_pc_19d7, %dec_label_pc_19ac
  %storemerge = phi i32 [ 1, %dec_label_pc_19ac ], [ %., %dec_label_pc_19d7 ]
  store i32 %storemerge, i32* @eax, align 4
  %v5_19f2 = icmp eq i32 %storemerge, 0
  br i1 %v5_19f2, label %bb, label %dec_label_pc_19f6

bb:                                               ; preds = %dec_label_pc_19f2
  %v1_19f4 = call i32 @function_1a67()
  br label %dec_label_pc_19f6

dec_label_pc_19f6:                                ; preds = %bb, %dec_label_pc_19f2
  %v3_19f6 = phi i32 [ %v1_19f4, %bb ], [ %storemerge, %dec_label_pc_19f2 ]
  %v4_19f6 = insertvalue %"Value_impl<json_spirit::Config_vector<std::basic_string<char,std::char_traits<char>,std::allocator<char>>>>.5" undef, i32 %v3_19f6, 0
  ret %"Value_impl<json_spirit::Config_vector<std::basic_string<char,std::char_traits<char>,std::allocator<char>>>>.5" %v4_19f6

; uselistorder directives
  uselistorder i32 %storemerge, { 1, 0, 2 }
}

define i32 @function_1a03() local_unnamed_addr {
dec_label_pc_1a03:
  %eax.global-to-local = alloca i32, align 4
  %v0_1a03 = load i32, i32* %eax.global-to-local, align 4
  ret i32 %v0_1a03
}

define i32 @function_1a67() local_unnamed_addr {
dec_label_pc_1a67:
  %tmp = load i32, i32* @eax, align 4
  ret i32 %tmp
}

define i32 @function_1aa9() local_unnamed_addr {
dec_label_pc_1aa9:
  %v0_1aa9 = call i32 @function_1aad()
  ret i32 %v0_1aa9
}

define i32 @function_1aab() local_unnamed_addr {
dec_label_pc_1aab:
  %eax.global-to-local = alloca i32, align 4
  %v0_1aab = load i32, i32* %eax.global-to-local, align 4
  ret i32 %v0_1aab
}

define i32 @function_1aad() local_unnamed_addr {
dec_label_pc_1aad:
  %v0_1aad = load i32, i32* @ebp, align 4
  %v1_1aad = add i32 %v0_1aad, -13
  ret i32 %v1_1aad
}

define i32 @function_1aca() local_unnamed_addr {
dec_label_pc_1aca:
  %eax.global-to-local = alloca i32, align 4
  %tmp96 = load i32, i32* %eax.global-to-local, align 4
  ret i32 %tmp96
}

define i32 @function_1acf(i32 %arg1, i32 %arg2, i32 %arg3) local_unnamed_addr {
dec_label_pc_1acf:
  %eax.global-to-local = alloca i32, align 4
  %v0_1ad5 = load i32, i32* %eax.global-to-local, align 4
  ret i32 %v0_1ad5
}

define %"Value_impl<json_spirit::Config_vector<std::basic_string<char,std::char_traits<char>,std::allocator<char>>>>.6" @_Z8settxfeeRKSt6vectorIN11json_spirit10Value_implINS0_13Config_vectorISsEEEESaIS4_EEb(%"vector<json_spirit::Value_impl<json_spirit::Config_vector<std::basic_string<char,std::char_traits<char>,std::allocator<char>>>>,std::allocator<json_spirit::Value_impl<json_spirit::Config_vector<std::basic_string<char,std::char_traits<char>,std::allocator<char>>>>>>" %params, i1 %fHelp) local_unnamed_addr {
dec_label_pc_1ad8:
  %tmp111 = call i8 @__decompiler_undefined_function_4()
  %v10_1afd = icmp eq i8 %tmp111, 0
  %v1_1b01 = icmp eq i1 %v10_1afd, false
  br i1 %v1_1b01, label %dec_label_pc_1b2e.thread, label %dec_label_pc_1b03

dec_label_pc_1b03:                                ; preds = %dec_label_pc_1ad8
  %v4_1ae9 = sext i1 %fHelp to i32
  %v2_1b09 = inttoptr i32 %v4_1ae9 to i32*
  %v3_1b09 = call i32 @_ZNKSt6vectorIN11json_spirit10Value_implINS0_13Config_vectorISsEEEESaIS4_EE4sizeEv(i32* %v2_1b09)
  %v1_1b0e = icmp eq i32 %v3_1b09, 0
  br i1 %v1_1b0e, label %dec_label_pc_1b2e.thread, label %dec_label_pc_1b2e

dec_label_pc_1b2e.thread:                         ; preds = %dec_label_pc_1b03, %dec_label_pc_1ad8
  br label %dec_label_pc_1b32

dec_label_pc_1b2e:                                ; preds = %dec_label_pc_1b03
  %v3_1b18 = call i32 @_ZNKSt6vectorIN11json_spirit10Value_implINS0_13Config_vectorISsEEEESaIS4_EE4sizeEv(i32* %v2_1b09)
  %tmp121 = or i32 %v3_1b18, 1
  %tmp122 = icmp ne i32 %tmp121, 1
  %v5_1b2e = icmp eq i1 %tmp122, false
  br i1 %v5_1b2e, label %bb, label %dec_label_pc_1b32

bb:                                               ; preds = %dec_label_pc_1b2e
  %v1_1b30 = call i32 @function_1ba3()
  br label %dec_label_pc_1b32

dec_label_pc_1b32:                                ; preds = %dec_label_pc_1b2e.thread, %bb, %dec_label_pc_1b2e
  %v3_1b32 = phi i32 [ %v1_1b30, %bb ], [ 1, %dec_label_pc_1b2e ], [ 1, %dec_label_pc_1b2e.thread ]
  %v4_1b32 = insertvalue %"Value_impl<json_spirit::Config_vector<std::basic_string<char,std::char_traits<char>,std::allocator<char>>>>.6" undef, i32 %v3_1b32, 0
  ret %"Value_impl<json_spirit::Config_vector<std::basic_string<char,std::char_traits<char>,std::allocator<char>>>>.6" %v4_1b32

; uselistorder directives
  uselistorder label %dec_label_pc_1b32, { 1, 2, 0 }
}

define i32 @function_1b3f() local_unnamed_addr {
dec_label_pc_1b3f:
  %eax.global-to-local = alloca i32, align 4
  %v0_1b3f = load i32, i32* %eax.global-to-local, align 4
  ret i32 %v0_1b3f
}

define i32 @function_1ba3() local_unnamed_addr {
dec_label_pc_1be5:
  %v0_1ba3 = load i32, i32* @ebp, align 4
  %v1_1ba3 = add i32 %v0_1ba3, -32
  %v2_1ba3 = inttoptr i32 %v1_1ba3 to i32*
  store i32 0, i32* %v2_1ba3, align 4
  %v0_1baa = load i32, i32* @ebp, align 4
  %v1_1baa = add i32 %v0_1baa, -28
  %v2_1baa = inttoptr i32 %v1_1baa to i32*
  store i32 0, i32* %v2_1baa, align 4
  %v0_1bb9 = load i32, i32* @ebp, align 4
  %v1_1bb9 = add i32 %v0_1bb9, -48
  %v2_1bb9 = inttoptr i32 %v1_1bb9 to i32*
  %v3_1bb9 = load i32, i32* %v2_1bb9, align 4
  %v2_1bbf = inttoptr i32 %v3_1bb9 to i32*
  %v3_1bbf = call i32 @_ZNKSt6vectorIN11json_spirit10Value_implINS0_13Config_vectorISsEEEESaIS4_EEixEj(i32* %v2_1bbf, i32 0)
  %v1_1bc7 = call i32 @_ZNK11json_spirit10Value_implINS_13Config_vectorISsEEE8get_realEv(i32 %v3_1bbf)
  %v1_1be3 = call i32 @function_1c06()
  %v0_1bed = load i32, i32* @ebp, align 4
  %v1_1bed = add i32 %v0_1bed, -48
  %v2_1bed = inttoptr i32 %v1_1bed to i32*
  %v3_1bed = load i32, i32* %v2_1bed, align 4
  %v2_1bf3 = inttoptr i32 %v3_1bed to i32*
  %v3_1bf3 = call i32 @_ZNKSt6vectorIN11json_spirit10Value_implINS0_13Config_vectorISsEEEESaIS4_EEixEj(i32* %v2_1bf3, i32 0)
  ret i32 %v3_1bf3
}

define i32 @function_1c06() local_unnamed_addr {
dec_label_pc_1c06:
  call void @llvm.trap()
  unreachable
}

define i32 @function_1c3b() local_unnamed_addr {
dec_label_pc_1c3b:
  %v0_1c3d = load i32, i32* @ebp, align 4
  %v1_1c3d = add i32 %v0_1c3d, -20
  %v1_1c48 = call i32 @function_1c4c(i32 %v1_1c3d)
  ret i32 %v1_1c48
}

define i32 @function_1c4a() local_unnamed_addr {
dec_label_pc_1c4a:
  %eax.global-to-local = alloca i32, align 4
  %v0_1c4a = load i32, i32* %eax.global-to-local, align 4
  ret i32 %v0_1c4a
}

define i32 @function_1c4c(i32 %arg1) local_unnamed_addr {
dec_label_pc_1c4c:
  %v0_1c4c = load i32, i32* @ebp, align 4
  %v1_1c4c = add i32 %v0_1c4c, -13
  ret i32 %v1_1c4c
}

define i32 @function_1c69() local_unnamed_addr {
dec_label_pc_1c69:
  %eax.global-to-local = alloca i32, align 4
  %tmp96 = load i32, i32* %eax.global-to-local, align 4
  ret i32 %tmp96
}

define i32 @function_1c6e(i32 %arg1, i32 %arg2, i32 %arg3) local_unnamed_addr {
dec_label_pc_1c6e:
  %eax.global-to-local = alloca i32, align 4
  %v0_1c74 = load i32, i32* %eax.global-to-local, align 4
  ret i32 %v0_1c74
}

define %"Value_impl<json_spirit::Config_vector<std::basic_string<char,std::char_traits<char>,std::allocator<char>>>>.7" @_Z13getrawmempoolRKSt6vectorIN11json_spirit10Value_implINS0_13Config_vectorISsEEEESaIS4_EEb(%"vector<json_spirit::Value_impl<json_spirit::Config_vector<std::basic_string<char,std::char_traits<char>,std::allocator<char>>>>,std::allocator<json_spirit::Value_impl<json_spirit::Config_vector<std::basic_string<char,std::char_traits<char>,std::allocator<char>>>>>>" %params, i1 %fHelp) local_unnamed_addr {
dec_label_pc_1c77:
  %tmp111 = call i8 @__decompiler_undefined_function_4()
  %v10_1c9c = icmp eq i8 %tmp111, 0
  %v1_1ca0 = icmp eq i1 %v10_1c9c, false
  br i1 %v1_1ca0, label %dec_label_pc_1cbd, label %dec_label_pc_1ca2

dec_label_pc_1ca2:                                ; preds = %dec_label_pc_1c77
  %v4_1c88 = sext i1 %fHelp to i32
  %v2_1ca8 = inttoptr i32 %v4_1c88 to i32*
  %v3_1ca8 = call i32 @_ZNKSt6vectorIN11json_spirit10Value_implINS0_13Config_vectorISsEEEESaIS4_EE4sizeEv(i32* %v2_1ca8)
  %v1_1cad = icmp ne i32 %v3_1ca8, 0
  %. = zext i1 %v1_1cad to i32
  br label %dec_label_pc_1cbd

dec_label_pc_1cbd:                                ; preds = %dec_label_pc_1ca2, %dec_label_pc_1c77
  %storemerge = phi i32 [ 1, %dec_label_pc_1c77 ], [ %., %dec_label_pc_1ca2 ]
  %v5_1cbd = icmp eq i32 %storemerge, 0
  br i1 %v5_1cbd, label %bb, label %dec_label_pc_1cc1

bb:                                               ; preds = %dec_label_pc_1cbd
  %v1_1cbf = call i32 @function_1d32()
  br label %dec_label_pc_1cc1

dec_label_pc_1cc1:                                ; preds = %bb, %dec_label_pc_1cbd
  %v3_1cc1 = phi i32 [ %v1_1cbf, %bb ], [ %storemerge, %dec_label_pc_1cbd ]
  %v4_1cc1 = insertvalue %"Value_impl<json_spirit::Config_vector<std::basic_string<char,std::char_traits<char>,std::allocator<char>>>>.7" undef, i32 %v3_1cc1, 0
  ret %"Value_impl<json_spirit::Config_vector<std::basic_string<char,std::char_traits<char>,std::allocator<char>>>>.7" %v4_1cc1

; uselistorder directives
  uselistorder i32 %storemerge, { 1, 0 }
}

define i32 @function_1cce() local_unnamed_addr {
dec_label_pc_1cce:
  %eax.global-to-local = alloca i32, align 4
  %v0_1cce = load i32, i32* %eax.global-to-local, align 4
  ret i32 %v0_1cce
}

define i32 @function_1d32() local_unnamed_addr {
dec_label_pc_1d32:
  %v0_1d32 = load i32, i32* @ebp, align 4
  %v1_1d32 = add i32 %v0_1d32, -96
  %v1_1d38 = call i32 @_ZNSt6vectorI7uint256SaIS0_EEC1Ev(i32 %v1_1d32)
  %v0_1d3d = load i32, i32* @ebp, align 4
  %v1_1d3d = add i32 %v0_1d3d, -96
  ret i32 %v1_1d3d
}

define i32 @function_1d4f(i32 %arg1) local_unnamed_addr {
dec_label_pc_1d4f:
  %eax.global-to-local = alloca i32, align 4
  %v0_1d4f = load i32, i32* @ebp, align 4
  %v1_1d4f = add i32 %v0_1d4f, 76131397
  %v2_1d4f = inttoptr i32 %v1_1d4f to i32*
  %v3_1d4f = load i32, i32* %v2_1d4f, align 4
  %v4_1d4f = add i32 %v3_1d4f, -1
  store i32 %v4_1d4f, i32* %v2_1d4f, align 4
  %v0_1d55 = load i32, i32* %eax.global-to-local, align 4
  %v11_1d55 = and i32 %v0_1d55, -1166868504
  %v1_1d58 = or i32 %v11_1d55, 1166868481
  %v4_1d58 = trunc i32 %v1_1d58 to i8
  store i32 %v1_1d58, i32* %eax.global-to-local, align 4
  %v1_1d62 = inttoptr i32 %v1_1d58 to i8*
  %v2_1d62 = load i8, i8* %v1_1d62, align 1
  %v5_1d62 = add i8 %v2_1d62, %v4_1d58
  store i8 %v5_1d62, i8* %v1_1d62, align 1
  %v0_1d64 = load i32, i32* %eax.global-to-local, align 4
  %v1_1d64 = inttoptr i32 %v0_1d64 to i8*
  %v2_1d64 = load i8, i8* %v1_1d64, align 1
  %v4_1d64 = trunc i32 %v0_1d64 to i8
  %v5_1d64 = add i8 %v2_1d64, %v4_1d64
  store i8 %v5_1d64, i8* %v1_1d64, align 1
  %v0_1d66 = load i32, i32* @ebp, align 4
  %v1_1d66 = add i32 %v0_1d66, -96
  %v1_1d69 = load i32, i32* @esp, align 4
  %v2_1d69 = add i32 %v1_1d69, 4
  %v3_1d69 = inttoptr i32 %v2_1d69 to i32*
  store i32 %v1_1d66, i32* %v3_1d69, align 4
  %v0_1d6d = load i32, i32* %eax.global-to-local, align 4
  %v1_1d6d = load i32, i32* @esp, align 4
  %v2_1d6d = inttoptr i32 %v1_1d6d to i32*
  store i32 %v0_1d6d, i32* %v2_1d6d, align 4
  %v0_1d70 = call i32 @_ZN5boost15foreach_detail_7containISt6vectorI7uint256SaIS3_EEEENS0_8auto_anyIPT_EERS7_PN4mpl_5bool_ILb0EEE()
  %v0_1d78 = load i32, i32* @ebp, align 4
  %v1_1d78 = add i32 %v0_1d78, -68
  store i32 %v1_1d78, i32* %eax.global-to-local, align 4
  %v2_1d7b = add i32 %v0_1d78, -52
  %v3_1d7b = inttoptr i32 %v2_1d7b to i32*
  store i32 %v1_1d78, i32* %v3_1d7b, align 4
  %v0_1d7e = load i32, i32* @ebp, align 4
  %v1_1d7e = add i32 %v0_1d7e, -52
  %v2_1d7e = inttoptr i32 %v1_1d7e to i32*
  %v3_1d7e = load i32, i32* %v2_1d7e, align 4
  store i32 %v3_1d7e, i32* %eax.global-to-local, align 4
  %v1_1d81 = load i32, i32* @esp, align 4
  %v2_1d81 = inttoptr i32 %v1_1d81 to i32*
  store i32 %v3_1d7e, i32* %v2_1d81, align 4
  %v1_1d84 = call i32 @_ZNK5boost15foreach_detail_13auto_any_basecvbEv(i32 ptrtoint (i32* @0 to i32))
  store i32 %v1_1d84, i32* %eax.global-to-local, align 4
  %v4_1d89 = trunc i32 %v1_1d84 to i8
  %v5_1d89 = icmp eq i8 %v4_1d89, 0
  %v1_1d8b = icmp eq i1 %v5_1d89, false
  br i1 %v1_1d8b, label %bb, label %dec_label_pc_1d91

bb:                                               ; preds = %dec_label_pc_1d4f
  %v2_1d8b = call i32 @function_1ef3()
  store i32 %v2_1d8b, i32* %eax.global-to-local, align 4
  br label %dec_label_pc_1d91

dec_label_pc_1d91:                                ; preds = %bb, %dec_label_pc_1d4f
  %v0_1d91 = load i32, i32* @ebp, align 4
  %v1_1d91 = add i32 %v0_1d91, -64
  store i32 %v1_1d91, i32* %eax.global-to-local, align 4
  %v0_1d94 = load i32, i32* @esp, align 4
  %v1_1d94 = add i32 %v0_1d94, 12
  %v2_1d94 = inttoptr i32 %v1_1d94 to i32*
  store i32 0, i32* %v2_1d94, align 4
  %v0_1d9c = load i32, i32* @esp, align 4
  %v1_1d9c = add i32 %v0_1d9c, 8
  %v2_1d9c = inttoptr i32 %v1_1d9c to i32*
  store i32 0, i32* %v2_1d9c, align 4
  %v0_1da4 = load i32, i32* @ebp, align 4
  %v1_1da4 = add i32 %v0_1da4, -52
  %v2_1da4 = inttoptr i32 %v1_1da4 to i32*
  %v3_1da4 = load i32, i32* %v2_1da4, align 4
  store i32 %v3_1da4, i32* @edx, align 8
  %v1_1da7 = load i32, i32* @esp, align 4
  %v2_1da7 = add i32 %v1_1da7, 4
  %v3_1da7 = inttoptr i32 %v2_1da7 to i32*
  store i32 %v3_1da4, i32* %v3_1da7, align 4
  %v0_1dab = load i32, i32* %eax.global-to-local, align 4
  %v1_1dab = load i32, i32* @esp, align 4
  %v2_1dab = inttoptr i32 %v1_1dab to i32*
  store i32 %v0_1dab, i32* %v2_1dab, align 4
  %v0_1dae = call i32 @_ZN5boost15foreach_detail_5beginISt6vectorI7uint256SaIS3_EEN4mpl_5bool_ILb0EEEEENS0_8auto_anyINS0_16foreach_iteratorIT_T0_E4typeEEERKNS0_13auto_any_baseEPNS0_9type2typeISB_SC_EEPS8_()
  %v0_1db6 = load i32, i32* @ebp, align 4
  %v1_1db6 = add i32 %v0_1db6, -64
  store i32 %v1_1db6, i32* %eax.global-to-local, align 4
  %v2_1db9 = add i32 %v0_1db6, -48
  %v3_1db9 = inttoptr i32 %v2_1db9 to i32*
  store i32 %v1_1db6, i32* %v3_1db9, align 4
  %v0_1dbc = load i32, i32* @ebp, align 4
  %v1_1dbc = add i32 %v0_1dbc, -48
  %v2_1dbc = inttoptr i32 %v1_1dbc to i32*
  %v3_1dbc = load i32, i32* %v2_1dbc, align 4
  store i32 %v3_1dbc, i32* %eax.global-to-local, align 4
  %v1_1dbf = load i32, i32* @esp, align 4
  %v2_1dbf = inttoptr i32 %v1_1dbf to i32*
  store i32 %v3_1dbc, i32* %v2_1dbf, align 4
  %v1_1dc2 = call i32 @_ZNK5boost15foreach_detail_13auto_any_basecvbEv(i32 ptrtoint (i32* @0 to i32))
  store i32 %v1_1dc2, i32* %eax.global-to-local, align 4
  %v4_1dc7 = trunc i32 %v1_1dc2 to i8
  %v5_1dc7 = icmp eq i8 %v4_1dc7, 0
  %v1_1dc9 = icmp eq i1 %v5_1dc7, false
  br i1 %v1_1dc9, label %bb103, label %dec_label_pc_1dcf

bb103:                                            ; preds = %dec_label_pc_1d91
  %v2_1dc9 = call i32 @function_1ef3()
  store i32 %v2_1dc9, i32* %eax.global-to-local, align 4
  br label %dec_label_pc_1dcf

dec_label_pc_1dcf:                                ; preds = %bb103, %dec_label_pc_1d91
  %v0_1dcf = load i32, i32* @ebp, align 4
  %v1_1dcf = add i32 %v0_1dcf, -60
  store i32 %v1_1dcf, i32* %eax.global-to-local, align 4
  %v0_1dd2 = load i32, i32* @esp, align 4
  %v1_1dd2 = add i32 %v0_1dd2, 12
  %v2_1dd2 = inttoptr i32 %v1_1dd2 to i32*
  store i32 0, i32* %v2_1dd2, align 4
  %v0_1dda = load i32, i32* @esp, align 4
  %v1_1dda = add i32 %v0_1dda, 8
  %v2_1dda = inttoptr i32 %v1_1dda to i32*
  store i32 0, i32* %v2_1dda, align 4
  %v0_1de2 = load i32, i32* @ebp, align 4
  %v1_1de2 = add i32 %v0_1de2, -52
  %v2_1de2 = inttoptr i32 %v1_1de2 to i32*
  %v3_1de2 = load i32, i32* %v2_1de2, align 4
  %v1_1de5 = load i32, i32* @esp, align 4
  %v2_1de5 = add i32 %v1_1de5, 4
  %v3_1de5 = inttoptr i32 %v2_1de5 to i32*
  store i32 %v3_1de2, i32* %v3_1de5, align 4
  %v0_1de9 = load i32, i32* %eax.global-to-local, align 4
  %v1_1de9 = load i32, i32* @esp, align 4
  %v2_1de9 = inttoptr i32 %v1_1de9 to i32*
  store i32 %v0_1de9, i32* %v2_1de9, align 4
  %v0_1dec = call i32 @_ZN5boost15foreach_detail_3endISt6vectorI7uint256SaIS3_EEN4mpl_5bool_ILb0EEEEENS0_8auto_anyINS0_16foreach_iteratorIT_T0_E4typeEEERKNS0_13auto_any_baseEPNS0_9type2typeISB_SC_EEPS8_()
  %v0_1df4 = load i32, i32* @ebp, align 4
  %v1_1df4 = add i32 %v0_1df4, -60
  store i32 %v1_1df4, i32* %eax.global-to-local, align 4
  %v2_1df7 = add i32 %v0_1df4, -44
  %v3_1df7 = inttoptr i32 %v2_1df7 to i32*
  store i32 %v1_1df4, i32* %v3_1df7, align 4
  %v0_1dfa = load i32, i32* @ebp, align 4
  %v1_1dfa = add i32 %v0_1dfa, -44
  %v2_1dfa = inttoptr i32 %v1_1dfa to i32*
  %v3_1dfa = load i32, i32* %v2_1dfa, align 4
  store i32 %v3_1dfa, i32* %eax.global-to-local, align 4
  %v1_1dfd = load i32, i32* @esp, align 4
  %v2_1dfd = inttoptr i32 %v1_1dfd to i32*
  store i32 %v3_1dfa, i32* %v2_1dfd, align 4
  %v1_1e00 = call i32 @_ZNK5boost15foreach_detail_13auto_any_basecvbEv(i32 ptrtoint (i32* @0 to i32))
  store i32 %v1_1e00, i32* %eax.global-to-local, align 4
  %v4_1e05 = trunc i32 %v1_1e00 to i8
  %v5_1e05 = icmp eq i8 %v4_1e05, 0
  %v1_1e07 = icmp eq i1 %v5_1e05, false
  br i1 %v1_1e07, label %bb105, label %dec_label_pc_1e0d

bb105:                                            ; preds = %dec_label_pc_1dcf
  %v2_1e07 = call i32 @function_1ef3()
  store i32 %v2_1e07, i32* %eax.global-to-local, align 4
  br label %dec_label_pc_1e0d

dec_label_pc_1e0d:                                ; preds = %bb105, %dec_label_pc_1dcf
  %v0_1e0d = load i32, i32* @ebp, align 4
  %v1_1e0d = add i32 %v0_1e0d, -33
  %v2_1e0d = inttoptr i32 %v1_1e0d to i8*
  store i8 1, i8* %v2_1e0d, align 1
  %v0_1e11 = call i32 @function_1eb6()
  store i32 %v0_1e11, i32* %eax.global-to-local, align 4
  ret i32 %v0_1e11

; uselistorder directives
  uselistorder i32* %eax.global-to-local, { 3, 2, 4, 5, 6, 7, 8, 1, 9, 10, 11, 12, 13, 0, 14, 15, 16, 17, 18, 19, 20 }
  uselistorder i32 ()* @function_1ef3, { 2, 1, 0 }
  uselistorder i32 (i32)* @_ZNK5boost15foreach_detail_13auto_any_basecvbEv, { 5, 4, 3, 2, 1, 0 }
}

define i32 @function_1e16() local_unnamed_addr {
dec_label_pc_1e16:
  %v0_1e16 = load i32, i32* @ebp, align 4
  %v1_1e16 = add i32 %v0_1e16, -33
  %v1_1e1c = inttoptr i32 %v1_1e16 to i8*
  %v2_1e1c = call i32 @_ZN5boost15foreach_detail_9set_falseERb(i8* %v1_1e1c)
  %v4_1e21 = trunc i32 %v2_1e1c to i8
  %v5_1e21 = icmp eq i8 %v4_1e21, 0
  %v1_1e23 = icmp eq i1 %v5_1e21, false
  br i1 %v1_1e23, label %bb, label %dec_label_pc_1e25

bb:                                               ; preds = %dec_label_pc_1e16
  %v2_1e23 = call i32 @function_1e9b()
  br label %dec_label_pc_1e25

dec_label_pc_1e25:                                ; preds = %bb, %dec_label_pc_1e16
  %v0_1e2d = load i32, i32* @ebp, align 4
  %v1_1e2d = add i32 %v0_1e2d, -48
  %v2_1e2d = inttoptr i32 %v1_1e2d to i32*
  %v3_1e2d = load i32, i32* %v2_1e2d, align 4
  %v2_1e33 = call i32 @_ZN5boost15foreach_detail_5derefISt6vectorI7uint256SaIS3_EEN4mpl_5bool_ILb0EEEEENS0_17foreach_referenceIT_T0_E4typeERKNS0_13auto_any_baseEPNS0_9type2typeISA_SB_EE(i32 %v3_1e2d, i32 0)
  %v1_1e38 = load i32, i32* @ebp, align 4
  %v2_1e38 = add i32 %v1_1e38, -40
  %v3_1e38 = inttoptr i32 %v2_1e38 to i32*
  store i32 %v2_1e33, i32* %v3_1e38, align 4
  %v0_1e3b = call i32 @function_1e90()
  ret i32 %v0_1e3b
}

define i32 @function_1e3d() local_unnamed_addr {
dec_label_pc_1e3d:
  %eax.global-to-local = alloca i32, align 4
  %tmp96 = load i32, i32* %eax.global-to-local, align 4
  ret i32 %tmp96
}

define i32 @function_1e90() local_unnamed_addr {
dec_label_pc_1e90:
  %v0_1e90 = load i32, i32* @ebp, align 4
  %v1_1e90 = add i32 %v0_1e90, -33
  %v2_1e90 = inttoptr i32 %v1_1e90 to i8*
  %v3_1e90 = load i8, i8* %v2_1e90, align 1
  %v4_1e90 = zext i8 %v3_1e90 to i32
  %v1_1e94 = xor i32 %v4_1e90, 1
  ret i32 %v1_1e94
}

define i32 @function_1e9b() local_unnamed_addr {
dec_label_pc_1e9b:
  %v0_1e9b = load i32, i32* @ebp, align 4
  %v1_1e9b = add i32 %v0_1e9b, -33
  %v2_1e9b = inttoptr i32 %v1_1e9b to i8*
  %v3_1e9b = load i8, i8* %v2_1e9b, align 1
  %v5_1e9f = icmp eq i8 %v3_1e9b, 0
  br i1 %v5_1e9f, label %bb, label %dec_label_pc_1ea3

bb:                                               ; preds = %dec_label_pc_1e9b
  %v1_1ea1 = call i32 @function_1eb6()
  %v0_1eab.pre = load i32, i32* @ebp, align 4
  br label %dec_label_pc_1ea3

dec_label_pc_1ea3:                                ; preds = %bb, %dec_label_pc_1e9b
  %v0_1eab = phi i32 [ %v0_1eab.pre, %bb ], [ %v0_1e9b, %dec_label_pc_1e9b ]
  %v1_1eab = add i32 %v0_1eab, -48
  %v2_1eab = inttoptr i32 %v1_1eab to i32*
  %v3_1eab = load i32, i32* %v2_1eab, align 4
  %v2_1eb1 = call i32 @_ZN5boost15foreach_detail_4nextISt6vectorI7uint256SaIS3_EEN4mpl_5bool_ILb0EEEEEvRKNS0_13auto_any_baseEPNS0_9type2typeIT_T0_EE(i32 %v3_1eab, i32 0)
  ret i32 %v2_1eb1

; uselistorder directives
  uselistorder i32 ()* @function_1eb6, { 1, 0 }
}

define i32 @function_1eb6() local_unnamed_addr {
dec_label_pc_1eb6:
  %v0_1eb6 = load i32, i32* @ebp, align 4
  %v1_1eb6 = add i32 %v0_1eb6, -33
  %v2_1eb6 = inttoptr i32 %v1_1eb6 to i8*
  %v3_1eb6 = load i8, i8* %v2_1eb6, align 1
  %v5_1eba = icmp eq i8 %v3_1eb6, 0
  br i1 %v5_1eba, label %dec_label_pc_1ee6, label %dec_label_pc_1ebe

dec_label_pc_1ebe:                                ; preds = %dec_label_pc_1eb6
  %v1_1ec6 = add i32 %v0_1eb6, -44
  %v2_1ec6 = inttoptr i32 %v1_1ec6 to i32*
  %v3_1ec6 = load i32, i32* %v2_1ec6, align 4
  %v1_1ecd = add i32 %v0_1eb6, -48
  %v2_1ecd = inttoptr i32 %v1_1ecd to i32*
  %v3_1ecd = load i32, i32* %v2_1ecd, align 4
  %v3_1ed3 = call i32 @_ZN5boost15foreach_detail_4doneISt6vectorI7uint256SaIS3_EEN4mpl_5bool_ILb0EEEEEbRKNS0_13auto_any_baseESB_PNS0_9type2typeIT_T0_EE(i32 %v3_1ecd, i32 %v3_1ec6, i32 0)
  %v1_1ed8 = xor i32 %v3_1ed3, 1
  %v4_1ed8 = trunc i32 %v1_1ed8 to i8
  %v5_1edb = icmp eq i8 %v4_1ed8, 0
  br i1 %v5_1edb, label %dec_label_pc_1ee6, label %dec_label_pc_1eeb

dec_label_pc_1ee6:                                ; preds = %dec_label_pc_1ebe, %dec_label_pc_1eb6
  br label %dec_label_pc_1eeb

dec_label_pc_1eeb:                                ; preds = %dec_label_pc_1ebe, %dec_label_pc_1ee6
  %storemerge = phi i32 [ 0, %dec_label_pc_1ee6 ], [ 1, %dec_label_pc_1ebe ]
  ret i32 %storemerge

; uselistorder directives
  uselistorder i32 %v0_1eb6, { 1, 0, 2 }
  uselistorder i32 -33, { 3, 0, 1, 2, 4 }
  uselistorder label %dec_label_pc_1eeb, { 1, 0 }
}

define i32 @function_1ef3() local_unnamed_addr {
dec_label_pc_1ef3:
  %v0_1ef3 = load i32, i32* @ebp, align 4
  %v1_1ef3 = add i32 %v0_1ef3, -84
  %v1_1efa = add i32 %v0_1ef3, -108
  %v2_1efa = inttoptr i32 %v1_1efa to i32*
  %v3_1efa = load i32, i32* %v2_1efa, align 4
  %v2_1f00 = inttoptr i32 %v3_1efa to i32*
  %v3_1f00 = call i32 @_ZN11json_spirit10Value_implINS_13Config_vectorISsEEEC1ERKSt6vectorIS3_SaIS3_EE(i32* %v2_1f00, i32 %v1_1ef3)
  %v0_1f05 = load i32, i32* @ebp, align 4
  %v1_1f05 = add i32 %v0_1f05, -84
  %v1_1f0b = inttoptr i32 %v1_1f05 to i32*
  %v2_1f0b = call i32 @_ZNSt6vectorIN11json_spirit10Value_implINS0_13Config_vectorISsEEEESaIS4_EED1Ev(i32* %v1_1f0b)
  %v0_1f10 = load i32, i32* @ebp, align 4
  %v1_1f10 = add i32 %v0_1f10, -96
  %v1_1f16 = inttoptr i32 %v1_1f10 to i32*
  %v2_1f16 = call i32 @_ZNSt6vectorI7uint256SaIS0_EED1Ev(i32* %v1_1f16)
  %v0_1f1b = load i32, i32* @ebp, align 4
  %v1_1f1b = add i32 %v0_1f1b, -108
  %v2_1f1b = inttoptr i32 %v1_1f1b to i32*
  %v3_1f1b = load i32, i32* %v2_1f1b, align 4
  store i32 %v3_1f1b, i32* @eax, align 4
  %v1_1f1e = add i32 %v0_1f1b, -12
  %v2_1f1e = inttoptr i32 %v1_1f1e to i32*
  %v3_1f1e = load i32, i32* %v2_1f1e, align 4
  %v1_1f21 = load i32, i32* inttoptr (i32 20 to i32*), align 4
  %v3_1f21 = icmp eq i32 %v1_1f21, %v3_1f1e
  br i1 %v3_1f21, label %bb, label %dec_label_pc_1f2a

bb:                                               ; preds = %dec_label_pc_1ef3
  %v1_1f28 = call i32 @function_1fa3()
  store i32 %v1_1f28, i32* @eax, align 4
  br label %dec_label_pc_1f2a

dec_label_pc_1f2a:                                ; preds = %bb, %dec_label_pc_1ef3
  %v0_1f2a = call i32 @function_1f9e()
  ret i32 %v0_1f2a
}

define i32 @function_1f39() local_unnamed_addr {
dec_label_pc_1f39:
  %v0_1f39 = call i32 @function_1f3d()
  ret i32 %v0_1f39
}

define i32 @function_1f3b() local_unnamed_addr {
dec_label_pc_1f3b:
  %eax.global-to-local = alloca i32, align 4
  %v0_1f3b = load i32, i32* %eax.global-to-local, align 4
  ret i32 %v0_1f3b
}

define i32 @function_1f3d() local_unnamed_addr {
dec_label_pc_1f3d:
  %v0_1f3d = load i32, i32* @ebp, align 4
  %v1_1f3d = add i32 %v0_1f3d, -34
  ret i32 %v1_1f3d
}

define i32 @function_1f59() local_unnamed_addr {
dec_label_pc_1f59:
  %eax.global-to-local = alloca i32, align 4
  %v0_1f59 = load i32, i32* @ecx, align 4
  %v1_1f59 = add i32 %v0_1f59, -532312637
  %v2_1f59 = inttoptr i32 %v1_1f59 to i32*
  %v3_1f59 = load i32, i32* %v2_1f59, align 4
  %v4_1f59 = add i32 %v3_1f59, -1
  store i32 %v4_1f59, i32* %v2_1f59, align 4
  %v0_1f5f = load i32, i32* %eax.global-to-local, align 4
  %v1_1f62 = call i32 @_ZN11json_spirit10Value_implINS_13Config_vectorISsEEED1Ev(i32 %v0_1f5f)
  store i32 %v1_1f62, i32* %eax.global-to-local, align 4
  %v0_1f67 = call i32 @function_1f6b()
  store i32 %v0_1f67, i32* %eax.global-to-local, align 4
  ret i32 %v0_1f67
}

define i32 @function_1f69() local_unnamed_addr {
dec_label_pc_1f69:
  %eax.global-to-local = alloca i32, align 4
  %v0_1f69 = load i32, i32* %eax.global-to-local, align 4
  ret i32 %v0_1f69
}

define i32 @function_1f6b() local_unnamed_addr {
dec_label_pc_1f6b:
  %v0_1f6b = load i32, i32* @ebp, align 4
  %v1_1f6b = add i32 %v0_1f6b, -56
  ret i32 %v1_1f6b
}

define i32 @function_1f76() local_unnamed_addr {
dec_label_pc_1f76:
  %v0_1f76 = call i32 @function_1f7a()
  ret i32 %v0_1f76
}

define i32 @function_1f78() local_unnamed_addr {
dec_label_pc_1f78:
  %eax.global-to-local = alloca i32, align 4
  %v0_1f78 = load i32, i32* %eax.global-to-local, align 4
  ret i32 %v0_1f78
}

define i32 @function_1f7a() local_unnamed_addr {
dec_label_pc_1f7a:
  %v0_1f7a = load i32, i32* @ebp, align 4
  %v1_1f7a = add i32 %v0_1f7a, -84
  %v1_1f80 = inttoptr i32 %v1_1f7a to i32*
  %v2_1f80 = call i32 @_ZNSt6vectorIN11json_spirit10Value_implINS0_13Config_vectorISsEEEESaIS4_EED1Ev(i32* %v1_1f80)
  %v0_1f85 = call i32 @function_1f89()
  ret i32 %v0_1f85
}

define i32 @function_1f87() local_unnamed_addr {
dec_label_pc_1f87:
  %eax.global-to-local = alloca i32, align 4
  %v0_1f87 = load i32, i32* %eax.global-to-local, align 4
  ret i32 %v0_1f87
}

define i32 @function_1f89() local_unnamed_addr {
dec_label_pc_1f89:
  %v0_1f89 = load i32, i32* @ebp, align 4
  %v1_1f89 = add i32 %v0_1f89, -96
  %v1_1f8f = inttoptr i32 %v1_1f89 to i32*
  %v2_1f8f = call i32 @_ZNSt6vectorI7uint256SaIS0_EED1Ev(i32* %v1_1f8f)
  %v0_1f94 = load i32, i32* @ebx, align 4
  ret i32 %v0_1f94
}

define i32 @function_1f9e() local_unnamed_addr {
dec_label_pc_1f9e:
  %tmp = load i32, i32* @eax, align 4
  ret i32 %tmp
}

define i32 @function_1fa3() local_unnamed_addr {
dec_label_pc_1fa3:
  %v0_1fa3 = load i32, i32* @ebp, align 4
  %v1_1fa3 = add i32 %v0_1fa3, -8
  %v1_1fa6 = inttoptr i32 %v1_1fa3 to i32*
  %v2_1fa6 = load i32, i32* %v1_1fa6, align 4
  store i32 %v2_1fa6, i32* @ebx, align 4
  %v3_1fa6 = add i32 %v0_1fa3, -4
  %v1_1fa7 = inttoptr i32 %v3_1fa6 to i32*
  %v2_1fa7 = load i32, i32* %v1_1fa7, align 4
  store i32 %v2_1fa7, i32* @esi, align 4
  %v1_1fa8 = inttoptr i32 %v0_1fa3 to i32*
  %v2_1fa8 = load i32, i32* %v1_1fa8, align 4
  store i32 %v2_1fa8, i32* @ebp, align 4
  %v0_1fa9 = load i32, i32* @eax, align 4
  ret i32 %v0_1fa9
}

define %"Value_impl<json_spirit::Config_vector<std::basic_string<char,std::char_traits<char>,std::allocator<char>>>>.8" @_Z12getblockhashRKSt6vectorIN11json_spirit10Value_implINS0_13Config_vectorISsEEEESaIS4_EEb(%"vector<json_spirit::Value_impl<json_spirit::Config_vector<std::basic_string<char,std::char_traits<char>,std::allocator<char>>>>,std::allocator<json_spirit::Value_impl<json_spirit::Config_vector<std::basic_string<char,std::char_traits<char>,std::allocator<char>>>>>>" %params, i1 %fHelp) local_unnamed_addr {
dec_label_pc_1fac:
  %tmp110 = call i8 @__decompiler_undefined_function_4()
  %v10_1fd1 = icmp eq i8 %tmp110, 0
  %v1_1fd5 = icmp eq i1 %v10_1fd1, false
  br i1 %v1_1fd5, label %dec_label_pc_1ff3, label %dec_label_pc_1fd7

dec_label_pc_1fd7:                                ; preds = %dec_label_pc_1fac
  %v4_1fbd = sext i1 %fHelp to i32
  %v2_1fdd = inttoptr i32 %v4_1fbd to i32*
  %v3_1fdd = call i32 @_ZNKSt6vectorIN11json_spirit10Value_implINS0_13Config_vectorISsEEEESaIS4_EE4sizeEv(i32* %v2_1fdd)
  %v10_1fe2 = icmp ne i32 %v3_1fdd, 1
  %. = zext i1 %v10_1fe2 to i32
  br label %dec_label_pc_1ff3

dec_label_pc_1ff3:                                ; preds = %dec_label_pc_1fd7, %dec_label_pc_1fac
  %storemerge = phi i32 [ 1, %dec_label_pc_1fac ], [ %., %dec_label_pc_1fd7 ]
  %v5_1ff3 = icmp eq i32 %storemerge, 0
  br i1 %v5_1ff3, label %bb, label %dec_label_pc_1ff7

bb:                                               ; preds = %dec_label_pc_1ff3
  %v1_1ff5 = call i32 @function_2068()
  br label %dec_label_pc_1ff7

dec_label_pc_1ff7:                                ; preds = %bb, %dec_label_pc_1ff3
  %v3_1ff7 = phi i32 [ %v1_1ff5, %bb ], [ %storemerge, %dec_label_pc_1ff3 ]
  %v4_1ff7 = insertvalue %"Value_impl<json_spirit::Config_vector<std::basic_string<char,std::char_traits<char>,std::allocator<char>>>>.8" undef, i32 %v3_1ff7, 0
  ret %"Value_impl<json_spirit::Config_vector<std::basic_string<char,std::char_traits<char>,std::allocator<char>>>>.8" %v4_1ff7

; uselistorder directives
  uselistorder i32 %storemerge, { 1, 0 }
}

define i32 @function_2004() local_unnamed_addr {
dec_label_pc_2004:
  %eax.global-to-local = alloca i32, align 4
  %v0_2004 = load i32, i32* %eax.global-to-local, align 4
  ret i32 %v0_2004
}

define i32 @function_2068() local_unnamed_addr {
dec_label_pc_2068:
  %eax.global-to-local = alloca i32, align 4
  %v0_2070 = load i32, i32* @ebp, align 4
  %v1_2070 = add i32 %v0_2070, -48
  %v2_2070 = inttoptr i32 %v1_2070 to i32*
  %v3_2070 = load i32, i32* %v2_2070, align 4
  store i32 %v3_2070, i32* %eax.global-to-local, align 4
  %v2_2076 = inttoptr i32 %v3_2070 to i32*
  %v3_2076 = call i32 @_ZNKSt6vectorIN11json_spirit10Value_implINS0_13Config_vectorISsEEEESaIS4_EEixEj(i32* %v2_2076, i32 0)
  store i32 %v3_2076, i32* %eax.global-to-local, align 4
  %v1_207e = call i32 @_ZNK11json_spirit10Value_implINS_13Config_vectorISsEEE7get_intEv(i32 %v3_2076)
  store i32 %v1_207e, i32* %eax.global-to-local, align 4
  %v1_2083 = load i32, i32* @ebp, align 4
  %v2_2083 = add i32 %v1_2083, -24
  %v3_2083 = inttoptr i32 %v2_2083 to i32*
  store i32 %v1_207e, i32* %v3_2083, align 4
  %v0_208a = load i32, i32* %eax.global-to-local, align 4
  ret i32 %v0_208a
}

define i32 @function_20a3() local_unnamed_addr {
dec_label_pc_20a3:
  %eax.global-to-local = alloca i32, align 4
  %v0_20a3 = load i32, i32* %eax.global-to-local, align 4
  ret i32 %v0_20a3
}

define i32 @function_2107() local_unnamed_addr {
dec_label_pc_2107:
  %tmp91 = call i32 @__decompiler_undefined_function_0()
  %v1_2107 = add i32 %tmp91, -24
  %v2_2107 = inttoptr i32 %v1_2107 to i32*
  %v3_2107 = load i32, i32* %v2_2107, align 4
  ret i32 %v3_2107
}

define i32 @function_211b() local_unnamed_addr {
dec_label_pc_211b:
  %eax.global-to-local = alloca i32, align 4
  %v0_211b = load i32, i32* %eax.global-to-local, align 4
  ret i32 %v0_211b
}

define i32 @function_214a() local_unnamed_addr {
dec_label_pc_214a:
  %ebx.global-to-local = alloca i32, align 4
  %edx.global-to-local = alloca i32, align 4
  %v0_214a = load i32, i32* %ebx.global-to-local, align 4
  %v1_214a = add i32 %v0_214a, 1435227205
  %v2_214a = inttoptr i32 %v1_214a to i32*
  %v3_214a = load i32, i32* %v2_214a, align 4
  %v4_214a = add i32 %v3_214a, -1
  store i32 %v4_214a, i32* %v2_214a, align 4
  %v0_2151 = load i32, i32* %edx.global-to-local, align 8
  %v1_2151 = load i32, i32* inttoptr (i32 20 to i32*), align 4
  %v2_2151 = xor i32 %v1_2151, %v0_2151
  %v3_2151 = icmp eq i32 %v2_2151, 0
  store i32 %v2_2151, i32* %edx.global-to-local, align 8
  br i1 %v3_2151, label %bb, label %dec_label_pc_215a

bb:                                               ; preds = %dec_label_pc_214a
  %v1_2158 = call i32 @function_21d4()
  store i32 %v1_2158, i32* @eax, align 4
  br label %dec_label_pc_215a

dec_label_pc_215a:                                ; preds = %bb, %dec_label_pc_214a
  %v0_215a = call i32 @function_21cf()
  ret i32 %v0_215a

; uselistorder directives
  uselistorder i32* %edx.global-to-local, { 1, 0 }
}

define i32 @function_2169() local_unnamed_addr {
dec_label_pc_2169:
  %v0_2169 = call i32 @function_216d()
  ret i32 %v0_2169
}

define i32 @function_216b() local_unnamed_addr {
dec_label_pc_216b:
  %eax.global-to-local = alloca i32, align 4
  %v0_216b = load i32, i32* %eax.global-to-local, align 4
  ret i32 %v0_216b
}

define i32 @function_216d() local_unnamed_addr {
dec_label_pc_216d:
  %v0_216d = load i32, i32* @ebp, align 4
  %v1_216d = add i32 %v0_216d, -14
  ret i32 %v1_216d
}

define i32 @function_2197() local_unnamed_addr {
dec_label_pc_2197:
  %v0_2197 = call i32 @function_219b()
  ret i32 %v0_2197
}

define i32 @function_2199() local_unnamed_addr {
dec_label_pc_2199:
  %eax.global-to-local = alloca i32, align 4
  %v0_2199 = load i32, i32* %eax.global-to-local, align 4
  ret i32 %v0_2199
}

define i32 @function_219b() local_unnamed_addr {
dec_label_pc_219b:
  %v0_219b = load i32, i32* @ebp, align 4
  %v1_219b = add i32 %v0_219b, -13
  ret i32 %v1_219b
}

define i32 @function_21b9() local_unnamed_addr {
dec_label_pc_21b9:
  %eax.global-to-local = alloca i32, align 4
  %v0_21b9 = load i32, i32* %eax.global-to-local, align 4
  ret i32 %v0_21b9
}

define i32 @function_21cf() local_unnamed_addr {
dec_label_pc_21cf:
  %tmp = load i32, i32* @eax, align 4
  ret i32 %tmp
}

define i32 @function_21d4() local_unnamed_addr {
dec_label_pc_21d4:
  %v0_21da = load i32, i32* @eax, align 4
  ret i32 %v0_21da
}

define %"Value_impl<json_spirit::Config_vector<std::basic_string<char,std::char_traits<char>,std::allocator<char>>>>.9" @_Z8getblockRKSt6vectorIN11json_spirit10Value_implINS0_13Config_vectorISsEEEESaIS4_EEb(%"vector<json_spirit::Value_impl<json_spirit::Config_vector<std::basic_string<char,std::char_traits<char>,std::allocator<char>>>>,std::allocator<json_spirit::Value_impl<json_spirit::Config_vector<std::basic_string<char,std::char_traits<char>,std::allocator<char>>>>>>" %params, i1 %fHelp) local_unnamed_addr {
dec_label_pc_21dd:
  %tmp111 = call i8 @__decompiler_undefined_function_4()
  %v10_220e = icmp eq i8 %tmp111, 0
  %v1_2215 = icmp eq i1 %v10_220e, false
  br i1 %v1_2215, label %dec_label_pc_2248.thread, label %dec_label_pc_2217

dec_label_pc_2217:                                ; preds = %dec_label_pc_21dd
  %v4_21f4 = sext i1 %fHelp to i32
  %v2_2220 = inttoptr i32 %v4_21f4 to i32*
  %v3_2220 = call i32 @_ZNKSt6vectorIN11json_spirit10Value_implINS0_13Config_vectorISsEEEESaIS4_EE4sizeEv(i32* %v2_2220)
  %v1_2225 = icmp eq i32 %v3_2220, 0
  br i1 %v1_2225, label %dec_label_pc_2248.thread, label %dec_label_pc_2248

dec_label_pc_2248.thread:                         ; preds = %dec_label_pc_2217, %dec_label_pc_21dd
  br label %dec_label_pc_2250

dec_label_pc_2248:                                ; preds = %dec_label_pc_2217
  %v3_2232 = call i32 @_ZNKSt6vectorIN11json_spirit10Value_implINS0_13Config_vectorISsEEEESaIS4_EE4sizeEv(i32* %v2_2220)
  %tmp121 = icmp ugt i32 %v3_2232, 2
  %v5_2248 = icmp eq i1 %tmp121, false
  br i1 %v5_2248, label %bb, label %dec_label_pc_2250

bb:                                               ; preds = %dec_label_pc_2248
  %v1_224a = call i32 @function_22d3()
  br label %dec_label_pc_2250

dec_label_pc_2250:                                ; preds = %dec_label_pc_2248.thread, %bb, %dec_label_pc_2248
  %v3_2250 = phi i32 [ %v1_224a, %bb ], [ 1, %dec_label_pc_2248 ], [ 1, %dec_label_pc_2248.thread ]
  %v4_2250 = insertvalue %"Value_impl<json_spirit::Config_vector<std::basic_string<char,std::char_traits<char>,std::allocator<char>>>>.9" undef, i32 %v3_2250, 0
  ret %"Value_impl<json_spirit::Config_vector<std::basic_string<char,std::char_traits<char>,std::allocator<char>>>>.9" %v4_2250

; uselistorder directives
  uselistorder label %dec_label_pc_2250, { 1, 2, 0 }
}

define i32 @function_225d() local_unnamed_addr {
dec_label_pc_225d:
  %eax.global-to-local = alloca i32, align 4
  %v0_225d = load i32, i32* %eax.global-to-local, align 4
  ret i32 %v0_225d
}

define i32 @function_22d3() local_unnamed_addr {
dec_label_pc_22d3:
  %v0_22db = load i32, i32* @ebp, align 4
  %v1_22db = add i32 %v0_22db, -240
  %v2_22db = inttoptr i32 %v1_22db to i32*
  %v3_22db = load i32, i32* %v2_22db, align 4
  %v2_22e4 = inttoptr i32 %v3_22db to i32*
  %v3_22e4 = call i32 @_ZNKSt6vectorIN11json_spirit10Value_implINS0_13Config_vectorISsEEEESaIS4_EEixEj(i32* %v2_22e4, i32 0)
  %v1_22ec = call i32 @_ZNK11json_spirit10Value_implINS_13Config_vectorISsEEE7get_strEv(i32 %v3_22e4)
  %v0_22f5 = load i32, i32* @ebp, align 4
  %v1_22f5 = add i32 %v0_22f5, -176
  ret i32 %v1_22f5
}

define i32 @function_2388() local_unnamed_addr {
dec_label_pc_2388:
  %eax.global-to-local = alloca i32, align 4
  %v0_2388 = load i32, i32* %eax.global-to-local, align 4
  ret i32 %v0_2388
}

define i32 @function_2409() local_unnamed_addr {
dec_label_pc_2409:
  %v0_2409 = load i32, i32* @ebp, align 4
  %v1_2409 = add i32 %v0_2409, -148
  %v1_2412 = call i32 @_ZN6CBlockC1Ev(i32 %v1_2409)
  %v0_2417 = load i32, i32* @ebp, align 4
  %v1_2417 = add i32 %v0_2417, -44
  ret i32 %v1_2417
}

define i32 @function_251b() local_unnamed_addr {
dec_label_pc_251b:
  %v0_251b = load i32, i32* @ebp, align 4
  %v1_251b = add i32 %v0_251b, -220
  %v1_2524 = call i32 @_ZN11CDataStreamD1Ev(i32 %v1_251b)
  %v0_2529 = call i32 @function_2576()
  ret i32 %v0_2529
}

define i32 @function_252b() local_unnamed_addr {
dec_label_pc_252b:
  %v0_252b = load i32, i32* @ebp, align 4
  %v1_252b = add i32 %v0_252b, -192
  %v1_253b = add i32 %v0_252b, -148
  %v3_2548 = call %"vector<json_spirit::Pair_impl<json_spirit::Config_vector<std::basic_string<char,std::char_traits<char>,std::allocator<char>>>>,std::allocator<json_spirit::Pair_impl<json_spirit::Config_vector<std::basic_string<char,std::char_traits<char>,std::allocator<char>>>>>>.3" @_Z11blockToJSONRK6CBlockPK11CBlockIndex(i32 %v1_252b, i32 %v1_253b)
  %v0_2550 = load i32, i32* @ebp, align 4
  %v1_2550 = add i32 %v0_2550, -192
  %v1_255a = add i32 %v0_2550, -236
  %v2_255a = inttoptr i32 %v1_255a to i32*
  %v3_255a = load i32, i32* %v2_255a, align 4
  %v2_2563 = inttoptr i32 %v3_255a to i32*
  %v3_2563 = call i32 @_ZN11json_spirit10Value_implINS_13Config_vectorISsEEEC1ERKSt6vectorINS_9Pair_implIS2_EESaIS6_EE(i32* %v2_2563, i32 %v1_2550)
  %v0_2568 = load i32, i32* @ebp, align 4
  %v1_2568 = add i32 %v0_2568, -192
  %v1_2571 = inttoptr i32 %v1_2568 to i32*
  %v2_2571 = call i32 @_ZNSt6vectorIN11json_spirit9Pair_implINS0_13Config_vectorISsEEEESaIS4_EED1Ev(i32* %v1_2571)
  ret i32 %v2_2571
}

define i32 @function_2576() local_unnamed_addr {
dec_label_pc_2576:
  %v0_2576 = load i32, i32* @ebp, align 4
  %v1_2576 = add i32 %v0_2576, -148
  %v1_257f = call i32 @_ZN6CBlockD1Ev(i32 %v1_2576)
  %v0_2584 = load i32, i32* @ebp, align 4
  %v1_2584 = add i32 %v0_2584, -176
  ret i32 %v1_2584
}

define i32 @function_2591() local_unnamed_addr {
dec_label_pc_2591:
  %cf.global-to-local = alloca i1, align 1
  %eax.global-to-local = alloca i32, align 4
  %ebx.global-to-local = alloca i32, align 4
  %v0_2591 = load i32, i32* %ebx.global-to-local, align 4
  %v1_2591 = add i32 %v0_2591, -60283
  %v2_2591 = inttoptr i32 %v1_2591 to i32*
  %v3_2591 = load i32, i32* %v2_2591, align 4
  %v4_2591 = add i32 %v3_2591, -1
  store i32 %v4_2591, i32* %v2_2591, align 4
  %v0_2597 = load i32, i32* %ebx.global-to-local, align 4
  %v1_2597 = add i32 %v0_2597, 862319701
  %v2_2597 = inttoptr i32 %v1_2597 to i32*
  %v3_2597 = load i32, i32* %v2_2597, align 4
  %v4_2597 = add i32 %v3_2597, -1
  store i32 %v4_2597, i32* %v2_2597, align 4
  %v0_259d = load i32, i32* %eax.global-to-local, align 4
  %v1_259d = load i1, i1* %cf.global-to-local, align 1
  %v2_259d = zext i1 %v1_259d to i32
  %v3_259d = add i32 %v0_259d, 20
  %v4_259d = add i32 %v3_259d, %v2_259d
  %v14_259d = icmp eq i32 %v4_259d, 0
  %v22_259d = icmp ule i32 %v4_259d, %v0_259d
  %v23_259d = icmp ugt i32 %v0_259d, -21
  %v24_259d = select i1 %v1_259d, i1 %v22_259d, i1 %v23_259d
  store i1 %v24_259d, i1* %cf.global-to-local, align 1
  store i32 %v4_259d, i32* @eax, align 4
  br i1 %v14_259d, label %bb, label %dec_label_pc_25a8

bb:                                               ; preds = %dec_label_pc_2591
  %v1_25a2 = call i32 @function_267a()
  store i32 %v1_25a2, i32* @eax, align 4
  br label %dec_label_pc_25a8

dec_label_pc_25a8:                                ; preds = %bb, %dec_label_pc_2591
  %v0_25a8 = call i32 @function_2675()
  store i32 %v0_25a8, i32* %eax.global-to-local, align 4
  ret i32 %v0_25a8

; uselistorder directives
  uselistorder i32 %v4_259d, { 1, 0, 2 }
}

define i32 @function_25bd() local_unnamed_addr {
dec_label_pc_25bd:
  %v0_25bd = call i32 @function_25c1()
  ret i32 %v0_25bd
}

define i32 @function_25bf() local_unnamed_addr {
dec_label_pc_25bf:
  %eax.global-to-local = alloca i32, align 4
  %v0_25bf = load i32, i32* %eax.global-to-local, align 4
  ret i32 %v0_25bf
}

define i32 @function_25c1() local_unnamed_addr {
dec_label_pc_25c1:
  %v0_25c1 = load i32, i32* @ebp, align 4
  %v1_25c1 = add i32 %v0_25c1, -151
  ret i32 %v1_25c1
}

define i32 @function_25f1() local_unnamed_addr {
dec_label_pc_25f1:
  %v0_25f1 = call i32 @function_25f5()
  ret i32 %v0_25f1
}

define i32 @function_25f3() local_unnamed_addr {
dec_label_pc_25f3:
  %eax.global-to-local = alloca i32, align 4
  %v0_25f3 = load i32, i32* %eax.global-to-local, align 4
  ret i32 %v0_25f3
}

define i32 @function_25f5() local_unnamed_addr {
dec_label_pc_25f5:
  %v0_25f5 = load i32, i32* @ebp, align 4
  %v1_25f5 = add i32 %v0_25f5, -150
  ret i32 %v1_25f5
}

define i32 @function_260a() local_unnamed_addr {
dec_label_pc_260a:
  %eax.global-to-local = alloca i32, align 4
  %ecx.global-to-local = alloca i32, align 4
  %v0_260a = load i32, i32* %ecx.global-to-local, align 4
  %v1_260a = add i32 %v0_260a, -1991316493
  %v2_260a = inttoptr i32 %v1_260a to i32*
  %v3_260a = load i32, i32* %v2_260a, align 4
  %v4_260a = add i32 %v3_260a, -1
  store i32 %v4_260a, i32* %v2_260a, align 4
  %v0_2610 = load i32, i32* %eax.global-to-local, align 4
  ret i32 %v0_2610
}

define i32 @function_2611() local_unnamed_addr {
dec_label_pc_2611:
  %v0_2611 = call i32 @function_2627()
  ret i32 %v0_2611
}

define i32 @function_2614() local_unnamed_addr {
dec_label_pc_2614:
  %eax.global-to-local = alloca i32, align 4
  %v0_2614 = load i32, i32* %eax.global-to-local, align 4
  ret i32 %v0_2614
}

define i32 @function_2623() local_unnamed_addr {
dec_label_pc_2623:
  %v0_2623 = call i32 @function_2627()
  ret i32 %v0_2623

; uselistorder directives
  uselistorder i32 ()* @function_2627, { 1, 0 }
}

define i32 @function_2626() local_unnamed_addr {
dec_label_pc_2626:
  %eax.global-to-local = alloca i32, align 4
  %v0_2626 = load i32, i32* %eax.global-to-local, align 4
  ret i32 %v0_2626
}

define i32 @function_2627() local_unnamed_addr {
dec_label_pc_2627:
  %v0_2627 = load i32, i32* @ebp, align 4
  %v1_2627 = add i32 %v0_2627, -220
  %v1_2630 = call i32 @_ZN11CDataStreamD1Ev(i32 %v1_2627)
  %v0_2635 = call i32 @function_264b()
  ret i32 %v0_2635

; uselistorder directives
  uselistorder i32 (i32)* @_ZN11CDataStreamD1Ev, { 1, 0 }
}

define i32 @function_2637() local_unnamed_addr {
dec_label_pc_2637:
  %v0_2639 = load i32, i32* @ebp, align 4
  %v1_2639 = add i32 %v0_2639, -192
  %v1_2642 = inttoptr i32 %v1_2639 to i32*
  %v2_2642 = call i32 @_ZNSt6vectorIN11json_spirit9Pair_implINS0_13Config_vectorISsEEEESaIS4_EED1Ev(i32* %v1_2642)
  %v0_2647 = call i32 @function_264b()
  ret i32 %v0_2647

; uselistorder directives
  uselistorder i32 ()* @function_264b, { 1, 0 }
}

define i32 @function_264a() local_unnamed_addr {
dec_label_pc_264a:
  %eax.global-to-local = alloca i32, align 4
  %v0_264a = load i32, i32* %eax.global-to-local, align 4
  ret i32 %v0_264a
}

define i32 @function_264b() local_unnamed_addr {
dec_label_pc_264b:
  %v0_264b = load i32, i32* @ebp, align 4
  %v1_264b = add i32 %v0_264b, -148
  %v1_2654 = call i32 @_ZN6CBlockD1Ev(i32 %v1_264b)
  %v0_2659 = call i32 @function_265d()
  ret i32 %v0_2659

; uselistorder directives
  uselistorder i32 (i32)* @_ZN6CBlockD1Ev, { 1, 0 }
  uselistorder i32 -148, { 0, 2, 1, 3 }
}

define i32 @function_265b() local_unnamed_addr {
dec_label_pc_265b:
  %eax.global-to-local = alloca i32, align 4
  %v0_265b = load i32, i32* %eax.global-to-local, align 4
  ret i32 %v0_265b
}

define i32 @function_265d() local_unnamed_addr {
dec_label_pc_265d:
  %v0_265d = load i32, i32* @ebp, align 4
  %v1_265d = add i32 %v0_265d, -176
  ret i32 %v1_265d
}

define i32 @function_2675() local_unnamed_addr {
dec_label_pc_2675:
  %tmp = load i32, i32* @eax, align 4
  ret i32 %tmp
}

define i32 @function_267a() local_unnamed_addr {
dec_label_pc_267a:
  %v0_2680 = load i32, i32* @eax, align 4
  ret i32 %v0_2680
}

define %"Value_impl<json_spirit::Config_vector<std::basic_string<char,std::char_traits<char>,std::allocator<char>>>>.10" @_Z15gettxoutsetinfoRKSt6vectorIN11json_spirit10Value_implINS0_13Config_vectorISsEEEESaIS4_EEb(%"vector<json_spirit::Value_impl<json_spirit::Config_vector<std::basic_string<char,std::char_traits<char>,std::allocator<char>>>>,std::allocator<json_spirit::Value_impl<json_spirit::Config_vector<std::basic_string<char,std::char_traits<char>,std::allocator<char>>>>>>" %params, i1 %fHelp) local_unnamed_addr {
dec_label_pc_2683:
  %tmp111 = call i8 @__decompiler_undefined_function_4()
  %v4_269a = sext i1 %fHelp to i32
  store i32 %v4_269a, i32* @edx, align 8
  %v10_26b4 = icmp eq i8 %tmp111, 0
  %v1_26bb = icmp eq i1 %v10_26b4, false
  br i1 %v1_26bb, label %dec_label_pc_26db, label %dec_label_pc_26bd

dec_label_pc_26bd:                                ; preds = %dec_label_pc_2683
  %v2_26c6 = inttoptr i32 %v4_269a to i32*
  %v3_26c6 = call i32 @_ZNKSt6vectorIN11json_spirit10Value_implINS0_13Config_vectorISsEEEESaIS4_EE4sizeEv(i32* %v2_26c6)
  %v1_26cb = icmp ne i32 %v3_26c6, 0
  %. = zext i1 %v1_26cb to i32
  br label %dec_label_pc_26db

dec_label_pc_26db:                                ; preds = %dec_label_pc_26bd, %dec_label_pc_2683
  %storemerge = phi i32 [ 1, %dec_label_pc_2683 ], [ %., %dec_label_pc_26bd ]
  %v5_26db = icmp eq i32 %storemerge, 0
  br i1 %v5_26db, label %bb, label %dec_label_pc_26e3

bb:                                               ; preds = %dec_label_pc_26db
  %v1_26dd = call i32 @function_2766()
  br label %dec_label_pc_26e3

dec_label_pc_26e3:                                ; preds = %bb, %dec_label_pc_26db
  %v3_26e3 = phi i32 [ %v1_26dd, %bb ], [ %storemerge, %dec_label_pc_26db ]
  %v4_26e3 = insertvalue %"Value_impl<json_spirit::Config_vector<std::basic_string<char,std::char_traits<char>,std::allocator<char>>>>.10" undef, i32 %v3_26e3, 0
  ret %"Value_impl<json_spirit::Config_vector<std::basic_string<char,std::char_traits<char>,std::allocator<char>>>>.10" %v4_26e3

; uselistorder directives
  uselistorder i32 %storemerge, { 1, 0 }
}

define i32 @function_26f0() local_unnamed_addr {
dec_label_pc_26f0:
  %eax.global-to-local = alloca i32, align 4
  %v0_26f0 = load i32, i32* %eax.global-to-local, align 4
  ret i32 %v0_26f0
}

define i32 @function_2766() local_unnamed_addr {
dec_label_pc_2766:
  %v0_2766 = load i32, i32* @ebp, align 4
  %v1_2766 = add i32 %v0_2766, -480
  %v1_276f = call i32 @_ZNSt6vectorIN11json_spirit9Pair_implINS0_13Config_vectorISsEEEESaIS4_EEC1Ev(i32 %v1_2766)
  %v0_2774 = load i32, i32* @ebp, align 4
  %v1_2774 = add i32 %v0_2774, -420
  %v1_277d = inttoptr i32 %v1_2774 to i32*
  %v2_277d = call i32 @_ZN11CCoinsStatsC1Ev(i32* %v1_277d)
  ret i32 %v2_277d
}

define i32 @function_2878() local_unnamed_addr {
dec_label_pc_2878:
  %eax.global-to-local = alloca i32, align 4
  %v0_2878 = load i32, i32* %eax.global-to-local, align 4
  ret i32 %v0_2878
}

define i32 @function_2b27() local_unnamed_addr {
dec_label_pc_2b27:
  %eax.global-to-local = alloca i32, align 4
  %v0_2b27 = load i32, i32* %eax.global-to-local, align 4
  %v11_2b27 = and i32 %v0_2b27, -24
  store i32 %v11_2b27, i32* %eax.global-to-local, align 4
  ret i32 %v11_2b27

; uselistorder directives
  uselistorder i32 %v11_2b27, { 1, 0 }
}

define i32 @function_2b87() local_unnamed_addr {
dec_label_pc_2b87:
  %eax.global-to-local = alloca i32, align 4
  %v0_2b87 = load i32, i32* %eax.global-to-local, align 4
  ret i32 %v0_2b87
}

define i32 @function_2b8f(i16 %arg1) local_unnamed_addr {
dec_label_pc_2b8f:
  %eax.global-to-local = alloca i32, align 4
  %v0_2b8f = load i32, i32* %eax.global-to-local, align 4
  %v11_2b8f = and i32 %v0_2b8f, -24
  store i32 %v11_2b8f, i32* %eax.global-to-local, align 4
  ret i32 %v11_2b8f

; uselistorder directives
  uselistorder i32 %v11_2b8f, { 1, 0 }
}

define i32 @function_2d11() local_unnamed_addr {
dec_label_pc_2d11:
  %v0_2d11 = load i32, i32* @ebp, align 4
  %v1_2d11 = add i32 %v0_2d11, -480
  %v1_2d1b = add i32 %v0_2d11, -492
  %v2_2d1b = inttoptr i32 %v1_2d1b to i32*
  %v3_2d1b = load i32, i32* %v2_2d1b, align 4
  %v2_2d24 = inttoptr i32 %v3_2d1b to i32*
  %v3_2d24 = call i32 @_ZN11json_spirit10Value_implINS_13Config_vectorISsEEEC1ERKSt6vectorINS_9Pair_implIS2_EESaIS6_EE(i32* %v2_2d24, i32 %v1_2d11)
  %v0_2d29 = load i32, i32* @ebp, align 4
  %v1_2d29 = add i32 %v0_2d29, -480
  %v1_2d32 = inttoptr i32 %v1_2d29 to i32*
  %v2_2d32 = call i32 @_ZNSt6vectorIN11json_spirit9Pair_implINS0_13Config_vectorISsEEEESaIS4_EED1Ev(i32* %v1_2d32)
  %v0_2d37 = load i32, i32* @ebp, align 4
  %v1_2d37 = add i32 %v0_2d37, -492
  %v2_2d37 = inttoptr i32 %v1_2d37 to i32*
  %v3_2d37 = load i32, i32* %v2_2d37, align 4
  store i32 %v3_2d37, i32* @eax, align 4
  %v1_2d3d = add i32 %v0_2d37, -12
  %v2_2d3d = inttoptr i32 %v1_2d3d to i32*
  %v3_2d3d = load i32, i32* %v2_2d3d, align 4
  %v1_2d40 = load i32, i32* inttoptr (i32 20 to i32*), align 4
  %v3_2d40 = icmp eq i32 %v1_2d40, %v3_2d3d
  br i1 %v3_2d40, label %bb, label %dec_label_pc_2d4d

bb:                                               ; preds = %dec_label_pc_2d11
  %v1_2d47 = call i32 @function_2fa5()
  store i32 %v1_2d47, i32* @eax, align 4
  br label %dec_label_pc_2d4d

dec_label_pc_2d4d:                                ; preds = %bb, %dec_label_pc_2d11
  %v0_2d4d = call i32 @function_2fa0()
  ret i32 %v0_2d4d

; uselistorder directives
  uselistorder i32 (i32*, i32)* @_ZN11json_spirit10Value_implINS_13Config_vectorISsEEEC1ERKSt6vectorINS_9Pair_implIS2_EESaIS6_EE, { 1, 0 }
}

define i32 @function_2d62() local_unnamed_addr {
dec_label_pc_2d62:
  %v0_2d62 = call i32 @function_2d66()
  ret i32 %v0_2d62
}

define i32 @function_2d64() local_unnamed_addr {
dec_label_pc_2d64:
  %eax.global-to-local = alloca i32, align 4
  %v0_2d64 = load i32, i32* %eax.global-to-local, align 4
  ret i32 %v0_2d64
}

define i32 @function_2d66() local_unnamed_addr {
dec_label_pc_2d66:
  %v0_2d66 = load i32, i32* @ebp, align 4
  %v1_2d66 = add i32 %v0_2d66, -428
  ret i32 %v1_2d66
}

define i32 @function_2d86() local_unnamed_addr {
dec_label_pc_2d86:
  %v0_2d88 = load i32, i32* @ebp, align 4
  %v1_2d88 = add i32 %v0_2d88, -320
  %v1_2d91 = call i32 @_ZN11json_spirit9Pair_implINS_13Config_vectorISsEEED1Ev(i32 %v1_2d88)
  %v0_2d96 = call i32 @function_2d9a()
  ret i32 %v0_2d96
}

define i32 @function_2d98() local_unnamed_addr {
dec_label_pc_2d98:
  %eax.global-to-local = alloca i32, align 4
  %v0_2d98 = load i32, i32* %eax.global-to-local, align 4
  ret i32 %v0_2d98
}

define i32 @function_2d9a() local_unnamed_addr {
dec_label_pc_2d9a:
  %v0_2d9a = load i32, i32* @ebp, align 4
  %v1_2d9a = add i32 %v0_2d9a, -464
  ret i32 %v1_2d9a
}

define i32 @function_2da8() local_unnamed_addr {
dec_label_pc_2da8:
  %v0_2da8 = call i32 @function_2dac()
  ret i32 %v0_2da8
}

define i32 @function_2daa() local_unnamed_addr {
dec_label_pc_2daa:
  %eax.global-to-local = alloca i32, align 4
  %v0_2daa = load i32, i32* %eax.global-to-local, align 4
  ret i32 %v0_2daa
}

define i32 @function_2dac() local_unnamed_addr {
dec_label_pc_2dac:
  %v0_2dac = load i32, i32* @ebp, align 4
  %v1_2dac = add i32 %v0_2dac, -427
  ret i32 %v1_2dac
}

define i32 @function_2db9() local_unnamed_addr {
dec_label_pc_2db9:
  %eax.global-to-local = alloca i32, align 4
  %ecx.global-to-local = alloca i32, align 4
  %tmp91 = call i32 @__decompiler_undefined_function_0()
  %v1_2db9 = add i32 %tmp91, -38779
  %v2_2db9 = inttoptr i32 %v1_2db9 to i32*
  %v3_2db9 = load i32, i32* %v2_2db9, align 4
  %v4_2db9 = add i32 %v3_2db9, -1
  store i32 %v4_2db9, i32* %v2_2db9, align 4
  %v0_2dbf = load i32, i32* %ecx.global-to-local, align 4
  %v1_2dbf = add i32 %v0_2dbf, 820519940
  %v2_2dbf = inttoptr i32 %v1_2dbf to i32*
  %v3_2dbf = load i32, i32* %v2_2dbf, align 4
  %v4_2dbf = add i32 %v3_2dbf, -1
  store i32 %v4_2dbf, i32* %v2_2dbf, align 4
  %v0_2dc5 = load i32, i32* %eax.global-to-local, align 4
  %v12_2dc5 = and i32 %v0_2dc5, -65281
  store i32 %v12_2dc5, i32* %eax.global-to-local, align 4
  %v0_2dc7 = load i32, i32* %ecx.global-to-local, align 4
  %v3_2dc7 = udiv i32 %v0_2dc7, 256
  %v5_2dc7 = add i32 %v3_2dc7, %v0_2dc7
  %v20_2dc7 = and i32 %v5_2dc7, 255
  %v22_2dc7 = and i32 %v0_2dc7, -256
  %v23_2dc7 = or i32 %v20_2dc7, %v22_2dc7
  store i32 %v23_2dc7, i32* %ecx.global-to-local, align 4
  ret i32 %v12_2dc5

; uselistorder directives
  uselistorder i32 %v0_2dc7, { 2, 0, 1 }
}

define i32 @function_2dcf() local_unnamed_addr {
dec_label_pc_2dcf:
  %v0_2dcf = load i32, i32* @ebp, align 4
  %v1_2dcf = add i32 %v0_2dcf, -296
  %v1_2dd8 = call i32 @_ZN11json_spirit9Pair_implINS_13Config_vectorISsEEED1Ev(i32 %v1_2dcf)
  %v0_2ddd = call i32 @function_2de1()
  ret i32 %v0_2ddd
}

define i32 @function_2ddf() local_unnamed_addr {
dec_label_pc_2ddf:
  %eax.global-to-local = alloca i32, align 4
  %v0_2ddf = load i32, i32* %eax.global-to-local, align 4
  ret i32 %v0_2ddf
}

define i32 @function_2de1() local_unnamed_addr {
dec_label_pc_2de1:
  %v0_2de1 = load i32, i32* @ebp, align 4
  %v1_2de1 = add i32 %v0_2de1, -456
  ret i32 %v1_2de1
}

define i32 @function_2def() local_unnamed_addr {
dec_label_pc_2def:
  %v0_2def = call i32 @function_2df3()
  ret i32 %v0_2def
}

define i32 @function_2df1() local_unnamed_addr {
dec_label_pc_2df1:
  %eax.global-to-local = alloca i32, align 4
  %v0_2df1 = load i32, i32* %eax.global-to-local, align 4
  ret i32 %v0_2df1
}

define i32 @function_2df3() local_unnamed_addr {
dec_label_pc_2df3:
  %v0_2df3 = load i32, i32* @ebp, align 4
  %v1_2df3 = add i32 %v0_2df3, -426
  ret i32 %v1_2df3
}

define i32 @function_2e01() local_unnamed_addr {
dec_label_pc_2e01:
  %v0_2e01 = load i32, i32* @ebp, align 4
  %v1_2e01 = add i32 %v0_2e01, -132
  %v1_2e0a = call i32 @_ZN11json_spirit10Value_implINS_13Config_vectorISsEEED1Ev(i32 %v1_2e01)
  %v0_2e0f = call i32 @function_2e13()
  ret i32 %v0_2e0f
}

define i32 @function_2e11() local_unnamed_addr {
dec_label_pc_2e11:
  %eax.global-to-local = alloca i32, align 4
  %v0_2e11 = load i32, i32* %eax.global-to-local, align 4
  ret i32 %v0_2e11
}

define i32 @function_2e13() local_unnamed_addr {
dec_label_pc_2e13:
  %v0_2e13 = load i32, i32* @ebp, align 4
  %v1_2e13 = add i32 %v0_2e13, -460
  ret i32 %v1_2e13
}

define i32 @function_2e21() local_unnamed_addr {
dec_label_pc_2e21:
  %v0_2e21 = call i32 @function_2f88()
  ret i32 %v0_2e21
}

define i32 @function_2e26() local_unnamed_addr {
dec_label_pc_2e26:
  %v0_2e28 = load i32, i32* @ebp, align 4
  %v1_2e28 = add i32 %v0_2e28, -272
  %v1_2e31 = call i32 @_ZN11json_spirit9Pair_implINS_13Config_vectorISsEEED1Ev(i32 %v1_2e28)
  %v0_2e36 = call i32 @function_2e3a()
  ret i32 %v0_2e36
}

define i32 @function_2e38() local_unnamed_addr {
dec_label_pc_2e38:
  %eax.global-to-local = alloca i32, align 4
  %v0_2e38 = load i32, i32* %eax.global-to-local, align 4
  ret i32 %v0_2e38
}

define i32 @function_2e3a() local_unnamed_addr {
dec_label_pc_2e3a:
  %v0_2e3a = load i32, i32* @ebp, align 4
  %v1_2e3a = add i32 %v0_2e3a, -452
  ret i32 %v1_2e3a
}

define i32 @function_2e48() local_unnamed_addr {
dec_label_pc_2e48:
  %v0_2e48 = call i32 @function_2e4c()
  ret i32 %v0_2e48
}

define i32 @function_2e4a() local_unnamed_addr {
dec_label_pc_2e4a:
  %eax.global-to-local = alloca i32, align 4
  %v0_2e4a = load i32, i32* %eax.global-to-local, align 4
  ret i32 %v0_2e4a
}

define i32 @function_2e4c() local_unnamed_addr {
dec_label_pc_2e4c:
  %v0_2e4c = load i32, i32* @ebp, align 4
  %v1_2e4c = add i32 %v0_2e4c, -425
  ret i32 %v1_2e4c
}

define i32 @function_2e5a() local_unnamed_addr {
dec_label_pc_2e5a:
  %v0_2e5a = load i32, i32* @ebp, align 4
  %v1_2e5a = add i32 %v0_2e5a, -112
  %v1_2e60 = call i32 @_ZN11json_spirit10Value_implINS_13Config_vectorISsEEED1Ev(i32 %v1_2e5a)
  %v0_2e65 = call i32 @function_2f88()
  ret i32 %v0_2e65
}

define i32 @function_2e6a() local_unnamed_addr {
dec_label_pc_2e6a:
  %v0_2e6c = load i32, i32* @ebp, align 4
  %v1_2e6c = add i32 %v0_2e6c, -248
  %v1_2e75 = call i32 @_ZN11json_spirit9Pair_implINS_13Config_vectorISsEEED1Ev(i32 %v1_2e6c)
  %v0_2e7a = call i32 @function_2e7e()
  ret i32 %v0_2e7a
}

define i32 @function_2e7c() local_unnamed_addr {
dec_label_pc_2e7c:
  %eax.global-to-local = alloca i32, align 4
  %v0_2e7c = load i32, i32* %eax.global-to-local, align 4
  ret i32 %v0_2e7c
}

define i32 @function_2e7e() local_unnamed_addr {
dec_label_pc_2e7e:
  %v0_2e7e = load i32, i32* @ebp, align 4
  %v1_2e7e = add i32 %v0_2e7e, -448
  ret i32 %v1_2e7e
}

define i32 @function_2e8c() local_unnamed_addr {
dec_label_pc_2e8c:
  %v0_2e8c = call i32 @function_2e90()
  ret i32 %v0_2e8c
}

define i32 @function_2e8e() local_unnamed_addr {
dec_label_pc_2e8e:
  %eax.global-to-local = alloca i32, align 4
  %v0_2e8e = load i32, i32* %eax.global-to-local, align 4
  ret i32 %v0_2e8e
}

define i32 @function_2e90() local_unnamed_addr {
dec_label_pc_2e90:
  %v0_2e90 = load i32, i32* @ebp, align 4
  %v1_2e90 = add i32 %v0_2e90, -424
  ret i32 %v1_2e90
}

define i32 @function_2e9d() local_unnamed_addr {
dec_label_pc_2e9d:
  %eax.global-to-local = alloca i32, align 4
  %ecx.global-to-local = alloca i32, align 4
  %edi.global-to-local = alloca i32, align 4
  %st0.global-to-local = alloca x86_fp80, align 4
  %v0_2e9d = load i32, i32* @ebp, align 4
  %v1_2e9d = add i32 %v0_2e9d, 76129349
  %v2_2e9d = inttoptr i32 %v1_2e9d to i32*
  %v3_2e9d = load i32, i32* %v2_2e9d, align 4
  %v4_2e9d = add i32 %v3_2e9d, -1
  store i32 %v4_2e9d, i32* %v2_2e9d, align 4
  %v0_2ea3 = load i32, i32* %eax.global-to-local, align 4
  %v0_2ea5 = load i32, i32* %edi.global-to-local, align 4
  %v1_2ea5 = add i32 %v0_2ea5, -1
  store i32 %v1_2ea5, i32* %edi.global-to-local, align 4
  %v11_2ea6 = and i32 %v0_2ea3, -65536
  store i32 %v11_2ea6, i32* %eax.global-to-local, align 4
  %v0_2ea8 = load i32, i32* %ecx.global-to-local, align 4
  %v3_2ea8 = udiv i32 %v0_2ea8, 256
  %v5_2ea8 = add i32 %v3_2ea8, %v0_2ea8
  %v20_2ea8 = and i32 %v5_2ea8, 255
  %v22_2ea8 = and i32 %v0_2ea8, -256
  %v23_2ea8 = or i32 %v20_2ea8, %v22_2ea8
  store i32 %v23_2ea8, i32* %ecx.global-to-local, align 4
  %v2_2eaa = inttoptr i32 %v11_2ea6 to i32*
  %v3_2eaa = load i32, i32* %v2_2eaa, align 65536
  %v4_2eaa = sitofp i32 %v3_2eaa to x86_fp80
  %v5_2eaa = load x86_fp80, x86_fp80* %st0.global-to-local, align 4
  %v6_2eaa = fadd x86_fp80 %v5_2eaa, %v4_2eaa
  store x86_fp80 %v6_2eaa, x86_fp80* %st0.global-to-local, align 4
  %v0_2eb0 = load i32, i32* @ebp, align 4
  %v1_2eb0 = add i32 %v0_2eb0, -224
  store i32 %v1_2eb0, i32* %eax.global-to-local, align 4
  %v1_2eb9 = call i32 @_ZN11json_spirit9Pair_implINS_13Config_vectorISsEEED1Ev(i32 %v1_2eb0)
  store i32 %v1_2eb9, i32* %eax.global-to-local, align 4
  %v0_2ebe = call i32 @function_2ec2()
  store i32 %v0_2ebe, i32* %eax.global-to-local, align 4
  ret i32 %v0_2ebe

; uselistorder directives
  uselistorder i32 %v0_2ea8, { 2, 0, 1 }
}

define i32 @function_2ec0() local_unnamed_addr {
dec_label_pc_2ec0:
  %eax.global-to-local = alloca i32, align 4
  %v0_2ec0 = load i32, i32* %eax.global-to-local, align 4
  ret i32 %v0_2ec0
}

define i32 @function_2ec2() local_unnamed_addr {
dec_label_pc_2ec2:
  %v0_2ec2 = load i32, i32* @ebp, align 4
  %v1_2ec2 = add i32 %v0_2ec2, -444
  ret i32 %v1_2ec2
}

define i32 @function_2ed0() local_unnamed_addr {
dec_label_pc_2ed0:
  %v0_2ed0 = call i32 @function_2ed4()
  ret i32 %v0_2ed0
}

define i32 @function_2ed2() local_unnamed_addr {
dec_label_pc_2ed2:
  %eax.global-to-local = alloca i32, align 4
  %v0_2ed2 = load i32, i32* %eax.global-to-local, align 4
  ret i32 %v0_2ed2
}

define i32 @function_2ed4() local_unnamed_addr {
dec_label_pc_2ed4:
  %v0_2ed4 = load i32, i32* @ebp, align 4
  %v1_2ed4 = add i32 %v0_2ed4, -423
  ret i32 %v1_2ed4
}

define i32 @function_2ee1() local_unnamed_addr {
dec_label_pc_2ee1:
  %eax.global-to-local = alloca i32, align 4
  %edx.global-to-local = alloca i32, align 4
  %v0_2ee1 = load i32, i32* @ebp, align 4
  %v1_2ee1 = add i32 %v0_2ee1, 76134469
  %v2_2ee1 = inttoptr i32 %v1_2ee1 to i32*
  %v3_2ee1 = load i32, i32* %v2_2ee1, align 4
  %v4_2ee1 = add i32 %v3_2ee1, -1
  store i32 %v4_2ee1, i32* %v2_2ee1, align 4
  %v0_2ee7 = load i32, i32* %eax.global-to-local, align 4
  %v1_2ee7 = trunc i32 %v0_2ee7 to i8
  %v2_2ee7 = and i8 %v1_2ee7, -24
  %v8_2ee7 = zext i8 %v2_2ee7 to i32
  %v10_2ee7 = and i32 %v0_2ee7, -256
  %v11_2ee7 = or i32 %v8_2ee7, %v10_2ee7
  store i32 %v11_2ee7, i32* %eax.global-to-local, align 4
  %v0_2ee9 = load i32, i32* %edx.global-to-local, align 8
  %v1_2ee9 = load i32, i32* @esp, align 4
  %v2_2ee9 = or i32 %v1_2ee9, %v0_2ee9
  store i32 %v2_2ee9, i32* %edx.global-to-local, align 8
  %v1_2eeb = inttoptr i32 %v11_2ee7 to i8*
  %v2_2eeb = load i8, i8* %v1_2eeb, align 8
  %v5_2eeb = add i8 %v2_2eeb, %v2_2ee7
  store i8 %v5_2eeb, i8* %v1_2eeb, align 8
  %v0_2eed = call i32 @function_2f88()
  store i32 %v0_2eed, i32* %eax.global-to-local, align 4
  ret i32 %v0_2eed
}

define i32 @function_2ef2() local_unnamed_addr {
dec_label_pc_2ef2:
  %v0_2ef4 = load i32, i32* @ebp, align 4
  %v1_2ef4 = add i32 %v0_2ef4, -200
  %v1_2efd = call i32 @_ZN11json_spirit9Pair_implINS_13Config_vectorISsEEED1Ev(i32 %v1_2ef4)
  %v0_2f02 = call i32 @function_2f06()
  ret i32 %v0_2f02
}

define i32 @function_2f04() local_unnamed_addr {
dec_label_pc_2f04:
  %eax.global-to-local = alloca i32, align 4
  %v0_2f04 = load i32, i32* %eax.global-to-local, align 4
  ret i32 %v0_2f04
}

define i32 @function_2f06() local_unnamed_addr {
dec_label_pc_2f06:
  %v0_2f06 = load i32, i32* @ebp, align 4
  %v1_2f06 = add i32 %v0_2f06, -436
  ret i32 %v1_2f06
}

define i32 @function_2f14() local_unnamed_addr {
dec_label_pc_2f14:
  %v0_2f14 = call i32 @function_2f18()
  ret i32 %v0_2f14
}

define i32 @function_2f16() local_unnamed_addr {
dec_label_pc_2f16:
  %eax.global-to-local = alloca i32, align 4
  %v0_2f16 = load i32, i32* %eax.global-to-local, align 4
  ret i32 %v0_2f16
}

define i32 @function_2f18() local_unnamed_addr {
dec_label_pc_2f18:
  %v0_2f18 = load i32, i32* @ebp, align 4
  %v1_2f18 = add i32 %v0_2f18, -422
  ret i32 %v1_2f18
}

define i32 @function_2f26() local_unnamed_addr {
dec_label_pc_2f26:
  %v0_2f26 = load i32, i32* @ebp, align 4
  %v1_2f26 = add i32 %v0_2f26, -52
  %v1_2f2c = call i32 @_ZN11json_spirit10Value_implINS_13Config_vectorISsEEED1Ev(i32 %v1_2f26)
  %v0_2f31 = call i32 @function_2f35()
  ret i32 %v0_2f31
}

define i32 @function_2f33() local_unnamed_addr {
dec_label_pc_2f33:
  %eax.global-to-local = alloca i32, align 4
  %v0_2f33 = load i32, i32* %eax.global-to-local, align 4
  ret i32 %v0_2f33
}

define i32 @function_2f35() local_unnamed_addr {
dec_label_pc_2f35:
  %v0_2f35 = load i32, i32* @ebp, align 4
  %v1_2f35 = add i32 %v0_2f35, -440
  ret i32 %v1_2f35
}

define i32 @function_2f43() local_unnamed_addr {
dec_label_pc_2f43:
  %v0_2f43 = call i32 @function_2f88()
  ret i32 %v0_2f43
}

define i32 @function_2f45() local_unnamed_addr {
dec_label_pc_2f45:
  %v0_2f47 = load i32, i32* @ebp, align 4
  %v1_2f47 = add i32 %v0_2f47, -176
  %v1_2f50 = call i32 @_ZN11json_spirit9Pair_implINS_13Config_vectorISsEEED1Ev(i32 %v1_2f47)
  %v0_2f55 = call i32 @function_2f59()
  ret i32 %v0_2f55
}

define i32 @function_2f57() local_unnamed_addr {
dec_label_pc_2f57:
  %eax.global-to-local = alloca i32, align 4
  %v0_2f57 = load i32, i32* %eax.global-to-local, align 4
  ret i32 %v0_2f57
}

define i32 @function_2f59() local_unnamed_addr {
dec_label_pc_2f59:
  %v0_2f59 = load i32, i32* @ebp, align 4
  %v1_2f59 = add i32 %v0_2f59, -432
  ret i32 %v1_2f59
}

define i32 @function_2f67() local_unnamed_addr {
dec_label_pc_2f67:
  %v0_2f67 = call i32 @function_2f6b()
  ret i32 %v0_2f67
}

define i32 @function_2f69() local_unnamed_addr {
dec_label_pc_2f69:
  %eax.global-to-local = alloca i32, align 4
  %v0_2f69 = load i32, i32* %eax.global-to-local, align 4
  ret i32 %v0_2f69
}

define i32 @function_2f6b() local_unnamed_addr {
dec_label_pc_2f6b:
  %v0_2f6b = load i32, i32* @ebp, align 4
  %v1_2f6b = add i32 %v0_2f6b, -421
  ret i32 %v1_2f6b
}

define i32 @function_2f78() local_unnamed_addr {
dec_label_pc_2f78:
  %eax.global-to-local = alloca i32, align 4
  %v0_2f78 = load i32, i32* @ebp, align 4
  %v1_2f78 = add i32 %v0_2f78, 76144709
  %v2_2f78 = inttoptr i32 %v1_2f78 to i32*
  %v3_2f78 = load i32, i32* %v2_2f78, align 4
  %v4_2f78 = add i32 %v3_2f78, -1
  store i32 %v4_2f78, i32* %v2_2f78, align 4
  %v0_2f7e = load i32, i32* %eax.global-to-local, align 4
  %v1_2f7e = trunc i32 %v0_2f7e to i8
  %v2_2f7e = and i8 %v1_2f7e, -24
  %v8_2f7e = zext i8 %v2_2f7e to i32
  %v10_2f7e = and i32 %v0_2f7e, -256
  %v11_2f7e = or i32 %v8_2f7e, %v10_2f7e
  store i32 %v11_2f7e, i32* %eax.global-to-local, align 4
  %v1_2f82 = inttoptr i32 %v11_2f7e to i8*
  %v2_2f82 = load i8, i8* %v1_2f82, align 8
  %v5_2f82 = add i8 %v2_2f82, %v2_2f7e
  store i8 %v5_2f82, i8* %v1_2f82, align 8
  %v0_2f84 = call i32 @function_2f88()
  store i32 %v0_2f84, i32* %eax.global-to-local, align 4
  ret i32 %v0_2f84

; uselistorder directives
  uselistorder i32 ()* @function_2f88, { 4, 3, 2, 1, 0 }
}

define i32 @function_2f87() local_unnamed_addr {
dec_label_pc_2f87:
  %eax.global-to-local = alloca i32, align 4
  %v0_2f87 = load i32, i32* %eax.global-to-local, align 4
  ret i32 %v0_2f87
}

define i32 @function_2f88() local_unnamed_addr {
dec_label_pc_2f88:
  %v0_2f88 = load i32, i32* @ebp, align 4
  %v1_2f88 = add i32 %v0_2f88, -480
  %v1_2f91 = inttoptr i32 %v1_2f88 to i32*
  %v2_2f91 = call i32 @_ZNSt6vectorIN11json_spirit9Pair_implINS0_13Config_vectorISsEEEESaIS4_EED1Ev(i32* %v1_2f91)
  %v0_2f96 = load i32, i32* @ebx, align 4
  ret i32 %v0_2f96

; uselistorder directives
  uselistorder i32 -480, { 0, 2, 3, 1 }
}

define i32 @function_2fa0() local_unnamed_addr {
dec_label_pc_2fa0:
  %tmp = load i32, i32* @eax, align 4
  ret i32 %tmp
}

define i32 @function_2fa5() local_unnamed_addr {
dec_label_pc_2fa5:
  %v0_2fab = load i32, i32* @eax, align 4
  ret i32 %v0_2fab
}

define %"Value_impl<json_spirit::Config_vector<std::basic_string<char,std::char_traits<char>,std::allocator<char>>>>.11" @_Z8gettxoutRKSt6vectorIN11json_spirit10Value_implINS0_13Config_vectorISsEEEESaIS4_EEb(%"vector<json_spirit::Value_impl<json_spirit::Config_vector<std::basic_string<char,std::char_traits<char>,std::allocator<char>>>>,std::allocator<json_spirit::Value_impl<json_spirit::Config_vector<std::basic_string<char,std::char_traits<char>,std::allocator<char>>>>>>" %params, i1 %fHelp) local_unnamed_addr {
dec_label_pc_2fae:
  %tmp110 = call i8 @__decompiler_undefined_function_4()
  %v10_2fdf = icmp eq i8 %tmp110, 0
  %v1_2fe6 = icmp eq i1 %v10_2fdf, false
  br i1 %v1_2fe6, label %dec_label_pc_301a.thread, label %dec_label_pc_2fe8

dec_label_pc_2fe8:                                ; preds = %dec_label_pc_2fae
  %v4_2fc5 = sext i1 %fHelp to i32
  %v2_2ff1 = inttoptr i32 %v4_2fc5 to i32*
  %v3_2ff1 = call i32 @_ZNKSt6vectorIN11json_spirit10Value_implINS0_13Config_vectorISsEEEESaIS4_EE4sizeEv(i32* %v2_2ff1)
  %tmp121 = or i32 %v3_2ff1, 1
  %tmp122 = icmp eq i32 %tmp121, 1
  br i1 %tmp122, label %dec_label_pc_301a.thread, label %dec_label_pc_301a

dec_label_pc_301a.thread:                         ; preds = %dec_label_pc_2fe8, %dec_label_pc_2fae
  br label %dec_label_pc_3022

dec_label_pc_301a:                                ; preds = %dec_label_pc_2fe8
  %v3_3004 = call i32 @_ZNKSt6vectorIN11json_spirit10Value_implINS0_13Config_vectorISsEEEESaIS4_EE4sizeEv(i32* %v2_2ff1)
  %tmp123 = icmp ugt i32 %v3_3004, 3
  %v5_301a = icmp eq i1 %tmp123, false
  br i1 %v5_301a, label %bb, label %dec_label_pc_3022

bb:                                               ; preds = %dec_label_pc_301a
  %v1_301c = call i32 @function_30a5()
  br label %dec_label_pc_3022

dec_label_pc_3022:                                ; preds = %dec_label_pc_301a.thread, %bb, %dec_label_pc_301a
  %v3_3022 = phi i32 [ %v1_301c, %bb ], [ 1, %dec_label_pc_301a ], [ 1, %dec_label_pc_301a.thread ]
  %v4_3022 = insertvalue %"Value_impl<json_spirit::Config_vector<std::basic_string<char,std::char_traits<char>,std::allocator<char>>>>.11" undef, i32 %v3_3022, 0
  ret %"Value_impl<json_spirit::Config_vector<std::basic_string<char,std::char_traits<char>,std::allocator<char>>>>.11" %v4_3022

; uselistorder directives
  uselistorder label %dec_label_pc_3022, { 1, 2, 0 }
}

define i32 @function_302f() local_unnamed_addr {
dec_label_pc_302f:
  %eax.global-to-local = alloca i32, align 4
  %v0_302f = load i32, i32* %eax.global-to-local, align 4
  ret i32 %v0_302f
}

define i32 @function_30a5() local_unnamed_addr {
dec_label_pc_30a5:
  %v0_30a5 = load i32, i32* @ebp, align 4
  %v1_30a5 = add i32 %v0_30a5, -484
  %v1_30ae = call i32 @_ZNSt6vectorIN11json_spirit9Pair_implINS0_13Config_vectorISsEEEESaIS4_EEC1Ev(i32 %v1_30a5)
  %v0_30bb = load i32, i32* @ebp, align 4
  %v1_30bb = add i32 %v0_30bb, -528
  %v2_30bb = inttoptr i32 %v1_30bb to i32*
  %v3_30bb = load i32, i32* %v2_30bb, align 4
  %v2_30c4 = inttoptr i32 %v3_30bb to i32*
  %v3_30c4 = call i32 @_ZNKSt6vectorIN11json_spirit10Value_implINS0_13Config_vectorISsEEEESaIS4_EEixEj(i32* %v2_30c4, i32 0)
  %v1_30cc = call i32 @_ZNK11json_spirit10Value_implINS_13Config_vectorISsEEE7get_strEv(i32 %v3_30c4)
  %v0_30d5 = load i32, i32* @ebp, align 4
  %v1_30d5 = add i32 %v0_30d5, -436
  ret i32 %v1_30d5

; uselistorder directives
  uselistorder i32 (i32)* @_ZNK11json_spirit10Value_implINS_13Config_vectorISsEEE7get_strEv, { 1, 0 }
  uselistorder i32 (i32)* @_ZNSt6vectorIN11json_spirit9Pair_implINS0_13Config_vectorISsEEEESaIS4_EEC1Ev, { 2, 1, 0 }
}

define i32 @function_31f3() local_unnamed_addr {
dec_label_pc_31f3:
  %ebx.global-to-local = alloca i32, align 4
  %v0_31f3 = load i32, i32* %ebx.global-to-local, align 4
  %v1_31f3 = add i32 %v0_31f3, -1065090576
  %v2_31f3 = inttoptr i32 %v1_31f3 to i32*
  %v3_31f3 = load i32, i32* %v2_31f3, align 4
  %v4_31f3 = add i32 %v3_31f3, 1
  %v12_31f3 = icmp eq i32 %v4_31f3, 0
  store i32 %v4_31f3, i32* %v2_31f3, align 4
  %v0_3218 = load i32, i32* @ebp, align 4
  br i1 %v12_31f3, label %dec_label_pc_3218, label %dec_label_pc_31fb

dec_label_pc_31fb:                                ; preds = %dec_label_pc_31f3
  %v1_3203 = add i32 %v0_3218, -524
  %v2_3203 = inttoptr i32 %v1_3203 to i32*
  %v3_3203 = load i32, i32* %v2_3203, align 4
  %v2_320c = inttoptr i32 %v3_3203 to i32*
  %v3_320c = call i32 @_ZN11json_spirit10Value_implINS_13Config_vectorISsEEEC1ERKS3_(i32* %v2_320c, i32 ptrtoint (i32* @global_var_2b914.1801 to i32))
  store i32 0, i32* @ebx, align 4
  %v0_3216 = call i32 @function_323d()
  ret i32 %v0_3216

dec_label_pc_3218:                                ; preds = %dec_label_pc_31f3
  %v1_3222 = add i32 %v0_3218, -384
  ret i32 %v1_3222

; uselistorder directives
  uselistorder i32 %v0_3218, { 1, 0 }
}

define i32 @function_323d() local_unnamed_addr {
dec_label_pc_323d:
  %v0_323d = load i32, i32* @ebp, align 4
  %v1_323d = add i32 %v0_323d, -472
  %v1_3246 = call i32 @_ZN17CCoinsViewMemPoolD1Ev(i32 %v1_323d)
  %v0_324b = load i32, i32* @ebx, align 4
  %v10_324b = icmp eq i32 %v0_324b, 1
  %. = zext i1 %v10_324b to i32
  store i32 %., i32* @ebx, align 4
  %v0_325c = load i32, i32* @ebp, align 4
  %v1_325c = add i32 %v0_325c, -448
  %v1_3265 = call i32 @_ZN10CMutexLockI14AnnotatedMixinIN5boost15recursive_mutexEEED1Ev(i32 %v1_325c)
  %v0_326f = call i32 @function_3923()
  ret i32 %v0_326f
}

define i32 @function_3475() local_unnamed_addr {
dec_label_pc_3475:
  %eax.global-to-local = alloca i32, align 4
  %ecx.global-to-local = alloca i32, align 4
  %tmp91 = call i32 @__decompiler_undefined_function_0()
  %v1_3475 = add i32 %tmp91, -99963
  %v2_3475 = inttoptr i32 %v1_3475 to i32*
  %v3_3475 = load i32, i32* %v2_3475, align 4
  %v4_3475 = add i32 %v3_3475, -1
  store i32 %v4_3475, i32* %v2_3475, align 4
  %v0_347b = load i32, i32* %ecx.global-to-local, align 4
  %v1_347b = add i32 %v0_347b, -955767740
  %v2_347b = inttoptr i32 %v1_347b to i32*
  %v3_347b = load i32, i32* %v2_347b, align 4
  %v4_347b = add i32 %v3_347b, -1
  store i32 %v4_347b, i32* %v2_347b, align 4
  %v0_3482 = load i32, i32* %eax.global-to-local, align 4
  %v11_3482 = and i32 %v0_3482, -252
  store i32 %v11_3482, i32* @eax, align 4
  %v0_3484 = call i32 @function_34e1()
  store i32 %v0_3484, i32* %eax.global-to-local, align 4
  ret i32 %v0_3484
}

define i32 @function_34e1() local_unnamed_addr {
dec_label_pc_34e1:
  %tmp = load i32, i32* @eax, align 4
  ret i32 %tmp
}

define i32 @function_34fa() local_unnamed_addr {
dec_label_pc_34fa:
  %v0_34fa = load i32, i32* @ebp, align 4
  %v1_34fa = add i32 %v0_34fa, -132
  %v1_3503 = call i32 @_ZN11json_spirit10Value_implINS_13Config_vectorISsEEED1Ev(i32 %v1_34fa)
  %v0_3508 = call i32 @function_35de()
  ret i32 %v0_3508
}

define i32 @function_3551() local_unnamed_addr {
dec_label_pc_3551:
  %eax.global-to-local = alloca i32, align 4
  %ecx.global-to-local = alloca i32, align 4
  %tmp91 = call i32 @__decompiler_undefined_function_0()
  %v1_3551 = add i32 %tmp91, -99707
  %v2_3551 = inttoptr i32 %v1_3551 to i32*
  %v3_3551 = load i32, i32* %v2_3551, align 4
  %v4_3551 = add i32 %v3_3551, -1
  store i32 %v4_3551, i32* %v2_3551, align 4
  %v0_3557 = load i32, i32* %ecx.global-to-local, align 4
  %v1_3557 = add i32 %v0_3557, -955767740
  %v2_3557 = inttoptr i32 %v1_3557 to i32*
  %v3_3557 = load i32, i32* %v2_3557, align 4
  %v4_3557 = add i32 %v3_3557, -1
  store i32 %v4_3557, i32* %v2_3557, align 4
  %v0_355e = load i32, i32* %eax.global-to-local, align 4
  %v11_355e = and i32 %v0_355e, -252
  store i32 %v11_355e, i32* @eax, align 4
  %v0_3560 = call i32 @function_35bd()
  store i32 %v0_3560, i32* %eax.global-to-local, align 4
  ret i32 %v0_3560
}

define i32 @function_35a3() local_unnamed_addr {
dec_label_pc_35a3:
  %eax.global-to-local = alloca i32, align 4
  %v0_35a3 = load i32, i32* %eax.global-to-local, align 4
  %v11_35a3 = and i32 %v0_35a3, -24
  store i32 %v11_35a3, i32* %eax.global-to-local, align 4
  ret i32 %v11_35a3

; uselistorder directives
  uselistorder i32 %v11_35a3, { 1, 0 }
}

define i32 @function_35bd() local_unnamed_addr {
dec_label_pc_35bd:
  %v3_35bd = load i32, i32* @eax, align 4
  ret i32 %v3_35bd
}

define i32 @function_35de() local_unnamed_addr {
dec_label_pc_35de:
  %v0_35de = load i32, i32* @ebp, align 4
  %v1_35de = add i32 %v0_35de, -400
  %v2_35de = inttoptr i32 %v1_35de to i32*
  %v3_35de = load i32, i32* %v2_35de, align 4
  %v1_35ee = add i32 %v0_35de, -504
  %v2_35f4 = inttoptr i32 %v1_35ee to i32*
  %v3_35f4 = call i32 @_ZNSt6vectorI6CTxOutSaIS0_EEixEj(i32* %v2_35f4, i32 %v3_35de)
  %v1_35fc = inttoptr i32 %v3_35f4 to i32*
  %v2_35fc = load i32, i32* %v1_35fc, align 4
  ret i32 %v2_35fc
}

define i32 @function_36cb() local_unnamed_addr {
dec_label_pc_36cb:
  %eax.global-to-local = alloca i32, align 4
  %ebx.global-to-local = alloca i32, align 4
  %v0_36cb = load i32, i32* %ebx.global-to-local, align 4
  %v1_36cb = add i32 %v0_36cb, 76088512
  %v2_36cb = inttoptr i32 %v1_36cb to i32*
  %v3_36cb = load i32, i32* %v2_36cb, align 4
  %v4_36cb = add i32 %v3_36cb, 1
  store i32 %v4_36cb, i32* %v2_36cb, align 4
  %v0_36d1 = load i32, i32* %eax.global-to-local, align 4
  %v11_36d1 = and i32 %v0_36d1, -24
  store i32 %v11_36d1, i32* @eax, align 4
  %v0_36d3 = call i32 @function_36d7()
  store i32 %v0_36d3, i32* %eax.global-to-local, align 4
  ret i32 %v0_36d3
}

define i32 @function_36d5() local_unnamed_addr {
dec_label_pc_36d5:
  %eax.global-to-local = alloca i32, align 4
  %v2_36d5 = load i32, i32* %eax.global-to-local, align 4
  %v4_36d5 = mul i32 %v2_36d5, 2
  %v21_36d5 = inttoptr i32 %v2_36d5 to i32*
  store i32 %v4_36d5, i32* %v21_36d5, align 4
  %v22_36d5 = load i32, i32* %eax.global-to-local, align 4
  ret i32 %v22_36d5

; uselistorder directives
  uselistorder i32 %v2_36d5, { 1, 0 }
}

define i32 @function_36d7() local_unnamed_addr {
dec_label_pc_36d7:
  %v0_36da = load i32, i32* @ebp, align 4
  %v1_36da = add i32 %v0_36da, -460
  ret i32 %v1_36da
}

define i32 @function_3765(i16 %arg1) local_unnamed_addr {
dec_label_pc_3765:
  %eax.global-to-local = alloca i32, align 4
  %ebp.global-to-local = alloca i32, align 4
  %ecx.global-to-local = alloca i32, align 4
  %v0_3765 = load i32, i32* %ebp.global-to-local, align 4
  %v1_3765 = add i32 %v0_3765, -57211
  %v2_3765 = inttoptr i32 %v1_3765 to i8*
  %v3_3765 = load i8, i8* %v2_3765, align 1
  %v4_3765 = load i32, i32* %ecx.global-to-local, align 4
  %v5_3765 = trunc i32 %v4_3765 to i8
  %v6_3765 = add i8 %v5_3765, %v3_3765
  store i8 %v6_3765, i8* %v2_3765, align 1
  %v0_376b = load i32, i32* %ecx.global-to-local, align 4
  %v1_376b = add i32 %v0_376b, -1125637116
  %v2_376b = inttoptr i32 %v1_376b to i32*
  %v3_376b = load i32, i32* %v2_376b, align 4
  %v4_376b = add i32 %v3_376b, -1
  store i32 %v4_376b, i32* %v2_376b, align 4
  %v6_3771 = load i32, i32* %eax.global-to-local, align 4
  ret i32 %v6_3771
}

define i32 @function_378f(i32 %arg1, i16 %arg2) local_unnamed_addr {
dec_label_pc_378f:
  %eax.global-to-local = alloca i32, align 4
  %ebp.global-to-local = alloca i32, align 4
  %v0_378f = load i32, i32* %ebp.global-to-local, align 4
  %v1_378f = add i32 %v0_378f, 76134469
  %v2_378f = inttoptr i32 %v1_378f to i32*
  %v3_378f = load i32, i32* %v2_378f, align 4
  %v4_378f = add i32 %v3_378f, -1
  store i32 %v4_378f, i32* %v2_378f, align 4
  %v0_3795 = load i32, i32* %eax.global-to-local, align 4
  %v11_3795 = and i32 %v0_3795, -24
  store i32 %v11_3795, i32* %eax.global-to-local, align 4
  store i32 %arg1, i32* %ebp.global-to-local, align 4
  ret i32 %v11_3795

; uselistorder directives
  uselistorder i32 %v11_3795, { 1, 0 }
}

define i32 @function_3814(i16 %arg1) local_unnamed_addr {
dec_label_pc_3814:
  %eax.global-to-local = alloca i32, align 4
  %ebp.global-to-local = alloca i32, align 4
  %ecx.global-to-local = alloca i32, align 4
  %v0_3814 = load i32, i32* %ebp.global-to-local, align 4
  %v1_3814 = add i32 %v0_3814, -51067
  %v2_3814 = inttoptr i32 %v1_3814 to i8*
  %v3_3814 = load i8, i8* %v2_3814, align 1
  %v4_3814 = load i32, i32* %ecx.global-to-local, align 4
  %v5_3814 = trunc i32 %v4_3814 to i8
  %v6_3814 = add i8 %v5_3814, %v3_3814
  store i8 %v6_3814, i8* %v2_3814, align 1
  %v0_381a = load i32, i32* %ecx.global-to-local, align 4
  %v1_381a = add i32 %v0_381a, 233317380
  %v2_381a = inttoptr i32 %v1_381a to i32*
  %v3_381a = load i32, i32* %v2_381a, align 4
  %v4_381a = add i32 %v3_381a, -1
  store i32 %v4_381a, i32* %v2_381a, align 4
  %v6_3820 = load i32, i32* %eax.global-to-local, align 4
  ret i32 %v6_3820
}

define i32 @function_383e(i16 %arg1) local_unnamed_addr {
dec_label_pc_383e:
  %df.global-to-local = alloca i1, align 1
  %eax.global-to-local = alloca i32, align 4
  %ebp.global-to-local = alloca i32, align 4
  %edi.global-to-local = alloca i32, align 4
  %v0_383e = load i32, i32* %ebp.global-to-local, align 4
  %v1_383e = add i32 %v0_383e, 76139589
  %v2_383e = inttoptr i32 %v1_383e to i32*
  %v3_383e = load i32, i32* %v2_383e, align 4
  %v4_383e = add i32 %v3_383e, -1
  store i32 %v4_383e, i32* %v2_383e, align 4
  %v0_3844 = load i32, i32* %eax.global-to-local, align 4
  %v11_3844 = and i32 %v0_3844, -24
  store i32 %v11_3844, i32* %eax.global-to-local, align 4
  %v20_3846 = load i32, i32* %edi.global-to-local, align 4
  %v21_3846 = load i1, i1* %df.global-to-local, align 1
  %v22_3846 = select i1 %v21_3846, i32 -1, i32 1
  %v23_3846 = add i32 %v22_3846, %v20_3846
  store i32 %v23_3846, i32* %edi.global-to-local, align 4
  ret i32 %v11_3844

; uselistorder directives
  uselistorder i32 %v11_3844, { 1, 0 }
}

define i32 @function_38c7(i16 %arg1) local_unnamed_addr {
dec_label_pc_38c7:
  %eax.global-to-local = alloca i32, align 4
  %ebp.global-to-local = alloca i32, align 4
  %ecx.global-to-local = alloca i32, align 4
  %v0_38c7 = load i32, i32* %ebp.global-to-local, align 4
  %v1_38c7 = add i32 %v0_38c7, -44923
  %v2_38c7 = inttoptr i32 %v1_38c7 to i8*
  %v3_38c7 = load i8, i8* %v2_38c7, align 1
  %v4_38c7 = load i32, i32* %ecx.global-to-local, align 4
  %v5_38c7 = trunc i32 %v4_38c7 to i8
  %v6_38c7 = add i8 %v5_38c7, %v3_38c7
  store i8 %v6_38c7, i8* %v2_38c7, align 1
  %v0_38cd = load i32, i32* %ecx.global-to-local, align 4
  %v1_38cd = add i32 %v0_38cd, 1525163012
  %v2_38cd = inttoptr i32 %v1_38cd to i32*
  %v3_38cd = load i32, i32* %v2_38cd, align 4
  %v4_38cd = add i32 %v3_38cd, -1
  store i32 %v4_38cd, i32* %v2_38cd, align 4
  %v6_38d3 = load i32, i32* %eax.global-to-local, align 4
  ret i32 %v6_38d3
}

define i32 @function_391d() local_unnamed_addr {
dec_label_pc_391d:
  %eax.global-to-local = alloca i32, align 4
  %v0_391d = load i32, i32* %eax.global-to-local, align 4
  %v11_391d = and i32 %v0_391d, -24
  store i32 %v11_391d, i32* %eax.global-to-local, align 4
  ret i32 %v11_391d

; uselistorder directives
  uselistorder i32 %v11_391d, { 1, 0 }
}

define i32 @function_3923() local_unnamed_addr {
dec_label_pc_3923:
  %v0_3923 = load i32, i32* @ebp, align 4
  %v1_3923 = add i32 %v0_3923, -508
  %v1_392c = call i32 @_ZN6CCoinsD1Ev(i32 %v1_3923)
  %v0_3931 = load i32, i32* @ebp, align 4
  %v1_3931 = add i32 %v0_3931, -436
  ret i32 %v1_3931
}

define i32 @function_393e() local_unnamed_addr {
dec_label_pc_393e:
  %eax.global-to-local = alloca i32, align 4
  %ecx.global-to-local = alloca i32, align 4
  %v0_393e = load i32, i32* @ebp, align 4
  %v1_393e = add i32 %v0_393e, -123771
  %v2_393e = inttoptr i32 %v1_393e to i32*
  %v3_393e = load i32, i32* %v2_393e, align 4
  %v4_393e = add i32 %v3_393e, -1
  store i32 %v4_393e, i32* %v2_393e, align 4
  %v0_3944 = load i32, i32* %ecx.global-to-local, align 4
  %v1_3944 = add i32 %v0_3944, -1712839676
  %v2_3944 = inttoptr i32 %v1_3944 to i32*
  %v3_3944 = load i32, i32* %v2_3944, align 4
  %v4_3944 = add i32 %v3_3944, -1
  store i32 %v4_3944, i32* %v2_3944, align 4
  %v2_394b = load i8, i8* bitcast (i32* @eax to i8*), align 4
  %v3_394b = load i32, i32* %eax.global-to-local, align 4
  %v4_394b = trunc i32 %v3_394b to i8
  %v5_394b = add i8 %v4_394b, %v2_394b
  %v21_394b = inttoptr i32 %v3_394b to i8*
  store i8 %v5_394b, i8* %v21_394b, align 1
  %v0_394d = load i32, i32* @ebp, align 4
  %v1_394d = add i32 %v0_394d, -524
  %v2_394d = inttoptr i32 %v1_394d to i32*
  %v3_394d = load i32, i32* %v2_394d, align 4
  store i32 %v3_394d, i32* @eax, align 4
  %v1_3953 = add i32 %v0_394d, -12
  %v2_3953 = inttoptr i32 %v1_3953 to i32*
  %v3_3953 = load i32, i32* %v2_3953, align 4
  %v1_3956 = load i32, i32* inttoptr (i32 20 to i32*), align 4
  %v3_3956 = icmp eq i32 %v1_3956, %v3_3953
  br i1 %v3_3956, label %bb, label %dec_label_pc_3963

bb:                                               ; preds = %dec_label_pc_393e
  %v1_395d = call i32 @function_3c06()
  store i32 %v1_395d, i32* @eax, align 4
  br label %dec_label_pc_3963

dec_label_pc_3963:                                ; preds = %bb, %dec_label_pc_393e
  %v0_3963 = call i32 @function_3c01()
  store i32 %v0_3963, i32* %eax.global-to-local, align 4
  ret i32 %v0_3963
}

define i32 @function_3978() local_unnamed_addr {
dec_label_pc_3978:
  %v0_3978 = call i32 @function_397c()
  ret i32 %v0_3978
}

define i32 @function_397a() local_unnamed_addr {
dec_label_pc_397a:
  %eax.global-to-local = alloca i32, align 4
  %v0_397a = load i32, i32* %eax.global-to-local, align 4
  ret i32 %v0_397a
}

define i32 @function_397c() local_unnamed_addr {
dec_label_pc_397c:
  %v0_397c = load i32, i32* @ebp, align 4
  %v1_397c = add i32 %v0_397c, -393
  ret i32 %v1_397c
}

define i32 @function_399c() local_unnamed_addr {
dec_label_pc_399c:
  %eax.global-to-local = alloca i32, align 4
  %v0_399c = load i32, i32* %eax.global-to-local, align 4
  store i32 %v0_399c, i32* @ebx, align 4
  %v0_399e = load i32, i32* @ebp, align 4
  %v1_399e = add i32 %v0_399e, -472
  store i32 %v1_399e, i32* %eax.global-to-local, align 4
  %v1_39a7 = call i32 @_ZN17CCoinsViewMemPoolD1Ev(i32 %v1_399e)
  store i32 %v1_39a7, i32* %eax.global-to-local, align 4
  %v0_39ac = call i32 @function_39b0()
  store i32 %v0_39ac, i32* %eax.global-to-local, align 4
  ret i32 %v0_39ac

; uselistorder directives
  uselistorder i32 (i32)* @_ZN17CCoinsViewMemPoolD1Ev, { 1, 0 }
}

define i32 @function_39ae() local_unnamed_addr {
dec_label_pc_39ae:
  %eax.global-to-local = alloca i32, align 4
  %v0_39ae = load i32, i32* %eax.global-to-local, align 4
  ret i32 %v0_39ae
}

define i32 @function_39b0() local_unnamed_addr {
dec_label_pc_39b0:
  %v0_39b0 = load i32, i32* @ebp, align 4
  %v1_39b0 = add i32 %v0_39b0, -448
  %v1_39b9 = call i32 @_ZN10CMutexLockI14AnnotatedMixinIN5boost15recursive_mutexEEED1Ev(i32 %v1_39b0)
  %v0_39be = call i32 @function_3bc5()
  ret i32 %v0_39be

; uselistorder directives
  uselistorder i32 (i32)* @_ZN10CMutexLockI14AnnotatedMixinIN5boost15recursive_mutexEEED1Ev, { 1, 0 }
}

define i32 @function_39c3() local_unnamed_addr {
dec_label_pc_39c3:
  %v0_39c5 = load i32, i32* @ebp, align 4
  %v1_39c5 = add i32 %v0_39c5, -320
  %v1_39ce = call i32 @_ZN11json_spirit9Pair_implINS_13Config_vectorISsEEED1Ev(i32 %v1_39c5)
  %v0_39d3 = call i32 @function_39d7()
  ret i32 %v0_39d3
}

define i32 @function_39d5() local_unnamed_addr {
dec_label_pc_39d5:
  %eax.global-to-local = alloca i32, align 4
  %v0_39d5 = load i32, i32* %eax.global-to-local, align 4
  ret i32 %v0_39d5
}

define i32 @function_39d7() local_unnamed_addr {
dec_label_pc_39d7:
  %v0_39d7 = load i32, i32* @ebp, align 4
  %v1_39d7 = add i32 %v0_39d7, -428
  ret i32 %v1_39d7
}

define i32 @function_39e5() local_unnamed_addr {
dec_label_pc_39e5:
  %v0_39e5 = call i32 @function_39e9()
  ret i32 %v0_39e5
}

define i32 @function_39e7() local_unnamed_addr {
dec_label_pc_39e7:
  %eax.global-to-local = alloca i32, align 4
  %v0_39e7 = load i32, i32* %eax.global-to-local, align 4
  ret i32 %v0_39e7
}

define i32 @function_39e9() local_unnamed_addr {
dec_label_pc_39e9:
  %v0_39e9 = load i32, i32* @ebp, align 4
  %v1_39e9 = add i32 %v0_39e9, -392
  ret i32 %v1_39e9
}

define i32 @function_39f7() local_unnamed_addr {
dec_label_pc_39f7:
  %v0_39f7 = load i32, i32* @ebp, align 4
  %v1_39f7 = add i32 %v0_39f7, -152
  %v1_3a00 = call i32 @_ZN11json_spirit10Value_implINS_13Config_vectorISsEEED1Ev(i32 %v1_39f7)
  %v0_3a05 = call i32 @function_3a09()
  ret i32 %v0_3a05
}

define i32 @function_3a07() local_unnamed_addr {
dec_label_pc_3a07:
  %eax.global-to-local = alloca i32, align 4
  %v0_3a07 = load i32, i32* %eax.global-to-local, align 4
  ret i32 %v0_3a07
}

define i32 @function_3a09() local_unnamed_addr {
dec_label_pc_3a09:
  %v0_3a09 = load i32, i32* @ebp, align 4
  %v1_3a09 = add i32 %v0_3a09, -432
  ret i32 %v1_3a09
}

define i32 @function_3a17() local_unnamed_addr {
dec_label_pc_3a17:
  %v0_3a17 = call i32 @function_3bc5()
  ret i32 %v0_3a17
}

define i32 @function_3a1c() local_unnamed_addr {
dec_label_pc_3a1c:
  %v0_3a1e = load i32, i32* @ebp, align 4
  %v1_3a1e = add i32 %v0_3a1e, -296
  %v1_3a27 = call i32 @_ZN11json_spirit9Pair_implINS_13Config_vectorISsEEED1Ev(i32 %v1_3a1e)
  %v0_3a2c = call i32 @function_3a30()
  ret i32 %v0_3a2c
}

define i32 @function_3a2e() local_unnamed_addr {
dec_label_pc_3a2e:
  %eax.global-to-local = alloca i32, align 4
  %v0_3a2e = load i32, i32* %eax.global-to-local, align 4
  ret i32 %v0_3a2e
}

define i32 @function_3a30() local_unnamed_addr {
dec_label_pc_3a30:
  %v0_3a30 = load i32, i32* @ebp, align 4
  %v1_3a30 = add i32 %v0_3a30, -424
  ret i32 %v1_3a30
}

define i32 @function_3a3e() local_unnamed_addr {
dec_label_pc_3a3e:
  %v0_3a3e = call i32 @function_3a42()
  ret i32 %v0_3a3e
}

define i32 @function_3a40() local_unnamed_addr {
dec_label_pc_3a40:
  %eax.global-to-local = alloca i32, align 4
  %v0_3a40 = load i32, i32* %eax.global-to-local, align 4
  ret i32 %v0_3a40
}

define i32 @function_3a42() local_unnamed_addr {
dec_label_pc_3a42:
  %v0_3a42 = load i32, i32* @ebp, align 4
  %v1_3a42 = add i32 %v0_3a42, -391
  ret i32 %v1_3a42
}

define i32 @function_3a4f() local_unnamed_addr {
dec_label_pc_3a4f:
  %eax.global-to-local = alloca i32, align 4
  %ebp.global-to-local = alloca i32, align 4
  %ecx.global-to-local = alloca i32, align 4
  %stack_var_-276 = alloca i32, align 4
  %stack_var_-4 = alloca i32, align 4
  %v0_3a4f = load i32, i32* %ebp.global-to-local, align 4
  %v1_3a4f = add i32 %v0_3a4f, -33659
  %v2_3a4f = inttoptr i32 %v1_3a4f to i32*
  %v3_3a4f = load i32, i32* %v2_3a4f, align 4
  %v4_3a4f = add i32 %v3_3a4f, -1
  store i32 %v4_3a4f, i32* %v2_3a4f, align 4
  %v0_3a55 = load i32, i32* %ecx.global-to-local, align 4
  %v1_3a55 = add i32 %v0_3a55, -1696062460
  %v2_3a55 = inttoptr i32 %v1_3a55 to i32*
  %v3_3a55 = load i32, i32* %v2_3a55, align 4
  %v4_3a55 = add i32 %v3_3a55, -1
  store i32 %v4_3a55, i32* %v2_3a55, align 4
  %v4_3a5b = ptrtoint i32* %stack_var_-4 to i32
  store i32 %v4_3a5b, i32* @ebp, align 4
  %v2_3a61 = load i8, i8* bitcast (i32* @eax to i8*), align 4
  %v3_3a61 = load i32, i32* %eax.global-to-local, align 4
  %v4_3a61 = trunc i32 %v3_3a61 to i8
  %v5_3a61 = add i8 %v4_3a61, %v2_3a61
  %v21_3a61 = inttoptr i32 %v3_3a61 to i8*
  store i8 %v5_3a61, i8* %v21_3a61, align 1
  %v2_3a65 = ptrtoint i32* %stack_var_-276 to i32
  store i32 %v2_3a65, i32* %eax.global-to-local, align 4
  store i32 %v2_3a65, i32* %stack_var_-4, align 4
  %v1_3a6e = call i32 @_ZN11json_spirit9Pair_implINS_13Config_vectorISsEEED1Ev(i32 %v2_3a65)
  store i32 %v1_3a6e, i32* %eax.global-to-local, align 4
  %v0_3a73 = call i32 @function_3a77()
  store i32 %v0_3a73, i32* %eax.global-to-local, align 4
  ret i32 %v0_3a73

; uselistorder directives
  uselistorder i32 %v2_3a65, { 1, 0, 2 }
}

define i32 @function_3a75() local_unnamed_addr {
dec_label_pc_3a75:
  %eax.global-to-local = alloca i32, align 4
  %v0_3a75 = load i32, i32* %eax.global-to-local, align 4
  ret i32 %v0_3a75
}

define i32 @function_3a77() local_unnamed_addr {
dec_label_pc_3a77:
  %v0_3a77 = load i32, i32* @ebp, align 4
  %v1_3a77 = add i32 %v0_3a77, -420
  ret i32 %v1_3a77
}

define i32 @function_3a85() local_unnamed_addr {
dec_label_pc_3a85:
  %v0_3a85 = call i32 @function_3a89()
  ret i32 %v0_3a85
}

define i32 @function_3a87() local_unnamed_addr {
dec_label_pc_3a87:
  %eax.global-to-local = alloca i32, align 4
  %v0_3a87 = load i32, i32* %eax.global-to-local, align 4
  ret i32 %v0_3a87
}

define i32 @function_3a89() local_unnamed_addr {
dec_label_pc_3a89:
  %v0_3a89 = load i32, i32* @ebp, align 4
  %v1_3a89 = add i32 %v0_3a89, -390
  ret i32 %v1_3a89
}

define i32 @function_3a97() local_unnamed_addr {
dec_label_pc_3a97:
  %v0_3a97 = load i32, i32* @ebp, align 4
  %v1_3a97 = add i32 %v0_3a97, -112
  %v1_3a9d = call i32 @_ZN11json_spirit10Value_implINS_13Config_vectorISsEEED1Ev(i32 %v1_3a97)
  %v0_3aa2 = call i32 @function_3bc5()
  ret i32 %v0_3aa2

; uselistorder directives
  uselistorder i32 (i32)* @_ZN11json_spirit10Value_implINS_13Config_vectorISsEEED1Ev, { 11, 10, 9, 8, 7, 6, 5, 4, 3, 2, 1, 0 }
}

define i32 @function_3aa7() local_unnamed_addr {
dec_label_pc_3aa7:
  %v0_3aa9 = load i32, i32* @ebp, align 4
  %v1_3aa9 = add i32 %v0_3aa9, -248
  %v1_3ab2 = call i32 @_ZN11json_spirit9Pair_implINS_13Config_vectorISsEEED1Ev(i32 %v1_3aa9)
  %v0_3ab7 = call i32 @function_3abb()
  ret i32 %v0_3ab7
}

define i32 @function_3ab9() local_unnamed_addr {
dec_label_pc_3ab9:
  %eax.global-to-local = alloca i32, align 4
  %v0_3ab9 = load i32, i32* %eax.global-to-local, align 4
  ret i32 %v0_3ab9
}

define i32 @function_3abb() local_unnamed_addr {
dec_label_pc_3abb:
  %v0_3abb = load i32, i32* @ebp, align 4
  %v1_3abb = add i32 %v0_3abb, -416
  ret i32 %v1_3abb
}

define i32 @function_3ac9() local_unnamed_addr {
dec_label_pc_3ac9:
  %v0_3ac9 = call i32 @function_3acd()
  ret i32 %v0_3ac9
}

define i32 @function_3acb() local_unnamed_addr {
dec_label_pc_3acb:
  %eax.global-to-local = alloca i32, align 4
  %v0_3acb = load i32, i32* %eax.global-to-local, align 4
  ret i32 %v0_3acb
}

define i32 @function_3acd() local_unnamed_addr {
dec_label_pc_3acd:
  %v0_3acd = load i32, i32* @ebp, align 4
  %v1_3acd = add i32 %v0_3acd, -389
  ret i32 %v1_3acd
}

define i32 @function_3ada() local_unnamed_addr {
dec_label_pc_3ada:
  %eax.global-to-local = alloca i32, align 4
  %ecx.global-to-local = alloca i32, align 4
  %v0_3ada = load i32, i32* @ebp, align 4
  %v1_3ada = add i32 %v0_3ada, 76129349
  %v2_3ada = inttoptr i32 %v1_3ada to i32*
  %v3_3ada = load i32, i32* %v2_3ada, align 4
  %v4_3ada = add i32 %v3_3ada, -1
  store i32 %v4_3ada, i32* %v2_3ada, align 4
  %v0_3ae0 = load i32, i32* %eax.global-to-local, align 4
  %v1_3ae0 = trunc i32 %v0_3ae0 to i8
  %v2_3ae0 = and i8 %v1_3ae0, -24
  %v8_3ae0 = zext i8 %v2_3ae0 to i32
  %v10_3ae0 = and i32 %v0_3ae0, -256
  %v11_3ae0 = or i32 %v8_3ae0, %v10_3ae0
  store i32 %v11_3ae0, i32* %eax.global-to-local, align 4
  %v0_3ae2 = load i32, i32* %ecx.global-to-local, align 4
  %v1_3ae2 = trunc i32 %v0_3ae2 to i8
  %v6_3ae2 = add i8 %v1_3ae2, %v2_3ae0
  %v28_3ae2 = zext i8 %v6_3ae2 to i32
  %v30_3ae2 = and i32 %v0_3ae2, -256
  %v31_3ae2 = or i32 %v28_3ae2, %v30_3ae2
  store i32 %v31_3ae2, i32* %ecx.global-to-local, align 4
  %v1_3ae4 = inttoptr i32 %v11_3ae0 to i8*
  %v2_3ae4 = load i8, i8* %v1_3ae4, align 8
  %v5_3ae4 = add i8 %v2_3ae4, %v2_3ae0
  store i8 %v5_3ae4, i8* %v1_3ae4, align 8
  %v0_3ae6 = call i32 @function_3bc5()
  store i32 %v0_3ae6, i32* %eax.global-to-local, align 4
  ret i32 %v0_3ae6
}

define i32 @function_3aeb() local_unnamed_addr {
dec_label_pc_3aeb:
  %v0_3aed = load i32, i32* @ebp, align 4
  %v1_3aed = add i32 %v0_3aed, -224
  %v1_3af6 = call i32 @_ZN11json_spirit9Pair_implINS_13Config_vectorISsEEED1Ev(i32 %v1_3aed)
  %v0_3afb = call i32 @function_3aff()
  ret i32 %v0_3afb
}

define i32 @function_3afd() local_unnamed_addr {
dec_label_pc_3afd:
  %eax.global-to-local = alloca i32, align 4
  %v0_3afd = load i32, i32* %eax.global-to-local, align 4
  ret i32 %v0_3afd
}

define i32 @function_3aff() local_unnamed_addr {
dec_label_pc_3aff:
  %v0_3aff = load i32, i32* @ebp, align 4
  %v1_3aff = add i32 %v0_3aff, -412
  ret i32 %v1_3aff
}

define i32 @function_3b0d() local_unnamed_addr {
dec_label_pc_3b0d:
  %v0_3b0d = call i32 @function_3b11()
  ret i32 %v0_3b0d
}

define i32 @function_3b0f() local_unnamed_addr {
dec_label_pc_3b0f:
  %eax.global-to-local = alloca i32, align 4
  %v0_3b0f = load i32, i32* %eax.global-to-local, align 4
  ret i32 %v0_3b0f
}

define i32 @function_3b11() local_unnamed_addr {
dec_label_pc_3b11:
  %v0_3b11 = load i32, i32* @ebp, align 4
  %v1_3b11 = add i32 %v0_3b11, -388
  ret i32 %v1_3b11
}

define i32 @function_3b1e() local_unnamed_addr {
dec_label_pc_3b1e:
  %eax.global-to-local = alloca i32, align 4
  %v0_3b1e = load i32, i32* @ebp, align 4
  %v1_3b1e = add i32 %v0_3b1e, 76134469
  %v2_3b1e = inttoptr i32 %v1_3b1e to i32*
  %v3_3b1e = load i32, i32* %v2_3b1e, align 4
  %v4_3b1e = add i32 %v3_3b1e, -1
  store i32 %v4_3b1e, i32* %v2_3b1e, align 4
  %v0_3b24 = load i32, i32* %eax.global-to-local, align 4
  %v11_3b24 = and i32 %v0_3b24, -24
  store i32 %v11_3b24, i32* %eax.global-to-local, align 4
  %v1_3b27 = inttoptr i32 %v11_3b24 to i32*
  store i32 8710400, i32* %v1_3b27, align 8
  %v0_3b2d = load i32, i32* %eax.global-to-local, align 4
  %v1_3b2d = inttoptr i32 %v0_3b2d to i8*
  %v2_3b2d = load i8, i8* %v1_3b2d, align 1
  %v4_3b2d = trunc i32 %v0_3b2d to i8
  %v5_3b2d = add i8 %v2_3b2d, %v4_3b2d
  store i8 %v5_3b2d, i8* %v1_3b2d, align 1
  %v0_3b31 = load i32, i32* @ebp, align 4
  %v1_3b31 = add i32 %v0_3b31, -200
  store i32 %v1_3b31, i32* %eax.global-to-local, align 4
  %v1_3b3a = call i32 @_ZN11json_spirit9Pair_implINS_13Config_vectorISsEEED1Ev(i32 %v1_3b31)
  store i32 %v1_3b3a, i32* %eax.global-to-local, align 4
  %v0_3b3f = call i32 @function_3b43()
  store i32 %v0_3b3f, i32* %eax.global-to-local, align 4
  ret i32 %v0_3b3f

; uselistorder directives
  uselistorder i32 %v11_3b24, { 1, 0 }
}

define i32 @function_3b41() local_unnamed_addr {
dec_label_pc_3b41:
  %eax.global-to-local = alloca i32, align 4
  %v0_3b41 = load i32, i32* %eax.global-to-local, align 4
  ret i32 %v0_3b41
}

define i32 @function_3b43() local_unnamed_addr {
dec_label_pc_3b43:
  %v0_3b43 = load i32, i32* @ebp, align 4
  %v1_3b43 = add i32 %v0_3b43, -408
  ret i32 %v1_3b43
}

define i32 @function_3b51() local_unnamed_addr {
dec_label_pc_3b51:
  %v0_3b51 = call i32 @function_3b55()
  ret i32 %v0_3b51
}

define i32 @function_3b53() local_unnamed_addr {
dec_label_pc_3b53:
  %eax.global-to-local = alloca i32, align 4
  %v0_3b53 = load i32, i32* %eax.global-to-local, align 4
  ret i32 %v0_3b53
}

define i32 @function_3b55() local_unnamed_addr {
dec_label_pc_3b55:
  %v0_3b55 = load i32, i32* @ebp, align 4
  %v1_3b55 = add i32 %v0_3b55, -387
  ret i32 %v1_3b55
}

define i32 @function_3b62() local_unnamed_addr {
dec_label_pc_3b62:
  %eax.global-to-local = alloca i32, align 4
  %ebx.global-to-local = alloca i32, align 4
  %v0_3b62 = load i32, i32* @ebp, align 4
  %v1_3b62 = add i32 %v0_3b62, 76139589
  %v2_3b62 = inttoptr i32 %v1_3b62 to i32*
  %v3_3b62 = load i32, i32* %v2_3b62, align 4
  %v4_3b62 = add i32 %v3_3b62, -1
  store i32 %v4_3b62, i32* %v2_3b62, align 4
  %v0_3b68 = load i32, i32* %eax.global-to-local, align 4
  %v10_3b68 = and i32 %v0_3b68, -256
  %v0_3b6a = load i32, i32* %ebx.global-to-local, align 4
  %v1_3b6a = udiv i32 %v0_3b6a, 256
  %v2_3b6a = urem i32 %v1_3b6a, 256
  %v5_3b6a = or i32 %v2_3b6a, %v10_3b68
  store i32 %v5_3b6a, i32* %eax.global-to-local, align 4
  %v1_3b6c = inttoptr i32 %v5_3b6a to i8*
  %v2_3b6c = load i8, i8* %v1_3b6c, align 1
  %v4_3b6c = trunc i32 %v1_3b6a to i8
  %v5_3b6c = add i8 %v2_3b6c, %v4_3b6c
  store i8 %v5_3b6c, i8* %v1_3b6c, align 1
  %v0_3b6e = call i32 @function_3bb3()
  store i32 %v0_3b6e, i32* %eax.global-to-local, align 4
  ret i32 %v0_3b6e
}

define i32 @function_3b70() local_unnamed_addr {
dec_label_pc_3b70:
  %v0_3b72 = load i32, i32* @ebp, align 4
  %v1_3b72 = add i32 %v0_3b72, -176
  %v1_3b7b = call i32 @_ZN11json_spirit9Pair_implINS_13Config_vectorISsEEED1Ev(i32 %v1_3b72)
  %v0_3b80 = call i32 @function_3b84()
  ret i32 %v0_3b80

; uselistorder directives
  uselistorder i32 (i32)* @_ZN11json_spirit9Pair_implINS_13Config_vectorISsEEED1Ev, { 29, 28, 27, 26, 25, 24, 23, 22, 21, 20, 19, 18, 17, 16, 15, 14, 13, 12, 11, 10, 9, 8, 7, 6, 5, 4, 3, 2, 1, 0 }
}

define i32 @function_3b82() local_unnamed_addr {
dec_label_pc_3b82:
  %eax.global-to-local = alloca i32, align 4
  %v0_3b82 = load i32, i32* %eax.global-to-local, align 4
  ret i32 %v0_3b82
}

define i32 @function_3b84() local_unnamed_addr {
dec_label_pc_3b84:
  %v0_3b84 = load i32, i32* @ebp, align 4
  %v1_3b84 = add i32 %v0_3b84, -404
  ret i32 %v1_3b84
}

define i32 @function_3b92() local_unnamed_addr {
dec_label_pc_3b92:
  %v0_3b92 = call i32 @function_3b96()
  ret i32 %v0_3b92
}

define i32 @function_3b94() local_unnamed_addr {
dec_label_pc_3b94:
  %eax.global-to-local = alloca i32, align 4
  %v0_3b94 = load i32, i32* %eax.global-to-local, align 4
  ret i32 %v0_3b94
}

define i32 @function_3b96() local_unnamed_addr {
dec_label_pc_3b96:
  %v0_3b96 = load i32, i32* @ebp, align 4
  %v1_3b96 = add i32 %v0_3b96, -386
  ret i32 %v1_3b96
}

define i32 @function_3ba3() local_unnamed_addr {
dec_label_pc_3ba3:
  %eax.global-to-local = alloca i32, align 4
  %ecx.global-to-local = alloca i32, align 4
  %tmp91 = call i32 @__decompiler_undefined_function_0()
  %v1_3ba3 = add i32 %tmp91, 76144709
  %v2_3ba3 = inttoptr i32 %v1_3ba3 to i32*
  %v3_3ba3 = load i32, i32* %v2_3ba3, align 4
  %v4_3ba3 = add i32 %v3_3ba3, -1
  store i32 %v4_3ba3, i32* %v2_3ba3, align 4
  %v0_3ba9 = load i32, i32* %eax.global-to-local, align 4
  %v11_3ba9 = and i32 %v0_3ba9, -24
  store i32 %v11_3ba9, i32* %eax.global-to-local, align 4
  %v0_3bab = load i32, i32* %ecx.global-to-local, align 4
  %v1_3bab = add i32 %v0_3bab, -1
  store i32 %v1_3bab, i32* %ecx.global-to-local, align 4
  %v1_3bac = inttoptr i32 %v11_3ba9 to i32*
  store i32 -1996297472, i32* %v1_3bac, align 8
  %v0_3bb2 = load i32, i32* %eax.global-to-local, align 4
  ret i32 %v0_3bb2

; uselistorder directives
  uselistorder i32 %v11_3ba9, { 1, 0 }
}

define i32 @function_3bb3() local_unnamed_addr {
dec_label_pc_3bb3:
  %v0_3bb3 = load i32, i32* @ebp, align 4
  %v1_3bb3 = add i32 %v0_3bb3, -460
  %v1_3bbc = inttoptr i32 %v1_3bb3 to i32*
  %v2_3bbc = call i32 @_ZNSt6vectorIN11json_spirit9Pair_implINS0_13Config_vectorISsEEEESaIS4_EED1Ev(i32* %v1_3bbc)
  %v0_3bc1 = call i32 @function_3bc5()
  ret i32 %v0_3bc1

; uselistorder directives
  uselistorder i32 ()* @function_3bc5, { 4, 3, 2, 1, 0 }
}

define i32 @function_3bc4() local_unnamed_addr {
dec_label_pc_3bc4:
  %eax.global-to-local = alloca i32, align 4
  %v0_3bc4 = load i32, i32* %eax.global-to-local, align 4
  ret i32 %v0_3bc4
}

define i32 @function_3bc5() local_unnamed_addr {
dec_label_pc_3bc5:
  %v0_3bc5 = load i32, i32* @ebp, align 4
  %v1_3bc5 = add i32 %v0_3bc5, -508
  %v1_3bce = call i32 @_ZN6CCoinsD1Ev(i32 %v1_3bc5)
  %v0_3bd3 = call i32 @function_3bd7()
  ret i32 %v0_3bd3

; uselistorder directives
  uselistorder i32 (i32)* @_ZN6CCoinsD1Ev, { 1, 0 }
}

define i32 @function_3bd5() local_unnamed_addr {
dec_label_pc_3bd5:
  %eax.global-to-local = alloca i32, align 4
  %v0_3bd5 = load i32, i32* %eax.global-to-local, align 4
  ret i32 %v0_3bd5
}

define i32 @function_3bd7() local_unnamed_addr {
dec_label_pc_3bd7:
  %v0_3bd7 = load i32, i32* @ebp, align 4
  %v1_3bd7 = add i32 %v0_3bd7, -436
  ret i32 %v1_3bd7

; uselistorder directives
  uselistorder i32 -436, { 0, 3, 2, 1 }
}

define i32 @function_3be5() local_unnamed_addr {
dec_label_pc_3be5:
  %v0_3be5 = call i32 @function_3be9()
  ret i32 %v0_3be5
}

define i32 @function_3be7() local_unnamed_addr {
dec_label_pc_3be7:
  %eax.global-to-local = alloca i32, align 4
  %v0_3be7 = load i32, i32* %eax.global-to-local, align 4
  ret i32 %v0_3be7
}

define i32 @function_3be9() local_unnamed_addr {
dec_label_pc_3be9:
  %v0_3be9 = load i32, i32* @ebp, align 4
  %v1_3be9 = add i32 %v0_3be9, -484
  %v1_3bf2 = inttoptr i32 %v1_3be9 to i32*
  %v2_3bf2 = call i32 @_ZNSt6vectorIN11json_spirit9Pair_implINS0_13Config_vectorISsEEEESaIS4_EED1Ev(i32* %v1_3bf2)
  %v0_3bf7 = load i32, i32* @ebx, align 4
  ret i32 %v0_3bf7

; uselistorder directives
  uselistorder i32 (i32*)* @_ZNSt6vectorIN11json_spirit9Pair_implINS0_13Config_vectorISsEEEESaIS4_EED1Ev, { 0, 1, 2, 6, 3, 4, 5 }
}

define i32 @function_3c01() local_unnamed_addr {
dec_label_pc_3c01:
  %tmp = load i32, i32* @eax, align 4
  ret i32 %tmp
}

define i32 @function_3c06() local_unnamed_addr {
dec_label_pc_3c06:
  %v0_3c0c = load i32, i32* @eax, align 4
  ret i32 %v0_3c0c
}

define %"Value_impl<json_spirit::Config_vector<std::basic_string<char,std::char_traits<char>,std::allocator<char>>>>.12" @_Z11verifychainRKSt6vectorIN11json_spirit10Value_implINS0_13Config_vectorISsEEEESaIS4_EEb(%"vector<json_spirit::Value_impl<json_spirit::Config_vector<std::basic_string<char,std::char_traits<char>,std::allocator<char>>>>,std::allocator<json_spirit::Value_impl<json_spirit::Config_vector<std::basic_string<char,std::char_traits<char>,std::allocator<char>>>>>>" %params, i1 %fHelp) local_unnamed_addr {
dec_label_pc_3c0f:
  %tmp110 = call i8 @__decompiler_undefined_function_4()
  %v10_3c34 = icmp eq i8 %tmp110, 0
  %v1_3c38 = icmp eq i1 %v10_3c34, false
  br i1 %v1_3c38, label %dec_label_pc_3c56.thread, label %dec_label_pc_3c56

dec_label_pc_3c56.thread:                         ; preds = %dec_label_pc_3c0f
  br label %dec_label_pc_3c5a

dec_label_pc_3c56:                                ; preds = %dec_label_pc_3c0f
  %v4_3c20 = sext i1 %fHelp to i32
  %v2_3c40 = inttoptr i32 %v4_3c20 to i32*
  %v3_3c40 = call i32 @_ZNKSt6vectorIN11json_spirit10Value_implINS0_13Config_vectorISsEEEESaIS4_EE4sizeEv(i32* %v2_3c40)
  %tmp120 = icmp ugt i32 %v3_3c40, 2
  %v5_3c56 = icmp eq i1 %tmp120, false
  br i1 %v5_3c56, label %bb, label %dec_label_pc_3c5a

bb:                                               ; preds = %dec_label_pc_3c56
  %v1_3c58 = call i32 @function_3ccb()
  br label %dec_label_pc_3c5a

dec_label_pc_3c5a:                                ; preds = %dec_label_pc_3c56.thread, %bb, %dec_label_pc_3c56
  %v3_3c5a = phi i32 [ %v1_3c58, %bb ], [ 1, %dec_label_pc_3c56 ], [ 1, %dec_label_pc_3c56.thread ]
  %v4_3c5a = insertvalue %"Value_impl<json_spirit::Config_vector<std::basic_string<char,std::char_traits<char>,std::allocator<char>>>>.12" undef, i32 %v3_3c5a, 0
  ret %"Value_impl<json_spirit::Config_vector<std::basic_string<char,std::char_traits<char>,std::allocator<char>>>>.12" %v4_3c5a

; uselistorder directives
  uselistorder label %dec_label_pc_3c5a, { 1, 2, 0 }
}

define i32 @function_3c67() local_unnamed_addr {
dec_label_pc_3c67:
  %eax.global-to-local = alloca i32, align 4
  %v0_3c67 = load i32, i32* %eax.global-to-local, align 4
  ret i32 %v0_3c67
}

define i32 @function_3ccb() local_unnamed_addr {
dec_label_pc_3ccb:
  %v0_3ccb = load i32, i32* @ebp, align 4
  %v1_3ccb = add i32 %v0_3ccb, -14
  ret i32 %v1_3ccb
}

define i32 @function_3df3() local_unnamed_addr {
dec_label_pc_3df3:
  %eax.global-to-local = alloca i32, align 4
  %edx.global-to-local = alloca i32, align 4
  %tmp93 = call i32 @__decompiler_undefined_function_0()
  %v3_3df3 = add i32 %tmp93, -1
  %v18_3df3 = inttoptr i32 %tmp93 to i32*
  store i32 %v3_3df3, i32* %v18_3df3, align 4
  %v0_3df5 = load i32, i32* %edx.global-to-local, align 8
  %v1_3df5 = and i32 %v0_3df5, -65281
  %v2_3df5 = or i32 %v1_3df5, ptrtoint ([1850 x i8]* @global_var_c000.1802 to i32)
  store i32 %v2_3df5, i32* %edx.global-to-local, align 8
  %v0_3df7 = load i32, i32* %eax.global-to-local, align 4
  %v0_3dfb = load i32, i32* @ebp, align 4
  %v1_3dfb = add i32 %v0_3dfb, -44
  %v2_3dfb = inttoptr i32 %v1_3dfb to i32*
  %v3_3dfb = load i32, i32* %v2_3dfb, align 4
  store i32 %v3_3dfb, i32* %eax.global-to-local, align 4
  %v2_3e01 = inttoptr i32 %v3_3dfb to i32*
  %v3_3e01 = call i32 @_ZN11json_spirit10Value_implINS_13Config_vectorISsEEEC1Eb(i32* %v2_3e01, i32 %v0_3df7)
  store i32 %v3_3e01, i32* %eax.global-to-local, align 4
  %v0_3e06 = load i32, i32* @ebp, align 4
  %v1_3e06 = add i32 %v0_3e06, -44
  %v2_3e06 = inttoptr i32 %v1_3e06 to i32*
  %v3_3e06 = load i32, i32* %v2_3e06, align 4
  store i32 %v3_3e06, i32* @eax, align 4
  %v1_3e09 = add i32 %v0_3e06, -12
  %v2_3e09 = inttoptr i32 %v1_3e09 to i32*
  %v3_3e09 = load i32, i32* %v2_3e09, align 4
  store i32 %v3_3e09, i32* %edx.global-to-local, align 8
  %v1_3e0c = load i32, i32* inttoptr (i32 20 to i32*), align 4
  %v2_3e0c = xor i32 %v1_3e0c, %v3_3e09
  %v3_3e0c = icmp eq i32 %v2_3e0c, 0
  store i32 %v2_3e0c, i32* %edx.global-to-local, align 8
  br i1 %v3_3e0c, label %bb, label %dec_label_pc_3e19

bb:                                               ; preds = %dec_label_pc_3df3
  %v1_3e13 = call i32 @function_3e9a()
  store i32 %v1_3e13, i32* @eax, align 4
  br label %dec_label_pc_3e19

dec_label_pc_3e19:                                ; preds = %bb, %dec_label_pc_3df3
  %v0_3e19 = call i32 @function_3e95()
  store i32 %v0_3e19, i32* %eax.global-to-local, align 4
  ret i32 %v0_3e19

; uselistorder directives
  uselistorder i32 %tmp93, { 1, 0 }
}

define i32 @function_3e28() local_unnamed_addr {
dec_label_pc_3e28:
  %v0_3e28 = call i32 @function_3e2c()
  ret i32 %v0_3e28
}

define i32 @function_3e2a() local_unnamed_addr {
dec_label_pc_3e2a:
  %eax.global-to-local = alloca i32, align 4
  %v0_3e2a = load i32, i32* %eax.global-to-local, align 4
  ret i32 %v0_3e2a
}

define i32 @function_3e2c() local_unnamed_addr {
dec_label_pc_3e2c:
  %v0_3e2c = load i32, i32* @ebp, align 4
  %v1_3e2c = add i32 %v0_3e2c, -15
  ret i32 %v1_3e2c
}

define i32 @function_3e4a() local_unnamed_addr {
dec_label_pc_3e4a:
  %eax.global-to-local = alloca i32, align 4
  %v0_3e4a = load i32, i32* %eax.global-to-local, align 4
  ret i32 %v0_3e4a
}

define i32 @function_3e56() local_unnamed_addr {
dec_label_pc_3e56:
  %v0_3e56 = call i32 @function_3e5a()
  ret i32 %v0_3e56
}

define i32 @function_3e58() local_unnamed_addr {
dec_label_pc_3e58:
  %eax.global-to-local = alloca i32, align 4
  %v0_3e58 = load i32, i32* %eax.global-to-local, align 4
  ret i32 %v0_3e58
}

define i32 @function_3e5a() local_unnamed_addr {
dec_label_pc_3e5a:
  %v0_3e5a = load i32, i32* @ebp, align 4
  %v1_3e5a = add i32 %v0_3e5a, -14
  ret i32 %v1_3e5a
}

define i32 @function_3e70() local_unnamed_addr {
dec_label_pc_3e70:
  %eax.global-to-local = alloca i32, align 4
  %v0_3e70 = load i32, i32* %eax.global-to-local, align 4
  ret i32 %v0_3e70
}

define i32 @function_3e7c() local_unnamed_addr {
dec_label_pc_3e7c:
  %v0_3e7c = call i32 @function_3e80()
  ret i32 %v0_3e7c
}

define i32 @function_3e7e() local_unnamed_addr {
dec_label_pc_3e7e:
  %eax.global-to-local = alloca i32, align 4
  %v0_3e7e = load i32, i32* %eax.global-to-local, align 4
  ret i32 %v0_3e7e
}

define i32 @function_3e80() local_unnamed_addr {
dec_label_pc_3e80:
  %v0_3e80 = load i32, i32* @ebp, align 4
  %v1_3e80 = add i32 %v0_3e80, -13
  ret i32 %v1_3e80
}

define i32 @function_3e95() local_unnamed_addr {
dec_label_pc_3e95:
  %tmp = load i32, i32* @eax, align 4
  ret i32 %tmp
}

define i32 @function_3e9a() local_unnamed_addr {
dec_label_pc_3e9a:
  %v0_3ea0 = load i32, i32* @eax, align 4
  ret i32 %v0_3ea0
}

define void @__static_initialization_and_destruction_0(i32 %__initialize_p, i32 %__priority) local_unnamed_addr {
dec_label_pc_3ea3:
  %v0_3eb5 = load i32, i32* inttoptr (i32 20 to i32*), align 4
  %v13_3ec0 = icmp eq i32 %__initialize_p, 1
  %v1_3ec4 = icmp eq i1 %v13_3ec0, false
  br i1 %v1_3ec4, label %bb, label %dec_label_pc_3eca

bb:                                               ; preds = %dec_label_pc_3ea3
  %v4_3ec4 = call i32 @function_416d(i32 %__priority, i32 %__initialize_p)
  br label %dec_label_pc_3eca

dec_label_pc_3eca:                                ; preds = %bb, %dec_label_pc_3ea3
  %v13_3eca = icmp eq i32 %__priority, 65535
  %v1_3ed1 = icmp eq i1 %v13_3eca, false
  br i1 %v1_3ed1, label %bb9, label %dec_label_pc_3ed7

bb9:                                              ; preds = %dec_label_pc_3eca
  %v4_3ed1 = call i32 @function_416d(i32 %v0_3eb5, i32 ptrtoint (i32* @0 to i32))
  br label %dec_label_pc_3ed7

dec_label_pc_3ed7:                                ; preds = %bb9, %dec_label_pc_3eca
  ret void

; uselistorder directives
  uselistorder i32 (i32, i32)* @function_416d, { 1, 0 }
  uselistorder i32 %__initialize_p, { 1, 0 }
}

define i32 @function_3fb1() local_unnamed_addr {
dec_label_pc_3fb1:
  %eax.global-to-local = alloca i32, align 4
  %v0_3fb1 = load i32, i32* %eax.global-to-local, align 4
  ret i32 %v0_3fb1
}

define i32 @function_3fbb() local_unnamed_addr {
dec_label_pc_3fbb:
  %eax.global-to-local = alloca i32, align 4
  %v0_3fbb = load i32, i32* %eax.global-to-local, align 4
  ret i32 %v0_3fbb
}

define i32 @function_3fc5() local_unnamed_addr {
dec_label_pc_3fc5:
  %eax.global-to-local = alloca i32, align 4
  %v0_3fc5 = load i32, i32* %eax.global-to-local, align 4
  ret i32 %v0_3fc5
}

define i32 @function_4079() local_unnamed_addr {
dec_label_pc_4079:
  %eax.global-to-local = alloca i32, align 4
  %ecx.global-to-local = alloca i32, align 4
  %v0_4079 = load i32, i32* %eax.global-to-local, align 4
  %v2_4079 = load i32, i32* %ecx.global-to-local, align 4
  %v3_4079 = udiv i32 %v2_4079, 256
  %v5_4079 = add i32 %v3_4079, %v0_4079
  %v20_4079 = and i32 %v5_4079, 255
  %v22_4079 = and i32 %v0_4079, -256
  %v23_4079 = or i32 %v20_4079, %v22_4079
  store i32 %v23_4079, i32* %eax.global-to-local, align 4
  ret i32 %v23_4079

; uselistorder directives
  uselistorder i32 %v0_4079, { 1, 0 }
}

define i32 @function_40ea(i16 %arg1) local_unnamed_addr {
dec_label_pc_40ea:
  %eax.global-to-local = alloca i32, align 4
  %ebx.global-to-local = alloca i32, align 4
  %v0_40ea = load i32, i32* %ebx.global-to-local, align 4
  %v3_40ea = load i32, i32* %eax.global-to-local, align 4
  %v5_40ea2 = mul i32 %v3_40ea, 256
  %v1_40ea3 = add i32 %v5_40ea2, %v0_40ea
  %v22_40ea = and i32 %v1_40ea3, 65280
  %v23_40ea = and i32 %v0_40ea, -65281
  %v24_40ea = or i32 %v22_40ea, %v23_40ea
  store i32 %v24_40ea, i32* %ebx.global-to-local, align 4
  %v2_40ec = add i32 %v3_40ea, 36
  %v16_40ec = and i32 %v2_40ec, 189
  %v18_40ec = and i32 %v3_40ea, 402652928
  %v19_40ec = or i32 %v18_40ec, %v16_40ec
  %v1_40ee = or i32 %v19_40ec, -402653118
  store i32 %v1_40ee, i32* %eax.global-to-local, align 4
  ret i32 %v1_40ee

; uselistorder directives
  uselistorder i32 %v1_40ee, { 1, 0 }
  uselistorder i32 %v3_40ea, { 2, 1, 0 }
  uselistorder i32 %v0_40ea, { 1, 0 }
}

define i32 @function_416d(i32 %arg1, i32 %arg2) local_unnamed_addr {
dec_label_pc_416d:
  %v0_416d = load i32, i32* @ebp, align 4
  %v1_416d = add i32 %v0_416d, -12
  %v2_416d = inttoptr i32 %v1_416d to i32*
  %v3_416d = load i32, i32* %v2_416d, align 4
  %v1_4170 = load i32, i32* inttoptr (i32 20 to i32*), align 4
  %v2_4170 = xor i32 %v1_4170, %v3_416d
  %v3_4170 = icmp eq i32 %v2_4170, 0
  store i32 %v2_4170, i32* @eax, align 4
  br i1 %v3_4170, label %bb, label %dec_label_pc_4179

bb:                                               ; preds = %dec_label_pc_416d
  %v1_4177 = call i32 @function_417e()
  br label %dec_label_pc_4179

dec_label_pc_4179:                                ; preds = %bb, %dec_label_pc_416d
  %v2_4177 = phi i32 [ %v1_4177, %bb ], [ %v2_4170, %dec_label_pc_416d ]
  ret i32 %v2_4177
}

define i32 @function_417e() local_unnamed_addr {
dec_label_pc_417e:
  %v0_417f = load i32, i32* @eax, align 4
  ret i32 %v0_417f
}

define void @_GLOBAL__sub_I__Z13GetDifficultyPK11CBlockIndexi() local_unnamed_addr {
dec_label_pc_4180:
  call void @__static_initialization_and_destruction_0(i32 1, i32 65535)
  store i32 0, i32* @eax, align 4
  br i1 true, label %bb, label %dec_label_pc_41b1

bb:                                               ; preds = %dec_label_pc_4180
  %v1_41af = call i32 @function_41b6()
  br label %dec_label_pc_41b1

dec_label_pc_41b1:                                ; preds = %bb, %dec_label_pc_4180
  ret void

; uselistorder directives
  uselistorder i32 65535, { 1, 0 }
}

define i32 @function_41b6() local_unnamed_addr {
dec_label_pc_41b6:
  %v0_41b7 = load i32, i32* @eax, align 4
  ret i32 %v0_41b7
}

define i32 @_ZNSt9exceptionC1Ev(i32* %arg1) local_unnamed_addr {
dec_label_pc_41d4:
  store i32 8, i32* %arg1, align 4
  store i32 0, i32* @eax, align 4
  br i1 true, label %bb, label %dec_label_pc_4200

bb:                                               ; preds = %dec_label_pc_41d4
  %tmp100 = ptrtoint i32* %arg1 to i32
  %v2_41fe = call i32 @_ZN5boost6spirit7classicL5hex_pE(i32 %tmp100)
  br label %dec_label_pc_4200

dec_label_pc_4200:                                ; preds = %bb, %dec_label_pc_41d4
  %v3_41fe = phi i32 [ %v2_41fe, %bb ], [ 0, %dec_label_pc_41d4 ]
  ret i32 %v3_41fe

; uselistorder directives
  uselistorder i32* %arg1, { 1, 0 }
}

define i32 @_ZN5boost6spirit7classicL5hex_pE(i32 %arg1) local_unnamed_addr {
dec_label_pc_4205:
  %v0_4206 = load i32, i32* @eax, align 4
  ret i32 %v0_4206
}

define i32 @_ZNSt9bad_allocC1Ev(i32 %arg1) local_unnamed_addr {
dec_label_pc_4208:
  store i32 %arg1, i32* @eax, align 4
  %v1_4225 = call i32 @function_83dc(i32 %arg1)
  ret i32 %arg1
}

define i32 @_ZnwjPv(i32 %arg1, i32 %arg2) local_unnamed_addr {
dec_label_pc_4246:
  store i32 %arg2, i32* @eax, align 4
  br i1 true, label %bb, label %dec_label_pc_4272

bb:                                               ; preds = %dec_label_pc_4246
  %v3_4270 = call i32 @function_4277(i32 %arg2, i32 %arg1)
  br label %dec_label_pc_4272

dec_label_pc_4272:                                ; preds = %bb, %dec_label_pc_4246
  %v4_4270 = phi i32 [ %v3_4270, %bb ], [ %arg2, %dec_label_pc_4246 ]
  ret i32 %v4_4270
}

define i32 @function_4277(i32 %arg1, i32 %arg2) local_unnamed_addr {
dec_label_pc_4277:
  %v0_4278 = load i32, i32* @eax, align 4
  ret i32 %v0_4278
}

define i32 @_ZdlPvS_(i32 %arg1, i32 %arg2) local_unnamed_addr {
dec_label_pc_4279:
  store i32 0, i32* @eax, align 4
  br i1 true, label %bb, label %dec_label_pc_42a2

bb:                                               ; preds = %dec_label_pc_4279
  %v3_42a0 = call i32 @function_42a7(i32 %arg2, i32 %arg1)
  br label %dec_label_pc_42a2

dec_label_pc_42a2:                                ; preds = %bb, %dec_label_pc_4279
  %v4_42a0 = phi i32 [ %v3_42a0, %bb ], [ 0, %dec_label_pc_4279 ]
  ret i32 %v4_42a0
}

define i32 @function_42a7(i32 %arg1, i32 %arg2) local_unnamed_addr {
dec_label_pc_42a7:
  %v0_42a8 = load i32, i32* @eax, align 4
  ret i32 %v0_42a8
}

define i32 @_ZN9base_uintILj256EEC1Ev(i32 %arg1) local_unnamed_addr {
dec_label_pc_42aa:
  store i32 0, i32* @eax, align 4
  br i1 true, label %bb, label %dec_label_pc_42cd

bb:                                               ; preds = %dec_label_pc_42aa
  %v2_42cb = call i32 @function_42d2(i32 %arg1)
  br label %dec_label_pc_42cd

dec_label_pc_42cd:                                ; preds = %bb, %dec_label_pc_42aa
  %v3_42cb = phi i32 [ %v2_42cb, %bb ], [ 0, %dec_label_pc_42aa ]
  ret i32 %v3_42cb
}

define i32 @function_42d2(i32 %arg1) local_unnamed_addr {
dec_label_pc_42d2:
  %v0_42d3 = load i32, i32* @eax, align 4
  ret i32 %v0_42d3
}

define i32 @_ZN7uint256C1Ev(i32 %arg1) local_unnamed_addr {
dec_label_pc_42d4:
  %eax.global-to-local = alloca i32, align 4
  store i32 %arg1, i32* %eax.global-to-local, align 4
  store i32 %arg1, i32* @eax, align 4
  %v1_42f1 = call i32 @function_857e(i32 %arg1)
  %v7_4314107 = and i32 %v1_42f1, -256
  %v8_4314108 = or i32 %v7_4314107, 1
  store i32 %v8_4314108, i32* %eax.global-to-local, align 4
  br label %dec_label_pc_42ff

dec_label_pc_42ff:                                ; preds = %dec_label_pc_42d4, %dec_label_pc_42ff
  %storemerge109 = phi i32 [ 0, %dec_label_pc_42d4 ], [ %v4_430c, %dec_label_pc_42ff ]
  store i32 %arg1, i32* %eax.global-to-local, align 4
  %v2_4305 = mul nuw nsw i32 %storemerge109, 4
  %v3_4305 = add i32 %v2_4305, %arg1
  %v4_4305 = inttoptr i32 %v3_4305 to i32*
  store i32 0, i32* %v4_4305, align 4
  %v4_430c = add nuw nsw i32 %storemerge109, 1
  %v6_4314.pre = load i32, i32* %eax.global-to-local, align 4
  %tmp106 = sub nsw i32 5, %storemerge109
  %v11_4310 = and i32 %tmp106, %v4_430c
  %v12_4310 = icmp slt i32 %v11_4310, 0
  %v13_4310 = icmp eq i32 %v4_430c, 7
  %v14_4310 = icmp slt i32 %v4_430c, 7
  %v3_4314 = icmp ne i1 %v14_4310, %v12_4310
  %v4_4314 = or i1 %v13_4310, %v3_4314
  %v5_4314 = zext i1 %v4_4314 to i32
  %v7_4314 = and i32 %v6_4314.pre, -256
  %v8_4314 = or i32 %v5_4314, %v7_4314
  store i32 %v8_4314, i32* %eax.global-to-local, align 4
  %exitcond = icmp eq i32 %v4_430c, 8
  br i1 %exitcond, label %dec_label_pc_431b, label %dec_label_pc_42ff

dec_label_pc_431b:                                ; preds = %dec_label_pc_42ff
  store i32 0, i32* %eax.global-to-local, align 4
  ret i32 0

; uselistorder directives
  uselistorder i32 %storemerge109, { 0, 2, 1 }
  uselistorder i32* %eax.global-to-local, { 2, 3, 0, 1, 5, 4 }
  uselistorder i32 %arg1, { 0, 1, 3, 2, 4 }
  uselistorder label %dec_label_pc_42ff, { 1, 0 }
}

define i32 @_ZN7uint256C1Ey(i32* %arg1, i32 %arg2, i32 %arg3) local_unnamed_addr {
dec_label_pc_432e:
  %eax.global-to-local = alloca i32, align 4
  %tmp107 = ptrtoint i32* %arg1 to i32
  store i32 %arg3, i32* %eax.global-to-local, align 4
  store i32 %tmp107, i32* @eax, align 4
  %v1_4357 = call i32 @function_85d8(i32 %tmp107)
  store i32 %arg2, i32* %arg1, align 4
  store i32 %tmp107, i32* %eax.global-to-local, align 4
  %v2_4373 = add i32 %tmp107, 4
  %v3_4373 = inttoptr i32 %v2_4373 to i32*
  store i32 %arg3, i32* %v3_4373, align 4
  %v6_4394111 = load i32, i32* %eax.global-to-local, align 4
  %v7_4394112 = and i32 %v6_4394111, -256
  %v8_4394113 = or i32 %v7_4394112, 1
  store i32 %v8_4394113, i32* %eax.global-to-local, align 4
  br label %dec_label_pc_437f

dec_label_pc_437f:                                ; preds = %dec_label_pc_432e, %dec_label_pc_437f
  %storemerge114 = phi i32 [ 2, %dec_label_pc_432e ], [ %v4_438c, %dec_label_pc_437f ]
  store i32 %tmp107, i32* %eax.global-to-local, align 4
  %v2_4385 = mul nuw nsw i32 %storemerge114, 4
  %v3_4385 = add i32 %v2_4385, %tmp107
  %v4_4385 = inttoptr i32 %v3_4385 to i32*
  store i32 0, i32* %v4_4385, align 4
  %v4_438c = add nuw nsw i32 %storemerge114, 1
  %tmp110 = sub nsw i32 5, %storemerge114
  %v11_4390 = and i32 %tmp110, %v4_438c
  %v12_4390 = icmp slt i32 %v11_4390, 0
  %v13_4390 = icmp eq i32 %v4_438c, 7
  %v14_4390 = icmp slt i32 %v4_438c, 7
  %v3_4394 = icmp ne i1 %v14_4390, %v12_4390
  %v4_4394 = or i1 %v13_4390, %v3_4394
  %v5_4394 = zext i1 %v4_4394 to i32
  %v6_4394 = load i32, i32* %eax.global-to-local, align 4
  %v7_4394 = and i32 %v6_4394, -256
  %v8_4394 = or i32 %v5_4394, %v7_4394
  store i32 %v8_4394, i32* %eax.global-to-local, align 4
  %exitcond = icmp eq i32 %v4_438c, 8
  br i1 %exitcond, label %dec_label_pc_439b, label %dec_label_pc_437f

dec_label_pc_439b:                                ; preds = %dec_label_pc_437f
  store i32 0, i32* %eax.global-to-local, align 4
  ret i32 0

; uselistorder directives
  uselistorder i32 %storemerge114, { 0, 2, 1 }
  uselistorder i32 %tmp107, { 0, 1, 3, 2, 5, 4 }
  uselistorder i32* %eax.global-to-local, { 2, 3, 0, 1, 7, 4, 5, 6 }
  uselistorder label %dec_label_pc_437f, { 1, 0 }
}

define i32 @_ZN7uint256aSEy(i32* %arg1, i32 %arg2, i32 %arg3) local_unnamed_addr {
dec_label_pc_43ae:
  %tmp106 = ptrtoint i32* %arg1 to i32
  store i32 %arg2, i32* %arg1, align 4
  %v2_43e8 = add i32 %tmp106, 4
  %v3_43e8 = inttoptr i32 %v2_43e8 to i32*
  store i32 %arg3, i32* %v3_43e8, align 4
  br label %dec_label_pc_43f4

dec_label_pc_43f4:                                ; preds = %dec_label_pc_43ae, %dec_label_pc_43f4
  %storemerge109 = phi i32 [ 2, %dec_label_pc_43ae ], [ %v4_4401, %dec_label_pc_43f4 ]
  %v2_43fa = mul nuw nsw i32 %storemerge109, 4
  %v3_43fa = add i32 %v2_43fa, %tmp106
  %v4_43fa = inttoptr i32 %v3_43fa to i32*
  store i32 0, i32* %v4_43fa, align 4
  %v4_4401 = add nuw nsw i32 %storemerge109, 1
  %exitcond = icmp eq i32 %v4_4401, 8
  br i1 %exitcond, label %dec_label_pc_4410, label %dec_label_pc_43f4

dec_label_pc_4410:                                ; preds = %dec_label_pc_43f4
  ret i32 %tmp106

; uselistorder directives
  uselistorder i32 %storemerge109, { 1, 0 }
  uselistorder i32 %tmp106, { 1, 0, 2 }
  uselistorder label %dec_label_pc_43f4, { 1, 0 }
}

define i32 @_ZN7uint256C1ERKSs(i32 %arg1, i32 %arg2) local_unnamed_addr {
dec_label_pc_4426:
  store i32 %arg1, i32* @eax, align 4
  %v1_4449 = call i32 @function_86d0(i32 %arg1)
  store i32 %arg1, i32* @eax, align 4
  %v2_445b = call i32 @function_14a5c(i32 %arg1, i32 %arg2)
  store i32 0, i32* @eax, align 4
  br i1 true, label %bb, label %dec_label_pc_446c

bb:                                               ; preds = %dec_label_pc_4426
  %v1_446a = call i32 @function_4471()
  br label %dec_label_pc_446c

dec_label_pc_446c:                                ; preds = %bb, %dec_label_pc_4426
  %v2_446a = phi i32 [ %v1_446a, %bb ], [ 0, %dec_label_pc_4426 ]
  ret i32 %v2_446a

; uselistorder directives
  uselistorder i32 %arg1, { 3, 2, 1, 0 }
}

define i32 @function_4471() local_unnamed_addr {
dec_label_pc_4471:
  %v0_4472 = load i32, i32* @eax, align 4
  ret i32 %v0_4472
}

define i32 @_ZltRK7uint256S1_(i32* %arg1, i32 %arg2) local_unnamed_addr {
dec_label_pc_4473:
  %stack_var_-80 = alloca i32, align 4
  %stack_var_-48 = alloca i32, align 4
  store i1 true, i1* @zf, align 1
  %v1_4493 = inttoptr i32 %arg2 to i32*
  %v2_4493 = load i32, i32* %v1_4493, align 4
  store i32 %v2_4493, i32* %stack_var_-48, align 4
  %v2_44c5 = load i32, i32* %arg1, align 4
  store i32 %v2_44c5, i32* %stack_var_-80, align 4
  %v4_44f7 = ptrtoint i32* %stack_var_-48 to i32
  %v2_44fb = ptrtoint i32* %stack_var_-80 to i32
  store i32 %v2_44fb, i32* @eax, align 4
  %v2_4501 = call i32 @function_14af3(i32 %v2_44fb, i32 %v4_44f7)
  store i32 %v2_4501, i32* @eax, align 4
  br i1 true, label %bb, label %dec_label_pc_4512

bb:                                               ; preds = %dec_label_pc_4473
  %v1_4510 = call i32 @function_4517()
  br label %dec_label_pc_4512

dec_label_pc_4512:                                ; preds = %bb, %dec_label_pc_4473
  %v2_4510 = phi i32 [ %v1_4510, %bb ], [ %v2_4501, %dec_label_pc_4473 ]
  ret i32 %v2_4510
}

define i32 @function_4517() local_unnamed_addr {
dec_label_pc_4517:
  %v0_4518 = load i32, i32* @eax, align 4
  ret i32 %v0_4518
}

define i32 @_ZNSt14numeric_limitsItE3maxEv() local_unnamed_addr {
dec_label_pc_4519:
  %v0_451f = load i32, i32* inttoptr (i32 20 to i32*), align 4
  store i32 -1, i32* @eax, align 4
  br i1 true, label %bb, label %dec_label_pc_453b

bb:                                               ; preds = %dec_label_pc_4519
  %v2_4539 = call i32 @function_4540(i32 %v0_451f)
  br label %dec_label_pc_453b

dec_label_pc_453b:                                ; preds = %bb, %dec_label_pc_4519
  %v3_4539 = phi i32 [ %v2_4539, %bb ], [ -1, %dec_label_pc_4519 ]
  ret i32 %v3_4539
}

define i32 @function_4540(i32 %arg1) local_unnamed_addr {
dec_label_pc_4540:
  %v0_4541 = load i32, i32* @eax, align 4
  ret i32 %v0_4541
}

define i32 @_ZNSt14numeric_limitsIjE3maxEv() local_unnamed_addr {
dec_label_pc_4542:
  %v0_4548 = load i32, i32* inttoptr (i32 20 to i32*), align 4
  store i32 -1, i32* @eax, align 4
  br i1 true, label %bb, label %dec_label_pc_4564

bb:                                               ; preds = %dec_label_pc_4542
  %v2_4562 = call i32 @function_4569(i32 %v0_4548)
  br label %dec_label_pc_4564

dec_label_pc_4564:                                ; preds = %bb, %dec_label_pc_4542
  %v3_4562 = phi i32 [ %v2_4562, %bb ], [ -1, %dec_label_pc_4542 ]
  ret i32 %v3_4562
}

define i32 @function_4569(i32 %arg1) local_unnamed_addr {
dec_label_pc_4569:
  %v0_456a = load i32, i32* @eax, align 4
  ret i32 %v0_456a
}

define i32 @_ZStorSt12_Ios_IostateS_(i32 %arg1, i32 %arg2) local_unnamed_addr {
dec_label_pc_456b:
  %v2_458e = or i32 %arg2, %arg1
  store i32 %v2_458e, i32* @eax, align 4
  br i1 true, label %bb, label %dec_label_pc_459c

bb:                                               ; preds = %dec_label_pc_456b
  %v3_459a = call i32 @function_45a1(i32 %arg2, i32 %arg1)
  br label %dec_label_pc_459c

dec_label_pc_459c:                                ; preds = %bb, %dec_label_pc_456b
  %v4_459a = phi i32 [ %v3_459a, %bb ], [ %v2_458e, %dec_label_pc_456b ]
  ret i32 %v4_459a

; uselistorder directives
  uselistorder i32 %arg2, { 1, 0 }
  uselistorder i32 %arg1, { 1, 0 }
}

define i32 @function_45a1(i32 %arg1, i32 %arg2) local_unnamed_addr {
dec_label_pc_45a1:
  %v0_45a2 = load i32, i32* @eax, align 4
  ret i32 %v0_45a2
}

define i32 @_ZN5boost12noncopyable_11noncopyableD1Ev(i32 %arg1) local_unnamed_addr {
dec_label_pc_45a4:
  ret i32 0
}

define i32 @_ZN5boost10error_infoINS_15throw_function_EPKcEC1ES3_(i32* %arg1, i32 %arg2) local_unnamed_addr {
dec_label_pc_45ce:
  %ebp.global-to-local = alloca i32, align 4
  %v0_45ce = load i32, i32* %ebp.global-to-local, align 4
  store i32 %arg2, i32* %arg1, align 4
  store i32 %v0_45ce, i32* %ebp.global-to-local, align 4
  ret i32 0

; uselistorder directives
  uselistorder i32* %ebp.global-to-local, { 1, 0 }
}

define i32 @_ZN5boost10error_infoINS_11throw_file_EPKcEC1ES3_(i32* %arg1, i32 %arg2) local_unnamed_addr {
dec_label_pc_4606:
  %ebp.global-to-local = alloca i32, align 4
  %v0_4606 = load i32, i32* %ebp.global-to-local, align 4
  store i32 %arg2, i32* %arg1, align 4
  store i32 %v0_4606, i32* %ebp.global-to-local, align 4
  ret i32 0

; uselistorder directives
  uselistorder i32* %ebp.global-to-local, { 1, 0 }
}

define i32 @_ZN5boost10error_infoINS_11throw_line_EiEC1Ei(i32* %arg1, i32 %arg2) local_unnamed_addr {
dec_label_pc_463e:
  %ebp.global-to-local = alloca i32, align 4
  %v0_463e = load i32, i32* %ebp.global-to-local, align 4
  store i32 %arg2, i32* %arg1, align 4
  store i32 %v0_463e, i32* %ebp.global-to-local, align 4
  ret i32 0

; uselistorder directives
  uselistorder i32* %ebp.global-to-local, { 1, 0 }
}

define i32 @_ZN5boost9exceptionC1Ev(i32* %arg1) local_unnamed_addr {
dec_label_pc_4676:
  %tmp100 = ptrtoint i32* %arg1 to i32
  store i32 ptrtoint (i32* @global_var_2b518.1804 to i32), i32* %arg1, align 4
  %v1_4699 = add i32 %tmp100, 4
  %v5_4699 = icmp ugt i32* %arg1, inttoptr (i32 -5 to i32*)
  store i1 %v5_4699, i1* @cf, align 1
  store i32 %v1_4699, i32* @eax, align 4
  %v1_469f = call i32 @function_14d7e(i32 %v1_4699)
  %v1_46a7 = add i32 %tmp100, 8
  %v2_46a7 = inttoptr i32 %v1_46a7 to i32*
  store i32 0, i32* %v2_46a7, align 4
  %v1_46b1 = add i32 %tmp100, 12
  %v2_46b1 = inttoptr i32 %v1_46b1 to i32*
  store i32 0, i32* %v2_46b1, align 4
  %v1_46bb = add i32 %tmp100, 16
  %v2_46bb = inttoptr i32 %v1_46bb to i32*
  store i32 -1, i32* %v2_46bb, align 4
  store i32 0, i32* @eax, align 4
  br i1 true, label %bb, label %dec_label_pc_46ce

bb:                                               ; preds = %dec_label_pc_4676
  %v1_46cc = call i32 @function_46d3()
  br label %dec_label_pc_46ce

dec_label_pc_46ce:                                ; preds = %bb, %dec_label_pc_4676
  %v2_46cc = phi i32 [ %v1_46cc, %bb ], [ 0, %dec_label_pc_4676 ]
  ret i32 %v2_46cc

; uselistorder directives
  uselistorder i32 %tmp100, { 3, 2, 1, 0 }
}

define i32 @function_46d3() local_unnamed_addr {
dec_label_pc_46d3:
  %v0_46d4 = load i32, i32* @eax, align 4
  ret i32 %v0_46d4
}

define i32 @_ZN5boost9exceptionD1Ev(i32* %arg1) local_unnamed_addr {
dec_label_pc_46d6:
  %tmp99 = ptrtoint i32* %arg1 to i32
  store i32 ptrtoint (i32* @global_var_2b518.1804 to i32), i32* %arg1, align 4
  %v1_46f9 = add i32 %tmp99, 4
  store i32 %v1_46f9, i32* @eax, align 4
  %v1_46ff = call i32 @function_14e12(i32 %v1_46f9)
  %v1_470e = call i32 @function_4732()
  ret i32 %tmp99
}

define i32 @function_471b() local_unnamed_addr {
dec_label_pc_471b:
  %v0_471b = call i32 @function_4732()
  ret i32 %v0_471b

; uselistorder directives
  uselistorder i32 ()* @function_4732, { 1, 0 }
}

define i32 @function_4732() local_unnamed_addr {
dec_label_pc_4732:
  %v0_4732 = load i32, i32* @ebp, align 4
  %v1_4732 = add i32 %v0_4732, -12
  %v2_4732 = inttoptr i32 %v1_4732 to i32*
  %v3_4732 = load i32, i32* %v2_4732, align 4
  %v1_4735 = load i32, i32* inttoptr (i32 20 to i32*), align 4
  %v2_4735 = xor i32 %v1_4735, %v3_4732
  %v3_4735 = icmp eq i32 %v2_4735, 0
  store i32 %v2_4735, i32* @eax, align 4
  br i1 %v3_4735, label %bb, label %dec_label_pc_473e

bb:                                               ; preds = %dec_label_pc_4732
  %v1_473c = call i32 @function_4743()
  br label %dec_label_pc_473e

dec_label_pc_473e:                                ; preds = %bb, %dec_label_pc_4732
  %v2_473c = phi i32 [ %v1_473c, %bb ], [ %v2_4735, %dec_label_pc_4732 ]
  ret i32 %v2_473c
}

define i32 @function_4743() local_unnamed_addr {
dec_label_pc_4743:
  %v0_4744 = load i32, i32* @eax, align 4
  ret i32 %v0_4744
}

define i32 @_ZN5boost9exceptionD0Ev(i32 %arg1) local_unnamed_addr {
dec_label_pc_56c4:
  store i32 %arg1, i32* @eax, align 4
  %v1_56e1 = call i32 @function_9d9a(i32 %arg1)
  ret i32 %arg1
}

define i32 @function_5701() local_unnamed_addr {
dec_label_pc_5701:
  %eax.global-to-local = alloca i32, align 4
  %ecx.global-to-local = alloca i32, align 4
  %v0_5701 = load i32, i32* %ecx.global-to-local, align 4
  %v1_5701 = add i32 %v0_5701, -1
  store i32 %v1_5701, i32* %ecx.global-to-local, align 4
  %v0_5703 = load i32, i32* %eax.global-to-local, align 4
  ret i32 %v0_5703
}

define i32 @_ZN5boost16exception_detail10clone_baseD1Ev(i32* %arg1) local_unnamed_addr {
dec_label_pc_5704:
  %tmp99 = ptrtoint i32* %arg1 to i32
  store i32 ptrtoint (i32* @global_var_2b500.1805 to i32), i32* %arg1, align 4
  %v2_572e = call i32 @function_573b(i32 %tmp99)
  ret i32 %tmp99

; uselistorder directives
  uselistorder i32 %tmp99, { 1, 0 }
}

define i32 @function_573b(i32 %arg1) local_unnamed_addr {
dec_label_pc_573b:
  %v0_573b = load i32, i32* @ebp, align 4
  %v1_573b = add i32 %v0_573b, -12
  %v2_573b = inttoptr i32 %v1_573b to i32*
  %v3_573b = load i32, i32* %v2_573b, align 4
  %v1_573e = load i32, i32* inttoptr (i32 20 to i32*), align 4
  %v2_573e = xor i32 %v1_573e, %v3_573b
  %v3_573e = icmp eq i32 %v2_573e, 0
  store i32 %v2_573e, i32* @eax, align 4
  br i1 %v3_573e, label %bb, label %dec_label_pc_5747

bb:                                               ; preds = %dec_label_pc_573b
  %v1_5745 = call i32 @function_574c()
  br label %dec_label_pc_5747

dec_label_pc_5747:                                ; preds = %bb, %dec_label_pc_573b
  %v2_5745 = phi i32 [ %v1_5745, %bb ], [ %v2_573e, %dec_label_pc_573b ]
  ret i32 %v2_5745
}

define i32 @function_574c() local_unnamed_addr {
dec_label_pc_574c:
  %v0_574d = load i32, i32* @eax, align 4
  ret i32 %v0_574d
}

define i32 @_ZN5boost16exception_detail10clone_baseD0Ev(i32 %arg1) local_unnamed_addr {
dec_label_pc_574e:
  store i32 %arg1, i32* @eax, align 4
  %v1_576b = call i32 @function_ae52(i32 %arg1)
  ret i32 %arg1
}

define i32 @function_578b() local_unnamed_addr {
dec_label_pc_578b:
  %eax.global-to-local = alloca i32, align 4
  %ecx.global-to-local = alloca i32, align 4
  %v0_578b = load i32, i32* %ecx.global-to-local, align 4
  %v1_578b = add i32 %v0_578b, -1
  store i32 %v1_578b, i32* %ecx.global-to-local, align 4
  %v0_578d = load i32, i32* %eax.global-to-local, align 4
  ret i32 %v0_578d
}

define i32 @_ZN5boost16exception_detail20copy_boost_exceptionEPNS_9exceptionEPKS1_(i32 %arg1, i32 %arg2) local_unnamed_addr {
dec_label_pc_578e:
  %edx.global-to-local = alloca i32, align 4
  %stack_var_-64 = alloca i32, align 4
  %tmp97 = call i32 @__decompiler_undefined_function_0()
  %stack_var_-24 = alloca i32, align 4
  %stack_var_-28 = alloca i32, align 4
  %stack_var_-60 = alloca i32, align 4
  %v2_57ac = ptrtoint i32* %stack_var_-28 to i32
  store i32 %v2_57ac, i32* @eax, align 4
  store i32 %v2_57ac, i32* %stack_var_-60, align 4
  %v1_57b2 = call i32 @function_15e96(i32 %v2_57ac)
  %v1_57ba = add i32 %arg2, 4
  store i32 %v1_57ba, i32* @eax, align 4
  store i32 %v1_57ba, i32* %stack_var_-60, align 4
  %v1_57c0 = call i32 @function_15f00(i32 %v1_57ba)
  %v10_57c8 = icmp eq i32 %v1_57c0, 0
  br i1 %v10_57c8, label %dec_label_pc_5807, label %dec_label_pc_57ce

dec_label_pc_57ce:                                ; preds = %dec_label_pc_578e
  %v2_57d8 = ptrtoint i32* %stack_var_-24 to i32
  store i32 %v1_57c0, i32* %edx.global-to-local, align 8
  store i32 %v2_57d8, i32* %stack_var_-60, align 4
  store i32 %v2_57ac, i32* @eax, align 4
  store i32 %v2_57ac, i32* %stack_var_-64, align 4
  %v3_57f7 = call i32 @function_15f30(i32 %v2_57ac, i32 %v2_57d8, i32 %v1_57c0)
  store i32 %v2_57d8, i32* @eax, align 4
  store i32 %v2_57d8, i32* %stack_var_-64, align 4
  %v1_5802 = call i32 @function_15eca(i32 %v2_57d8)
  br label %dec_label_pc_5807

dec_label_pc_5807:                                ; preds = %dec_label_pc_57ce, %dec_label_pc_578e
  %stack_var_-56.0 = phi i32 [ %tmp97, %dec_label_pc_578e ], [ %v1_57c0, %dec_label_pc_57ce ]
  %v1_580a = add i32 %arg2, 12
  %v2_580a = inttoptr i32 %v1_580a to i32*
  %v3_580a = load i32, i32* %v2_580a, align 4
  store i32 %v3_580a, i32* %edx.global-to-local, align 8
  %v2_5810 = add i32 %arg1, 12
  %v3_5810 = inttoptr i32 %v2_5810 to i32*
  store i32 %v3_580a, i32* %v3_5810, align 4
  %v1_5816 = add i32 %arg2, 16
  %v2_5816 = inttoptr i32 %v1_5816 to i32*
  %v3_5816 = load i32, i32* %v2_5816, align 4
  store i32 %v3_5816, i32* %edx.global-to-local, align 8
  %v2_581c = add i32 %arg1, 16
  %v3_581c = inttoptr i32 %v2_581c to i32*
  store i32 %v3_5816, i32* %v3_581c, align 4
  %v1_5822 = add i32 %arg2, 8
  %v2_5822 = inttoptr i32 %v1_5822 to i32*
  %v3_5822 = load i32, i32* %v2_5822, align 4
  %v2_5828 = add i32 %arg1, 8
  %v3_5828 = inttoptr i32 %v2_5828 to i32*
  store i32 %v3_5822, i32* %v3_5828, align 4
  %v1_582e = add i32 %arg1, 4
  store i32 %v1_582e, i32* %edx.global-to-local, align 8
  store i32 %v2_57ac, i32* @eax, align 4
  %v1_5834 = load i32, i32* @esp, align 4
  %v2_5834 = add i32 %v1_5834, 4
  %v3_5834 = inttoptr i32 %v2_5834 to i32*
  store i32 %v2_57ac, i32* %v3_5834, align 4
  %v0_5838 = load i32, i32* %edx.global-to-local, align 8
  %v1_5838 = load i32, i32* @esp, align 4
  %v2_5838 = inttoptr i32 %v1_5838 to i32*
  store i32 %v0_5838, i32* %v2_5838, align 4
  %v0_583b = load i32, i32* %stack_var_-64, align 4
  %v1_583b = load i32, i32* %stack_var_-60, align 4
  %v3_583b = call i32 @function_15f30(i32 %v0_583b, i32 %v1_583b, i32 %stack_var_-56.0)
  store i32 %v2_57ac, i32* @eax, align 4
  %v1_5843 = load i32, i32* @esp, align 4
  %v2_5843 = inttoptr i32 %v1_5843 to i32*
  store i32 %v2_57ac, i32* %v2_5843, align 4
  %v0_5846 = load i32, i32* %stack_var_-64, align 4
  %v1_5846 = call i32 @function_15eca(i32 %v0_5846)
  store i32 0, i32* @eax, align 4
  br i1 true, label %bb, label %dec_label_pc_5857

bb:                                               ; preds = %dec_label_pc_5807
  %v1_5855 = call i32 @function_5884()
  store i32 %v1_5855, i32* @eax, align 4
  br label %dec_label_pc_5857

dec_label_pc_5857:                                ; preds = %bb, %dec_label_pc_5807
  %v0_5857 = call i32 @function_587f()
  ret i32 %v0_5857

; uselistorder directives
  uselistorder i32 %v2_57d8, { 1, 0, 2, 4, 3 }
  uselistorder i32 %v2_57ac, { 3, 4, 5, 6, 1, 0, 2, 8, 7, 9 }
  uselistorder i32 (i32, i32, i32)* @function_15f30, { 1, 0 }
}

define i32 @function_5859() local_unnamed_addr {
dec_label_pc_5859:
  %eax.global-to-local = alloca i32, align 4
  %v0_5859 = load i32, i32* %eax.global-to-local, align 4
  store i32 %v0_5859, i32* @ebx, align 4
  %v0_585b = load i32, i32* @ebp, align 4
  %v1_585b = add i32 %v0_585b, -20
  store i32 %v1_585b, i32* @eax, align 4
  %v1_5861 = call i32 @function_15eca(i32 %v1_585b)
  store i32 %v1_5861, i32* %eax.global-to-local, align 4
  %v0_5866 = call i32 @function_586a()
  store i32 %v0_5866, i32* %eax.global-to-local, align 4
  ret i32 %v0_5866
}

define i32 @function_5868() local_unnamed_addr {
dec_label_pc_5868:
  %eax.global-to-local = alloca i32, align 4
  %v0_5868 = load i32, i32* %eax.global-to-local, align 4
  ret i32 %v0_5868
}

define i32 @function_586a() local_unnamed_addr {
dec_label_pc_586a:
  %v0_586a = load i32, i32* @ebp, align 4
  %v1_586a = add i32 %v0_586a, -24
  store i32 %v1_586a, i32* @eax, align 4
  %v1_5870 = call i32 @function_15eca(i32 %v1_586a)
  %v0_5875 = load i32, i32* @ebx, align 4
  ret i32 %v0_5875

; uselistorder directives
  uselistorder i32 (i32)* @function_15eca, { 3, 2, 1, 0 }
}

define i32 @function_587f() local_unnamed_addr {
dec_label_pc_587f:
  %tmp = load i32, i32* @eax, align 4
  ret i32 %tmp
}

define i32 @function_5884() local_unnamed_addr {
dec_label_pc_5884:
  %v0_5888 = load i32, i32* @eax, align 4
  ret i32 %v0_5888
}

define i32 @_ZN5boost36throw_exception_assert_compatibilityERKSt9exception(i32 %arg1) local_unnamed_addr {
dec_label_pc_5889:
  store i32 0, i32* @eax, align 4
  br i1 true, label %bb, label %dec_label_pc_58ac

bb:                                               ; preds = %dec_label_pc_5889
  %v2_58aa = call i32 @function_58b1(i32 %arg1)
  br label %dec_label_pc_58ac

dec_label_pc_58ac:                                ; preds = %bb, %dec_label_pc_5889
  %v3_58aa = phi i32 [ %v2_58aa, %bb ], [ 0, %dec_label_pc_5889 ]
  ret i32 %v3_58aa
}

define i32 @function_58b1(i32 %arg1) local_unnamed_addr {
dec_label_pc_58b1:
  %v0_58b2 = load i32, i32* @eax, align 4
  ret i32 %v0_58b2
}

define i32 @_ZN5boost16thread_exceptionC1Ev(i32* %arg1) local_unnamed_addr {
dec_label_pc_58b4:
  %tmp100 = ptrtoint i32* %arg1 to i32
  store i32 %tmp100, i32* @eax, align 4
  %v1_58d1 = call i32 @function_9a88(i32 %tmp100)
  store i32 ptrtoint (%vtable_2b4e8_type* @global_var_2b4e8.1806 to i32), i32* %arg1, align 4
  %v1_58e2 = add i32 %tmp100, 4
  %v2_58e2 = inttoptr i32 %v1_58e2 to i32*
  store i32 0, i32* %v2_58e2, align 4
  store i32 0, i32* @eax, align 4
  br i1 true, label %bb, label %dec_label_pc_58f5

bb:                                               ; preds = %dec_label_pc_58b4
  %v1_58f3 = call i32 @function_58fa()
  br label %dec_label_pc_58f5

dec_label_pc_58f5:                                ; preds = %bb, %dec_label_pc_58b4
  %v2_58f3 = phi i32 [ %v1_58f3, %bb ], [ 0, %dec_label_pc_58b4 ]
  ret i32 %v2_58f3

; uselistorder directives
  uselistorder i32 %tmp100, { 2, 1, 0 }
}

define i32 @function_58fa() local_unnamed_addr {
dec_label_pc_58fa:
  %v0_58fb = load i32, i32* @eax, align 4
  ret i32 %v0_58fb
}

define i32 @_ZN5boost16thread_exceptionD1Ev(i32* %arg1) {
dec_label_pc_58fc:
  %tmp99 = ptrtoint i32* %arg1 to i32
  store i32 ptrtoint (%vtable_2b4e8_type* @global_var_2b4e8.1806 to i32), i32* %arg1, align 4
  ret i32 %tmp99
}

define i32 @function_594e() local_unnamed_addr {
dec_label_pc_594e:
  %eax.global-to-local = alloca i32, align 4
  %ecx.global-to-local = alloca i32, align 4
  %v0_594e = load i32, i32* %ecx.global-to-local, align 4
  %v1_594e = add i32 %v0_594e, -1
  store i32 %v1_594e, i32* %ecx.global-to-local, align 4
  %v0_5950 = load i32, i32* %eax.global-to-local, align 4
  ret i32 %v0_5950
}

define i32 @_ZN5boost16thread_exceptionD0Ev(i32 %arg1) {
dec_label_pc_5952:
  store i32 %arg1, i32* @eax, align 4
  %v1_596f = call i32 @function_b24e(i32 %arg1)
  ret i32 %arg1
}

define i32 @function_598f() local_unnamed_addr {
dec_label_pc_598f:
  %eax.global-to-local = alloca i32, align 4
  %ecx.global-to-local = alloca i32, align 4
  %v0_598f = load i32, i32* %ecx.global-to-local, align 4
  %v1_598f = add i32 %v0_598f, -1
  store i32 %v1_598f, i32* %ecx.global-to-local, align 4
  %v0_5991 = load i32, i32* %eax.global-to-local, align 4
  ret i32 %v0_5991
}

define i32 @_ZN5boost10lock_errorC1Ev(i32* %arg1) local_unnamed_addr {
dec_label_pc_5992:
  %tmp100 = ptrtoint i32* %arg1 to i32
  store i32 %tmp100, i32* @eax, align 4
  %v1_59af = call i32 @function_b246(i32 %tmp100)
  store i32 ptrtoint (%vtable_2b4d0_type* @global_var_2b4d0.1807 to i32), i32* %arg1, align 4
  store i32 0, i32* @eax, align 4
  br i1 true, label %bb, label %dec_label_pc_59c9

bb:                                               ; preds = %dec_label_pc_5992
  %v1_59c7 = call i32 @function_59ce()
  br label %dec_label_pc_59c9

dec_label_pc_59c9:                                ; preds = %bb, %dec_label_pc_5992
  %v2_59c7 = phi i32 [ %v1_59c7, %bb ], [ 0, %dec_label_pc_5992 ]
  ret i32 %v2_59c7

; uselistorder directives
  uselistorder i32 %tmp100, { 1, 0 }
}

define i32 @function_59ce() local_unnamed_addr {
dec_label_pc_59ce:
  %v0_59cf = load i32, i32* @eax, align 4
  ret i32 %v0_59cf
}

define i32 @_ZN5boost10lock_errorD1Ev(i32* %arg1) {
dec_label_pc_59d0:
  %tmp99 = ptrtoint i32* %arg1 to i32
  store i32 ptrtoint (%vtable_2b4d0_type* @global_var_2b4d0.1807 to i32), i32* %arg1, align 4
  store i32 %tmp99, i32* @eax, align 4
  %v1_59f6 = call i32 @function_b2cc(i32 %tmp99)
  %v1_5a05 = call i32 @function_5a12()
  ret i32 %tmp99
}

define i32 @function_5a12() local_unnamed_addr {
dec_label_pc_5a12:
  %v0_5a12 = load i32, i32* @ebp, align 4
  %v1_5a12 = add i32 %v0_5a12, -12
  %v2_5a12 = inttoptr i32 %v1_5a12 to i32*
  %v3_5a12 = load i32, i32* %v2_5a12, align 4
  %v1_5a15 = load i32, i32* inttoptr (i32 20 to i32*), align 4
  %v2_5a15 = xor i32 %v1_5a15, %v3_5a12
  %v3_5a15 = icmp eq i32 %v2_5a15, 0
  store i32 %v2_5a15, i32* @eax, align 4
  br i1 %v3_5a15, label %bb, label %dec_label_pc_5a1e

bb:                                               ; preds = %dec_label_pc_5a12
  %v1_5a1c = call i32 @function_5a23()
  br label %dec_label_pc_5a1e

dec_label_pc_5a1e:                                ; preds = %bb, %dec_label_pc_5a12
  %v2_5a1c = phi i32 [ %v1_5a1c, %bb ], [ %v2_5a15, %dec_label_pc_5a12 ]
  ret i32 %v2_5a1c
}

define i32 @function_5a23() local_unnamed_addr {
dec_label_pc_5a23:
  %v0_5a24 = load i32, i32* @eax, align 4
  ret i32 %v0_5a24
}

define i32 @_ZN5boost10lock_errorD0Ev(i32 %arg1) {
dec_label_pc_5a26:
  store i32 %arg1, i32* @eax, align 4
  %v1_5a43 = call i32 @function_b3f6(i32 %arg1)
  ret i32 %arg1
}

define i32 @function_5a63() local_unnamed_addr {
dec_label_pc_5a63:
  %eax.global-to-local = alloca i32, align 4
  %ecx.global-to-local = alloca i32, align 4
  %v0_5a63 = load i32, i32* %ecx.global-to-local, align 4
  %v1_5a63 = add i32 %v0_5a63, -1
  store i32 %v1_5a63, i32* %ecx.global-to-local, align 4
  %v0_5a65 = load i32, i32* %eax.global-to-local, align 4
  ret i32 %v0_5a65
}

define i32 @function_83dc(i32 %arg1) local_unnamed_addr {
dec_label_pc_83dc:
  %tmp = load i32, i32* @eax, align 4
  ret i32 %tmp
}

define i32 @function_857e(i32 %arg1) local_unnamed_addr {
dec_label_pc_857e:
  %tmp = load i32, i32* @eax, align 4
  ret i32 %tmp
}

define i32 @function_85d8(i32 %arg1) local_unnamed_addr {
dec_label_pc_85d8:
  %tmp = load i32, i32* @eax, align 4
  ret i32 %tmp
}

define i32 @function_86d0(i32 %arg1) local_unnamed_addr {
dec_label_pc_86d0:
  %tmp = load i32, i32* @eax, align 4
  ret i32 %tmp
}

define i32 @function_9a88(i32 %arg1) local_unnamed_addr {
dec_label_pc_9a88:
  %tmp = load i32, i32* @eax, align 4
  ret i32 %tmp
}

define i32 @function_9d9a(i32 %arg1) local_unnamed_addr {
dec_label_pc_9d9a:
  %tmp = load i32, i32* @eax, align 4
  ret i32 %tmp
}

define i32 @function_ae52(i32 %arg1) local_unnamed_addr {
dec_label_pc_ae52:
  %tmp = load i32, i32* @eax, align 4
  ret i32 %tmp
}

define i32 @function_b246(i32 %arg1) local_unnamed_addr {
dec_label_pc_b246:
  %tmp = load i32, i32* @eax, align 4
  ret i32 %tmp
}

define i32 @function_b24e(i32 %arg1) local_unnamed_addr {
dec_label_pc_b24e:
  %tmp = load i32, i32* @eax, align 4
  ret i32 %tmp
}

define i32 @function_b2cc(i32 %arg1) local_unnamed_addr {
dec_label_pc_b2cc:
  %tmp = load i32, i32* @eax, align 4
  ret i32 %tmp
}

define i32 @function_b3f6(i32 %arg1) local_unnamed_addr {
dec_label_pc_b3f6:
  %tmp = load i32, i32* @eax, align 4
  ret i32 %tmp
}

define i32 @_ZNK5boost10lock_error4whatEv(i32 %arg1) {
dec_label_pc_d274:
  ret i32 ptrtoint ([18 x i8]* @global_var_5a68.1808 to i32)
}

define i32 @_ZN5boost6detail23atomic_exchange_and_addEPii(i32* %arg1, i32 %arg2) local_unnamed_addr {
dec_label_pc_d2a3:
  %v2_d2cc = load i32, i32* %arg1, align 4
  %v4_d2cc = add i32 %v2_d2cc, %arg2
  store i32 %v4_d2cc, i32* %arg1, align 4
  store i32 %v2_d2cc, i32* @eax, align 4
  br i1 true, label %bb, label %dec_label_pc_d2e2

bb:                                               ; preds = %dec_label_pc_d2a3
  %tmp103 = ptrtoint i32* %arg1 to i32
  %v3_d2e0 = call i32 @function_d2e7(i32 %arg2, i32 %tmp103)
  br label %dec_label_pc_d2e2

dec_label_pc_d2e2:                                ; preds = %bb, %dec_label_pc_d2a3
  %v4_d2e0 = phi i32 [ %v3_d2e0, %bb ], [ %v2_d2cc, %dec_label_pc_d2a3 ]
  ret i32 %v4_d2e0

; uselistorder directives
  uselistorder i32 %v2_d2cc, { 1, 2, 0 }
  uselistorder i32 %arg2, { 1, 0 }
  uselistorder i32* %arg1, { 2, 0, 1 }
}

define i32 @function_d2e7(i32 %arg1, i32 %arg2) local_unnamed_addr {
dec_label_pc_d2e7:
  %v0_d2ec = load i32, i32* @eax, align 4
  ret i32 %v0_d2ec
}

define i32 @_ZN5boost6detail16atomic_incrementEPi(i32* %arg1) local_unnamed_addr {
dec_label_pc_d2ed:
  %v2_d30a = load i32, i32* %arg1, align 4
  %v3_d30a = add i32 %v2_d30a, 1
  store i32 %v3_d30a, i32* %arg1, align 4
  store i32 0, i32* @eax, align 4
  br i1 true, label %bb, label %dec_label_pc_d319

bb:                                               ; preds = %dec_label_pc_d2ed
  %tmp100 = ptrtoint i32* %arg1 to i32
  %v2_d317 = call i32 @function_d31e(i32 %tmp100)
  br label %dec_label_pc_d319

dec_label_pc_d319:                                ; preds = %bb, %dec_label_pc_d2ed
  %v3_d317 = phi i32 [ %v2_d317, %bb ], [ 0, %dec_label_pc_d2ed ]
  ret i32 %v3_d317

; uselistorder directives
  uselistorder i32* %arg1, { 2, 0, 1 }
}

define i32 @function_d31e(i32 %arg1) local_unnamed_addr {
dec_label_pc_d31e:
  %v0_d31f = load i32, i32* @eax, align 4
  ret i32 %v0_d31f
}

define i32 @_ZN5boost6detail15sp_counted_baseC1Ev(i32* %arg1) local_unnamed_addr {
dec_label_pc_d320:
  %tmp100 = ptrtoint i32* %arg1 to i32
  store i32 ptrtoint (i32* @global_var_2b4b0.1809 to i32), i32* %arg1, align 4
  %v1_d343 = add i32 %tmp100, 4
  %v2_d343 = inttoptr i32 %v1_d343 to i32*
  store i32 1, i32* %v2_d343, align 4
  %v1_d34d = add i32 %tmp100, 8
  %v2_d34d = inttoptr i32 %v1_d34d to i32*
  store i32 1, i32* %v2_d34d, align 4
  store i32 0, i32* @eax, align 4
  br i1 true, label %bb, label %dec_label_pc_d360

bb:                                               ; preds = %dec_label_pc_d320
  %v2_d35e = call i32 @function_d365(i32 %tmp100)
  br label %dec_label_pc_d360

dec_label_pc_d360:                                ; preds = %bb, %dec_label_pc_d320
  %v3_d35e = phi i32 [ %v2_d35e, %bb ], [ 0, %dec_label_pc_d320 ]
  ret i32 %v3_d35e
}

define i32 @function_d365(i32 %arg1) local_unnamed_addr {
dec_label_pc_d365:
  %v0_d366 = load i32, i32* @eax, align 4
  ret i32 %v0_d366
}

define i32 @_ZN5boost6detail15sp_counted_baseD1Ev(i32* %arg1) local_unnamed_addr {
dec_label_pc_d368:
  store i32 ptrtoint (i32* @global_var_2b4b0.1809 to i32), i32* %arg1, align 4
  store i32 0, i32* @eax, align 4
  br i1 true, label %bb, label %dec_label_pc_d3ab

bb:                                               ; preds = %dec_label_pc_d368
  %v1_d3a9 = call i32 @function_d3b0()
  br label %dec_label_pc_d3ab

dec_label_pc_d3ab:                                ; preds = %bb, %dec_label_pc_d368
  %v2_d3a9 = phi i32 [ %v1_d3a9, %bb ], [ 0, %dec_label_pc_d368 ]
  ret i32 %v2_d3a9
}

define i32 @function_d3b0() local_unnamed_addr {
dec_label_pc_d3b0:
  %v0_d3b1 = load i32, i32* @eax, align 4
  ret i32 %v0_d3b1
}

define i32 @_ZN5boost6detail15sp_counted_baseD0Ev(i32 %arg1) local_unnamed_addr {
dec_label_pc_d3b2:
  store i32 %arg1, i32* @eax, align 4
  %v1_d3cf = call i32 @function_1a71a(i32 %arg1)
  ret i32 %arg1
}

define i32 @function_d3ef() local_unnamed_addr {
dec_label_pc_d3ef:
  %eax.global-to-local = alloca i32, align 4
  %ecx.global-to-local = alloca i32, align 4
  %v0_d3ef = load i32, i32* %ecx.global-to-local, align 4
  %v1_d3ef = add i32 %v0_d3ef, -1
  store i32 %v1_d3ef, i32* %ecx.global-to-local, align 4
  %v0_d3f1 = load i32, i32* %eax.global-to-local, align 4
  ret i32 %v0_d3f1
}

define i32 @_ZN5boost6detail15sp_counted_base7destroyEv(i32* %arg1) {
dec_label_pc_d3f2:
  %ebp.global-to-local = alloca i32, align 4
  %v0_d3f2 = load i32, i32* %ebp.global-to-local, align 4
  %v10_d409 = icmp eq i32* %arg1, null
  br i1 %v10_d409, label %dec_label_pc_d421, label %dec_label_pc_d40f

dec_label_pc_d40f:                                ; preds = %dec_label_pc_d3f2
  br label %dec_label_pc_d421

dec_label_pc_d421:                                ; preds = %dec_label_pc_d40f, %dec_label_pc_d3f2
  store i32 %v0_d3f2, i32* %ebp.global-to-local, align 4
  ret i32 0

; uselistorder directives
  uselistorder i32* %ebp.global-to-local, { 1, 0 }
}

define i32 @_ZN5boost6detail15sp_counted_base12add_ref_copyEv(i32 %arg1) local_unnamed_addr {
dec_label_pc_d434:
  store i32 0, i32* @eax, align 4
  br i1 true, label %bb, label %dec_label_pc_d465

bb:                                               ; preds = %dec_label_pc_d434
  %v1_d44e = add i32 %arg1, 4
  %v2_d463 = call i32 @function_d46a(i32 %v1_d44e)
  br label %dec_label_pc_d465

dec_label_pc_d465:                                ; preds = %bb, %dec_label_pc_d434
  %v3_d463 = phi i32 [ %v2_d463, %bb ], [ 0, %dec_label_pc_d434 ]
  ret i32 %v3_d463
}

define i32 @function_d46a(i32 %arg1) local_unnamed_addr {
dec_label_pc_d46a:
  %v0_d46b = load i32, i32* @eax, align 4
  ret i32 %v0_d46b
}

define i32 @_ZN5boost6detail15sp_counted_base7releaseEv(i32* %arg1) local_unnamed_addr {
dec_label_pc_d46c:
  %tmp102 = ptrtoint i32* %arg1 to i32
  %v1_d486 = add i32 %tmp102, 4
  %v2_d494 = call i32 @function_1a70f(i32 %v1_d486, i32 -1)
  %v10_d499 = icmp eq i32 %v2_d494, 1
  %v5_d49f = icmp eq i1 %v10_d499, false
  br i1 %v5_d49f, label %dec_label_pc_d4c0, label %dec_label_pc_d4a3

dec_label_pc_d4a3:                                ; preds = %dec_label_pc_d46c
  store i32 %tmp102, i32* @eax, align 4
  %v1_d4bb = call i32 @function_1a940(i32 %tmp102)
  br label %dec_label_pc_d4c0

dec_label_pc_d4c0:                                ; preds = %dec_label_pc_d4a3, %dec_label_pc_d46c
  store i32 0, i32* @eax, align 4
  br i1 true, label %bb, label %dec_label_pc_d4cc

bb:                                               ; preds = %dec_label_pc_d4c0
  %v1_d4ca = call i32 @function_d4d1()
  br label %dec_label_pc_d4cc

dec_label_pc_d4cc:                                ; preds = %bb, %dec_label_pc_d4c0
  %v2_d4ca = phi i32 [ %v1_d4ca, %bb ], [ 0, %dec_label_pc_d4c0 ]
  ret i32 %v2_d4ca

; uselistorder directives
  uselistorder i32 %tmp102, { 1, 0, 2 }
}

define i32 @function_d4d1() local_unnamed_addr {
dec_label_pc_d4d1:
  %v0_d4d2 = load i32, i32* @eax, align 4
  ret i32 %v0_d4d2
}

define i32 @_ZN5boost6detail15sp_counted_base12weak_releaseEv(i32* %arg1) local_unnamed_addr {
dec_label_pc_d4d4:
  %tmp102 = ptrtoint i32* %arg1 to i32
  %v1_d4ee = add i32 %tmp102, 8
  store i32 %v1_d4ee, i32* @eax, align 4
  %v2_d4fc = call i32 @function_1a777(i32 %v1_d4ee, i32 -1)
  %v10_d501 = icmp eq i32 %v2_d4fc, 1
  %v5_d507 = icmp eq i1 %v10_d501, false
  br i1 %v5_d507, label %dec_label_pc_d51d, label %dec_label_pc_d50b

dec_label_pc_d50b:                                ; preds = %dec_label_pc_d4d4
  br label %dec_label_pc_d51d

dec_label_pc_d51d:                                ; preds = %dec_label_pc_d50b, %dec_label_pc_d4d4
  store i32 0, i32* @eax, align 4
  br i1 true, label %bb, label %dec_label_pc_d529

bb:                                               ; preds = %dec_label_pc_d51d
  %v1_d527 = call i32 @function_d52e()
  br label %dec_label_pc_d529

dec_label_pc_d529:                                ; preds = %bb, %dec_label_pc_d51d
  %v2_d527 = phi i32 [ %v1_d527, %bb ], [ 0, %dec_label_pc_d51d ]
  ret i32 %v2_d527
}

define i32 @function_d52e() local_unnamed_addr {
dec_label_pc_d52e:
  %v0_d52f = load i32, i32* @eax, align 4
  ret i32 %v0_d52f
}

define i32 @_ZN5boost6detail12shared_countD1Ev(i32* %arg1) local_unnamed_addr {
dec_label_pc_d530:
  %v2_d54a = load i32, i32* %arg1, align 4
  %v1_d54c = icmp eq i32 %v2_d54a, 0
  br i1 %v1_d54c, label %dec_label_pc_d55d, label %dec_label_pc_d550

dec_label_pc_d550:                                ; preds = %dec_label_pc_d530
  br label %dec_label_pc_d55d

dec_label_pc_d55d:                                ; preds = %dec_label_pc_d550, %dec_label_pc_d530
  store i32 0, i32* @eax, align 4
  br i1 true, label %bb, label %dec_label_pc_d569

bb:                                               ; preds = %dec_label_pc_d55d
  %v1_d567 = call i32 @function_d56e()
  br label %dec_label_pc_d569

dec_label_pc_d569:                                ; preds = %bb, %dec_label_pc_d55d
  %v2_d567 = phi i32 [ %v1_d567, %bb ], [ 0, %dec_label_pc_d55d ]
  ret i32 %v2_d567
}

define i32 @function_d56e() local_unnamed_addr {
dec_label_pc_d56e:
  %v0_d56f = load i32, i32* @eax, align 4
  ret i32 %v0_d56f
}

define i32 @_ZN5boost6detail12shared_countC1ERKS1_(i32* %arg1, i32 %arg2) local_unnamed_addr {
dec_label_pc_d570:
  %v1_d590 = inttoptr i32 %arg2 to i32*
  %v2_d590 = load i32, i32* %v1_d590, align 4
  store i32 %v2_d590, i32* %arg1, align 4
  %v1_d59c = icmp eq i32 %v2_d590, 0
  br i1 %v1_d59c, label %dec_label_pc_d5ad, label %dec_label_pc_d5a0

dec_label_pc_d5a0:                                ; preds = %dec_label_pc_d570
  %v2_d5a3 = load i32, i32* %arg1, align 4
  store i32 %v2_d5a3, i32* @eax, align 4
  %v1_d5a8 = call i32 @function_1a9a4(i32 %v2_d5a3)
  br label %dec_label_pc_d5ad

dec_label_pc_d5ad:                                ; preds = %dec_label_pc_d5a0, %dec_label_pc_d570
  store i32 0, i32* @eax, align 4
  br i1 true, label %bb, label %dec_label_pc_d5b9

bb:                                               ; preds = %dec_label_pc_d5ad
  %v1_d5b7 = call i32 @function_d5be()
  br label %dec_label_pc_d5b9

dec_label_pc_d5b9:                                ; preds = %bb, %dec_label_pc_d5ad
  %v2_d5b7 = phi i32 [ %v1_d5b7, %bb ], [ 0, %dec_label_pc_d5ad ]
  ret i32 %v2_d5b7
}

define i32 @function_d5be() local_unnamed_addr {
dec_label_pc_d5be:
  %v0_d5bf = load i32, i32* @eax, align 4
  ret i32 %v0_d5bf
}

define i32 @_ZN5boost6detail26sp_enable_shared_from_thisEz() local_unnamed_addr {
dec_label_pc_d5c0:
  %v0_d5c6 = load i32, i32* inttoptr (i32 20 to i32*), align 4
  store i32 0, i32* @eax, align 4
  br i1 true, label %bb, label %dec_label_pc_d5dd

bb:                                               ; preds = %dec_label_pc_d5c0
  %v2_d5db = call i32 @function_d5e2(i32 %v0_d5c6)
  br label %dec_label_pc_d5dd

dec_label_pc_d5dd:                                ; preds = %bb, %dec_label_pc_d5c0
  %v3_d5db = phi i32 [ %v2_d5db, %bb ], [ 0, %dec_label_pc_d5c0 ]
  ret i32 %v3_d5db
}

define i32 @function_d5e2(i32 %arg1) local_unnamed_addr {
dec_label_pc_d5e2:
  %v0_d5e3 = load i32, i32* @eax, align 4
  ret i32 %v0_d5e3
}

define i32 @_ZN5boost7pthread25pthread_mutex_scoped_lockC1EP15pthread_mutex_t(i32* %arg1, i32 %arg2) local_unnamed_addr {
dec_label_pc_d5e4:
  %tmp101 = ptrtoint i32* %arg1 to i32
  store i32 %arg2, i32* %arg1, align 4
  %v1_d60c = add i32 %tmp101, 4
  %v2_d60c = inttoptr i32 %v1_d60c to i8*
  store i8 1, i8* %v2_d60c, align 1
  %v2_d613 = load i32, i32* %arg1, align 4
  ret i32 %v2_d613
}

define i32 @function_d644() local_unnamed_addr {
dec_label_pc_d644:
  %eax.global-to-local = alloca i32, align 4
  %ebx.global-to-local = alloca i32, align 4
  %v0_d644 = load i32, i32* %ebx.global-to-local, align 4
  %v1_d644 = add i32 %v0_d644, 862319685
  %v2_d644 = inttoptr i32 %v1_d644 to i32*
  %v3_d644 = load i32, i32* %v2_d644, align 4
  %v4_d644 = add i32 %v3_d644, -1
  store i32 %v4_d644, i32* %v2_d644, align 4
  %v0_d64a = load i32, i32* %eax.global-to-local, align 4
  %v1_d64a = add i32 %v0_d64a, 20
  store i32 %v1_d64a, i32* %eax.global-to-local, align 4
  ret i32 %v1_d64a
}

define i32 @_ZN5boost7pthread25pthread_mutex_scoped_lock6unlockEv(i32* %arg1) local_unnamed_addr {
dec_label_pc_d658:
  %v2_d672 = load i32, i32* %arg1, align 4
  ret i32 %v2_d672
}

define i32 @function_d6bb() local_unnamed_addr {
dec_label_pc_d6bb:
  %eax.global-to-local = alloca i32, align 4
  %ecx.global-to-local = alloca i32, align 4
