source_filename = "test"
target datalayout = "e-m:e-p:32:32-f64:32:64-f80:32-n8:16:32-S128"

%vtable_1b260_type = type { i32 (i32*)*, i32 (i32*)*, i32 (i32)*, i32 ()* }
%vtable_1fc08_type = type { i32 (i32*)*, i32 (i32*)*, i32 ()*, i32 ()* }
%vtable_1fc28_type = type { i32 (i32*)*, i32 (i32*)*, i32 ()*, i32 ()* }
%vtable_1fc48_type = type { i32 (i32*)*, i32 (i32*)*, i32 ()* }
%vtable_1fc60_type = type { i32 (i32*)*, i32 (i32*)*, i32 ()* }
%vtable_1fc98_type = type { i32 (i32*)*, i32 (i32*)*, i32 ()* }
%vtable_1fcd8_type = type { i32 (i32*)*, i32 (i32*)*, i32 ()*, i32 (i32)*, i32 (i32)* }
%vtable_1fdb8_type = type { i32 (i32*)*, i32 (i32*)*, i32 ()* }
%vtable_1fdd8_type = type { i32 (i32*)*, i32 (i32*)*, i32 ()* }
%vtable_1fe18_type = type { i32 (i32*)*, i32 (i32*)*, i32 ()*, i32 (i32)*, i32 (i32)* }
%vtable_1fe98_type = type { i32 (i32*)*, i32 (i32*)*, i32 (i32)*, i32 (i32)* }
%vtable_1feb8_type = type { i32 (i32*)*, i32 (i32)*, i32 (i32)*, i32 (i32)* }
%vtable_1ff88_type = type { i32 (i32*)*, i32 (i32*)*, i32 ()* }
%vtable_1ffb8_type = type { i32 (i32*)*, i32 (i32*)*, i32 ()* }
%vtable_1fff8_type = type { i32 (i32*)*, i32 (i32*)*, i32 ()*, i32 (i32)*, i32 (i32)* }
%vtable_20078_type = type { i32 (i32*)*, i32 (i32*)*, i32 ()* }
%vtable_20098_type = type { i32 (i32*)*, i32 (i32*)*, i32 ()* }
%vtable_200d8_type = type { i32 (i32*)*, i32 (i32*)*, i32 ()*, i32 (i32)*, i32 (i32)* }
%vtable_20158_type = type { i32 (i32*)*, i32 (i32*)*, i32 ()* }
%vtable_20178_type = type { i32 (i32*)*, i32 (i32*)*, i32 ()* }
%vtable_201b8_type = type { i32 (i32*)*, i32 (i32*)*, i32 ()*, i32 (i32)*, i32 (i32)* }
%vtable_20298_type = type { i32 (i32*)*, i32 (i32*)*, i32 ()*, i32 ()* }
%vtable_202d8_type = type { i32 (i32*)*, i32 (i32*)*, i32 ()* }
%vtable_20318_type = type { i32 (i32*)*, i32 (i32*)*, i32 ()*, i32 (i32)*, i32 (i32)* }
%vtable_20398_type = type { i32 (i32*)*, i32 (i32*)*, i32 ()* }
%vtable_203b8_type = type { i32 (i32*)*, i32 (i32*)*, i32 ()* }
%vtable_203f8_type = type { i32 (i32*)*, i32 (i32*)*, i32 ()*, i32 (i32)*, i32 (i32)* }
%vtable_20478_type = type { i32 (i32*)*, i32 (i32*)*, i32 ()* }
%vtable_20498_type = type { i32 (i32*)*, i32 (i32*)*, i32 ()* }
%vtable_204d8_type = type { i32 (i32*)*, i32 (i32*)*, i32 ()*, i32 (i32)*, i32 (i32)* }
%vtable_20558_type = type { i32 (i32*)*, i32 (i32*)*, i32 ()* }
%vtable_20598_type = type { i32 (i32*)*, i32 (i32*)*, i32 ()*, i32 (i32)*, i32 (i32)* }
%vtable_20638_type = type { i32 (i32*)*, i32 (i32*)* }
%vtable_20678_type = type { i32 (i32*)*, i32 (i32*)*, i32 (i32)*, i32 (i32)* }
%has_fallback_type__2 = type { i32 }
%has_fallback_type__2.0 = type { i32 }
%has_fallback_type__2.1 = type { i32 }
%has_fallback_type__3 = type { i32 }
%has_fallback_type__3.2 = type { i32 }
%has_fallback_type__3.3 = type { i32 }
%has_fallback_type__3.4 = type { i32 }
%has_fallback_type__2.5 = type { i32 }
%has_fallback_type__2.7 = type { i32 }
%has_fallback_type__2.6 = type { i32 }
%has_fallback_type__2.8 = type { i32 }
%"Value_impl<json_spirit::Config_vector<std::basic_string<char,std::char_traits<char>,std::allocator<char>>>>" = type { i32 }
%"Value_impl<json_spirit::Config_vector<std::basic_string<char,std::char_traits<char>,std::allocator<char>>>>.9" = type { i32 }
%"Value_impl<json_spirit::Config_vector<std::basic_string<char,std::char_traits<char>,std::allocator<char>>>>.10" = type { i32 }
%"Value_impl<json_spirit::Config_vector<std::basic_string<char,std::char_traits<char>,std::allocator<char>>>>.11" = type { i32 }

@cf = internal unnamed_addr global i1 false
@df = internal unnamed_addr global i1 false
@of = internal unnamed_addr global i1 false
@ss = internal unnamed_addr global i16 0
@eax = internal unnamed_addr global i32 0, align 8
@ecx = internal unnamed_addr global i32 0
@edx = internal unnamed_addr global i32 0
@ebx = internal unnamed_addr global i32 0
@esp = internal unnamed_addr global i32 0
@ebp = internal unnamed_addr global i32 0
@esi = internal unnamed_addr global i32 0
@edi = internal unnamed_addr global i32 0
@0 = external local_unnamed_addr global i32
@1 = external local_unnamed_addr global i32
@global_var_b6.1775 = constant i32 -1919905537
@global_var_562e.1777 = constant [6 x i8] c"false\00"
@global_var_f.1787 = constant i32 612665600
@global_var_fc.1789 = constant i32 0
@global_var_1b284.1793 = global i32 0
@global_var_41c.1795 = constant i32 0
@global_var_68.1796 = constant i32 5141
@global_var_ff.1799 = constant i32 -779528960
@global_var_5808.1800 = constant [7 x i8] c"label=\00"
@global_var_5690.1801 = constant [4 x i8] c"d()\00"
@global_var_1c0.1804 = constant i32 862272548
@global_var_45c.1806 = constant i32 862264356
@global_var_1fcc0.1809 = constant i32 0
@global_var_55bf.1810 = constant [18 x i8] c"boost::lock_error\00"
@global_var_206c0.1811 = constant i32 22880
@global_var_1b238.1812 = constant i32 23024
@global_var_5b14.1813 = constant [50 x i8] c"boost::bad_get: failed value get using boost::get\00"
@global_var_5b48.1814 = constant [71 x i8] c"bad lexical cast: source type value could not be interpreted as target\00"
@global_var_20690.1843 = constant i32 38048
@global_var_206a4.1844 = constant i32 33120
@global_var_209ba.1845 = constant [22 x i8] c"%Y-%m-%d %H:%M:%S%F%Q\00"
@global_var_209d0.1846 = constant [18 x i8] c"%Y%m%dT%H%M%S%F%q\00"
@global_var_1fef8.1847 = local_unnamed_addr global [2 x i8*] [i8* getelementptr inbounds ([22 x i8], [22 x i8]* @global_var_209ba.1845, i32 0, i32 0), i8* getelementptr inbounds ([18 x i8], [18 x i8]* @global_var_209d0.1846, i32 0, i32 0)]
@global_var_1fefc.1850 = local_unnamed_addr global [18 x i8]* @global_var_209d0.1846
@global_var_1fc78.1852 = constant i32 0
@global_var_1fcf4.1853 = constant i32 40992
@global_var_1fd04.1855 = constant i32 33632
@global_var_20334.1856 = constant i32 39152
@global_var_20344.1858 = constant i32 33824
@global_var_205b4.1859 = constant i32 37680
@global_var_205c4.1861 = constant i32 34304
@global_var_1fe34.1862 = constant i32 38288
@global_var_1fe44.1864 = constant i32 34512
@global_var_1fd58.1865 = constant i32 8
@global_var_1fd70.1867 = constant [63 x i8] c"N5boost9algorithm6detail13token_finderFINS1_10is_any_ofFIcEEEE\00"
@global_var_201d4.1868 = constant i32 39392
@global_var_201e4.1871 = constant i32 35088
@global_var_204f4.1872 = constant i32 40128
@global_var_20504.1874 = constant i32 35312
@global_var_200f4.1875 = constant i32 40608
@global_var_20104.1877 = constant i32 35536
@global_var_20414.1878 = constant i32 39872
@global_var_20424.1880 = constant i32 35760
@global_var_20014.1881 = constant i32 38784
@global_var_20024.1883 = constant i32 35984
@global_var_20648.1885 = constant i32 36448
@global_var_1ffcc.1887 = constant i32 36544
@global_var_1fcac.1889 = constant i32 36656
@global_var_1fdec.1891 = constant i32 36768
@global_var_203cc.1893 = constant i32 36880
@global_var_2018c.1895 = constant i32 36992
@global_var_200ac.1897 = constant i32 37104
@global_var_204ac.1899 = constant i32 37216
@global_var_202ec.1901 = constant i32 37328
@global_var_2056c.1903 = constant i32 37440
@global_var_34.1907 = constant i32 608487168
@global_var_38.1908 = constant i32 51204
@global_var_3c.1909 = constant i32 607422720
@global_var_c0.1911 = constant i32 1697442947
@global_var_1fb50.1917 = constant [169 x i8] c"boost::exception_ptr boost::exception_detail::get_bad_alloc() [with int Dummy = 42, boost::exception_ptr = boost::shared_ptr<const boost::exception_detail::clone_base>]\00"
@global_var_5d4c.1918 = constant [54 x i8] c"/usr/include/boost/exception/detail/exception_ptr.hpp\00"
@global_var_20e70.1919 = constant i32 8
@global_var_5961.1921 = constant i32 -1587208980
@global_var_b8.1929 = constant i32 649366928
@global_var_ac.1930 = constant i32 -998046603
@global_var_a8.1931 = constant i32 20
@global_var_1fc20.1938 = constant i32 0
@global_var_5400.1940 = constant i32 -219423765
@global_var_5734.1941 = constant [22 x i8] c"vector::_M_insert_aux\00"
@2 = external global i32
@3 = internal constant [7 x i8] c"S\89\C3\81\EC\F4\00"
@global_var_1.1771 = constant i8* getelementptr inbounds ([7 x i8], [7 x i8]* @3, i32 0, i32 0)
@4 = internal constant [5 x i8] c"\89\84$\EC\00"
@global_var_10.1772 = constant i8* getelementptr inbounds ([5 x i8], [5 x i8]* @4, i32 0, i32 0)
@global_var_8.1773 = constant double* inttoptr (i32 -1587216384 to double*)
@5 = internal constant [6 x i8] c"\89\C3\81\EC\F4\00"
@global_var_2.1786 = constant i8* getelementptr inbounds ([6 x i8], [6 x i8]* @5, i32 0, i32 0)
@global_var_6.1788 = constant i16* inttoptr (i32 244 to i16*)
@6 = internal constant [2 x i8] c"\14\00"
@global_var_c.1790 = constant i8* getelementptr inbounds ([2 x i8], [2 x i8]* @6, i32 0, i32 0)
@global_var_89.1792 = constant i8 0
@global_var_bc.1807 = constant i8 0
@global_var_65.1808 = constant i8 0
@7 = internal constant [39 x i8] c"\894$\89D$\0C\E8\FC\FF\FF\FF\8DD$#\89D$\08\89t$\04\89\1C$\E8\FC\FF\FF\FF\89\D8\8B\94$\EC\00"
@global_var_3d.1832 = constant i8* getelementptr inbounds ([39 x i8], [39 x i8]* @7, i32 0, i32 0)
@8 = internal constant [3 x i8] c"\EC\F4\00"
@global_var_5.1866 = constant i8* getelementptr inbounds ([3 x i8], [3 x i8]* @8, i32 0, i32 0)
@global_var_9.1869 = constant i8 0
@global_var_e.1912 = constant i64 259641586548736
@global_var_12c0.1913 = constant i16 187
@global_var_a3e.1914 = constant i64 739347056384
@global_var_7.1926 = constant i8 0
@global_var_64.1942 = constant i8 0
@global_var_6c.1943 = constant i8 0
@9 = internal constant [3 x i8] c"\B0\87\00"
@global_var_1fd50.1950 = global i8* getelementptr inbounds ([3 x i8], [3 x i8]* @9, i32 0, i32 0)
@global_var_85.1953 = constant i8 13
@10 = internal constant [6 x i8] c"\D8\8B\94$\EC\00"
@global_var_5e.1956 = constant i8* getelementptr inbounds ([6 x i8], [6 x i8]* @10, i32 0, i32 0)
@global_var_1b260.1817 = constant %vtable_1b260_type { i32 (i32*)* @_ZN5boost6system12system_errorD1Ev, i32 (i32*)* @_ZN5boost6system12system_errorD0Ev, i32 (i32)* @_ZNK5boost6system12system_error4whatEv, i32 ()* @function_8 }
@global_var_1fc08.1819 = constant %vtable_1fc08_type { i32 (i32*)* @_ZN5boost7bad_getD1Ev, i32 (i32*)* @_ZN5boost7bad_getD0Ev, i32 ()* @_ZNK5boost7bad_get4whatEv, i32 ()* @function_8 }
@global_var_1fc28.1816 = constant %vtable_1fc28_type { i32 (i32*)* @_ZN12bignum_errorD1Ev, i32 (i32*)* @_ZN12bignum_errorD0Ev, i32 ()* @_ZL14EncodeDumpTimex, i32 ()* @function_8 }
@global_var_1fc48.1818 = constant %vtable_1fc48_type { i32 (i32*)* @_ZN5boost16thread_exceptionD1Ev, i32 (i32*)* @_ZN5boost16thread_exceptionD0Ev, i32 ()* @_ZL14EncodeDumpTimex }
@global_var_1fc60.1851 = constant %vtable_1fc60_type { i32 (i32*)* @_ZN5boost10lock_errorD1Ev, i32 (i32*)* @_ZN5boost10lock_errorD0Ev, i32 ()* @_ZNK5boost10lock_error4whatEv }
@global_var_1fc98.1888 = constant %vtable_1fc98_type { i32 (i32*)* @_ZN5boost16exception_detail19error_info_injectorINS_10lock_errorEED1Ev, i32 (i32*)* @_ZN5boost16exception_detail19error_info_injectorINS_10lock_errorEED0Ev, i32 ()* @_ZNK5boost10lock_error4whatEv }
@global_var_1fcd8.1854 = constant %vtable_1fcd8_type { i32 (i32*)* @_ZN5boost16exception_detail10clone_implINS0_19error_info_injectorINS_10lock_errorEEEED1Ev, i32 (i32*)* @_ZN5boost16exception_detail10clone_implINS0_19error_info_injectorINS_10lock_errorEEEED0Ev, i32 ()* @_ZNK5boost10lock_error4whatEv, i32 (i32)* @_ZNK5boost16exception_detail10clone_implINS0_19error_info_injectorINS_10lock_errorEEEE5cloneEv, i32 (i32)* @_ZNK5boost16exception_detail10clone_implINS0_19error_info_injectorINS_10lock_errorEEEE7rethrowEv }
@global_var_1fdb8.1815 = constant %vtable_1fdb8_type { i32 (i32*)* @_ZN5boost17bad_function_callD1Ev, i32 (i32*)* @_ZN5boost17bad_function_callD0Ev, i32 ()* @_ZL14EncodeDumpTimex }
@global_var_1fdd8.1890 = constant %vtable_1fdd8_type { i32 (i32*)* @_ZN5boost16exception_detail19error_info_injectorINS_17bad_function_callEED1Ev, i32 (i32*)* @_ZN5boost16exception_detail19error_info_injectorINS_17bad_function_callEED0Ev, i32 ()* @_ZL14EncodeDumpTimex }
@global_var_1fe18.1863 = constant %vtable_1fe18_type { i32 (i32*)* @_ZN5boost16exception_detail10clone_implINS0_19error_info_injectorINS_17bad_function_callEEEED1Ev, i32 (i32*)* @_ZN5boost16exception_detail10clone_implINS0_19error_info_injectorINS_17bad_function_callEEEED0Ev, i32 ()* @_ZL14EncodeDumpTimex, i32 (i32)* @_ZNK5boost16exception_detail10clone_implINS0_19error_info_injectorINS_17bad_function_callEEEE5cloneEv, i32 (i32)* @_ZNK5boost16exception_detail10clone_implINS0_19error_info_injectorINS_17bad_function_callEEEE7rethrowEv }
@global_var_1fe98.1933 = constant %vtable_1fe98_type { i32 (i32*)* @_ZN5boost9date_time16time_input_facetINS_10posix_time5ptimeEcSt19istreambuf_iteratorIcSt11char_traitsIcEEED1Ev, i32 (i32*)* @_ZN5boost9date_time16time_input_facetINS_10posix_time5ptimeEcSt19istreambuf_iteratorIcSt11char_traitsIcEEED0Ev, i32 (i32)* @_ZN5boost9date_time16time_input_facetINS_10posix_time5ptimeEcSt19istreambuf_iteratorIcSt11char_traitsIcEEE14set_iso_formatEv, i32 (i32)* @_ZN5boost9date_time16time_input_facetINS_10posix_time5ptimeEcSt19istreambuf_iteratorIcSt11char_traitsIcEEE23set_iso_extended_formatEv }
@global_var_1feb8.1928 = constant %vtable_1feb8_type { i32 (i32*)* @_ZN5boost9date_time16date_input_facetINS_9gregorian4dateEcSt19istreambuf_iteratorIcSt11char_traitsIcEEED1Ev, i32 (i32)* @_ZN5boost9date_time16date_input_facetINS_9gregorian4dateEcSt19istreambuf_iteratorIcSt11char_traitsIcEEED0Ev, i32 (i32)* @_ZN5boost9date_time16date_input_facetINS_9gregorian4dateEcSt19istreambuf_iteratorIcSt11char_traitsIcEEE14set_iso_formatEv, i32 (i32)* @_ZN5boost9date_time16date_input_facetINS_9gregorian4dateEcSt19istreambuf_iteratorIcSt11char_traitsIcEEE23set_iso_extended_formatEv }
@global_var_1ff88.1820 = constant %vtable_1ff88_type { i32 (i32*)* @_ZN5boost9gregorian16bad_day_of_monthD1Ev, i32 (i32*)* @_ZN5boost9gregorian16bad_day_of_monthD0Ev, i32 ()* @_ZL14EncodeDumpTimex }
@global_var_1ffb8.1886 = constant %vtable_1ffb8_type { i32 (i32*)* @_ZN5boost16exception_detail19error_info_injectorINS_9gregorian16bad_day_of_monthEED1Ev, i32 (i32*)* @_ZN5boost16exception_detail19error_info_injectorINS_9gregorian16bad_day_of_monthEED0Ev, i32 ()* @_ZL14EncodeDumpTimex }
@global_var_1fff8.1882 = constant %vtable_1fff8_type { i32 (i32*)* @_ZN5boost16exception_detail10clone_implINS0_19error_info_injectorINS_9gregorian16bad_day_of_monthEEEED1Ev, i32 (i32*)* @_ZN5boost16exception_detail10clone_implINS0_19error_info_injectorINS_9gregorian16bad_day_of_monthEEEED0Ev, i32 ()* @_ZL14EncodeDumpTimex, i32 (i32)* @_ZNK5boost16exception_detail10clone_implINS0_19error_info_injectorINS_9gregorian16bad_day_of_monthEEEE5cloneEv, i32 (i32)* @_ZNK5boost16exception_detail10clone_implINS0_19error_info_injectorINS_9gregorian16bad_day_of_monthEEEE7rethrowEv }
@global_var_20078.1823 = constant %vtable_20078_type { i32 (i32*)* @_ZN5boost9gregorian9bad_monthD1Ev, i32 (i32*)* @_ZN5boost9gregorian9bad_monthD0Ev, i32 ()* @_ZL14EncodeDumpTimex }
@global_var_20098.1896 = constant %vtable_20098_type { i32 (i32*)* @_ZN5boost16exception_detail19error_info_injectorINS_9gregorian9bad_monthEED1Ev, i32 (i32*)* @_ZN5boost16exception_detail19error_info_injectorINS_9gregorian9bad_monthEED0Ev, i32 ()* @_ZL14EncodeDumpTimex }
@global_var_200d8.1876 = constant %vtable_200d8_type { i32 (i32*)* @_ZN5boost16exception_detail10clone_implINS0_19error_info_injectorINS_9gregorian9bad_monthEEEED1Ev, i32 (i32*)* @_ZN5boost16exception_detail10clone_implINS0_19error_info_injectorINS_9gregorian9bad_monthEEEED0Ev, i32 ()* @_ZL14EncodeDumpTimex, i32 (i32)* @_ZNK5boost16exception_detail10clone_implINS0_19error_info_injectorINS_9gregorian9bad_monthEEEE5cloneEv, i32 (i32)* @_ZNK5boost16exception_detail10clone_implINS0_19error_info_injectorINS_9gregorian9bad_monthEEEE7rethrowEv }
@global_var_20158.1822 = constant %vtable_20158_type { i32 (i32*)* @_ZN5boost9gregorian8bad_yearD1Ev, i32 (i32*)* @_ZN5boost9gregorian8bad_yearD0Ev, i32 ()* @_ZL14EncodeDumpTimex }
@global_var_20178.1894 = constant %vtable_20178_type { i32 (i32*)* @_ZN5boost16exception_detail19error_info_injectorINS_9gregorian8bad_yearEED1Ev, i32 (i32*)* @_ZN5boost16exception_detail19error_info_injectorINS_9gregorian8bad_yearEED0Ev, i32 ()* @_ZL14EncodeDumpTimex }
@global_var_201b8.1870 = constant %vtable_201b8_type { i32 (i32*)* @_ZN5boost16exception_detail10clone_implINS0_19error_info_injectorINS_9gregorian8bad_yearEEEED1Ev, i32 (i32*)* @_ZN5boost16exception_detail10clone_implINS0_19error_info_injectorINS_9gregorian8bad_yearEEEED0Ev, i32 ()* @_ZL14EncodeDumpTimex, i32 (i32)* @_ZNK5boost16exception_detail10clone_implINS0_19error_info_injectorINS_9gregorian8bad_yearEEEE5cloneEv, i32 (i32)* @_ZNK5boost16exception_detail10clone_implINS0_19error_info_injectorINS_9gregorian8bad_yearEEEE7rethrowEv }
@global_var_20298.1825 = constant %vtable_20298_type { i32 (i32*)* @_ZN5boost16bad_lexical_castD1Ev, i32 (i32*)* @_ZN5boost16bad_lexical_castD0Ev, i32 ()* @_ZNK5boost16bad_lexical_cast4whatEv, i32 ()* @function_8 }
@global_var_202d8.1900 = constant %vtable_202d8_type { i32 (i32*)* @_ZN5boost16exception_detail19error_info_injectorINS_16bad_lexical_castEED1Ev, i32 (i32*)* @_ZN5boost16exception_detail19error_info_injectorINS_16bad_lexical_castEED0Ev, i32 ()* @_ZNK5boost16bad_lexical_cast4whatEv }
@global_var_20318.1857 = constant %vtable_20318_type { i32 (i32*)* @_ZN5boost16exception_detail10clone_implINS0_19error_info_injectorINS_16bad_lexical_castEEEED1Ev, i32 (i32*)* @_ZN5boost16exception_detail10clone_implINS0_19error_info_injectorINS_16bad_lexical_castEEEED0Ev, i32 ()* @_ZNK5boost16bad_lexical_cast4whatEv, i32 (i32)* @_ZNK5boost16exception_detail10clone_implINS0_19error_info_injectorINS_16bad_lexical_castEEEE5cloneEv, i32 (i32)* @_ZNK5boost16exception_detail10clone_implINS0_19error_info_injectorINS_16bad_lexical_castEEEE7rethrowEv }
@global_var_20398.1821 = constant %vtable_20398_type { i32 (i32*)* @_ZN5boost9gregorian11bad_weekdayD1Ev, i32 (i32*)* @_ZN5boost9gregorian11bad_weekdayD0Ev, i32 ()* @_ZL14EncodeDumpTimex }
@global_var_203b8.1892 = constant %vtable_203b8_type { i32 (i32*)* @_ZN5boost16exception_detail19error_info_injectorINS_9gregorian11bad_weekdayEED1Ev, i32 (i32*)* @_ZN5boost16exception_detail19error_info_injectorINS_9gregorian11bad_weekdayEED0Ev, i32 ()* @_ZL14EncodeDumpTimex }
@global_var_203f8.1879 = constant %vtable_203f8_type { i32 (i32*)* @_ZN5boost16exception_detail10clone_implINS0_19error_info_injectorINS_9gregorian11bad_weekdayEEEED1Ev, i32 (i32*)* @_ZN5boost16exception_detail10clone_implINS0_19error_info_injectorINS_9gregorian11bad_weekdayEEEED0Ev, i32 ()* @_ZL14EncodeDumpTimex, i32 (i32)* @_ZNK5boost16exception_detail10clone_implINS0_19error_info_injectorINS_9gregorian11bad_weekdayEEEE5cloneEv, i32 (i32)* @_ZNK5boost16exception_detail10clone_implINS0_19error_info_injectorINS_9gregorian11bad_weekdayEEEE7rethrowEv }
@global_var_20478.1824 = constant %vtable_20478_type { i32 (i32*)* @_ZN5boost9gregorian15bad_day_of_yearD1Ev, i32 (i32*)* @_ZN5boost9gregorian15bad_day_of_yearD0Ev, i32 ()* @_ZL14EncodeDumpTimex }
@global_var_20498.1898 = constant %vtable_20498_type { i32 (i32*)* @_ZN5boost16exception_detail19error_info_injectorINS_9gregorian15bad_day_of_yearEED1Ev, i32 (i32*)* @_ZN5boost16exception_detail19error_info_injectorINS_9gregorian15bad_day_of_yearEED0Ev, i32 ()* @_ZL14EncodeDumpTimex }
@global_var_204d8.1873 = constant %vtable_204d8_type { i32 (i32*)* @_ZN5boost16exception_detail10clone_implINS0_19error_info_injectorINS_9gregorian15bad_day_of_yearEEEED1Ev, i32 (i32*)* @_ZN5boost16exception_detail10clone_implINS0_19error_info_injectorINS_9gregorian15bad_day_of_yearEEEED0Ev, i32 ()* @_ZL14EncodeDumpTimex, i32 (i32)* @_ZNK5boost16exception_detail10clone_implINS0_19error_info_injectorINS_9gregorian15bad_day_of_yearEEEE5cloneEv, i32 (i32)* @_ZNK5boost16exception_detail10clone_implINS0_19error_info_injectorINS_9gregorian15bad_day_of_yearEEEE7rethrowEv }
@global_var_20558.1902 = constant %vtable_20558_type { i32 (i32*)* @_ZN5boost16exception_detail19error_info_injectorINSt8ios_base7failureEED1Ev, i32 (i32*)* @_ZN5boost16exception_detail19error_info_injectorINSt8ios_base7failureEED0Ev, i32 ()* @_ZL14EncodeDumpTimex }
@global_var_20598.1860 = constant %vtable_20598_type { i32 (i32*)* @_ZN5boost16exception_detail10clone_implINS0_19error_info_injectorINSt8ios_base7failureEEEED1Ev, i32 (i32*)* @_ZN5boost16exception_detail10clone_implINS0_19error_info_injectorINSt8ios_base7failureEEEED0Ev, i32 ()* @_ZL14EncodeDumpTimex, i32 (i32)* @_ZNK5boost16exception_detail10clone_implINS0_19error_info_injectorINSt8ios_base7failureEEEE5cloneEv.1768, i32 (i32)* @_ZNK5boost16exception_detail10clone_implINS0_19error_info_injectorINSt8ios_base7failureEEEE7rethrowEv }
@global_var_20638.1884 = constant %vtable_20638_type { i32 (i32*)* @_ZN5boost16exception_detail10bad_alloc_D1Ev, i32 (i32*)* @_ZN5boost16exception_detail10bad_alloc_D0Ev }
@global_var_20678.1842 = constant %vtable_20678_type { i32 (i32*)* @_ZN5boost16exception_detail10clone_implINS0_10bad_alloc_EED1Ev, i32 (i32*)* @_ZN5boost16exception_detail10clone_implINS0_10bad_alloc_EED0Ev, i32 (i32)* @_ZNK5boost16exception_detail10clone_implINS0_10bad_alloc_EE5cloneEv, i32 (i32)* @_ZNK5boost16exception_detail10clone_implINS0_10bad_alloc_EE7rethrowEv }

define i32 @_ZL14EncodeDumpTimex() {
dec_label_pc_0:
  %eax.global-to-local = alloca i32, align 4
  %v0_2 = load i32, i32* %eax.global-to-local, align 8
  ret i32 %v0_2
}

define i32 @function_8() {
dec_label_pc_8:
  %eax.global-to-local = alloca i32, align 4
  %tmp96 = load i32, i32* %eax.global-to-local, align 8
  ret i32 %tmp96
}

define void @_ZNK5boost16exception_detail10clone_implINS0_19error_info_injectorINSt8ios_base7failureEEEE5cloneEv(i32 %this) local_unnamed_addr {
dec_label_pc_10:
  ret void
}

define void @"~clone_impl"(i32 %this, i32 %__in_chrg) local_unnamed_addr {
dec_label_pc_20:
  ret void
}

define void @"~is_any_ofF"(i32 %this, i32 %__in_chrg) local_unnamed_addr {
dec_label_pc_80:
  ret void
}

define void @CBitcoinSecret(i32 %this, i32 %vchSecret) local_unnamed_addr {
dec_label_pc_9c:
  ret void
}

define i32 @function_a0() local_unnamed_addr {
dec_label_pc_a0:
  %eax.global-to-local = alloca i32, align 4
  %ebx.global-to-local = alloca i32, align 4
  %v0_a0 = load i32, i32* %ebx.global-to-local, align 4
  %v1_a0 = add i32 %v0_a0, 1696343108
  %v2_a0 = inttoptr i32 %v1_a0 to i32*
  %v3_a0 = load i32, i32* %v2_a0, align 4
  %v4_a0 = add i32 %v3_a0, -1
  store i32 %v4_a0, i32* %v2_a0, align 4
  %v0_a6 = load i32, i32* %eax.global-to-local, align 8
  %v1_a6 = load i32, i32* inttoptr (i32 20 to i32*), align 4
  %v2_a6 = xor i32 %v1_a6, %v0_a6
  %v3_a6 = icmp eq i32 %v2_a6, 0
  store i32 %v2_a6, i32* %eax.global-to-local, align 8
  %v1_ac = icmp eq i1 %v3_a6, false
  br i1 %v1_ac, label %dec_label_pc_b2, label %dec_label_pc_ae

dec_label_pc_ae:                                  ; preds = %dec_label_pc_a0
  ret i32 %v2_a6

dec_label_pc_b2:                                  ; preds = %dec_label_pc_a0
  ret i32 %v2_a6

; uselistorder directives
  uselistorder i32 %v2_a6, { 1, 0, 2, 3 }
  uselistorder i32* %eax.global-to-local, { 1, 0 }
}

define void @_ZNSt12_Vector_baseIhSaIhEE13_M_deallocateEPhj(i32 %this, i8* %__p, i32 %__n) local_unnamed_addr {
dec_label_pc_c0:
  ret void
}

define void @_ZN5boost2CV23simple_exception_policyItLt1ELt31ENS_9gregorian16bad_day_of_monthEE8on_errorEttNS0_14violation_enumE(i16 %arg0, i16 %arg1, i32 %arg2) local_unnamed_addr {
dec_label_pc_cf:
  ret void
}

define i32 @function_e9() local_unnamed_addr {
dec_label_pc_e9:
  %eax.global-to-local = alloca i32, align 4
  %v0_ec = load i32, i32* %eax.global-to-local, align 8
  ret i32 %v0_ec
}

define void @CBigNum(i32 %this, i32 %n) local_unnamed_addr {
dec_label_pc_100:
  ret void
}

define i32 @function_145() local_unnamed_addr {
dec_label_pc_145:
  %df.global-to-local = alloca i1, align 1
  %eax.global-to-local = alloca i32, align 4
  %edi.global-to-local = alloca i32, align 4
  %esi.global-to-local = alloca i32, align 4
  %tmp93 = call i32 @__decompiler_undefined_function_0()
  %v2_145 = load i8, i8* bitcast (i32* @esi to i8*), align 4
  %v4_145 = inttoptr i32 %tmp93 to i8*
  store i8 %v2_145, i8* %v4_145, align 1
  %v5_145 = load i32, i32* %edi.global-to-local, align 4
  %v6_145 = load i32, i32* %esi.global-to-local, align 4
  %v7_145 = load i1, i1* %df.global-to-local, align 1
  %v8_145 = select i1 %v7_145, i32 -1, i32 ptrtoint (i8** @global_var_1.1771 to i32)
  %v9_145 = add i32 %v8_145, %v5_145
  %v10_145 = add i32 %v8_145, %v6_145
  store i32 %v9_145, i32* %edi.global-to-local, align 4
  store i32 %v10_145, i32* %esi.global-to-local, align 4
  %v0_146 = load i32, i32* %eax.global-to-local, align 8
  ret i32 %v0_146

; uselistorder directives
  uselistorder i32* %esi.global-to-local, { 1, 0 }
  uselistorder i32* %edi.global-to-local, { 1, 0 }
}

define i32 @function_149() local_unnamed_addr {
dec_label_pc_149:
  %eax.global-to-local = alloca i32, align 4
  %v0_149 = load i32, i32* %eax.global-to-local, align 8
  ret i32 %v0_149
}

define void @_ZN5boost2CV23simple_exception_policyItLt1400ELt10000ENS_9gregorian8bad_yearEE8on_errorEttNS0_14violation_enumE(i16 %arg0, i16 %arg1, i32 %arg2) local_unnamed_addr {
dec_label_pc_157:
  %ebx.global-to-local = alloca i32, align 4
  %edi.global-to-local = alloca i32, align 4
  %esi.global-to-local = alloca i32, align 4
  %of.global-to-local = alloca i1, align 1
  %sf.global-to-local = alloca i1, align 1
  %tmp101 = sext i16 %arg0 to i32
  %tmp115 = inttoptr i32 %tmp101 to i8*
  %v0_157 = load i1, i1* %sf.global-to-local, align 1
  %v1_157 = load i1, i1* %of.global-to-local, align 1
  %v2_157 = icmp eq i1 %v0_157, %v1_157
  br i1 %v2_157, label %dec_label_pc_159, label %bb

bb:                                               ; preds = %dec_label_pc_157
  %v3_157 = call i32 @function_1d8()
  br label %dec_label_pc_159

dec_label_pc_159:                                 ; preds = %dec_label_pc_157, %bb
  %v0_15e = load i32, i32* @ebp, align 4
  %v1_160 = load i32, i32* %ebx.global-to-local, align 4
  %v2_160 = or i32 %v1_160, 128
  %v4_162 = trunc i32 %v0_15e to i8
  %v5_162 = icmp eq i8 %v4_162, 0
  %v1_164 = icmp eq i1 %v5_162, false
  %v4_164 = select i1 %v1_164, i32 %v2_160, i32 %v1_160
  store i32 %tmp101, i32* %esi.global-to-local, align 4
  %v1_16b = trunc i32 %v4_164 to i8
  store i8 %v1_16b, i8* %tmp115, align 1
  %v0_16d = load i32, i32* %esi.global-to-local, align 4
  %v1_16d = add i32 %v0_16d, ptrtoint (i8** @global_var_1.1771 to i32)
  store i32 0, i32* %esi.global-to-local, align 4
  %v0_176 = load i32, i32* %edi.global-to-local, align 4
  %v1_176 = sub i32 %v0_176, ptrtoint (i8** @global_var_1.1771 to i32)
  store i32 %v1_176, i32* %edi.global-to-local, align 4
  %v5_18a = sext i16 %arg1 to i32
  %v6_18a = sub i32 %v1_16d, %v5_18a
  %v12_18a = xor i32 %v1_16d, %v5_18a
  %v13_18a = xor i32 %v6_18a, %v1_16d
  %v14_18a = and i32 %v13_18a, %v12_18a
  %v15_18a = icmp slt i32 %v14_18a, 0
  %v2_1ae = lshr i32 %v6_18a, ptrtoint (double** @global_var_8.1773 to i32)
  %v4_1ae = icmp slt i32 %v2_1ae, 0
  store i1 %v4_1ae, i1* %sf.global-to-local, align 1
  store i32 %v2_1ae, i32* %ebx.global-to-local, align 4
  store i1 %v15_18a, i1* %of.global-to-local, align 1
  ret void

; uselistorder directives
  uselistorder i32 %v6_18a, { 1, 0 }
  uselistorder i1* %sf.global-to-local, { 1, 0 }
  uselistorder i1* %of.global-to-local, { 1, 0 }
  uselistorder i32* %edi.global-to-local, { 1, 0 }
  uselistorder i32* %ebx.global-to-local, { 1, 0 }
  uselistorder label %dec_label_pc_159, { 1, 0 }
}

define i32 @function_1bd(i32 %arg1, i32 %arg2, i32 %arg3, i32 %arg4) local_unnamed_addr {
dec_label_pc_1bd:
  %eax.global-to-local = alloca i32, align 4
  %ebx.global-to-local = alloca i32, align 4
  %ecx.global-to-local = alloca i32, align 4
  %v0_1bd = load i32, i32* %ebx.global-to-local, align 4
  %v1_1bd = add i32 %v0_1bd, 1698440268
  %v2_1bd = inttoptr i32 %v1_1bd to i32*
  %v3_1bd = load i32, i32* %v2_1bd, align 4
  %v4_1bd = add i32 %v3_1bd, -1
  store i32 %v4_1bd, i32* %v2_1bd, align 4
  %v0_1c3 = load i32, i32* %ecx.global-to-local, align 4
  %v1_1c3 = load i32, i32* inttoptr (i32 20 to i32*), align 4
  %v2_1c3 = xor i32 %v1_1c3, %v0_1c3
  store i32 %v2_1c3, i32* %ecx.global-to-local, align 4
  store i32 %arg1, i32* %ebx.global-to-local, align 4
  %v0_1d2 = load i32, i32* %eax.global-to-local, align 8
  ret i32 %v0_1d2

; uselistorder directives
  uselistorder i32* %ecx.global-to-local, { 1, 0 }
  uselistorder i32* %ebx.global-to-local, { 1, 0 }
}

define i32 @function_1d8() local_unnamed_addr {
dec_label_pc_1d8:
  %v1_1dc = load i32, i32* @eax, align 8
  ret i32 %v1_1dc
}

define void @_ZN5boost2CV23simple_exception_policyItLt1ELt12ENS_9gregorian9bad_monthEE8on_errorEttNS0_14violation_enumE(i16 %arg0, i16 %arg1, i32 %arg2) local_unnamed_addr {
dec_label_pc_1df:
  %esi.global-to-local = alloca i32, align 4
  %fpu_stat_TOP.global-to-local = alloca i3, align 1
  %v5_1df = load i3, i3* %fpu_stat_TOP.global-to-local, align 1
  %v6_1df = sub i3 %v5_1df, ptrtoint (i8** @global_var_1.1771 to i3)
  store i3 %v6_1df, i3* %fpu_stat_TOP.global-to-local, align 1
  %v0_1e5 = load i32, i32* %esi.global-to-local, align 4
  %v1_1e5 = add i32 %v0_1e5, ptrtoint (i8** @global_var_1.1771 to i32)
  store i32 %v1_1e5, i32* %esi.global-to-local, align 4
  ret void

; uselistorder directives
  uselistorder i3* %fpu_stat_TOP.global-to-local, { 1, 0 }
  uselistorder i32* %esi.global-to-local, { 1, 0 }
}

define i32 @function_1f8() local_unnamed_addr {
dec_label_pc_1f8:
  %ecx.global-to-local = alloca i32, align 4
  %edx.global-to-local = alloca i32, align 4
  %v0_1f8 = load i32, i32* %ecx.global-to-local, align 4
  %v0_1fa = load i32, i32* %edx.global-to-local, align 4
  %v1_1fc = sub i32 -1, %v0_1f8
  %v1_1fe = sub i32 -1, %v0_1fa
  %v1_204 = sub i32 sub (i32 ptrtoint (i8** @global_var_1.1771 to i32), i32 1), %v0_1f8
  %v5_204 = icmp ult i32 %v1_204, %v1_1fc
  %v2_20c = zext i1 %v5_204 to i32
  %v3_20c = add i32 %v2_20c, %v1_1fe
  store i32 %v3_20c, i32* %edx.global-to-local, align 4
  ret i32 %v1_204

; uselistorder directives
  uselistorder i32 %v0_1f8, { 1, 0 }
  uselistorder i32* %edx.global-to-local, { 1, 0 }
}

define void @"visitation_impl_invoke<boost::detail::variant::copy_into, const void*, boost::variant<CNoDestination, CKeyID, CScriptID>::has_fallback_type_>"(i32 %arg0, i32 %arg1, i8* %arg2, i32 %arg3, %has_fallback_type__2 %arg4, i32 %arg5) local_unnamed_addr {
dec_label_pc_220:
  ret void
}

define void @"visitation_impl_invoke<boost::detail::variant::invoke_visitor<const CBitcoinAddressVisitor>, const void*, boost::variant<CNoDestination, CKeyID, CScriptID>::has_fallback_type_>"(i32 %arg0, i32 %arg1, i8* %arg2, i32 %arg3, %has_fallback_type__2.0 %arg4, i32 %arg5) local_unnamed_addr {
dec_label_pc_260:
  ret void
}

define void @_ZN5boost2CV23simple_exception_policyItLt1ELt366ENS_9gregorian15bad_day_of_yearEE8on_errorEttNS0_14violation_enumE(i16 %arg0, i16 %arg1, i32 %arg2) local_unnamed_addr {
dec_label_pc_267:
  %eax.global-to-local = alloca i32, align 4
  %v2_267 = load i8, i8* bitcast (i32* @eax to i8*), align 8
  %v3_267 = load i32, i32* %eax.global-to-local, align 8
  %v4_267 = trunc i32 %v3_267 to i8
  %v5_267 = add i8 %v4_267, %v2_267
  %v21_267 = inttoptr i32 %v3_267 to i8*
  store i8 %v5_267, i8* %v21_267, align 1
  store i32 0, i32* %eax.global-to-local, align 8
  ret void
}

define void @"visitation_impl_invoke<boost::detail::variant::destroyer, void*, boost::variant<CNoDestination, CKeyID, CScriptID>::has_fallback_type_>"(i32 %arg0, i32 %arg1, i8* %arg2, i32 %arg3, %has_fallback_type__2.1 %arg4, i32 %arg5) local_unnamed_addr {
dec_label_pc_2a0:
  ret void
}

define void @"visitation_impl_invoke<boost::detail::variant::copy_into, const void*, boost::variant<std::basic_string<char>, boost::recursive_wrapper<std::vector<json_spirit::Pair_impl<json_spirit::Config_vector<std::basic_string<char> > >, std::allocator<json_spirit::Pair_impl<json_spirit::Config_vector<std::basic_string<char> > > > > >, boost::recursive_wrapper<std::vector<json_spirit::Value_impl<json_spirit::Config_vector<std::basic_string<char> > >, std::allocator<json_spirit::Value_impl<json_spirit::Config_vector<std::basic_string<char> > > > > >, bool, long long int, double, boost::detail::variant::void_, boost::detail::variant::void_, boost::detail::variant::void_, boost::detail::variant::void_, boost::detail::variant::void_, boost::detail::variant::void_, boost::detail::variant::void_, boost::detail::variant::void_, boost::detail::variant::void_, boost::detail::variant::void_, boost::detail::variant::void_, boost::detail::variant::void_, boost::detail::variant::void_, boost::detail::variant::void_>::has_fallback_type_>"(i32 %arg0, i32 %arg1, i8* %arg2, i32 %arg3, %has_fallback_type__3 %arg4, i32 %arg5) local_unnamed_addr {
dec_label_pc_2e0:
  ret void
}

define void @"visitation_impl_invoke<boost::detail::variant::destroyer, void*, boost::variant<std::basic_string<char>, boost::recursive_wrapper<std::vector<json_spirit::Pair_impl<json_spirit::Config_vector<std::basic_string<char> > >, std::allocator<json_spirit::Pair_impl<json_spirit::Config_vector<std::basic_string<char> > > > > >, boost::recursive_wrapper<std::vector<json_spirit::Value_impl<json_spirit::Config_vector<std::basic_string<char> > >, std::allocator<json_spirit::Value_impl<json_spirit::Config_vector<std::basic_string<char> > > > > >, bool, long long int, double, boost::detail::variant::void_, boost::detail::variant::void_, boost::detail::variant::void_, boost::detail::variant::void_, boost::detail::variant::void_, boost::detail::variant::void_, boost::detail::variant::void_, boost::detail::variant::void_, boost::detail::variant::void_, boost::detail::variant::void_, boost::detail::variant::void_, boost::detail::variant::void_, boost::detail::variant::void_, boost::detail::variant::void_>::has_fallback_type_>"(i32 %arg0, i32 %arg1, i8* %arg2, i32 %arg3, %has_fallback_type__3.2 %arg4, i32 %arg5) local_unnamed_addr {
dec_label_pc_320:
  ret void
}

define void @"visitation_impl_invoke<boost::detail::variant::invoke_visitor<boost::detail::variant::get_visitor<const std::basic_string<char> > >, const void*, boost::variant<std::basic_string<char>, boost::recursive_wrapper<std::vector<json_spirit::Pair_impl<json_spirit::Config_vector<std::basic_string<char> > >, std::allocator<json_spirit::Pair_impl<json_spirit::Config_vector<std::basic_string<char> > > > > >, boost::recursive_wrapper<std::vector<json_spirit::Value_impl<json_spirit::Config_vector<std::basic_string<char> > >, std::allocator<json_spirit::Value_impl<json_spirit::Config_vector<std::basic_string<char> > > > > >, bool, long long int, double, boost::detail::variant::void_, boost::detail::variant::void_, boost::detail::variant::void_, boost::detail::variant::void_, boost::detail::variant::void_, boost::detail::variant::void_, boost::detail::variant::void_, boost::detail::variant::void_, boost::detail::variant::void_, boost::detail::variant::void_, boost::detail::variant::void_, boost::detail::variant::void_, boost::detail::variant::void_, boost::detail::variant::void_>::has_fallback_type_>"(i32 %arg0, i32 %arg1, i8* %arg2, i32 %arg3, %has_fallback_type__3.3 %arg4, i32 %arg5) local_unnamed_addr {
dec_label_pc_360:
  ret void
}

define void @"visitation_impl_invoke<boost::detail::variant::invoke_visitor<boost::detail::variant::get_visitor<const bool> >, const void*, boost::variant<std::basic_string<char>, boost::recursive_wrapper<std::vector<json_spirit::Pair_impl<json_spirit::Config_vector<std::basic_string<char> > >, std::allocator<json_spirit::Pair_impl<json_spirit::Config_vector<std::basic_string<char> > > > > >, boost::recursive_wrapper<std::vector<json_spirit::Value_impl<json_spirit::Config_vector<std::basic_string<char> > >, std::allocator<json_spirit::Value_impl<json_spirit::Config_vector<std::basic_string<char> > > > > >, bool, long long int, double, boost::detail::variant::void_, boost::detail::variant::void_, boost::detail::variant::void_, boost::detail::variant::void_, boost::detail::variant::void_, boost::detail::variant::void_, boost::detail::variant::void_, boost::detail::variant::void_, boost::detail::variant::void_, boost::detail::variant::void_, boost::detail::variant::void_, boost::detail::variant::void_, boost::detail::variant::void_, boost::detail::variant::void_>::has_fallback_type_>"(i32 %arg0, i32 %arg1, i8* %arg2, i32 %arg3, %has_fallback_type__3.4 %arg4, i32 %arg5) local_unnamed_addr {
dec_label_pc_3a0:
  ret void
}

define void @"visitation_impl_invoke<boost::detail::variant::invoke_visitor<boost::detail::variant::comparer<boost::variant<CNoDestination, CKeyID, CScriptID>, boost::detail::variant::less_comp> >, const void*, boost::variant<CNoDestination, CKeyID, CScriptID>::has_fallback_type_>"(i32 %arg0, i32 %arg1, i8* %arg2, i32 %arg3, %has_fallback_type__2.5 %arg4, i32 %arg5) local_unnamed_addr {
dec_label_pc_3e0:
  ret void
}

define void @"__uninitialized_move_a<std::basic_string<char>*, std::basic_string<char>*, std::allocator<std::basic_string<char> > >"(i32 %__first, i32 %__last, i32 %__result, i32 %__alloc) local_unnamed_addr {
dec_label_pc_420:
  %eax.global-to-local = alloca i32, align 4
  %ecx.global-to-local = alloca i32, align 4
  %edx.global-to-local = alloca i32, align 4
  %v0_421 = load i32, i32* %ecx.global-to-local, align 4
  %v0_424 = load i32, i32* %edx.global-to-local, align 4
  store i32 %v0_424, i32* @edi, align 4
  %v0_427 = load i32, i32* %eax.global-to-local, align 8
  store i32 %v0_427, i32* @esi, align 4
  store i32 %v0_421, i32* @ebx, align 4
  %v0_42f = load i32, i32* inttoptr (i32 20 to i32*), align 4
  store i32 0, i32* @eax, align 8
  %v12_43b = icmp eq i32 %v0_424, %v0_427
  br i1 %v12_43b, label %bb, label %dec_label_pc_43f

bb:                                               ; preds = %dec_label_pc_420
  %v2_43d = call i32 @function_45a(i32 %v0_42f)
  store i32 %v2_43d, i32* @eax, align 8
  br label %dec_label_pc_43f

dec_label_pc_43f:                                 ; preds = %bb, %dec_label_pc_420
  %v1_440 = icmp eq i32 %v0_421, 0
  br i1 %v1_440, label %bb104, label %dec_label_pc_444

bb104:                                            ; preds = %dec_label_pc_43f
  %v1_442 = call i32 @function_450()
  store i32 %v1_442, i32* %eax.global-to-local, align 8
  br label %dec_label_pc_444

dec_label_pc_444:                                 ; preds = %bb104, %dec_label_pc_43f
  ret void

; uselistorder directives
  uselistorder i32 %v0_421, { 1, 0 }
}

define i32 @function_450() local_unnamed_addr {
dec_label_pc_450:
  %v0_458 = load i32, i32* @eax, align 8
  ret i32 %v0_458
}

define i32 @function_45a(i32 %arg1) local_unnamed_addr {
dec_label_pc_45a:
  %v1_45e = load i32, i32* inttoptr (i32 20 to i32*), align 4
  %v3_45e = icmp eq i32 %v1_45e, %arg1
  %v0_465 = load i32, i32* @ebx, align 4
  store i32 %v0_465, i32* @eax, align 8
  %v1_467 = icmp eq i1 %v3_45e, false
  br i1 %v1_467, label %bb, label %dec_label_pc_469

bb:                                               ; preds = %dec_label_pc_45a
  %v2_467 = call i32 @function_491()
  br label %dec_label_pc_469

dec_label_pc_469:                                 ; preds = %bb, %dec_label_pc_45a
  %v0_470 = phi i32 [ %v2_467, %bb ], [ %v0_465, %dec_label_pc_45a ]
  ret i32 %v0_470
}

define i32 @function_47a() local_unnamed_addr {
dec_label_pc_47a:
  call void @"visitation_impl_invoke<boost::detail::variant::invoke_visitor<boost::detail::variant::known_get<const CKeyID> >, const void*, boost::variant<CNoDestination, CKeyID, CScriptID>::has_fallback_type_>"(i32 ptrtoint (i32* @2 to i32), i32 ptrtoint (i32* @2 to i32), i8* bitcast (i32* @2 to i8*), i32 ptrtoint (i32* @2 to i32), %has_fallback_type__2.7 { i32 ptrtoint (i32* @2 to i32) }, i32 ptrtoint (i32* @2 to i32))
  ret i32 ptrtoint (i32* @2 to i32)
}

define i32 @function_489() local_unnamed_addr {
dec_label_pc_489:
  %eax.global-to-local = alloca i32, align 4
  %v0_489 = load i32, i32* %eax.global-to-local, align 8
  ret i32 %v0_489
}

define i32 @function_491() local_unnamed_addr {
dec_label_pc_491:
  %tmp = load i32, i32* @eax, align 8
  ret i32 %tmp
}

define i32 @function_497() local_unnamed_addr {
dec_label_pc_497:
  %eax.global-to-local = alloca i32, align 4
  %v0_497 = load i32, i32* %eax.global-to-local, align 8
  ret i32 %v0_497
}

define void @"visitation_impl_invoke<boost::detail::variant::invoke_visitor<boost::detail::variant::known_get<const CNoDestination> >, const void*, boost::variant<CNoDestination, CKeyID, CScriptID>::has_fallback_type_>"(i32 %arg0, i32 %arg1, i8* %arg2, i32 %arg3, %has_fallback_type__2.6 %arg4, i32 %arg5) local_unnamed_addr {
dec_label_pc_4b0:
  ret void
}

define void @"visitation_impl_invoke<boost::detail::variant::invoke_visitor<boost::detail::variant::known_get<const CKeyID> >, const void*, boost::variant<CNoDestination, CKeyID, CScriptID>::has_fallback_type_>"(i32 %arg0, i32 %arg1, i8* %arg2, i32 %arg3, %has_fallback_type__2.7 %arg4, i32 %arg5) local_unnamed_addr {
dec_label_pc_4f0:
  ret void
}

define void @"visitation_impl_invoke<boost::detail::variant::invoke_visitor<boost::detail::variant::known_get<const CScriptID> >, const void*, boost::variant<CNoDestination, CKeyID, CScriptID>::has_fallback_type_>"(i32 %arg0, i32 %arg1, i8* %arg2, i32 %arg3, %has_fallback_type__2.8 %arg4, i32 %arg5) local_unnamed_addr {
dec_label_pc_530:
  ret void
}

define i32 @_ZN5boost9date_time16counted_time_repINS_10posix_time33millisec_posix_time_system_configEEC2ERKNS_9gregorian4dateERKNS2_13time_durationE.part.376() local_unnamed_addr {
dec_label_pc_570:
  %eax.global-to-local = alloca i32, align 4
  %ebp.global-to-local = alloca i32, align 4
  %ebx.global-to-local = alloca i32, align 4
  %ecx.global-to-local = alloca i32, align 4
  %edi.global-to-local = alloca i32, align 4
  %edx.global-to-local = alloca i32, align 4
  %esi.global-to-local = alloca i32, align 4
  %v0_573 = load i32, i32* %edi.global-to-local, align 4
  %v2_577 = load i32, i32* %edx.global-to-local, align 4
  store i32 %v2_577, i32* %edi.global-to-local, align 4
  %v0_579 = load i32, i32* %ecx.global-to-local, align 4
  %v1_579 = add i32 %v0_579, 4
  %v2_579 = inttoptr i32 %v1_579 to i32*
  %v3_579 = load i32, i32* %v2_579, align 4
  store i32 %v3_579, i32* %edx.global-to-local, align 4
  %v0_57c = load i32, i32* %ebp.global-to-local, align 4
  %v0_580 = load i32, i32* %eax.global-to-local, align 8
  store i32 %v0_580, i32* %ebp.global-to-local, align 4
  store i32 %v0_579, i32* %eax.global-to-local, align 8
  %v0_590 = load i32, i32* %ebx.global-to-local, align 4
  %v1_594 = xor i32 %v3_579, -2147483648
  %v0_59a = load i32, i32* %esi.global-to-local, align 4
  %v2_59e = or i32 %v1_594, %v0_579
  %v3_59e = icmp eq i32 %v2_59e, 0
  store i32 %v2_59e, i32* %ecx.global-to-local, align 4
  br i1 %v3_59e, label %dec_label_pc_570.dec_label_pc_630_crit_edge, label %dec_label_pc_5a6

dec_label_pc_570.dec_label_pc_630_crit_edge:      ; preds = %dec_label_pc_570
  %.pre = sub i32 -1, %v0_579
  br label %dec_label_pc_630

dec_label_pc_5a6:                                 ; preds = %dec_label_pc_570
  %v1_5aa = xor i32 %v3_579, 2147483647
  store i32 %v1_5aa, i32* %ecx.global-to-local, align 4
  %v1_5b0 = sub i32 -1, %v0_579
  store i32 %v1_5b0, i32* %ebx.global-to-local, align 4
  %v2_5b4 = or i32 %v1_5aa, %v1_5b0
  %v3_5b4 = icmp eq i32 %v2_5b4, 0
  store i32 %v2_5b4, i32* %esi.global-to-local, align 4
  br i1 %v3_5b4, label %dec_label_pc_630, label %dec_label_pc_5b8

dec_label_pc_5b8:                                 ; preds = %dec_label_pc_5a6
  %v1_5ba = xor i32 %v0_579, -2
  store i32 %v1_5ba, i32* %esi.global-to-local, align 4
  %v2_5bd = or i32 %v1_5aa, %v1_5ba
  %v3_5bd = icmp eq i32 %v2_5bd, 0
  store i32 %v2_5bd, i32* %ecx.global-to-local, align 4
  br i1 %v3_5bd, label %dec_label_pc_5f0, label %dec_label_pc_5c1

dec_label_pc_5c1:                                 ; preds = %dec_label_pc_5b8
  %v1_5c1 = icmp eq i32 %v2_577, 0
  %v1_5c3 = icmp eq i1 %v1_5c1, false
  br i1 %v1_5c3, label %dec_label_pc_618, label %dec_label_pc_5c5

dec_label_pc_5c5:                                 ; preds = %dec_label_pc_630.dec_label_pc_5c5_crit_edge, %dec_label_pc_618, %dec_label_pc_5c1
  %v1_5c7.pre-phi = phi i32 [ %.pre3, %dec_label_pc_630.dec_label_pc_5c5_crit_edge ], [ %v1_5aa, %dec_label_pc_618 ], [ %v1_5aa, %dec_label_pc_5c1 ]
  %v1_5cd = phi i32 [ %v1_635.pre-phi, %dec_label_pc_630.dec_label_pc_5c5_crit_edge ], [ %v1_5b0, %dec_label_pc_618 ], [ %v1_5b0, %dec_label_pc_5c1 ]
  %v2_5cd = or i32 %v1_5cd, %v1_5c7.pre-phi
  %v3_5cd = icmp eq i32 %v2_5cd, 0
  store i32 %v2_5cd, i32* %ecx.global-to-local, align 4
  br i1 %v3_5cd, label %dec_label_pc_648, label %dec_label_pc_5d1

dec_label_pc_5d1:                                 ; preds = %dec_label_pc_5c5
  store i32 %v2_59e, i32* %ecx.global-to-local, align 4
  %v10_650 = icmp eq i32 %v2_577, -1
  br i1 %v3_59e, label %dec_label_pc_650, label %dec_label_pc_5db

dec_label_pc_5db:                                 ; preds = %dec_label_pc_5d1
  br i1 %v10_650, label %dec_label_pc_658, label %dec_label_pc_5e0

dec_label_pc_5e0:                                 ; preds = %dec_label_pc_5db
  %v1_5e0 = icmp eq i32 %v2_577, 0
  %v1_5e2 = icmp eq i1 %v1_5e0, false
  br i1 %v1_5e2, label %dec_label_pc_622, label %dec_label_pc_5e4

dec_label_pc_5e4:                                 ; preds = %dec_label_pc_5e0
  store i32 0, i32* %eax.global-to-local, align 8
  store i32 -2147483648, i32* %edx.global-to-local, align 4
  br label %dec_label_pc_5f0

dec_label_pc_5f0:                                 ; preds = %dec_label_pc_648, %dec_label_pc_658, %dec_label_pc_650, %dec_label_pc_639, %dec_label_pc_622, %dec_label_pc_5e4, %dec_label_pc_5b8
  %v0_5f0 = phi i32 [ %v0_579, %dec_label_pc_648 ], [ -1, %dec_label_pc_658 ], [ %v0_579, %dec_label_pc_650 ], [ -2, %dec_label_pc_639 ], [ %v2_624, %dec_label_pc_622 ], [ 0, %dec_label_pc_5e4 ], [ %v0_579, %dec_label_pc_5b8 ]
  %v2_5f0 = inttoptr i32 %v0_580 to i32*
  store i32 %v0_5f0, i32* %v2_5f0, align 4
  store i32 0, i32* %eax.global-to-local, align 8
  %v0_5fe = load i32, i32* %edx.global-to-local, align 4
  %v1_5fe = load i32, i32* %ebp.global-to-local, align 4
  %v2_5fe = add i32 %v1_5fe, 4
  %v3_5fe = inttoptr i32 %v2_5fe to i32*
  store i32 %v0_5fe, i32* %v3_5fe, align 4
  br i1 false, label %dec_label_pc_664, label %dec_label_pc_603

dec_label_pc_603:                                 ; preds = %dec_label_pc_5f0
  store i32 %v0_590, i32* %ebx.global-to-local, align 4
  store i32 %v0_59a, i32* %esi.global-to-local, align 4
  store i32 %v0_573, i32* %edi.global-to-local, align 4
  store i32 %v0_57c, i32* %ebp.global-to-local, align 4
  %v0_616 = load i32, i32* %eax.global-to-local, align 8
  ret i32 %v0_616

dec_label_pc_618:                                 ; preds = %dec_label_pc_5c1
  %v10_618 = icmp eq i32 %v2_577, -1
  br i1 %v10_618, label %dec_label_pc_5c5, label %dec_label_pc_61d

dec_label_pc_61d:                                 ; preds = %dec_label_pc_618
  %v10_61d = icmp eq i32 %v2_577, -2
  br i1 %v10_61d, label %dec_label_pc_639, label %dec_label_pc_622

dec_label_pc_622:                                 ; preds = %dec_label_pc_61d, %dec_label_pc_5e0
  store i32 0, i32* %ebx.global-to-local, align 4
  %v2_624 = add i32 %v0_579, %v2_577
  %v7_624 = icmp ult i32 %v2_624, %v0_579
  store i32 %v2_624, i32* %eax.global-to-local, align 8
  %v3_626 = zext i1 %v7_624 to i32
  %v5_626 = add i32 %v3_626, %v3_579
  store i32 %v5_626, i32* %edx.global-to-local, align 4
  br label %dec_label_pc_5f0

dec_label_pc_630:                                 ; preds = %dec_label_pc_570.dec_label_pc_630_crit_edge, %dec_label_pc_5a6
  %v1_635.pre-phi = phi i32 [ %.pre, %dec_label_pc_570.dec_label_pc_630_crit_edge ], [ %v1_5b0, %dec_label_pc_5a6 ]
  %v10_632 = icmp eq i32 %v2_577, -2
  store i32 %v1_635.pre-phi, i32* %ebx.global-to-local, align 4
  %v1_637 = icmp eq i1 %v10_632, false
  br i1 %v1_637, label %dec_label_pc_630.dec_label_pc_5c5_crit_edge, label %dec_label_pc_639

dec_label_pc_630.dec_label_pc_5c5_crit_edge:      ; preds = %dec_label_pc_630
  %.pre3 = xor i32 %v3_579, 2147483647
  br label %dec_label_pc_5c5

dec_label_pc_639:                                 ; preds = %dec_label_pc_650, %dec_label_pc_648, %dec_label_pc_630, %dec_label_pc_61d
  store i32 -2, i32* %eax.global-to-local, align 8
  store i32 2147483647, i32* %edx.global-to-local, align 4
  br label %dec_label_pc_5f0

dec_label_pc_648:                                 ; preds = %dec_label_pc_5c5
  %v1_648 = icmp eq i32 %v2_577, 0
  br i1 %v1_648, label %dec_label_pc_639, label %dec_label_pc_5f0

dec_label_pc_650:                                 ; preds = %dec_label_pc_5d1
  %v1_653 = icmp eq i1 %v10_650, false
  br i1 %v1_653, label %dec_label_pc_5f0, label %dec_label_pc_639

dec_label_pc_658:                                 ; preds = %dec_label_pc_5db
  store i32 -1, i32* %eax.global-to-local, align 8
  store i32 2147483647, i32* %edx.global-to-local, align 4
  br label %dec_label_pc_5f0

dec_label_pc_664:                                 ; preds = %dec_label_pc_5f0
  ret i32 undef

; uselistorder directives
  uselistorder i32 %v2_624, { 1, 2, 0 }
  uselistorder i1 %v10_650, { 1, 0 }
  uselistorder i32 %v1_5b0, { 3, 2, 1, 4, 0 }
  uselistorder i32 %v1_5aa, { 2, 3, 0, 1, 4 }
  uselistorder i32 %v3_579, { 1, 0, 2, 3, 4 }
  uselistorder i32 %v0_579, { 7, 2, 4, 5, 6, 8, 1, 0, 3, 9, 10 }
  uselistorder i32 %v2_577, { 7, 0, 4, 1, 2, 6, 3, 5, 8 }
  uselistorder i32* %edx.global-to-local, { 0, 1, 2, 4, 3, 5, 6 }
  uselistorder label %dec_label_pc_630, { 1, 0 }
  uselistorder label %dec_label_pc_5f0, { 1, 2, 0, 3, 4, 5, 6 }
}

define i32 @_Z16DecodeDumpStringRKSs(i32 %str) local_unnamed_addr {
dec_label_pc_670:
  %stack_var_-220 = alloca i32, align 4
  %v2_6a4 = ptrtoint i32* %stack_var_-220 to i32
  ret i32 %v2_6a4
}

define i32 @function_6af() local_unnamed_addr {
dec_label_pc_6af:
  %ebx.global-to-local = alloca i32, align 4
  %v0_6af = load i32, i32* %ebx.global-to-local, align 4
  %v1_6af = add i32 %v0_6af, -196572410
  %v2_6af = inttoptr i32 %v1_6af to i32*
  %v3_6af = load i32, i32* %v2_6af, align 4
  %v4_6af = sub i32 %v3_6af, ptrtoint (i8** @global_var_1.1771 to i32)
  store i32 %v4_6af, i32* %v2_6af, align 4
  %v0_6b5 = load i32, i32* @ecx, align 4
  %v1_6b5 = icmp eq i32 %v0_6b5, 0
  br i1 %v1_6b5, label %bb, label %dec_label_pc_6b9

bb:                                               ; preds = %dec_label_pc_6af
  %v1_6b7 = call i32 @function_738()
  store i32 %v1_6b7, i32* @eax, align 8
  br label %dec_label_pc_6b9

dec_label_pc_6b9:                                 ; preds = %bb, %dec_label_pc_6af
  store i32 0, i32* @ebx, align 4
  %v0_6c3 = call i32 @function_6ec()
  ret i32 %v0_6c3
}

define i32 @function_6c8(i32 %arg1) local_unnamed_addr {
dec_label_pc_6c8:
  %v3_6d8 = load i32, i32* @eax, align 8
  ret i32 %v3_6d8
}

define i32 @function_6e3() local_unnamed_addr {
dec_label_pc_6e3:
  %eax.global-to-local = alloca i32, align 4
  %v0_6e3 = load i32, i32* %eax.global-to-local, align 8
  ret i32 %v0_6e3
}

define i32 @function_6e9(i16 %arg1) local_unnamed_addr {
dec_label_pc_6e9:
  %eax.global-to-local = alloca i32, align 4
  %v6_6e9 = load i32, i32* %eax.global-to-local, align 8
  ret i32 %v6_6e9
}

define i32 @function_6ec() local_unnamed_addr {
dec_label_pc_6ec:
  %v0_6ec = load i32, i32* @eax, align 8
  %v1_6ec = load i32, i32* @ebx, align 4
  %v2_6ec = mul i32 %v1_6ec, ptrtoint (i8** @global_var_1.1771 to i32)
  %v3_6ec = add i32 %v2_6ec, %v0_6ec
  %v4_6ec = inttoptr i32 %v3_6ec to i8*
  %v5_6ec = load i8, i8* %v4_6ec, align 1
  %v11_6f0 = icmp eq i8 %v5_6ec, 37
  %v1_6f3 = icmp eq i1 %v11_6f0, false
  br i1 %v1_6f3, label %bb, label %dec_label_pc_6f5

bb:                                               ; preds = %dec_label_pc_6ec
  %v3_6f3 = call i32 @function_6c8(i32 ptrtoint (i32* @2 to i32))
  store i32 %v3_6f3, i32* @eax, align 8
  %v0_6f5.pre = load i32, i32* @ebx, align 4
  br label %dec_label_pc_6f5

dec_label_pc_6f5:                                 ; preds = %bb, %dec_label_pc_6ec
  %v0_7074 = phi i32 [ %v3_6f3, %bb ], [ %v0_6ec, %dec_label_pc_6ec ]
  %v0_6f5 = phi i32 [ %v0_6f5.pre, %bb ], [ %v1_6ec, %dec_label_pc_6ec ]
  %v1_6f5 = add i32 %v0_6f5, ptrtoint (i8** @global_var_2.1786 to i32)
  %v5_701 = load i32, i32* @ecx, align 4
  %v11_701 = icmp ult i32 %v1_6f5, %v5_701
  %v1_705 = icmp eq i1 %v11_701, false
  br i1 %v1_705, label %bb8, label %dec_label_pc_707

bb8:                                              ; preds = %dec_label_pc_6f5
  %v4_705 = call i32 @function_6c8(i32 %v1_6f5)
  %v1_707.pre = load i32, i32* @ebx, align 4
  br label %dec_label_pc_707

dec_label_pc_707:                                 ; preds = %bb8, %dec_label_pc_6f5
  %v1_70c = phi i32 [ %v1_707.pre, %bb8 ], [ %v0_6f5, %dec_label_pc_6f5 ]
  %v0_70c = phi i32 [ %v4_705, %bb8 ], [ %v0_7074, %dec_label_pc_6f5 ]
  %v2_707 = mul i32 %v1_70c, ptrtoint (i8** @global_var_1.1771 to i32)
  %v3_70c = add i32 %v0_70c, ptrtoint (i8** @global_var_1.1771 to i32)
  %v4_70c = add i32 %v3_70c, %v2_707
  %v5_70c = inttoptr i32 %v4_70c to i8*
  %v6_70c = load i8, i8* %v5_70c, align 1
  %v7_70c = sext i8 %v6_70c to i32
  %v2_725 = ashr i32 %v7_70c, ptrtoint (i16** @global_var_6.1788 to i32)
  %v1_728 = and i32 %v7_70c, ptrtoint (i32* @global_var_f.1787 to i32)
  %v3_72b = mul i32 %v2_725, add (i32 ptrtoint (double** @global_var_8.1773 to i32), i32 1)
  %v2_72e = add i32 %v3_72b, %v1_728
  %v2_730 = mul i32 %v2_72e, 16
  store i32 %v2_730, i32* @eax, align 8
  %v2_735 = call i32 @function_6c8(i32 %v1_6f5)
  ret i32 %v2_735

; uselistorder directives
  uselistorder i32 %v1_6f5, { 1, 0, 2 }
  uselistorder i32 %v0_6ec, { 1, 0 }
  uselistorder i32 (i32)* @function_6c8, { 2, 1, 0 }
}

define i32 @function_738() local_unnamed_addr {
dec_label_pc_738:
  %stack_var_92 = alloca i32, align 4
  %v2_74f = ptrtoint i32* %stack_var_92 to i32
  ret i32 %v2_74f
}

define i32 @function_78e() local_unnamed_addr {
dec_label_pc_78e:
  %eax.global-to-local = alloca i32, align 4
  %v0_78e = load i32, i32* %eax.global-to-local, align 8
  ret i32 %v0_78e
}

define i32 @function_7e8(i8 %arg1) local_unnamed_addr {
dec_label_pc_7e8:
  %cf.global-to-local = alloca i1, align 1
  %eax.global-to-local = alloca i32, align 4
  %ebp.global-to-local = alloca i32, align 4
  %ebx.global-to-local = alloca i32, align 4
  %stack_var_0 = alloca i8, align 1
  %v0_7e8 = load i32, i32* %ebx.global-to-local, align 4
  %v1_7e8 = add i32 %v0_7e8, -1961089980
  %v2_7e8 = inttoptr i32 %v1_7e8 to i32*
  %v3_7e8 = load i32, i32* %v2_7e8, align 4
  %v4_7e8 = sub i32 %v3_7e8, ptrtoint (i8** @global_var_1.1771 to i32)
  store i32 %v4_7e8, i32* %v2_7e8, align 4
  %v2_7ee = ptrtoint i8* %stack_var_0 to i32
  %v1_7ef = trunc i32 %v2_7ee to i8
  store i32 %v2_7ee, i32* %eax.global-to-local, align 8
  %v7_7f1 = add i8 %v1_7ef, %arg1
  %v12_7f1 = icmp ult i8 %v7_7f1, %arg1
  store i1 %v12_7f1, i1* %cf.global-to-local, align 1
  store i8 %v7_7f1, i8* %stack_var_0, align 1
  %v0_7f3 = load i32, i32* %ebp.global-to-local, align 4
  %v1_7f3 = add i32 %v0_7f3, 51
  %v2_7f3 = inttoptr i32 %v1_7f3 to i8*
  %v3_7f3 = load i8, i8* %v2_7f3, align 1
  %v5_7f3 = udiv i32 %v2_7ee, 256
  %v6_7f3 = trunc i32 %v5_7f3 to i8
  %v7_7f3 = add i8 %v3_7f3, %v6_7f3
  %v12_7f3 = icmp ult i8 %v7_7f3, %v3_7f3
  store i1 %v12_7f3, i1* %cf.global-to-local, align 1
  store i8 %v7_7f3, i8* %v2_7f3, align 1
  %v0_7f6 = load i32, i32* %eax.global-to-local, align 8
  %v1_7f6 = load i1, i1* %cf.global-to-local, align 1
  %v2_7f6 = zext i1 %v1_7f6 to i32
  %v3_7f6 = add i32 %v0_7f6, 20
  %v4_7f6 = add i32 %v3_7f6, %v2_7f6
  %v14_7f6 = icmp eq i32 %v4_7f6, 0
  %v22_7f6 = icmp ule i32 %v4_7f6, %v0_7f6
  %v23_7f6 = icmp ugt i32 %v0_7f6, -21
  %v24_7f6 = select i1 %v1_7f6, i1 %v22_7f6, i1 %v23_7f6
  store i1 %v24_7f6, i1* %cf.global-to-local, align 1
  store i32 %v4_7f6, i32* %eax.global-to-local, align 8
  %v1_7fb = icmp eq i1 %v14_7f6, false
  br i1 %v1_7fb, label %dec_label_pc_820, label %dec_label_pc_7fd

dec_label_pc_7fd:                                 ; preds = %dec_label_pc_7e8
  %v0_7fd = load i32, i32* @esp, align 4
  %v1_7fd = add i32 %v0_7fd, ptrtoint (i32* @global_var_fc.1789 to i32)
  %v5_7fd = icmp ult i32 %v1_7fd, %v0_7fd
  store i1 %v5_7fd, i1* %cf.global-to-local, align 1
  %v1_803 = inttoptr i32 %v1_7fd to i32*
  %v2_803 = load i32, i32* %v1_803, align 4
  store i32 %v2_803, i32* %ebx.global-to-local, align 4
  %v3_805 = add i32 %v0_7fd, add (i32 ptrtoint (i32* @global_var_fc.1789 to i32), i32 12)
  %v1_806 = inttoptr i32 %v3_805 to i32*
  %v2_806 = load i32, i32* %v1_806, align 4
  store i32 %v2_806, i32* %ebp.global-to-local, align 4
  ret i32 %v4_7f6

dec_label_pc_820:                                 ; preds = %dec_label_pc_7e8
  ret i32 %v4_7f6

; uselistorder directives
  uselistorder i32 %v4_7f6, { 1, 0, 3, 2, 4 }
  uselistorder i8 %v3_7f3, { 1, 0 }
  uselistorder i8* %stack_var_0, { 1, 0 }
  uselistorder i8 %arg1, { 1, 0 }
}

define i32 @function_80a() local_unnamed_addr {
dec_label_pc_80a:
  %stack_var_48 = alloca i32, align 4
  %v2_80c = ptrtoint i32* %stack_var_48 to i32
  ret i32 %v2_80c
}

define %"Value_impl<json_spirit::Config_vector<std::basic_string<char,std::char_traits<char>,std::allocator<char>>>>" @_Z11dumpprivkeyRKSt6vectorIN11json_spirit10Value_implINS0_13Config_vectorISsEEEESaIS4_EEb(i32 %params, i1 %fHelp) local_unnamed_addr {
dec_label_pc_830:
  %tmp102 = call i8 @__decompiler_undefined_function_2()
  %v0_83a = load i32, i32* inttoptr (i32 20 to i32*), align 4
  %v10_850 = icmp eq i8 %tmp102, 0
  %v4_858 = sext i1 %fHelp to i32
  store i32 %v4_858, i32* @esi, align 4
  br i1 %v10_850, label %bb, label %dec_label_pc_861

bb:                                               ; preds = %dec_label_pc_830
  %v2_85f = call i32 @function_8b8(i32 %v0_83a)
  br label %dec_label_pc_861

dec_label_pc_861:                                 ; preds = %bb, %dec_label_pc_830
  %v3_868 = phi i32 [ %v2_85f, %bb ], [ 0, %dec_label_pc_830 ]
  %v4_868 = insertvalue %"Value_impl<json_spirit::Config_vector<std::basic_string<char,std::char_traits<char>,std::allocator<char>>>>" undef, i32 %v3_868, 0
  ret %"Value_impl<json_spirit::Config_vector<std::basic_string<char,std::char_traits<char>,std::allocator<char>>>>" %v4_868
}

define i32 @function_8b8(i32 %arg1) local_unnamed_addr {
dec_label_pc_8b8:
  %v0_8b8 = load i32, i32* @esi, align 4
  %v1_8b8 = add i32 %v0_8b8, 4
  %v2_8b8 = inttoptr i32 %v1_8b8 to i32*
  %v3_8b8 = load i32, i32* %v2_8b8, align 4
  %v4_8bb = sub i32 %v3_8b8, %v0_8b8
  %v2_8bd = sdiv i32 %v4_8bb, 4
  %v3_8c0 = mul i32 %v2_8bd, -858993459
  ret i32 %v3_8c0
}

define i32 @function_b69() local_unnamed_addr {
dec_label_pc_b69:
  %tmp = load i32, i32* @eax, align 8
  ret i32 %tmp
}

define i32 @function_bcd() local_unnamed_addr {
dec_label_pc_bcd:
  %eax.global-to-local = alloca i32, align 4
  %ebx.global-to-local = alloca i32, align 4
  %ecx.global-to-local = alloca i32, align 4
  %v0_bd2 = load i32, i32* %ebx.global-to-local, align 4
  %v1_bd2 = add i32 %v0_bd2, -2093472684
  %v2_bd2 = inttoptr i32 %v1_bd2 to i32*
  %v3_bd2 = load i32, i32* %v2_bd2, align 4
  %v4_bd2 = load i32, i32* %ecx.global-to-local, align 4
  %v5_bd2 = add i32 %v4_bd2, %v3_bd2
  store i32 %v5_bd2, i32* %v2_bd2, align 4
  %v0_bd8 = load i32, i32* %eax.global-to-local, align 8
  ret i32 %v0_bd8
}

define i32 @function_bde() local_unnamed_addr {
dec_label_pc_bde:
  %tmp = load i32, i32* @eax, align 8
  ret i32 %tmp
}

define i32 @function_d11(i32 %arg1, i32 %arg2, i32 %arg3, i32 %arg4) local_unnamed_addr {
dec_label_pc_d28:
  %eax.global-to-local = alloca i32, align 4
  %ebp.global-to-local = alloca i32, align 4
  %ecx.global-to-local = alloca i32, align 4
  %v0_d11 = load i32, i32* %ecx.global-to-local, align 4
  %v1_d11 = add i32 %v0_d11, 613190616
  %v2_d11 = inttoptr i32 %v1_d11 to i32*
  %v3_d11 = load i32, i32* %v2_d11, align 4
  %v4_d11 = add i32 %v3_d11, -1
  store i32 %v4_d11, i32* %v2_d11, align 4
  %v2_d18 = load i8, i8* bitcast (i32* @eax to i8*), align 8
  %v3_d18 = load i32, i32* %eax.global-to-local, align 8
  %v4_d18 = trunc i32 %v3_d18 to i8
  %v5_d18 = add i8 %v4_d18, %v2_d18
  %v21_d18 = inttoptr i32 %v3_d18 to i8*
  store i8 %v5_d18, i8* %v21_d18, align 1
  %v0_d1a = load i32, i32* %ebp.global-to-local, align 4
  %v1_d1a = add i32 %v0_d1a, 51
  %v2_d1a = inttoptr i32 %v1_d1a to i8*
  %v3_d1a = load i8, i8* %v2_d1a, align 1
  %v4_d1a = load i32, i32* %eax.global-to-local, align 8
  %v5_d1a = udiv i32 %v4_d1a, 256
  %v6_d1a = trunc i32 %v5_d1a to i8
  %v7_d1a = add i8 %v6_d1a, %v3_d1a
  store i8 %v7_d1a, i8* %v2_d1a, align 1
  %v0_d1d = load i32, i32* %eax.global-to-local, align 8
  %v1_d1d = or i32 %v0_d1d, 20
  store i32 %v1_d1d, i32* @eax, align 8
  %v2_d22 = call i32 @function_dad()
  store i32 %v2_d22, i32* %eax.global-to-local, align 8
  store i32 %arg4, i32* %ebp.global-to-local, align 4
  ret i32 %v2_d22
}

define i32 @function_d38(i32 %arg1, i32 %arg2) local_unnamed_addr {
dec_label_pc_d38:
  %ecx.global-to-local = alloca i32, align 4
  %edx.global-to-local = alloca i32, align 4
  %stack_var_52 = alloca i32, align 4
  store i32 %arg1, i32* %stack_var_52, align 4
  %stack_var_109 = alloca i32, align 4
  %v1_d45 = load i32, i32* %ecx.global-to-local, align 4
  %v2_d45 = sub i32 32, %v1_d45
  %v2_d4b = ptrtoint i32* %stack_var_52 to i32
  %v0_d4f = load i32, i32* %edx.global-to-local, align 4
  %v4_d56 = bitcast i32* %stack_var_109 to i8*
  %v5_d56 = call i32 @_ZNSt6vectorIh25zero_after_free_allocatorIhEE14_M_fill_insertEN9__gnu_cxx17__normal_iteratorIPhS2_EEjRKh(i32 %v2_d4b, i32 %v0_d4f, i32 %v2_d45, i8* %v4_d56)
  store i32 %arg2, i32* %edx.global-to-local, align 4
  %v3_d5f = load i32, i32* %stack_var_52, align 4
  store i32 %v3_d5f, i32* @eax, align 8
  %v0_d63 = call i32 @function_b69()
  ret i32 %v0_d63

; uselistorder directives
  uselistorder i32* %stack_var_52, { 1, 2, 0 }
}

define i32 @function_d69() local_unnamed_addr {
dec_label_pc_d69:
  %eax.global-to-local = alloca i32, align 4
  %v0_d69 = load i32, i32* %eax.global-to-local, align 8
  ret i32 %v0_d69
}

define i32 @function_d6a() local_unnamed_addr {
dec_label_pc_d6a:
  %tmp = load i32, i32* @eax, align 8
  ret i32 %tmp
}

define i32 @function_d76() local_unnamed_addr {
dec_label_pc_d76:
  %tmp = load i32, i32* @eax, align 8
  ret i32 %tmp
}

define i32 @function_d89() local_unnamed_addr {
dec_label_pc_d89:
  %ecx.global-to-local = alloca i32, align 4
  %edx.global-to-local = alloca i32, align 4
  %stack_var_53 = alloca i32, align 4
  %v0_d89 = load i32, i32* @ebp, align 4
  %v1_d89 = add i32 %v0_d89, ptrtoint (i32* @global_var_b6.1775 to i32)
  %v2_d89 = inttoptr i32 %v1_d89 to i32*
  %v3_d89 = load i32, i32* %v2_d89, align 4
  %v4_d89 = sub i32 %v3_d89, ptrtoint (i8** @global_var_1.1771 to i32)
  store i32 %v4_d89, i32* %v2_d89, align 4
  %v0_d8f = load i32, i32* @ebp, align 4
  %v1_d8f = add i32 %v0_d8f, -1989401516
  %v2_d8f = inttoptr i32 %v1_d8f to i8*
  %v3_d8f = load i8, i8* %v2_d8f, align 1
  %v4_d8f = load i32, i32* %ecx.global-to-local, align 4
  %v5_d8f = trunc i32 %v4_d8f to i8
  %v6_d8f = add i8 %v5_d8f, %v3_d8f
  store i8 %v6_d8f, i8* %v2_d8f, align 1
  %v2_d98 = ptrtoint i32* %stack_var_53 to i32
  %v0_d9c = load i32, i32* %edx.global-to-local, align 4
  %v2_da3 = inttoptr i32 %v0_d9c to i8*
  %v3_da3 = call i32 @_ZNSt6vectorIh25zero_after_free_allocatorIhEE13_M_insert_auxEN9__gnu_cxx17__normal_iteratorIPhS2_EERKh(i32 %v2_d98, i8* %v2_da3)
  store i32 %v3_da3, i32* @eax, align 8
  %v0_da8 = call i32 @function_bde()
  ret i32 %v0_da8
}

define i32 @function_dad() local_unnamed_addr {
dec_label_pc_dad:
  %tmp = load i32, i32* @eax, align 8
  ret i32 %tmp
}

define i32 @function_db2() local_unnamed_addr {
dec_label_pc_db2:
  %v0_db2 = call i32 @_ZN14CBitcoinSecretC2ERK4CKey.part.667()
  ret i32 %v0_db2
}

define i32 @function_db7() local_unnamed_addr {
dec_label_pc_db7:
  %eax.global-to-local = alloca i32, align 4
  %v3_dbe = load i32, i32* %eax.global-to-local, align 8
  ret i32 %v3_dbe
}

define i32 @function_e0e() local_unnamed_addr {
dec_label_pc_e0e:
  %cf.global-to-local = alloca i1, align 1
  %eax.global-to-local = alloca i32, align 4
  %stack_var_110 = alloca i32, align 4
  %v0_e11 = load i32, i32* %eax.global-to-local, align 8
  %v1_e11 = trunc i32 %v0_e11 to i8
  %v2_e11 = load i1, i1* %cf.global-to-local, align 1
  %v17_e11 = icmp ult i8 %v1_e11, 36
  %v18_e11 = or i1 %v2_e11, %v17_e11
  store i1 %v18_e11, i1* %cf.global-to-local, align 1
  %v2_e3a = ptrtoint i32* %stack_var_110 to i32
  store i32 %v2_e3a, i32* %eax.global-to-local, align 8
  %v1_e41 = call i32 @_ZN4CKeyD1Ev(i32 %v2_e3a)
  store i32 %v1_e41, i32* @eax, align 8
  %v0_e46 = call i32 @function_d6a()
  store i32 %v0_e46, i32* %eax.global-to-local, align 8
  ret i32 %v0_e46
}

define i32 @function_ea9() local_unnamed_addr {
dec_label_pc_ea9:
  %eax.global-to-local = alloca i32, align 4
  %ecx.global-to-local = alloca i32, align 4
  %v0_ea9 = load i32, i32* %ecx.global-to-local, align 4
  %v1_ea9 = add i32 %v0_ea9, 607422915
  %v2_ea9 = inttoptr i32 %v1_ea9 to i32*
  %v3_ea9 = load i32, i32* %v2_ea9, align 4
  %v4_ea9 = add i32 %v3_ea9, -1
  store i32 %v4_ea9, i32* %v2_ea9, align 4
  %v0_ebc = load i32, i32* %eax.global-to-local, align 8
  ret i32 %v0_ebc
}

define i32 @function_ec1() local_unnamed_addr {
dec_label_pc_ec1:
  %eax.global-to-local = alloca i32, align 4
  %v0_ec1 = load i32, i32* %eax.global-to-local, align 8
  ret i32 %v0_ec1
}

define i32 @function_ec9() local_unnamed_addr {
dec_label_pc_ec9:
  %eax.global-to-local = alloca i32, align 4
  %v0_ec9 = load i32, i32* %eax.global-to-local, align 8
  %v11_ec9 = and i32 %v0_ec9, or (i32 zext (i8 ptrtoint (i8* @global_var_89.1792 to i8) to i32), i32 -256)
  store i32 %v11_ec9, i32* %eax.global-to-local, align 8
  ret i32 %v11_ec9

; uselistorder directives
  uselistorder i32 %v11_ec9, { 1, 0 }
}

define i32 @function_ed1() local_unnamed_addr {
dec_label_pc_ed1:
  %eax.global-to-local = alloca i32, align 4
  %v0_ed1 = load i32, i32* %eax.global-to-local, align 8
  ret i32 %v0_ed1
}

define i32 @function_ed3() local_unnamed_addr {
dec_label_pc_ed3:
  %tmp = load i32, i32* @eax, align 8
  ret i32 %tmp
}

define i32 @function_ed4() local_unnamed_addr {
dec_label_pc_ed4:
  %eax.global-to-local = alloca i32, align 4
  %v0_ed4 = load i32, i32* %eax.global-to-local, align 8
  ret i32 %v0_ed4
}

define i32 @function_ed5() local_unnamed_addr {
dec_label_pc_ed5:
  %tmp = load i32, i32* @eax, align 8
  ret i32 %tmp
}

define i32 @function_ee0() local_unnamed_addr {
dec_label_pc_ee0:
  %v0_ee0 = call i32 @function_d6a()
  ret i32 %v0_ee0

; uselistorder directives
  uselistorder i32 ()* @function_d6a, { 1, 0 }
}

define i32 @function_ee5() local_unnamed_addr {
dec_label_pc_ee5:
  %tmp = load i32, i32* @eax, align 8
  ret i32 %tmp
}

define i32 @function_ef1() local_unnamed_addr {
dec_label_pc_ef1:
  %v0_ef1 = call i32 @function_ed5()
  ret i32 %v0_ef1
}

define i32 @function_ef3() local_unnamed_addr {
dec_label_pc_ef3:
  %v0_ef3 = call i32 @function_ed3()
  ret i32 %v0_ef3
}

define i32 @function_f01() local_unnamed_addr {
dec_label_pc_f01:
  %tmp = load i32, i32* @eax, align 8
  ret i32 %tmp
}

define i32 @function_f10(i32 %arg1) local_unnamed_addr {
dec_label_pc_f10:
  %eax.global-to-local = alloca i32, align 4
  %ecx.global-to-local = alloca i32, align 4
  %v0_f10 = load i32, i32* %ecx.global-to-local, align 4
  %v1_f10 = add i32 %v0_f10, 608472515
  %v2_f10 = inttoptr i32 %v1_f10 to i32*
  %v3_f10 = load i32, i32* %v2_f10, align 4
  %v4_f10 = add i32 %v3_f10, -1
  store i32 %v4_f10, i32* %v2_f10, align 4
  %v0_f16 = load i32, i32* %ecx.global-to-local, align 4
  %v1_f16 = add i32 %v0_f16, -1578621948
  %v2_f16 = inttoptr i32 %v1_f16 to i8*
  %v3_f16 = load i8, i8* %v2_f16, align 1
  %v5_f16 = trunc i32 %v0_f16 to i8
  %v6_f16 = xor i8 %v3_f16, %v5_f16
  store i8 %v6_f16, i8* %v2_f16, align 1
  %v2_f1d = load i8, i8* bitcast (i32* @eax to i8*), align 8
  %v3_f1d = load i32, i32* %eax.global-to-local, align 8
  %v4_f1d = trunc i32 %v3_f1d to i8
  %v5_f1d = add i8 %v4_f1d, %v2_f1d
  %v21_f1d = inttoptr i32 %v3_f1d to i8*
  store i8 %v5_f1d, i8* %v21_f1d, align 1
  %v0_f1f = load i32, i32* %eax.global-to-local, align 8
  ret i32 %v0_f1f
}

define i32 @function_f24() local_unnamed_addr {
dec_label_pc_f24:
  %v0_f26 = call i32 @function_f01()
  ret i32 %v0_f26
}

define i32 @function_f30() local_unnamed_addr {
dec_label_pc_f30:
  %v0_f30 = call i32 @function_ee5()
  ret i32 %v0_f30
}

define i32 @function_f32() local_unnamed_addr {
dec_label_pc_f32:
  %v0_f34 = call i32 @function_d76()
  ret i32 %v0_f34
}

define i32 @function_f3a() local_unnamed_addr {
dec_label_pc_f3a:
  %eax.global-to-local = alloca i32, align 4
  %v0_f3a = load i32, i32* %eax.global-to-local, align 8
  ret i32 %v0_f3a
}

define i32 @function_f42() local_unnamed_addr {
dec_label_pc_f42:
  %eax.global-to-local = alloca i32, align 4
  %tmp91 = call i32 @__decompiler_undefined_function_0()
  %v1_f42 = add i32 %tmp91, -1993333692
  %v2_f42 = inttoptr i32 %v1_f42 to i32*
  %v3_f42 = load i32, i32* %v2_f42, align 4
  %v4_f42 = sub i32 %v3_f42, ptrtoint (i8** @global_var_1.1771 to i32)
  store i32 %v4_f42, i32* %v2_f42, align 4
  %v0_f48 = load i32, i32* %eax.global-to-local, align 8
  %v2_f48 = add i32 %v0_f48, 36
  %v16_f48 = and i32 %v2_f48, 255
  %v18_f48 = and i32 %v0_f48, -256
  %v19_f48 = or i32 %v16_f48, %v18_f48
  store i32 %v19_f48, i32* %eax.global-to-local, align 8
  %v1_f4a = call i32 @_ZN11CBase58DataD1Ev(i32 ptrtoint (i32* @2 to i32))
  store i32 %v1_f4a, i32* %eax.global-to-local, align 8
  ret i32 %v1_f4a

; uselistorder directives
  uselistorder i32 %v0_f48, { 1, 0 }
  uselistorder i32* %eax.global-to-local, { 1, 2, 0 }
}

define i32 @function_f54(i32 %arg1) local_unnamed_addr {
dec_label_pc_f54:
  call void @_ZNSt12_Vector_baseIhSaIhEE13_M_deallocateEPhj(i32 ptrtoint (i32* @2 to i32), i8* bitcast (i32* @2 to i8*), i32 ptrtoint (i32* @2 to i32))
  ret i32 ptrtoint (i32* @2 to i32)
}

define i32 @function_f62() local_unnamed_addr {
dec_label_pc_f62:
  %eax.global-to-local = alloca i32, align 4
  %v0_f62 = load i32, i32* %eax.global-to-local, align 8
  ret i32 %v0_f62
}

define %"Value_impl<json_spirit::Config_vector<std::basic_string<char,std::char_traits<char>,std::allocator<char>>>>.9" @_Z13importprivkeyRKSt6vectorIN11json_spirit10Value_implINS0_13Config_vectorISsEEEESaIS4_EEb(i32 %params, i1 %fHelp) local_unnamed_addr {
dec_label_pc_f70:
  %tmp101 = call i8 @__decompiler_undefined_function_2()
  %v4_f91 = sext i1 %fHelp to i32
  store i32 %v4_f91, i32* @ebx, align 4
  %v10_f98 = icmp eq i8 %tmp101, 0
  br i1 %v10_f98, label %bb, label %dec_label_pc_fa6

bb:                                               ; preds = %dec_label_pc_f70
  %v2_fa4 = call i32 @function_1000(i32 %params)
  br label %dec_label_pc_fa6

dec_label_pc_fa6:                                 ; preds = %bb, %dec_label_pc_f70
  %v3_fad = phi i32 [ %v2_fa4, %bb ], [ %params, %dec_label_pc_f70 ]
  %v4_fad = insertvalue %"Value_impl<json_spirit::Config_vector<std::basic_string<char,std::char_traits<char>,std::allocator<char>>>>.9" undef, i32 %v3_fad, 0
  ret %"Value_impl<json_spirit::Config_vector<std::basic_string<char,std::char_traits<char>,std::allocator<char>>>>.9" %v4_fad
}

define i32 @function_1000(i32 %arg1) local_unnamed_addr {
dec_label_pc_1000:
  %v0_1000 = load i32, i32* @ebx, align 4
  %v1_1000 = add i32 %v0_1000, 4
  %v2_1000 = inttoptr i32 %v1_1000 to i32*
  %v3_1000 = load i32, i32* %v2_1000, align 4
  %v4_1003 = sub i32 %v3_1000, %v0_1000
  %v2_1005 = sdiv i32 %v4_1003, 4
  %v3_1008 = mul i32 %v2_1005, -858993459
  ret i32 %v3_1008
}

define i32 @function_1063() local_unnamed_addr {
dec_label_pc_1063:
  %eax.global-to-local = alloca i32, align 4
  %ebx.global-to-local = alloca i32, align 4
  %ecx.global-to-local = alloca i32, align 4
  %tmp93 = call i32 @__decompiler_undefined_function_0()
  %v3_1064 = load i32, i32* %ecx.global-to-local, align 4
  %v4_1064 = add i32 %v3_1064, %tmp93
  %v21_1064 = inttoptr i32 %tmp93 to i32*
  store i32 %v4_1064, i32* %v21_1064, align 4
  %v0_1066 = load i8, i8* inttoptr (i32 -2097151999 to i8*), align 1
  %v1_1066 = load i32, i32* %ebx.global-to-local, align 4
  %v2_1066 = trunc i32 %v1_1066 to i8
  store i8 %v2_1066, i8* inttoptr (i32 -2097151999 to i8*), align 1
  %v3_1066 = zext i8 %v0_1066 to i32
  %v5_1066 = and i32 %v1_1066, -256
  %v6_1066 = or i32 %v5_1066, %v3_1066
  store i32 %v6_1066, i32* %ebx.global-to-local, align 4
  %v0_106c = load i32, i32* %eax.global-to-local, align 8
  ret i32 %v0_106c
}

define i32 @function_109b() local_unnamed_addr {
dec_label_pc_109b:
  %v0_109b = call i32 @function_830010a0()
  ret i32 %v0_109b
}

define i32 @function_10a0() local_unnamed_addr {
dec_label_pc_10a0:
  %eax.global-to-local = alloca i32, align 4
  %v0_10a0 = load i32, i32* %eax.global-to-local, align 8
  ret i32 %v0_10a0
}

define i32 @function_10ae(i32 %arg1) local_unnamed_addr {
dec_label_pc_10ae:
  %tmp = load i32, i32* @eax, align 8
  ret i32 %tmp
}

define i32 @function_1102() local_unnamed_addr {
dec_label_pc_1102:
  %tmp = load i32, i32* @eax, align 8
  ret i32 %tmp
}

define i32 @function_1188() local_unnamed_addr {
dec_label_pc_1188:
  %v2_118d = call i32 @function_10ae(i32 sext (i8 ptrtoint (i8** @global_var_1.1771 to i8) to i32))
  ret i32 %v2_118d
}

define i32 @function_1198() local_unnamed_addr {
dec_label_pc_1198:
  %ebx.global-to-local = alloca i32, align 4
  %edx.global-to-local = alloca i32, align 4
  %v0_1198 = load i32, i32* %edx.global-to-local, align 4
  %v1_1198 = add i32 %v0_1198, 32
  %v2_1198 = inttoptr i32 %v1_1198 to i8*
  %v3_1198 = load i8, i8* %v2_1198, align 1
  %v13_1198 = icmp eq i8 %v3_1198, 1
  %v1_119c = zext i1 %v13_1198 to i32
  %v2_119c = load i32, i32* %ebx.global-to-local, align 4
  %v3_119c = and i32 %v2_119c, -256
  %v4_119c = or i32 %v3_119c, %v1_119c
  store i32 %v4_119c, i32* %ebx.global-to-local, align 4
  %v0_119f = call i32 @function_1102()
  ret i32 %v0_119f
}

define i32 @function_130b(i16 %arg1) local_unnamed_addr {
dec_label_pc_130b:
  %eax.global-to-local = alloca i32, align 4
  %v6_130b = load i32, i32* %eax.global-to-local, align 8
  ret i32 %v6_130b
}

define i32 @function_15c1(i32 %arg1, i32 %arg2, i32 %arg3, i32 %arg4) local_unnamed_addr {
dec_label_pc_15da:
  %eax.global-to-local = alloca i32, align 4
  %ebp.global-to-local = alloca i32, align 4
  %ebx.global-to-local = alloca i32, align 4
  %edi.global-to-local = alloca i32, align 4
  %fs.global-to-local = alloca i16, align 2
  %v0_15c1 = load i32, i32* %ebx.global-to-local, align 4
  %v1_15c1 = add i32 %v0_15c1, -1960565692
  %v2_15c1 = inttoptr i32 %v1_15c1 to i32*
  %v3_15c1 = load i32, i32* %v2_15c1, align 4
  %v4_15c1 = sub i32 %v3_15c1, ptrtoint (i8** @global_var_1.1771 to i32)
  store i32 %v4_15c1, i32* %v2_15c1, align 4
  %v0_15c7 = load i16, i16* %fs.global-to-local, align 2
  %v1_15c7 = load i32, i32* @esp, align 4
  %v2_15c7 = load i32, i32* %edi.global-to-local, align 4
  %v3_15c7 = mul i32 %v2_15c7, ptrtoint (i8** @global_var_1.1771 to i32)
  %v4_15c7 = add i32 %v3_15c7, %v1_15c7
  %v5_15c7 = inttoptr i32 %v4_15c7 to i16*
  store i16 %v0_15c7, i16* %v5_15c7, align 2
  %v2_15ca = load i32, i32* %eax.global-to-local, align 8
  %v4_15ca = mul i32 %v2_15ca, 2
  %v21_15ca = inttoptr i32 %v2_15ca to i32*
  store i32 %v4_15ca, i32* %v21_15ca, align 4
  %v0_15cc = load i32, i32* %ebp.global-to-local, align 4
  %v1_15cc = add i32 %v0_15cc, 51
  %v2_15cc = inttoptr i32 %v1_15cc to i8*
  %v3_15cc = load i8, i8* %v2_15cc, align 1
  %v4_15cc = load i32, i32* %eax.global-to-local, align 8
  %v5_15cc = udiv i32 %v4_15cc, 256
  %v6_15cc = trunc i32 %v5_15cc to i8
  %v7_15cc = add i8 %v6_15cc, %v3_15cc
  store i8 %v7_15cc, i8* %v2_15cc, align 1
  %v0_15cf = load i32, i32* %eax.global-to-local, align 8
  %v1_15cf = or i32 %v0_15cf, 20
  store i32 %v1_15cf, i32* @eax, align 8
  %v2_15d4 = call i32 @function_1660()
  store i32 %v2_15d4, i32* %eax.global-to-local, align 8
  store i32 %arg1, i32* %ebx.global-to-local, align 4
  store i32 %arg3, i32* %edi.global-to-local, align 4
  store i32 %arg4, i32* %ebp.global-to-local, align 4
  ret i32 %v2_15d4

; uselistorder directives
  uselistorder i32 %v2_15ca, { 1, 0 }
}

define i32 @function_15e8() local_unnamed_addr {
dec_label_pc_15e8:
  %eax.global-to-local = alloca i32, align 4
  %tmp96 = load i32, i32* %eax.global-to-local, align 8
  ret i32 %tmp96
}

define i32 @function_1637(i32 %arg1) local_unnamed_addr {
dec_label_pc_1637:
  %v0_1637 = load i32, i32* @edi, align 4
  %v1_163a = inttoptr i32 %v0_1637 to i32*
  %v2_163a = call i32 @_ZN5boost11unique_lockI14AnnotatedMixinINS_15recursive_mutexEEED1Ev(i32* %v1_163a)
  %v0_163f = load i32, i32* @ebp, align 4
  %v1_1642 = inttoptr i32 %v0_163f to i32*
  %v2_1642 = call i32 @_ZN5boost11unique_lockI14AnnotatedMixinINS_15recursive_mutexEEED1Ev(i32* %v1_1642)
  %v2_1656 = inttoptr i32 %arg1 to i32*
  %v3_1656 = call i32 @_ZN11json_spirit10Value_implINS_13Config_vectorISsEEEC1ERKS3_(i32* %v2_1656, i32 ptrtoint (i32* @global_var_1b284.1793 to i32))
  ret i32 %v3_1656
}

define i32 @function_1660() local_unnamed_addr {
dec_label_pc_1660:
  %tmp = load i32, i32* @eax, align 8
  ret i32 %tmp
}

define i32 @function_1665() local_unnamed_addr {
dec_label_pc_1665:
  %eax.global-to-local = alloca i32, align 4
  %v3_166c = load i32, i32* %eax.global-to-local, align 8
  ret i32 %v3_166c
}

define i32 @function_16d0(i32 %arg1) local_unnamed_addr {
dec_label_pc_16d0:
  %tmp = load i32, i32* @eax, align 8
  ret i32 %tmp
}

define i32 @function_16d8() local_unnamed_addr {
dec_label_pc_16d8:
  %tmp = load i32, i32* @eax, align 8
  ret i32 %tmp
}

define i32 @function_16e0(i32 %arg1) local_unnamed_addr {
dec_label_pc_16e0:
  %tmp = load i32, i32* @eax, align 8
  ret i32 %tmp
}

define i32 @function_16ec() local_unnamed_addr {
dec_label_pc_16ec:
  %tmp = load i32, i32* @eax, align 8
  ret i32 %tmp
}

define i32 @function_16f8() local_unnamed_addr {
dec_label_pc_16f8:
  %tmp = load i32, i32* @eax, align 8
  ret i32 %tmp
}

define i32 @function_1704() local_unnamed_addr {
dec_label_pc_1704:
  %tmp = load i32, i32* @eax, align 8
  ret i32 %tmp
}

define i32 @function_1710() local_unnamed_addr {
dec_label_pc_1710:
  %ebx.global-to-local = alloca i32, align 4
  %v0_1710 = load i32, i32* %ebx.global-to-local, align 4
  %v0_1718 = load i32, i32* @eax, align 8
  store i32 %v0_1718, i32* %ebx.global-to-local, align 4
  %v1_171a = call i32 @function_16d0(i32 %v0_1710)
  ret i32 %v1_171a
}

define i32 @function_1727() local_unnamed_addr {
dec_label_pc_1727:
  %eax.global-to-local = alloca i32, align 4
  %ebx.global-to-local = alloca i32, align 4
  %v0_1727 = load i32, i32* %ebx.global-to-local, align 4
  %v1_1727 = add i32 %v0_1727, -1994382268
  %v2_1727 = inttoptr i32 %v1_1727 to i32*
  %v3_1727 = load i32, i32* %v2_1727, align 4
  %v4_1727 = sub i32 %v3_1727, ptrtoint (i8** @global_var_1.1771 to i32)
  store i32 %v4_1727, i32* %v2_1727, align 4
  %v0_172d = load i32, i32* %eax.global-to-local, align 8
  ret i32 %v0_172d
}

define i32 @function_172e() local_unnamed_addr {
dec_label_pc_172e:
  %tmp = load i32, i32* @eax, align 8
  ret i32 %tmp
}

define i32 @function_1736() local_unnamed_addr {
dec_label_pc_1736:
  %v1_1736 = call i32 @function_16d0(i32 ptrtoint (i32* @2 to i32))
  ret i32 %v1_1736

; uselistorder directives
  uselistorder i32 (i32)* @function_16d0, { 1, 0 }
}

define i32 @function_1738() local_unnamed_addr {
dec_label_pc_1738:
  %v0_173a = call i32 @function_172e()
  ret i32 %v0_173a
}

define i32 @function_173c() local_unnamed_addr {
dec_label_pc_173c:
  %v0_1740 = call i32 @function_16d8()
  ret i32 %v0_1740
}

define i32 @function_1742() local_unnamed_addr {
dec_label_pc_1742:
  %stack_var_186 = alloca i32, align 4
  %v2_1744 = ptrtoint i32* %stack_var_186 to i32
  %v1_174e = call i32 @_ZN4CKeyD1Ev(i32 %v2_1744)
  store i32 %v1_174e, i32* @eax, align 8
  %v0_1753 = call i32 @function_16ec()
  ret i32 %v0_1753
}

define i32 @function_1761() local_unnamed_addr {
dec_label_pc_1761:
  %tmp = load i32, i32* @eax, align 8
  ret i32 %tmp
}

define i32 @function_1769() local_unnamed_addr {
dec_label_pc_1769:
  %v0_1769 = call i32 @function_16ec()
  ret i32 %v0_1769
}

define i32 @function_176b() local_unnamed_addr {
dec_label_pc_176b:
  %v0_1770 = call i32 @function_1761()
  ret i32 %v0_1770
}

define i32 @function_1772() local_unnamed_addr {
dec_label_pc_1772:
  %v0_1774 = call i32 @function_16ec()
  ret i32 %v0_1774

; uselistorder directives
  uselistorder i32 ()* @function_16ec, { 2, 1, 0 }
}

define i32 @function_1779() local_unnamed_addr {
dec_label_pc_1779:
  %v0_1780 = call i32 @function_16f8()
  ret i32 %v0_1780
}

define i32 @function_1785() local_unnamed_addr {
dec_label_pc_1785:
  %v0_1787 = call i32 @function_1704()
  ret i32 %v0_1787
}

define i32 @function_17a7() local_unnamed_addr {
dec_label_pc_17a7:
  %eax.global-to-local = alloca i32, align 4
  %ecx.global-to-local = alloca i32, align 4
  %v0_17a7 = load i32, i32* %ecx.global-to-local, align 4
  %v1_17a7 = add i32 %v0_17a7, -1980961853
  %v2_17a7 = inttoptr i32 %v1_17a7 to i32*
  %v3_17a7 = load i32, i32* %v2_17a7, align 4
  %v4_17a7 = sub i32 %v3_17a7, ptrtoint (i8** @global_var_1.1771 to i32)
  store i32 %v4_17a7, i32* %v2_17a7, align 4
  %v0_17ad = load i32, i32* %eax.global-to-local, align 8
  ret i32 %v0_17ad
}

define i32 @function_17ae() local_unnamed_addr {
dec_label_pc_17ae:
  %v1_17ae = call i32 @function_16e0(i32 ptrtoint (i32* @2 to i32))
  ret i32 %v1_17ae
}

define i32 @function_17bf() local_unnamed_addr {
dec_label_pc_17bf:
  %tmp = load i32, i32* @eax, align 8
  ret i32 %tmp
}

define i32 @function_17c6() local_unnamed_addr {
dec_label_pc_17c6:
  %tmp91 = call i32 @__decompiler_undefined_function_0()
  %v1_17c6 = add i32 %tmp91, 12199044
  %v2_17c6 = inttoptr i32 %v1_17c6 to i32*
  %v3_17c6 = load i32, i32* %v2_17c6, align 4
  %v4_17c6 = add i32 %v3_17c6, -1
  store i32 %v4_17c6, i32* %v2_17c6, align 4
  %v2_17cc = load i8, i8* bitcast (i32* @eax to i8*), align 8
  %v3_17cc = load i32, i32* @eax, align 8
  %v4_17cc = trunc i32 %v3_17cc to i8
  %v5_17cc = add i8 %v4_17cc, %v2_17cc
  %v21_17cc = inttoptr i32 %v3_17cc to i8*
  store i8 %v5_17cc, i8* %v21_17cc, align 1
  %v0_17ce = load i32, i32* @eax, align 8
  %v1_17d2 = call i32 @function_16e0(i32 %v0_17ce)
  ret i32 %v1_17d2

; uselistorder directives
  uselistorder i32 (i32)* @function_16e0, { 1, 0 }
}

define i32 @function_17d7() local_unnamed_addr {
dec_label_pc_17d7:
  %v0_17d9 = call i32 @function_17bf()
  ret i32 %v0_17d9
}

define %"Value_impl<json_spirit::Config_vector<std::basic_string<char,std::char_traits<char>,std::allocator<char>>>>.10" @_Z12importwalletRKSt6vectorIN11json_spirit10Value_implINS0_13Config_vectorISsEEEESaIS4_EEb(i32 %params, i1 %fHelp) local_unnamed_addr {
dec_label_pc_17e0:
  %tmp101 = call i8 @__decompiler_undefined_function_2()
  %v4_1801 = sext i1 %fHelp to i32
  store i32 %v4_1801, i32* @ebx, align 4
  %v10_1808 = icmp eq i8 %tmp101, 0
  br i1 %v10_1808, label %bb, label %dec_label_pc_1816

bb:                                               ; preds = %dec_label_pc_17e0
  %v2_1814 = call i32 @function_1878(i32 %params)
  br label %dec_label_pc_1816

dec_label_pc_1816:                                ; preds = %bb, %dec_label_pc_17e0
  %v3_181d = phi i32 [ %v2_1814, %bb ], [ %params, %dec_label_pc_17e0 ]
  %v4_181d = insertvalue %"Value_impl<json_spirit::Config_vector<std::basic_string<char,std::char_traits<char>,std::allocator<char>>>>.10" undef, i32 %v3_181d, 0
  ret %"Value_impl<json_spirit::Config_vector<std::basic_string<char,std::char_traits<char>,std::allocator<char>>>>.10" %v4_181d
}

define i32 @function_1878(i32 %arg1) local_unnamed_addr {
dec_label_pc_1878:
  %stack_var_420 = alloca i32, align 4
  %v2_1890 = ptrtoint i32* %stack_var_420 to i32
  ret i32 %v2_1890
}

define i32 @function_19c2() local_unnamed_addr {
dec_label_pc_19c2:
  %tmp = load i32, i32* @eax, align 8
  ret i32 %tmp
}

define i32 @function_1a08() local_unnamed_addr {
dec_label_pc_1a08:
  %ebx.global-to-local = alloca i32, align 4
  %v0_1a08 = load i32, i32* %ebx.global-to-local, align 4
  %v1_1a08 = add i32 %v0_1a08, 39
  %v2_1a08 = inttoptr i32 %v1_1a08 to i8*
  %v3_1a08 = load i8, i8* %v2_1a08, align 1
  %v4_1a08 = zext i8 %v3_1a08 to i32
  ret i32 %v4_1a08
}

define i32 @function_1a3f() local_unnamed_addr {
dec_label_pc_1a3f:
  %tmp = load i32, i32* @eax, align 8
  ret i32 %tmp
}

define i32 @function_1a4b() local_unnamed_addr {
dec_label_pc_1a4b:
  %tmp1 = call i32 @__decompiler_undefined_function_0()
  %tmp2 = call i32 @__decompiler_undefined_function_0()
  %v1_1a52 = icmp eq i32 %tmp2, 0
  %v1_1a54 = icmp eq i1 %v1_1a52, false
  br i1 %v1_1a54, label %bb, label %dec_label_pc_1a5a

bb:                                               ; preds = %dec_label_pc_1a4b
  %v2_1a54 = call i32 @function_1e7e()
  br label %dec_label_pc_1a5a

dec_label_pc_1a5a:                                ; preds = %bb, %dec_label_pc_1a4b
  ret i32 %tmp1
}

define i32 @function_1a96() local_unnamed_addr {
dec_label_pc_1a96:
  %eax.global-to-local = alloca i32, align 4
  %ebx.global-to-local = alloca i32, align 4
  %st0.global-to-local = alloca x86_fp80, align 4
  %v0_1a96 = load i32, i32* %ebx.global-to-local, align 4
  %v1_1a96 = add i32 %v0_1a96, 616336643
  %v2_1a96 = inttoptr i32 %v1_1a96 to i32*
  %v3_1a96 = load i32, i32* %v2_1a96, align 4
  %v4_1a96 = add i32 %v3_1a96, -1
  store i32 %v4_1a96, i32* %v2_1a96, align 4
  %v3_1a9c = load double, double* bitcast (i32* @eax to double*), align 8
  %v4_1a9c = fpext double %v3_1a9c to x86_fp80
  %v5_1a9c = load x86_fp80, x86_fp80* %st0.global-to-local, align 4
  %v6_1a9c = fadd x86_fp80 %v4_1a9c, %v5_1a9c
  store x86_fp80 %v6_1a9c, x86_fp80* %st0.global-to-local, align 4
  %tmp99 = bitcast double %v3_1a9c to i64
  %tmp100 = trunc i64 %tmp99 to i8
  %tmp101 = trunc i64 %tmp99 to i32
  %v5_1a9e = mul i8 %tmp100, 2
  %v21_1a9e = inttoptr i32 %tmp101 to i8*
  store i8 %v5_1a9e, i8* %v21_1a9e, align 1
  %v0_1ab2 = load i32, i32* %eax.global-to-local, align 8
  ret i32 %v0_1ab2
}

define i32 @function_1ac6(i32 %arg1, i32 %arg2) local_unnamed_addr {
dec_label_pc_1ac6:
  %eax.global-to-local = alloca i32, align 4
  %ebx.global-to-local = alloca i32, align 4
  %edi.global-to-local = alloca i32, align 4
  %edx.global-to-local = alloca i32, align 4
  %esi.global-to-local = alloca i32, align 4
  %zf.global-to-local = alloca i1, align 1
  %stack_var_1024 = alloca i32, align 4
  %stack_var_1016 = alloca i32, align 4
  %stack_var_1001 = alloca i32, align 4
  %stack_var_1000 = alloca i32, align 4
  %v0_1ac6 = load i32, i32* %ebx.global-to-local, align 4
  %v1_1ac6 = add i32 %v0_1ac6, 14427268
  %v2_1ac6 = inttoptr i32 %v1_1ac6 to i32*
  %v3_1ac6 = load i32, i32* %v2_1ac6, align 4
  %v4_1ac6 = add i32 %v3_1ac6, -1
  store i32 %v4_1ac6, i32* %v2_1ac6, align 4
  %v2_1acc = load i8, i8* bitcast (i32* @eax to i8*), align 8
  %v3_1acc = load i32, i32* @eax, align 8
  %v4_1acc = trunc i32 %v3_1acc to i8
  %v5_1acc = add i8 %v4_1acc, %v2_1acc
  %v21_1acc = inttoptr i32 %v3_1acc to i8*
  store i8 %v5_1acc, i8* %v21_1acc, align 1
  %v2_1ace = load i8, i8* bitcast (i32* @eax to i8*), align 8
  %v12_1ace = icmp eq i8 %v2_1ace, 35
  store i1 %v12_1ace, i1* %zf.global-to-local, align 1
  br i1 %v12_1ace, label %bb, label %dec_label_pc_1ad7

bb:                                               ; preds = %dec_label_pc_1ac6
  %v1_1ad1 = call i32 @function_1a3f()
  store i32 %v1_1ad1, i32* %eax.global-to-local, align 8
  br label %dec_label_pc_1ad7

dec_label_pc_1ad7:                                ; preds = %bb, %dec_label_pc_1ac6
  %v5_1ae0 = sub i32 %arg1, %arg2
  %v15_1ae0 = icmp eq i32 %v5_1ae0, 0
  store i32 %v5_1ae0, i32* @ebx, align 4
  %v0_1afa = load i32, i32* %edx.global-to-local, align 4
  %v2_1afa = call i32 @llvm.ctlz.i32(i32 %v5_1ae0, i1 true)
  %v3_1afa = xor i32 %v2_1afa, 31
  %v6_1afa = select i1 %v15_1ae0, i32 %v0_1afa, i32 %v3_1afa
  %v1_1afd = xor i32 %v6_1afa, 31
  %v2_1b00 = sub i32 31, %v1_1afd
  %v2_1b02 = mul i32 %v2_1b00, 2
  %v12_1b02 = icmp eq i32 %v2_1b02, 0
  store i1 %v12_1b02, i1* %zf.global-to-local, align 1
  %v2_1b08 = ptrtoint i32* %stack_var_1000 to i32
  store i32 %v2_1b08, i32* %edx.global-to-local, align 4
  %v2_1b0f = ptrtoint i32* %stack_var_1001 to i32
  store i32 %v2_1b0f, i32* %eax.global-to-local, align 8
  store i32 32, i32* %stack_var_1000, align 4
  %v4_1b46 = bitcast i32* %stack_var_1000 to i8*
  %v5_1b46 = call i32 @_ZSt16__introsort_loopIPciEvT_S1_T0_(i8* %v4_1b46, i32 %v2_1b0f, i32 %v2_1b02)
  store i32 %v5_1b46, i32* %eax.global-to-local, align 8
  %v10_1b4b = icmp eq i32 %v5_1ae0, 16
  store i1 %v10_1b4b, i1* %zf.global-to-local, align 1
  %v8_1b4e = icmp sgt i32 %v5_1ae0, ptrtoint (i8** @global_var_10.1772 to i32)
  br i1 %v8_1b4e, label %dec_label_pc_1b54, label %bb133

bb133:                                            ; preds = %dec_label_pc_1ad7
  %v9_1b4e = call i32 @function_1e53()
  store i32 %v9_1b4e, i32* %eax.global-to-local, align 8
  br label %dec_label_pc_1b54

dec_label_pc_1b54:                                ; preds = %dec_label_pc_1ad7, %bb133
  %v2_1b54 = ptrtoint i32* %stack_var_1016 to i32
  store i32 %v2_1b54, i32* %edi.global-to-local, align 4
  store i32 %v2_1b08, i32* %eax.global-to-local, align 8
  %v2_1b69 = call i32 @_ZSt16__insertion_sortIPcEvT_S1_(i32 %v2_1b08, i32 %v2_1b54)
  store i32 %v2_1b69, i32* %eax.global-to-local, align 8
  br label %dec_label_pc_1b70

dec_label_pc_1b70:                                ; preds = %dec_label_pc_1b9b, %dec_label_pc_1b54
  %v0_1b70 = load i32, i32* %edi.global-to-local, align 4
  %v1_1b70 = inttoptr i32 %v0_1b70 to i8*
  %v2_1b70 = load i8, i8* %v1_1b70, align 1
  %v3_1b70 = zext i8 %v2_1b70 to i32
  store i32 %v3_1b70, i32* %esi.global-to-local, align 4
  store i32 %v0_1b70, i32* %eax.global-to-local, align 8
  %v1_1b75 = add i32 %v0_1b70, -1
  %v2_1b75 = inttoptr i32 %v1_1b75 to i8*
  %v3_1b75 = load i8, i8* %v2_1b75, align 1
  %v4_1b75 = zext i8 %v3_1b75 to i32
  store i32 %v4_1b75, i32* %edx.global-to-local, align 4
  %v14_1b7b = icmp eq i8 %v3_1b75, %v2_1b70
  store i1 %v14_1b7b, i1* %zf.global-to-local, align 1
  %v7_1b7d = icmp ugt i8 %v3_1b75, %v2_1b70
  br i1 %v7_1b7d, label %dec_label_pc_1b7f, label %dec_label_pc_1b9b

dec_label_pc_1b7f:                                ; preds = %dec_label_pc_1b70
  br label %dec_label_pc_1b8c

dec_label_pc_1b88:                                ; preds = %dec_label_pc_1b8c
  br label %dec_label_pc_1b8c

dec_label_pc_1b8c:                                ; preds = %dec_label_pc_1b88, %dec_label_pc_1b7f
  %storemerge = phi i32 [ %v1_1b75, %dec_label_pc_1b7f ], [ %v1_1b8e, %dec_label_pc_1b88 ]
  %v2_1b8c = phi i32 [ %v0_1b70, %dec_label_pc_1b7f ], [ %v0_1b8e, %dec_label_pc_1b88 ]
  %v0_1b8c = phi i8 [ %v3_1b75, %dec_label_pc_1b7f ], [ %v3_1b8e, %dec_label_pc_1b88 ]
  store i32 %storemerge, i32* %eax.global-to-local, align 8
  %v3_1b8c = inttoptr i32 %v2_1b8c to i8*
  store i8 %v0_1b8c, i8* %v3_1b8c, align 1
  %v0_1b8e = load i32, i32* %eax.global-to-local, align 8
  %v1_1b8e = add i32 %v0_1b8e, -1
  %v2_1b8e = inttoptr i32 %v1_1b8e to i8*
  %v3_1b8e = load i8, i8* %v2_1b8e, align 1
  %v4_1b8e = zext i8 %v3_1b8e to i32
  store i32 %v4_1b8e, i32* %edx.global-to-local, align 4
  %v0_1b92 = load i32, i32* %esi.global-to-local, align 4
  store i32 %v1_1b8e, i32* %ebx.global-to-local, align 4
  %v1_1b97 = trunc i32 %v0_1b92 to i8
  %v14_1b97 = icmp eq i8 %v1_1b97, %v3_1b8e
  store i1 %v14_1b97, i1* %zf.global-to-local, align 1
  %v5_1b99 = icmp slt i32 %v0_1b92, %v4_1b8e
  br i1 %v5_1b99, label %dec_label_pc_1b88, label %dec_label_pc_1b9b.loopexit

dec_label_pc_1b9b.loopexit:                       ; preds = %dec_label_pc_1b8c
  %v0_1b9b.pre = load i32, i32* %edi.global-to-local, align 4
  br label %dec_label_pc_1b9b

dec_label_pc_1b9b:                                ; preds = %dec_label_pc_1b9b.loopexit, %dec_label_pc_1b70
  %v2_1ba4 = phi i32 [ %v0_1b8e, %dec_label_pc_1b9b.loopexit ], [ %v0_1b70, %dec_label_pc_1b70 ]
  %v0_1b9b = phi i32 [ %v0_1b9b.pre, %dec_label_pc_1b9b.loopexit ], [ %v0_1b70, %dec_label_pc_1b70 ]
  %v0_1b9e = phi i32 [ %v0_1b92, %dec_label_pc_1b9b.loopexit ], [ %v3_1b70, %dec_label_pc_1b70 ]
  %v1_1b9b = add i32 %v0_1b9b, ptrtoint (i8** @global_var_1.1771 to i32)
  store i32 %v1_1b9b, i32* %edi.global-to-local, align 4
  store i32 %v0_1b9e, i32* %edx.global-to-local, align 4
  %v15_1ba0 = icmp eq i32 %v1_1b9b, %arg1
  store i1 %v15_1ba0, i1* %zf.global-to-local, align 1
  %v1_1ba4 = trunc i32 %v0_1b9e to i8
  %v3_1ba4 = inttoptr i32 %v2_1ba4 to i8*
  store i8 %v1_1ba4, i8* %v3_1ba4, align 1
  %v0_1ba6 = load i1, i1* %zf.global-to-local, align 1
  %v1_1ba6 = icmp eq i1 %v0_1ba6, false
  br i1 %v1_1ba6, label %dec_label_pc_1b70, label %dec_label_pc_1ba8

dec_label_pc_1ba8:                                ; preds = %dec_label_pc_1b9b
  store i32 ptrtoint (i8** @global_var_1.1771 to i32), i32* %edx.global-to-local, align 4
  %v2_1baf = ptrtoint i32* %stack_var_1024 to i32
  store i32 %v2_1baf, i32* @eax, align 8
  store i32 0, i32* %stack_var_1024, align 4
  store i1 icmp eq (i32 add (i32 ptrtoint (i8** @global_var_1.1771 to i32), i32 -8), i32 0), i1* %zf.global-to-local, align 1
  br i1 or (i1 icmp ult (i8* bitcast (i8** @global_var_1.1771 to i8*), i8* inttoptr (i32 8 to i8*)), i1 icmp eq (i32 add (i32 ptrtoint (i8** @global_var_1.1771 to i32), i32 -8), i32 0)), label %dec_label_pc_1bd8, label %bb134

bb134:                                            ; preds = %dec_label_pc_1ba8
  %v7_1bd2 = call i32 @function_1e31(i32 0, i32 ptrtoint (i8** @global_var_1.1771 to i32))
  store i32 %v7_1bd2, i32* %eax.global-to-local, align 8
  br label %dec_label_pc_1bd8

dec_label_pc_1bd8:                                ; preds = %dec_label_pc_1ba8, %bb134
  %v4_1be0 = phi i32 [ %v2_1baf, %dec_label_pc_1ba8 ], [ %v7_1bd2, %bb134 ]
  ret i32 %v4_1be0

; uselistorder directives
  uselistorder i8 %v3_1b8e, { 0, 2, 1 }
  uselistorder i32 %v1_1b8e, { 1, 2, 0 }
  uselistorder i32 %v0_1b8e, { 1, 2, 0 }
  uselistorder i8 %v3_1b75, { 1, 2, 0, 3 }
  uselistorder i8 %v2_1b70, { 1, 0, 2 }
  uselistorder i32 %v0_1b70, { 2, 1, 0, 3, 4, 5 }
  uselistorder i32 %v2_1b02, { 1, 0 }
  uselistorder i32 %v5_1ae0, { 1, 0, 2, 3, 4 }
  uselistorder i1 %v12_1ace, { 1, 0 }
  uselistorder i32* %eax.global-to-local, { 1, 4, 0, 5, 6, 7, 2, 8, 9, 3 }
  uselistorder label %dec_label_pc_1bd8, { 1, 0 }
  uselistorder label %dec_label_pc_1b54, { 1, 0 }
}

define i32 @function_1c18() local_unnamed_addr {
dec_label_pc_1c18:
  %tmp = load i32, i32* @eax, align 8
  ret i32 %tmp
}

define i32 @function_1c5c(i32 %arg1) local_unnamed_addr {
dec_label_pc_1c5c:
  %tmp = load i32, i32* @eax, align 8
  ret i32 %tmp
}

define i32 @function_1d5c() local_unnamed_addr {
dec_label_pc_1d5c:
  %tmp = load i32, i32* @eax, align 8
  ret i32 %tmp
}

define i32 @function_1d80() local_unnamed_addr {
dec_label_pc_1d80:
  %tmp = load i32, i32* @eax, align 8
  ret i32 %tmp
}

define i32 @function_1db6() local_unnamed_addr {
dec_label_pc_1db6:
  %cf.global-to-local = alloca i1, align 1
  %eax.global-to-local = alloca i32, align 4
  %edx.global-to-local = alloca i32, align 4
  %v0_1db6 = load i32, i32* %edx.global-to-local, align 4
  %v1_1db6 = load i32, i32* %eax.global-to-local, align 8
  %v2_1db6 = add i32 %v1_1db6, -2094785399
  %v3_1db6 = inttoptr i32 %v2_1db6 to i32*
  %v4_1db6 = load i32, i32* %v3_1db6, align 4
  %v5_1db6 = load i1, i1* %cf.global-to-local, align 1
  %v6_1db6 = zext i1 %v5_1db6 to i32
  %v7_1db6 = add i32 %v4_1db6, %v0_1db6
  %v8_1db6 = add i32 %v6_1db6, %v7_1db6
  %v27_1db6 = icmp ule i32 %v8_1db6, %v0_1db6
  %v28_1db6 = icmp ult i32 %v7_1db6, %v0_1db6
  %v29_1db6 = select i1 %v5_1db6, i1 %v27_1db6, i1 %v28_1db6
  store i1 %v29_1db6, i1* %cf.global-to-local, align 1
  store i32 %v8_1db6, i32* %edx.global-to-local, align 4
  ret i32 %v1_1db6

; uselistorder directives
  uselistorder i32 %v8_1db6, { 1, 0 }
  uselistorder i32 %v7_1db6, { 1, 0 }
  uselistorder i32 %v0_1db6, { 1, 2, 0 }
}

define i32 @function_1dda() local_unnamed_addr {
dec_label_pc_1dda:
  %v0_1dda = call i32 @function_1a3f()
  ret i32 %v0_1dda

; uselistorder directives
  uselistorder i32 ()* @function_1a3f, { 1, 0 }
}

define i32 @function_1ddf(i32 %arg1, i32 %arg2) local_unnamed_addr {
dec_label_pc_1ddf:
  %edx.global-to-local = alloca i32, align 4
  %v0_1ddf = load i32, i32* %edx.global-to-local, align 4
  store i32 %arg1, i32* %edx.global-to-local, align 4
  %v1_1e0a = call i32 @function_1c5c(i32 %v0_1ddf)
  ret i32 %v1_1e0a
}

define i32 @function_1e16(i32 %arg1, i32 %arg2) local_unnamed_addr {
dec_label_pc_1e16:
  %ecx.global-to-local = alloca i32, align 4
  %v0_1e16 = load i32, i32* %ecx.global-to-local, align 4
  %v1_1e16 = add i32 %v0_1e16, 66331780
  %v2_1e16 = inttoptr i32 %v1_1e16 to i32*
  %v3_1e16 = load i32, i32* %v2_1e16, align 4
  %v4_1e16 = add i32 %v3_1e16, -1
  store i32 %v4_1e16, i32* %v2_1e16, align 4
  %v2_1e1c = load i8, i8* bitcast (i32* @eax to i8*), align 8
  %v3_1e1c = load i32, i32* @eax, align 8
  %v4_1e1c = trunc i32 %v3_1e1c to i8
  %v5_1e1c = add i8 %v4_1e1c, %v2_1e1c
  %v21_1e1c = inttoptr i32 %v3_1e1c to i8*
  store i8 %v5_1e1c, i8* %v21_1e1c, align 1
  store i32 %arg2, i32* %ecx.global-to-local, align 4
  %v0_1e2c = call i32 @function_1c18()
  ret i32 %v0_1e2c
}

define i32 @function_1e31(i32 %arg1, i32 %arg2) local_unnamed_addr {
dec_label_pc_1e31:
  %v3_1e31 = load i32, i32* @eax, align 8
  ret i32 %v3_1e31
}

define i32 @function_1e38(i32 %arg1, i32 %arg2) local_unnamed_addr {
dec_label_pc_1e38:
  %eax.global-to-local = alloca i32, align 4
  %ecx.global-to-local = alloca i32, align 4
  %v0_1e38 = load i32, i32* %ecx.global-to-local, align 4
  %v1_1e38 = add i32 %v0_1e38, 67118212
  %v2_1e38 = inttoptr i32 %v1_1e38 to i32*
  %v3_1e38 = load i32, i32* %v2_1e38, align 4
  %v4_1e38 = add i32 %v3_1e38, -1
  store i32 %v4_1e38, i32* %v2_1e38, align 4
  %v2_1e3e = load i8, i8* bitcast (i32* @eax to i8*), align 8
  %v3_1e3e = load i32, i32* %eax.global-to-local, align 8
  %v4_1e3e = trunc i32 %v3_1e3e to i8
  %v5_1e3e = add i8 %v4_1e3e, %v2_1e3e
  %v21_1e3e = inttoptr i32 %v3_1e3e to i8*
  store i8 %v5_1e3e, i8* %v21_1e3e, align 1
  store i32 %arg1, i32* %ecx.global-to-local, align 4
  %v0_1e4e = load i32, i32* %eax.global-to-local, align 8
  ret i32 %v0_1e4e
}

define i32 @function_1e53() local_unnamed_addr {
dec_label_pc_1e53:
  %stack_var_1000 = alloca i32, align 4
  %stack_var_1001 = alloca i32, align 4
  %v2_1e53 = ptrtoint i32* %stack_var_1001 to i32
  %v2_1e5a = ptrtoint i32* %stack_var_1000 to i32
  %v2_1e68 = call i32 @_ZSt16__insertion_sortIPcEvT_S1_(i32 %v2_1e5a, i32 %v2_1e53)
  ret i32 %v2_1e68

; uselistorder directives
  uselistorder i32 (i32, i32)* @_ZSt16__insertion_sortIPcEvT_S1_, { 1, 0 }
}

define i32 @function_1e72() local_unnamed_addr {
dec_label_pc_1e72:
  %ebx.global-to-local = alloca i32, align 4
  %edx.global-to-local = alloca i32, align 4
  %v0_1e72 = load i32, i32* %edx.global-to-local, align 4
  %v1_1e72 = add i32 %v0_1e72, 32
  %v2_1e72 = inttoptr i32 %v1_1e72 to i8*
  %v3_1e72 = load i8, i8* %v2_1e72, align 1
  %v13_1e72 = icmp eq i8 %v3_1e72, 1
  %v1_1e76 = zext i1 %v13_1e72 to i32
  %v2_1e76 = load i32, i32* %ebx.global-to-local, align 4
  %v3_1e76 = and i32 %v2_1e76, -256
  %v4_1e76 = or i32 %v3_1e76, %v1_1e76
  store i32 %v4_1e76, i32* %ebx.global-to-local, align 4
  %v0_1e79 = call i32 @function_1d5c()
  ret i32 %v0_1e79
}

define i32 @function_1e7e() local_unnamed_addr {
dec_label_pc_1e7e:
  %v4_1e85 = load i32, i32* @eax, align 8
  ret i32 %v4_1e85
}

define i32 @function_1e95() local_unnamed_addr {
dec_label_pc_1e95:
  %tmp = load i32, i32* @eax, align 8
  ret i32 %tmp
}

define i32 @function_1fe8() local_unnamed_addr {
dec_label_pc_1fe8:
  %cf.global-to-local = alloca i1, align 1
  %eax.global-to-local = alloca i32, align 4
  %ebp.global-to-local = alloca i32, align 4
  %ebx.global-to-local = alloca i32, align 4
  %stack_var_0 = alloca i32, align 4
  %v0_1fe8 = load i32, i32* %ebx.global-to-local, align 4
  %v1_1fe8 = add i32 %v0_1fe8, -1956371388
  %v2_1fe8 = inttoptr i32 %v1_1fe8 to i32*
  %v3_1fe8 = load i32, i32* %v2_1fe8, align 4
  %v4_1fe8 = sub i32 %v3_1fe8, ptrtoint (i8** @global_var_1.1771 to i32)
  store i32 %v4_1fe8, i32* %v2_1fe8, align 4
  %v2_1fee = ptrtoint i32* %stack_var_0 to i32
  store i1 false, i1* %cf.global-to-local, align 1
  store i32 %v2_1fee, i32* %eax.global-to-local, align 8
  %v0_1ff3 = load i32, i32* %ebp.global-to-local, align 4
  %v1_1ff3 = add i32 %v0_1ff3, 51
  %v2_1ff3 = inttoptr i32 %v1_1ff3 to i8*
  %v3_1ff3 = load i8, i8* %v2_1ff3, align 1
  %v5_1ff3 = udiv i32 %v2_1fee, 256
  %v6_1ff3 = trunc i32 %v5_1ff3 to i8
  %v7_1ff3 = add i8 %v3_1ff3, %v6_1ff3
  %v12_1ff3 = icmp ult i8 %v7_1ff3, %v3_1ff3
  store i1 %v12_1ff3, i1* %cf.global-to-local, align 1
  store i8 %v7_1ff3, i8* %v2_1ff3, align 1
  %v0_1ff6 = load i32, i32* %eax.global-to-local, align 8
  %v1_1ff6 = load i1, i1* %cf.global-to-local, align 1
  %v2_1ff6 = zext i1 %v1_1ff6 to i32
  %v3_1ff6 = add i32 %v0_1ff6, 20
  %v4_1ff6 = add i32 %v3_1ff6, %v2_1ff6
  %v14_1ff6 = icmp eq i32 %v4_1ff6, 0
  %v22_1ff6 = icmp ule i32 %v4_1ff6, %v0_1ff6
  %v23_1ff6 = icmp ugt i32 %v0_1ff6, -21
  %v24_1ff6 = select i1 %v1_1ff6, i1 %v22_1ff6, i1 %v23_1ff6
  store i1 %v24_1ff6, i1* %cf.global-to-local, align 1
  store i32 %v4_1ff6, i32* @eax, align 8
  %v1_1ffb = icmp eq i1 %v14_1ff6, false
  br i1 %v1_1ffb, label %bb, label %dec_label_pc_2001

bb:                                               ; preds = %dec_label_pc_1fe8
  %v2_1ffb = call i32 @function_2fa5()
  store i32 %v2_1ffb, i32* %eax.global-to-local, align 8
  br label %dec_label_pc_2001

dec_label_pc_2001:                                ; preds = %bb, %dec_label_pc_1fe8
  %v0_200b = phi i32 [ %v2_1ffb, %bb ], [ %v4_1ff6, %dec_label_pc_1fe8 ]
  %v0_2001 = load i32, i32* @esp, align 4
  %v1_2001 = add i32 %v0_2001, ptrtoint (i32* @global_var_41c.1795 to i32)
  %v5_2001 = icmp ult i32 %v1_2001, %v0_2001
  store i1 %v5_2001, i1* %cf.global-to-local, align 1
  %v1_2007 = inttoptr i32 %v1_2001 to i32*
  %v2_2007 = load i32, i32* %v1_2007, align 4
  store i32 %v2_2007, i32* %ebx.global-to-local, align 4
  %v3_2009 = add i32 %v0_2001, add (i32 ptrtoint (i32* @global_var_41c.1795 to i32), i32 12)
  %v1_200a = inttoptr i32 %v3_2009 to i32*
  %v2_200a = load i32, i32* %v1_200a, align 4
  store i32 %v2_200a, i32* %ebp.global-to-local, align 4
  ret i32 %v0_200b

; uselistorder directives
  uselistorder i32 %v4_1ff6, { 0, 2, 1, 3 }
  uselistorder i8 %v3_1ff3, { 1, 0 }
}

define i32 @function_200e() local_unnamed_addr {
dec_label_pc_200e:
  %v0_200e = load i32, i32* @eax, align 8
  store i32 %v0_200e, i32* @ebx, align 4
  ret i32 %v0_200e
}

define i32 @function_2010(i32 %arg1, i32 %arg2) local_unnamed_addr {
dec_label_pc_2010:
  %edx.global-to-local = alloca i32, align 4
  %esi.global-to-local = alloca i32, align 4
  %v0_2010 = load i32, i32* @ebx, align 4
  %v1_2010 = add i32 %v0_2010, 4
  %v2_2010 = inttoptr i32 %v1_2010 to i32*
  %v3_2010 = load i32, i32* %v2_2010, align 4
  store i32 %v3_2010, i32* @eax, align 8
  %v1_2013 = icmp eq i32 %v3_2010, 0
  br i1 %v1_2013, label %dec_label_pc_202a, label %dec_label_pc_2017

dec_label_pc_2017:                                ; preds = %dec_label_pc_2010
  %v1_2019 = add i32 %v0_2010, ptrtoint (i32* @global_var_68.1796 to i32)
  %v2_2019 = inttoptr i32 %v1_2019 to i32*
  %v3_2019 = load i32, i32* %v2_2019, align 4
  store i32 %v3_2019, i32* %esi.global-to-local, align 4
  %v8_2020 = icmp slt i32 %arg2, 0
  br i1 %v8_2020, label %dec_label_pc_2022.thread, label %dec_label_pc_2022

dec_label_pc_2022.thread:                         ; preds = %dec_label_pc_2017
  %v9_2020 = call i32 @function_200e()
  store i32 %v9_2020, i32* @eax, align 8
  %v0_2024.pre = load i32, i32* %esi.global-to-local, align 4
  br label %dec_label_pc_2024

dec_label_pc_2022:                                ; preds = %dec_label_pc_2017
  %v15_201c = icmp eq i32 %arg2, 0
  br i1 %v15_201c, label %dec_label_pc_2024, label %dec_label_pc_202a

dec_label_pc_2024:                                ; preds = %dec_label_pc_2022, %dec_label_pc_2022.thread
  %v0_2024 = phi i32 [ %v3_2019, %dec_label_pc_2022 ], [ %v0_2024.pre, %dec_label_pc_2022.thread ]
  %v10_2024 = icmp ult i32 %v0_2024, %arg1
  %v1_2028 = icmp eq i1 %v10_2024, false
  br i1 %v1_2028, label %bb, label %dec_label_pc_202a

bb:                                               ; preds = %dec_label_pc_2024
  %v2_2028 = call i32 @function_200e()
  br label %dec_label_pc_202a

dec_label_pc_202a:                                ; preds = %dec_label_pc_2022, %bb, %dec_label_pc_2024, %dec_label_pc_2010
  %v0_202a = load i32, i32* %edx.global-to-local, align 4
  %v1_202a = add i32 %v0_202a, ptrtoint (double** @global_var_8.1773 to i32)
  %v2_202a = inttoptr i32 %v1_202a to i32*
  %v3_202a = load i32, i32* %v2_202a, align 4
  %v1_202d = load i32, i32* @ebx, align 4
  %v2_202d = add i32 %v1_202d, ptrtoint (double** @global_var_8.1773 to i32)
  %v3_202d = inttoptr i32 %v2_202d to i32*
  %v4_202d = load i32, i32* %v3_202d, align 4
  %v5_202d = sub i32 %v3_202a, %v4_202d
  %v1_2030 = add i32 %v5_202d, ptrtoint (i8** @global_var_1.1771 to i32)
  ret i32 %v1_2030

; uselistorder directives
  uselistorder i32 ()* @function_200e, { 1, 0 }
  uselistorder i32 %arg2, { 1, 0 }
  uselistorder label %dec_label_pc_202a, { 1, 2, 0, 3 }
}

define i32 @function_2081(i32 %arg1, i32 %arg2, i32 %arg3, i32 %arg4, i32 %arg5, i32 %arg6, i32 %arg7, i32 %arg8, i32 %arg9, i32 %arg10) local_unnamed_addr {
dec_label_pc_2081:
  %tmp = load i32, i32* @eax, align 8
  ret i32 %tmp
}

define i32 @function_20d0() local_unnamed_addr {
dec_label_pc_20d0:
  %eax.global-to-local = alloca i32, align 4
  %ebp.global-to-local = alloca i32, align 4
  %ecx.global-to-local = alloca i32, align 4
  %edi.global-to-local = alloca i32, align 4
  %v2_20d0 = load i8, i8* bitcast (i32* @eax to i8*), align 8
  %v3_20d0 = load i32, i32* %eax.global-to-local, align 8
  %v4_20d0 = trunc i32 %v3_20d0 to i8
  %v5_20d0 = add i8 %v4_20d0, %v2_20d0
  %v21_20d0 = inttoptr i32 %v3_20d0 to i8*
  store i8 %v5_20d0, i8* %v21_20d0, align 1
  %v2_20d2 = load i8, i8* bitcast (i32* @edi to i8*), align 4
  %v3_20d2 = load i32, i32* %ecx.global-to-local, align 4
  %v4_20d2 = trunc i32 %v3_20d2 to i8
  %v5_20d2 = add i8 %v4_20d2, %v2_20d2
  %v20_20d2 = load i32, i32* %edi.global-to-local, align 4
  %v21_20d2 = inttoptr i32 %v20_20d2 to i8*
  store i8 %v5_20d2, i8* %v21_20d2, align 1
  %v0_20d4 = load i32, i32* %ebp.global-to-local, align 4
  %v1_20d4 = add i32 %v0_20d4, ptrtoint (i8** @global_var_1.1771 to i32)
  store i32 %v1_20d4, i32* %ebp.global-to-local, align 4
  %v0_20d5 = load i32, i32* %eax.global-to-local, align 8
  ret i32 %v0_20d5
}

define i32 @function_20d8() local_unnamed_addr {
dec_label_pc_20d8:
  %eax.global-to-local = alloca i32, align 4
  %ecx.global-to-local = alloca i32, align 4
  %v0_20d8 = load i32, i32* %eax.global-to-local, align 8
  %v1_20d8 = trunc i32 %v0_20d8 to i8
  %v2_20d8 = and i8 %v1_20d8, -27
  %v8_20d8 = zext i8 %v2_20d8 to i32
  %v10_20d8 = and i32 %v0_20d8, -256
  %v11_20d8 = or i32 %v8_20d8, %v10_20d8
  store i32 %v11_20d8, i32* %eax.global-to-local, align 8
  %v3_20da = inttoptr i32 %v11_20d8 to i8*
  %v4_20da = load i8, i8* %v3_20da, align 1
  %v5_20da = add i8 %v4_20da, %v2_20d8
  %v20_20da = zext i8 %v5_20da to i32
  %v23_20da = or i32 %v20_20da, %v10_20d8
  store i32 %v23_20da, i32* %eax.global-to-local, align 8
  %v2_20dc = load i8, i8* bitcast (i32* @ecx to i8*), align 4
  %v5_20dc = add i8 %v2_20dc, %v5_20da
  %v20_20dc = load i32, i32* %ecx.global-to-local, align 4
  %v21_20dc = inttoptr i32 %v20_20dc to i8*
  store i8 %v5_20dc, i8* %v21_20dc, align 1
  %v0_20de = load i32, i32* %eax.global-to-local, align 8
  ret i32 %v0_20de
}

define i32 @function_22fa() local_unnamed_addr {
dec_label_pc_22fa:
  %eax.global-to-local = alloca i32, align 4
  %v0_22fa = load i32, i32* %eax.global-to-local, align 8
  ret i32 %v0_22fa
}

define i32 @function_23c4(i32 %arg1) local_unnamed_addr {
dec_label_pc_23c4:
  %tmp = load i32, i32* @eax, align 8
  ret i32 %tmp
}

define i32 @function_23da() local_unnamed_addr {
dec_label_pc_23da:
  %eax.global-to-local = alloca i32, align 4
  %ebp.global-to-local = alloca i32, align 4
  %ecx.global-to-local = alloca i32, align 4
  %v0_23da = load i32, i32* %ebp.global-to-local, align 4
  %v1_23da = add i32 %v0_23da, 52962444
  %v2_23da = inttoptr i32 %v1_23da to i32*
  %v3_23da = load i32, i32* %v2_23da, align 4
  %v4_23da = add i32 %v3_23da, -1
  store i32 %v4_23da, i32* %v2_23da, align 4
  %v2_23e0 = load i8, i8* bitcast (i32* @eax to i8*), align 8
  %v3_23e0 = load i32, i32* %eax.global-to-local, align 8
  %v4_23e0 = trunc i32 %v3_23e0 to i8
  %v5_23e0 = add i8 %v4_23e0, %v2_23e0
  %v21_23e0 = inttoptr i32 %v3_23e0 to i8*
  store i8 %v5_23e0, i8* %v21_23e0, align 1
  %v0_23ea = load i32, i32* %ecx.global-to-local, align 4
  %v3_23f5 = call i32 @_ZN21LockedPageManagerBaseI16MemoryPageLockerE11UnlockRangeEPvj(i32 0, i32 %v0_23ea, i32 32)
  store i32 %v3_23f5, i32* @eax, align 8
  %v0_23fa = call i32 @function_1d80()
  store i32 %v0_23fa, i32* %eax.global-to-local, align 8
  ret i32 %v0_23fa
}

define i32 @function_23ff() local_unnamed_addr {
dec_label_pc_23ff:
  %eax.global-to-local = alloca i32, align 4
  %v5_2426 = load i32, i32* %eax.global-to-local, align 8
  ret i32 %v5_2426
}

define i32 @function_2507() local_unnamed_addr {
dec_label_pc_2507:
  %eax.global-to-local = alloca i32, align 4
  %ecx.global-to-local = alloca i32, align 4
  %v0_2507 = load i32, i32* %ecx.global-to-local, align 4
  %v1_2507 = add i32 %v0_2507, 164689904
  %v2_2507 = inttoptr i32 %v1_2507 to i8*
  %v3_2507 = load i8, i8* %v2_2507, align 1
  %v5_2507 = trunc i32 %v0_2507 to i8
  %v6_2507 = add i8 %v3_2507, %v5_2507
  store i8 %v6_2507, i8* %v2_2507, align 1
  %v0_250d = load i32, i32* %eax.global-to-local, align 8
  ret i32 %v0_250d
}

define i32 @function_2521() local_unnamed_addr {
dec_label_pc_2521:
  %eax.global-to-local = alloca i32, align 4
  %v2_2521 = load i8, i8* bitcast (i32* @eax to i8*), align 8
  %v3_2521 = load i32, i32* %eax.global-to-local, align 8
  %v4_2521 = trunc i32 %v3_2521 to i8
  %v5_2521 = add i8 %v4_2521, %v2_2521
  %v21_2521 = inttoptr i32 %v3_2521 to i8*
  store i8 %v5_2521, i8* %v21_2521, align 1
  %v0_2523 = load i32, i32* %eax.global-to-local, align 8
  %v1_2523 = add i32 %v0_2523, -2079342327
  %v2_2523 = inttoptr i32 %v1_2523 to i8*
  %v3_2523 = load i8, i8* %v2_2523, align 1
  %v5_2523 = trunc i32 %v0_2523 to i8
  %v6_2523 = add i8 %v3_2523, %v5_2523
  store i8 %v6_2523, i8* %v2_2523, align 1
  %v0_2529 = load i8, i8* inttoptr (i32 -779550720 to i8*), align 65536
  %v1_2529 = add i8 %v0_2529, ptrtoint (i8* @global_var_89.1792 to i8)
  store i8 %v1_2529, i8* inttoptr (i32 -779550720 to i8*), align 65536
  %v0_2530 = load i32, i32* %eax.global-to-local, align 8
  ret i32 %v0_2530
}

define i32 @function_2536(i16 %arg1) local_unnamed_addr {
dec_label_pc_2536:
  %eax.global-to-local = alloca i32, align 4
  %ecx.global-to-local = alloca i32, align 4
  %v2_2538 = load i32, i32* %ecx.global-to-local, align 4
  %v5_2538 = and i32 %v2_2538, and (i32 ptrtoint (i32* @global_var_ff.1799 to i32), i32 31)
  %v6_2538 = icmp eq i32 %v5_2538, 0
  br i1 %v6_2538, label %bb99, label %bb

bb:                                               ; preds = %dec_label_pc_2536
  %v7_2538 = lshr i32 %v2_2538, %v5_2538
  %v8_2538 = sub nsw i32 32, %v5_2538
  %v9_2538 = shl i32 %v2_2538, %v8_2538
  %v10_2538 = or i32 %v9_2538, %v7_2538
  %v12_2538 = inttoptr i32 %v2_2538 to i32*
  store i32 %v10_2538, i32* %v12_2538, align 4
  br label %bb99

bb99:                                             ; preds = %dec_label_pc_2536, %bb
  %v6_253a = load i32, i32* %eax.global-to-local, align 8
  ret i32 %v6_253a

; uselistorder directives
  uselistorder i32 %v2_2538, { 0, 2, 3, 1 }
  uselistorder label %bb99, { 1, 0 }
}

define i32 @function_2542() local_unnamed_addr {
dec_label_pc_2542:
  %eax.global-to-local = alloca i32, align 4
  %v0_2542 = load i32, i32* %eax.global-to-local, align 8
  ret i32 %v0_2542
}

define i32 @function_257b(i32 %arg1, i32 %arg2) local_unnamed_addr {
dec_label_pc_257b:
  %tmp = load i32, i32* @eax, align 8
  ret i32 %tmp
}

define i32 @function_2691(i32 %arg1) local_unnamed_addr {
dec_label_pc_2691:
  %tmp2 = call i32 @__decompiler_undefined_function_0()
  ret i32 %tmp2
}

define i32 @function_273a() local_unnamed_addr {
dec_label_pc_273a:
  %eax.global-to-local = alloca i32, align 4
  %v0_273a = load i32, i32* %eax.global-to-local, align 8
  %v2_273a = add i32 %v0_273a, 232
  %v16_273a = and i32 %v2_273a, 255
  %v18_273a = and i32 %v0_273a, -256
  %v19_273a = or i32 %v16_273a, %v18_273a
  store i32 %v19_273a, i32* %eax.global-to-local, align 8
  ret i32 %v19_273a

; uselistorder directives
  uselistorder i32 %v0_273a, { 1, 0 }
}

define i32 @function_2771() local_unnamed_addr {
dec_label_pc_2771:
  %eax.global-to-local = alloca i32, align 4
  %v0_2771 = load i32, i32* %eax.global-to-local, align 8
  ret i32 %v0_2771
}

define i32 @function_27c0() local_unnamed_addr {
dec_label_pc_27c0:
  %eax.global-to-local = alloca i32, align 4
  %ecx.global-to-local = alloca i32, align 4
  %v0_27c0 = load i32, i32* %ecx.global-to-local, align 4
  %v1_27c0 = add i32 %v0_27c0, 2011702300
  %v2_27c0 = inttoptr i32 %v1_27c0 to i8*
  %v3_27c0 = load i8, i8* %v2_27c0, align 1
  %v5_27c0 = trunc i32 %v0_27c0 to i8
  %v6_27c0 = or i8 %v3_27c0, %v5_27c0
  store i8 %v6_27c0, i8* %v2_27c0, align 1
  %v0_27c6 = load i32, i32* %eax.global-to-local, align 8
  ret i32 %v0_27c6
}

define i32 @function_2872() local_unnamed_addr {
dec_label_pc_2872:
  %v2_2877 = call i32 @function_23c4(i32 0)
  ret i32 %v2_2877
}

define i32 @function_28e8(i32 %arg1) local_unnamed_addr {
dec_label_pc_28e8:
  %ebp.global-to-local = alloca i32, align 4
  %ebx.global-to-local = alloca i32, align 4
  %edi.global-to-local = alloca i32, align 4
  %v0_28f1 = load i32, i32* %ebx.global-to-local, align 4
  %v1_28f1 = add i32 %v0_28f1, -12
  %v2_28f1 = inttoptr i32 %v1_28f1 to i32*
  %v3_28f1 = load i32, i32* %v2_28f1, align 4
  %v2_28fc = add i32 %v3_28f1, %v0_28f1
  %v12_28fe = icmp eq i32 %v3_28f1, 0
  br i1 %v12_28fe, label %dec_label_pc_2928, label %dec_label_pc_2902

dec_label_pc_2902:                                ; preds = %dec_label_pc_28e8
  %tmp115 = trunc i32 %v0_28f1 to i8
  %v12_2902 = icmp eq i8 %tmp115, 108
  %v1_2905 = icmp eq i1 %v12_2902, false
  br i1 %v1_2905, label %dec_label_pc_2928, label %dec_label_pc_2907

dec_label_pc_2907:                                ; preds = %dec_label_pc_2902
  br label %dec_label_pc_2910

dec_label_pc_2910:                                ; preds = %dec_label_pc_2921, %dec_label_pc_2907
  %v0_2913 = phi i32 [ %v1_2913, %dec_label_pc_2921 ], [ ptrtoint ([7 x i8]* @global_var_5808.1800 to i32), %dec_label_pc_2907 ]
  %v0_2910 = phi i32 [ %v1_2910, %dec_label_pc_2921 ], [ %v0_28f1, %dec_label_pc_2907 ]
  %v1_2910 = add i32 %v0_2910, ptrtoint (i8** @global_var_1.1771 to i32)
  store i32 %v1_2910, i32* %ebx.global-to-local, align 4
  %v1_2913 = add i32 %v0_2913, ptrtoint (i8** @global_var_1.1771 to i32)
  %v12_2916 = icmp eq i32 %v2_28fc, %v1_2910
  %v10_2948 = icmp eq i32 %v0_2913, sub (i32 0, i32 add (i32 ptrtoint (i8** @global_var_1.1771 to i32), i32 -22542))
  br i1 %v12_2916, label %dec_label_pc_2948, label %dec_label_pc_291a

dec_label_pc_291a:                                ; preds = %dec_label_pc_2910
  br i1 %v10_2948, label %dec_label_pc_2950, label %dec_label_pc_2921

dec_label_pc_2921:                                ; preds = %dec_label_pc_291a
  %v1_2921 = inttoptr i32 %v1_2913 to i8*
  %v2_2921 = load i8, i8* %v1_2921, align 1
  %v1_2924 = inttoptr i32 %v1_2910 to i8*
  %v2_2924 = load i8, i8* %v1_2924, align 1
  %v15_2924 = icmp eq i8 %v2_2924, %v2_2921
  br i1 %v15_2924, label %dec_label_pc_2910, label %dec_label_pc_2928

dec_label_pc_2928:                                ; preds = %dec_label_pc_2921, %dec_label_pc_2948, %dec_label_pc_2902, %dec_label_pc_28e8
  %v2_2928 = load i32, i32* %ebp.global-to-local, align 4
  store i32 %v2_2928, i32* %ebx.global-to-local, align 4
  %v5_292e = add i32 %arg1, ptrtoint (i8** @global_var_1.1771 to i32)
  %v2_2942 = call i32 @function_2691(i32 %v5_292e)
  ret i32 %v2_2942

dec_label_pc_2948:                                ; preds = %dec_label_pc_2910
  %v1_294d = icmp eq i1 %v10_2948, false
  br i1 %v1_294d, label %dec_label_pc_2928, label %dec_label_pc_2950

dec_label_pc_2950:                                ; preds = %dec_label_pc_291a, %dec_label_pc_2948
  %v0_2950 = load i32, i32* %edi.global-to-local, align 4
  %v3_2950 = load i32, i32* %ebp.global-to-local, align 4
  %v4_2950 = add i32 %v3_2950, %v0_2950
  store i32 %v4_2950, i32* %edi.global-to-local, align 4
  %v1_2953 = inttoptr i32 %v4_2950 to i32*
  %v2_2953 = load i32, i32* %v1_2953, align 4
  store i32 %v2_2953, i32* @eax, align 8
  %v1_2955 = add i32 %v2_2953, -12
  %v2_2955 = inttoptr i32 %v1_2955 to i32*
  %v3_2955 = load i32, i32* %v2_2955, align 4
  %tmp123 = icmp ult i32 %v3_2955, 6
  br i1 %tmp123, label %bb, label %dec_label_pc_295f

bb:                                               ; preds = %dec_label_pc_2950
  %v3_2959 = call i32 @function_2ea3()
  br label %dec_label_pc_295f

dec_label_pc_295f:                                ; preds = %bb, %dec_label_pc_2950
  %v4_297a = phi i32 [ %v3_2959, %bb ], [ %v2_2953, %dec_label_pc_2950 ]
  ret i32 %v4_297a

; uselistorder directives
  uselistorder i1 %v10_2948, { 1, 0 }
  uselistorder i32 %v1_2910, { 1, 0, 3, 2 }
  uselistorder i32 %v3_28f1, { 1, 0 }
  uselistorder i32 %v0_28f1, { 1, 2, 0, 3 }
  uselistorder label %dec_label_pc_2950, { 1, 0 }
  uselistorder label %dec_label_pc_2928, { 1, 0, 2, 3 }
}

define i32 @function_29c6() local_unnamed_addr {
dec_label_pc_29c6:
  %eax.global-to-local = alloca i32, align 4
  %v0_29cb = load i32, i32* %eax.global-to-local, align 8
  ret i32 %v0_29cb
}

define i32 @function_29d0() local_unnamed_addr {
dec_label_pc_29d0:
  ret i32 65
}

define i32 @function_29da() local_unnamed_addr {
dec_label_pc_29da:
  %v3_29da = load i32, i32* @eax, align 8
  ret i32 %v3_29da
}

define i32 @function_2a82() local_unnamed_addr {
dec_label_pc_2a82:
  %eax.global-to-local = alloca i32, align 4
  %v0_2a82 = load i32, i32* %eax.global-to-local, align 8
  ret i32 %v0_2a82
}

define i32 @function_2aaa() local_unnamed_addr {
dec_label_pc_2aaa:
  %v0_2aaa = call i32 @function_19c2()
  ret i32 %v0_2aaa
}

define i32 @function_2aaf(i32 %arg1, i32 %arg2, i32 %arg3, i32 %arg4) local_unnamed_addr {
dec_label_pc_2aaf:
  %ebx.global-to-local = alloca i32, align 4
  %ecx.global-to-local = alloca i32, align 4
  %stack_var_104 = alloca i32, align 4
  store i32 %arg2, i32* %stack_var_104, align 4
  %stack_var_196 = alloca i32, align 4
  %stack_var_204 = alloca i8*, align 4
  store i8* inttoptr (i32 2697316 to i8*), i8** %stack_var_204, align 4
  store i32 %arg3, i32* %stack_var_196, align 4
  %v2_2add = ptrtoint i8** %stack_var_204 to i32
  %v2_2af3 = ptrtoint i32* %stack_var_196 to i32
  %v4_2b01 = call i32 @_ZNK5boost9date_time11int_adapterIxEmiIxEES2_RKNS1_IT_EE(i32* nonnull %stack_var_104, i32 %v2_2af3, i32 %v2_2add)
  store i32 %arg1, i32* %ebx.global-to-local, align 4
  %v3_2b0d = load i32, i32* %stack_var_104, align 4
  store i32 %v3_2b0d, i32* %ecx.global-to-local, align 4
  %v1_2b25 = xor i32 %arg1, -2
  store i32 %v1_2b25, i32* @eax, align 8
  %v1_2b28 = xor i32 %v3_2b0d, 2147483647
  %v2_2b2e = or i32 %v1_2b28, %v1_2b25
  %v3_2b2e = icmp eq i32 %v2_2b2e, 0
  br i1 %v3_2b2e, label %bb, label %dec_label_pc_2b36

bb:                                               ; preds = %dec_label_pc_2aaf
  %v3_2b30 = call i32 @function_257b(i32 2077252342, i32 0)
  %v0_2b36.pre = load i32, i32* %ecx.global-to-local, align 4
  %v1_2b3c.pre = load i32, i32* %ebx.global-to-local, align 4
  br label %dec_label_pc_2b36

dec_label_pc_2b36:                                ; preds = %bb, %dec_label_pc_2aaf
  %v1_2b3c = phi i32 [ %v1_2b3c.pre, %bb ], [ %arg1, %dec_label_pc_2aaf ]
  %v0_2b36 = phi i32 [ %v0_2b36.pre, %bb ], [ %v3_2b0d, %dec_label_pc_2aaf ]
  %v1_2b36 = xor i32 %v0_2b36, -2147483648
  %v2_2b3c = or i32 %v1_2b36, %v1_2b3c
  %v3_2b3c = icmp eq i32 %v2_2b3c, 0
  store i32 %v2_2b3c, i32* @eax, align 8
  br i1 %v3_2b3c, label %bb116, label %dec_label_pc_2b54

bb116:                                            ; preds = %dec_label_pc_2b36
  %v3_2b4e = call i32 @function_257b(i32 -2077252342, i32 -1)
  store i32 %v3_2b4e, i32* @eax, align 8
  br label %dec_label_pc_2b54

dec_label_pc_2b54:                                ; preds = %bb116, %dec_label_pc_2b36
  %v2_2b64 = call i32 @function_257b(i32 2077252342, i32 0)
  ret i32 %v2_2b64

; uselistorder directives
  uselistorder i8** %stack_var_204, { 1, 0 }
  uselistorder i32* %stack_var_104, { 2, 0, 1 }
  uselistorder i32 (i32, i32)* @function_257b, { 2, 1, 0 }
  uselistorder i32 2077252342, { 1, 0 }
  uselistorder i32 %arg1, { 0, 2, 1 }
}

define i32 @function_2b69(i32 %arg1) local_unnamed_addr {
dec_label_pc_2b69:
  %v4_2b78 = call i32 @_ZN5boost10posix_time11from_time_tEl(i32* bitcast ([4 x i8]* @global_var_5690.1801 to i32*), i32 0)
  ret i32 %v4_2b78
}

define i32 @function_2b8c() local_unnamed_addr {
dec_label_pc_2b8c:
  %eax.global-to-local = alloca i32, align 4
  %v0_2b8c = load i32, i32* %eax.global-to-local, align 8
  ret i32 %v0_2b8c
}

define i32 @function_2b91() local_unnamed_addr {
dec_label_pc_2b91:
  %stack_var_944 = alloca i32, align 4
  %v2_2b91 = ptrtoint i32* %stack_var_944 to i32
  ret i32 %v2_2b91
}

define i32 @function_2c42() local_unnamed_addr {
dec_label_pc_2c42:
  %eax.global-to-local = alloca i32, align 4
  %v0_2c42 = load i32, i32* %eax.global-to-local, align 8
  %v11_2c42 = and i32 %v0_2c42, -125
  store i32 %v11_2c42, i32* %eax.global-to-local, align 8
  ret i32 %v11_2c42

; uselistorder directives
  uselistorder i32 %v11_2c42, { 1, 0 }
}

define i32 @function_2c5d(i32 %arg1, i32 %arg2, i32 %arg3, i32 %arg4) local_unnamed_addr {
dec_label_pc_2c5d:
  %ebx.global-to-local = alloca i32, align 4
  %v0_2c5d = load i32, i32* %ebx.global-to-local, align 4
  %v1_2c5d = add i32 %v0_2c5d, 962339956
  %v2_2c5d = inttoptr i32 %v1_2c5d to i32*
  %v3_2c5d = load i32, i32* %v2_2c5d, align 4
  %v6_2c5d = add i32 %v3_2c5d, -1
  %v14_2c5d = icmp eq i32 %v6_2c5d, 0
  store i32 %v6_2c5d, i32* %v2_2c5d, align 4
  br i1 %v14_2c5d, label %dec_label_pc_2c89, label %dec_label_pc_2c65

dec_label_pc_2c65:                                ; preds = %dec_label_pc_2c5d
  %v6_2c66 = icmp slt i32 %v3_2c5d, ptrtoint (i8** @global_var_1.1771 to i32)
  br i1 %v6_2c66, label %dec_label_pc_2c84, label %dec_label_pc_2c68

dec_label_pc_2c68:                                ; preds = %dec_label_pc_2c65
  %v9_2c68 = icmp sgt i32 %v3_2c5d, ptrtoint (i8** @global_var_1.1771 to i32)
  br i1 %v9_2c68, label %dec_label_pc_2c74, label %dec_label_pc_2c6a

dec_label_pc_2c6a:                                ; preds = %dec_label_pc_2c68
  %tmp111 = icmp ugt i32 %arg2, %arg3
  br i1 %tmp111, label %dec_label_pc_2c74, label %dec_label_pc_2c84

dec_label_pc_2c74:                                ; preds = %dec_label_pc_2c6a, %dec_label_pc_2c68
  br label %dec_label_pc_2c84

dec_label_pc_2c84:                                ; preds = %dec_label_pc_2c6a, %dec_label_pc_2c74, %dec_label_pc_2c65
  %v4_2c84 = load i32, i32* @eax, align 8
  ret i32 %v4_2c84

dec_label_pc_2c89:                                ; preds = %dec_label_pc_2c5d
  %v0_2c90 = call i32 @function_1a4b()
  ret i32 %v0_2c90

; uselistorder directives
  uselistorder i32 %v6_2c5d, { 1, 0 }
  uselistorder label %dec_label_pc_2c84, { 1, 0, 2 }
}

define i32 @function_2c95() local_unnamed_addr {
dec_label_pc_2c95:
  %ebx.global-to-local = alloca i32, align 4
  %esi.global-to-local = alloca i32, align 4
  %v2_2c95 = load i32, i32* %ebx.global-to-local, align 4
  %v0_2c97 = load i32, i32* %esi.global-to-local, align 4
  %v1_2ca0 = add i32 %v2_2c95, 4
  %v2_2ca0 = inttoptr i32 %v1_2ca0 to i32*
  %v3_2ca0 = load i32, i32* %v2_2ca0, align 4
  %v1_2caa = add i32 %v2_2c95, ptrtoint (double** @global_var_8.1773 to i32)
  %v2_2caa = inttoptr i32 %v1_2caa to i32*
  %v3_2caa = load i32, i32* %v2_2caa, align 4
  %v1_2cb4 = add i32 %v2_2c95, ptrtoint (i8** @global_var_c.1790 to i32)
  %v2_2cb4 = inttoptr i32 %v1_2cb4 to i32*
  %v3_2cb4 = load i32, i32* %v2_2cb4, align 4
  %v1_2cbe = add i32 %v2_2c95, ptrtoint (i8** @global_var_10.1772 to i32)
  %v2_2cbe = inttoptr i32 %v1_2cbe to i32*
  %v3_2cbe = load i32, i32* %v2_2cbe, align 4
  %v1_2cc8 = add i32 %v2_2c95, 20
  %v2_2cc8 = inttoptr i32 %v1_2cc8 to i32*
  %v3_2cc8 = load i32, i32* %v2_2cc8, align 4
  %v1_2cd2 = add i32 %v2_2c95, 24
  %v2_2cd2 = inttoptr i32 %v1_2cd2 to i32*
  %v3_2cd2 = load i32, i32* %v2_2cd2, align 4
  %v1_2cdc = add i32 %v2_2c95, 28
  %v2_2cdc = inttoptr i32 %v1_2cdc to i32*
  %v3_2cdc = load i32, i32* %v2_2cdc, align 4
  store i32 %v3_2cdc, i32* @eax, align 8
  %sext = mul i32 %v0_2c97, 16777216
  %v11_2cf5 = sdiv i32 %sext, 16777216
  %v12_2cf5 = call i32 @function_2081(i32 sext (i8 ptrtoint (i8** @global_var_1.1771 to i8) to i32), i32 %v11_2cf5, i32 %v2_2c95, i32 %v3_2ca0, i32 %v3_2caa, i32 %v3_2cb4, i32 %v3_2cbe, i32 %v3_2cc8, i32 %v3_2cd2, i32 %v3_2cdc)
  ret i32 %v12_2cf5

; uselistorder directives
  uselistorder i32 %v2_2c95, { 6, 1, 0, 3, 2, 5, 4, 7 }
}

define i32 @function_2cfa() local_unnamed_addr {
dec_label_pc_2cfa:
  %eax.global-to-local = alloca i32, align 4
  %v0_2cfc = load i32, i32* %eax.global-to-local, align 8
  ret i32 %v0_2cfc
}

define i32 @function_2d24() local_unnamed_addr {
dec_label_pc_2d24:
  %v0_2d24 = call i32 @function_1e95()
  ret i32 %v0_2d24
}

define i32 @function_2d2a() local_unnamed_addr {
dec_label_pc_2d2a:
  %eax.global-to-local = alloca i32, align 4
  %v0_2d2a = load i32, i32* %eax.global-to-local, align 8
  ret i32 %v0_2d2a
}

define i32 @function_2d2b() local_unnamed_addr {
dec_label_pc_2d2b:
  %stack_var_420 = alloca i32, align 4
  %v2_2d2b = ptrtoint i32* %stack_var_420 to i32
  ret i32 %v2_2d2b
}

define i32 @function_2d4e() local_unnamed_addr {
dec_label_pc_2d4e:
  %tmp = load i32, i32* @eax, align 8
  ret i32 %tmp
}

define i32 @function_2d5e() local_unnamed_addr {
dec_label_pc_2d5e:
  %v0_2d60 = call i32 @function_2d4e()
  ret i32 %v0_2d60
}

define i32 @function_2d62(i32 %arg1, i32 %arg2, i32 %arg3, i32 %arg4, i32 %arg5, i32 %arg6) local_unnamed_addr {
dec_label_pc_2d62:
  ret i32 %arg6
}

define i32 @function_2dd3() local_unnamed_addr {
dec_label_pc_2dd3:
  %ebx.global-to-local = alloca i32, align 4
  %v0_2dd3 = load i32, i32* %ebx.global-to-local, align 4
  %v1_2dd6 = inttoptr i32 %v0_2dd3 to i32*
  %v2_2dd6 = call i32 @_ZN5boost7variantI14CNoDestination6CKeyID9CScriptIDNS_6detail7variant5void_ES6_S6_S6_S6_S6_S6_S6_S6_S6_S6_S6_S6_S6_S6_S6_S6_ED1Ev(i32* %v1_2dd6)
  ret i32 %v2_2dd6
}

define i32 @function_2de1() local_unnamed_addr {
dec_label_pc_2de1:
  %eax.global-to-local = alloca i32, align 4
  %v0_2de1 = load i32, i32* %eax.global-to-local, align 8
  ret i32 %v0_2de1
}

define i32 @function_2dee() local_unnamed_addr {
dec_label_pc_2dee:
  %tmp = load i32, i32* @eax, align 8
  ret i32 %tmp
}

define i32 @function_2dfd() local_unnamed_addr {
dec_label_pc_2dfd:
  %tmp = load i32, i32* @eax, align 8
  ret i32 %tmp
}

define i32 @function_2e09() local_unnamed_addr {
dec_label_pc_2e09:
  %tmp = load i32, i32* @eax, align 8
  ret i32 %tmp
}

define i32 @function_2e11() local_unnamed_addr {
dec_label_pc_2e11:
  %tmp = load i32, i32* @eax, align 8
  ret i32 %tmp
}

define i32 @function_2e1d() local_unnamed_addr {
dec_label_pc_2e1d:
  %tmp = load i32, i32* @eax, align 8
  ret i32 %tmp
}

define i32 @function_2e40() local_unnamed_addr {
dec_label_pc_2e40:
  %tmp = load i32, i32* @eax, align 8
  ret i32 %tmp
}

define i32 @function_2e4c() local_unnamed_addr {
dec_label_pc_2e4c:
  %v0_2e4c = call i32 @function_2dee()
  ret i32 %v0_2e4c
}

define i32 @function_2e5c() local_unnamed_addr {
dec_label_pc_2e5c:
  %tmp = load i32, i32* @eax, align 8
  ret i32 %tmp
}

define i32 @function_2e66() local_unnamed_addr {
dec_label_pc_2e66:
  %tmp = load i32, i32* @eax, align 8
  ret i32 %tmp
}

define i32 @function_2e72() local_unnamed_addr {
dec_label_pc_2e72:
  %v0_2e72 = call i32 @function_2dee()
  ret i32 %v0_2e72
}

define i32 @function_2e77() local_unnamed_addr {
dec_label_pc_2e77:
  %v0_2e79 = call i32 @function_2e5c()
  ret i32 %v0_2e79
}

define i32 @function_2e7b() local_unnamed_addr {
dec_label_pc_2e7b:
  %v0_2e80 = call i32 @function_2e66()
  ret i32 %v0_2e80
}

define i32 @function_2e8e() local_unnamed_addr {
dec_label_pc_2e8e:
  %tmp = load i32, i32* @eax, align 8
  ret i32 %tmp
}

define i32 @function_2e9d() local_unnamed_addr {
dec_label_pc_2e9d:
  %v0_2e9d = call i32 @function_2e40()
  ret i32 %v0_2e9d
}

define i32 @function_2e9f() local_unnamed_addr {
dec_label_pc_2e9f:
  %v0_2ea1 = call i32 @function_2e8e()
  ret i32 %v0_2ea1
}

define i32 @function_2ea3() local_unnamed_addr {
dec_label_pc_2ea3:
  %v3_2ea3 = load i32, i32* @eax, align 8
  ret i32 %v3_2ea3
}

define i32 @function_2eaf() local_unnamed_addr {
dec_label_pc_2eaf:
  %stack_var_896 = alloca i32, align 4
  %v2_2ebb = call i32 @_ZN5boost7variantI14CNoDestination6CKeyID9CScriptIDNS_6detail7variant5void_ES6_S6_S6_S6_S6_S6_S6_S6_S6_S6_S6_S6_S6_S6_S6_S6_ED1Ev(i32* nonnull %stack_var_896)
  store i32 %v2_2ebb, i32* @eax, align 8
  %v0_2ec0 = call i32 @function_2e40()
  ret i32 %v0_2ec0
}

define i32 @function_2ec6() local_unnamed_addr {
dec_label_pc_2ec6:
  %eax.global-to-local = alloca i32, align 4
  %v0_2ec6 = load i32, i32* %eax.global-to-local, align 8
  ret i32 %v0_2ec6
}

define i32 @function_2ece() local_unnamed_addr {
dec_label_pc_2ece:
  %eax.global-to-local = alloca i32, align 4
  %ebx.global-to-local = alloca i32, align 4
  %ecx.global-to-local = alloca i32, align 4
  %st0.global-to-local = alloca x86_fp80, align 4
  %v0_2ece = load i32, i32* %ecx.global-to-local, align 4
  %v1_2ece = add i32 %v0_2ece, -370662348
  %v2_2ece = inttoptr i32 %v1_2ece to i32*
  %v3_2ece = load i32, i32* %v2_2ece, align 4
  %v6_2ece = sub i32 %v3_2ece, ptrtoint (i8** @global_var_1.1771 to i32)
  store i32 %v6_2ece, i32* %v2_2ece, align 4
  %v0_2ed6 = load i32, i32* %ebx.global-to-local, align 4
  %v2_2ed6 = load i32, i32* %ecx.global-to-local, align 4
  %v3_2ed6 = lshr i32 %v2_2ed6, ptrtoint (double** @global_var_8.1773 to i32)
  %v5_2ed6 = add i32 %v3_2ed6, %v0_2ed6
  %v20_2ed6 = and i32 %v5_2ed6, 255
  %v22_2ed6 = and i32 %v0_2ed6, -256
  %v23_2ed6 = or i32 %v20_2ed6, %v22_2ed6
  store i32 %v23_2ed6, i32* %ebx.global-to-local, align 4
  %v2_2ed8 = add i32 %v2_2ed6, 612666307
  %v3_2ed8 = inttoptr i32 %v2_2ed8 to float*
  %v4_2ed8 = load float, float* %v3_2ed8, align 4
  %v5_2ed8 = fpext float %v4_2ed8 to x86_fp80
  %v6_2ed8 = load x86_fp80, x86_fp80* %st0.global-to-local, align 4
  %v7_2ed8 = fmul x86_fp80 %v5_2ed8, %v6_2ed8
  store x86_fp80 %v7_2ed8, x86_fp80* %st0.global-to-local, align 4
  %v0_2ede = load i32, i32* %eax.global-to-local, align 8
  %v1_2ede = and i32 %v0_2ede, -256
  store i32 %v1_2ede, i32* %eax.global-to-local, align 8
  call void @_ZNSt12_Vector_baseIhSaIhEE13_M_deallocateEPhj(i32 ptrtoint (i32* @2 to i32), i8* bitcast (i32* @2 to i8*), i32 ptrtoint (i32* @2 to i32))
  store i32 ptrtoint (i32* @2 to i32), i32* %eax.global-to-local, align 8
  ret i32 ptrtoint (i32* @2 to i32)

; uselistorder directives
  uselistorder i32 %v0_2ed6, { 1, 0 }
}

define i32 @function_2ee9() local_unnamed_addr {
dec_label_pc_2ee9:
  %eax.global-to-local = alloca i32, align 4
  %v0_2ee9 = load i32, i32* %eax.global-to-local, align 8
  ret i32 %v0_2ee9
}

define i32 @function_2eed() local_unnamed_addr {
dec_label_pc_2eed:
  %tmp92 = call i32 @__decompiler_undefined_function_0()
  %v1_2ef2 = call i32 @_ZN11CBase58DataD1Ev(i32 %tmp92)
  ret i32 %v1_2ef2
}

define i32 @function_2ef9() local_unnamed_addr {
dec_label_pc_2ef9:
  %v0_2efb = call i32 @function_2e40()
  ret i32 %v0_2efb

; uselistorder directives
  uselistorder i32 ()* @function_2e40, { 2, 1, 0 }
}

define i32 @function_2f00() local_unnamed_addr {
dec_label_pc_2f00:
  %v2_2f10 = call i32 @function_2691(i32 sext (i8 ptrtoint (i8** @global_var_1.1771 to i8) to i32))
  ret i32 %v2_2f10
}

define i32 @function_2f1d() local_unnamed_addr {
dec_label_pc_2f1d:
  %eax.global-to-local = alloca i32, align 4
  %v0_2f1d = load i32, i32* %eax.global-to-local, align 8
  ret i32 %v0_2f1d
}

define i32 @function_2f26() local_unnamed_addr {
dec_label_pc_2f26:
  %tmp = load i32, i32* @eax, align 8
  ret i32 %tmp
}

define i32 @function_2f35() local_unnamed_addr {
dec_label_pc_2f35:
  %v0_2f35 = call i32 @function_2dee()
  ret i32 %v0_2f35
}

define i32 @function_2f3a() local_unnamed_addr {
dec_label_pc_2f3a:
  %v0_2f3c = call i32 @function_2f26()
  ret i32 %v0_2f3c
}

define i32 @function_2f3e() local_unnamed_addr {
dec_label_pc_2f3e:
  %stack_var_872 = alloca i32, align 4
  %v2_2f4a = call i32 @_ZN5boost7variantI14CNoDestination6CKeyID9CScriptIDNS_6detail7variant5void_ES6_S6_S6_S6_S6_S6_S6_S6_S6_S6_S6_S6_S6_S6_S6_S6_ED1Ev(i32* nonnull %stack_var_872)
  store i32 %v2_2f4a, i32* @eax, align 8
  %v0_2f4f = call i32 @function_2dee()
  ret i32 %v0_2f4f
}

define i32 @function_2f55() local_unnamed_addr {
dec_label_pc_2f55:
  %eax.global-to-local = alloca i32, align 4
  %v0_2f55 = load i32, i32* %eax.global-to-local, align 8
  ret i32 %v0_2f55
}

define i32 @function_2f5d() local_unnamed_addr {
dec_label_pc_2f5d:
  %eax.global-to-local = alloca i32, align 4
  %ebx.global-to-local = alloca i32, align 4
  %ecx.global-to-local = alloca i32, align 4
  %st0.global-to-local = alloca x86_fp80, align 4
  %v0_2f5d = load i32, i32* %ecx.global-to-local, align 4
  %v1_2f5d = add i32 %v0_2f5d, 1525163060
  %v2_2f5d = inttoptr i32 %v1_2f5d to i32*
  %v3_2f5d = load i32, i32* %v2_2f5d, align 4
  %v5_2f5d = add i32 %v3_2f5d, -1
  store i32 %v5_2f5d, i32* %v2_2f5d, align 4
  %v0_2f65 = load i32, i32* %ebx.global-to-local, align 4
  %v2_2f65 = load i32, i32* %ecx.global-to-local, align 4
  %v3_2f65 = lshr i32 %v2_2f65, ptrtoint (double** @global_var_8.1773 to i32)
  %v5_2f65 = add i32 %v3_2f65, %v0_2f65
  %v20_2f65 = and i32 %v5_2f65, 255
  %v22_2f65 = and i32 %v0_2f65, -256
  %v23_2f65 = or i32 %v20_2f65, %v22_2f65
  store i32 %v23_2f65, i32* %ebx.global-to-local, align 4
  %v2_2f67 = add i32 %v2_2f65, 612666307
  %v3_2f67 = inttoptr i32 %v2_2f67 to float*
  %v4_2f67 = load float, float* %v3_2f67, align 4
  %v5_2f67 = fpext float %v4_2f67 to x86_fp80
  %v6_2f67 = load x86_fp80, x86_fp80* %st0.global-to-local, align 4
  %v7_2f67 = fmul x86_fp80 %v5_2f67, %v6_2f67
  store x86_fp80 %v7_2f67, x86_fp80* %st0.global-to-local, align 4
  %v0_2f6d = load i32, i32* %eax.global-to-local, align 8
  %v1_2f6d = and i32 %v0_2f6d, -256
  store i32 %v1_2f6d, i32* %eax.global-to-local, align 8
  call void @_ZNSt12_Vector_baseIhSaIhEE13_M_deallocateEPhj(i32 ptrtoint (i32* @2 to i32), i8* bitcast (i32* @2 to i8*), i32 ptrtoint (i32* @2 to i32))
  store i32 ptrtoint (i32* @2 to i32), i32* %eax.global-to-local, align 8
  ret i32 ptrtoint (i32* @2 to i32)

; uselistorder directives
  uselistorder i32 %v0_2f65, { 1, 0 }
}

define i32 @function_2f78() local_unnamed_addr {
dec_label_pc_2f78:
  %eax.global-to-local = alloca i32, align 4
  %v0_2f78 = load i32, i32* %eax.global-to-local, align 8
  ret i32 %v0_2f78
}

define i32 @function_2f7c() local_unnamed_addr {
dec_label_pc_2f7c:
  %tmp92 = call i32 @__decompiler_undefined_function_0()
  %v1_2f81 = call i32 @_ZN11CBase58DataD1Ev(i32 %tmp92)
  ret i32 %v1_2f81
}

define i32 @function_2f88() local_unnamed_addr {
dec_label_pc_2f88:
  %v0_2f8a = call i32 @function_2dee()
  ret i32 %v0_2f8a

; uselistorder directives
  uselistorder i32 ()* @function_2dee, { 4, 3, 2, 1, 0 }
}

define i32 @function_2f8f() local_unnamed_addr {
dec_label_pc_2f8f:
  %stack_var_806 = alloca i32, align 4
  %v2_2f91 = ptrtoint i32* %stack_var_806 to i32
  %v1_2f9b = call i32 @_ZN4CKeyD1Ev(i32 %v2_2f91)
  store i32 %v1_2f9b, i32* @eax, align 8
  %v0_2fa0 = call i32 @function_2dfd()
  ret i32 %v0_2fa0

; uselistorder directives
  uselistorder i32 (i32)* @_ZN4CKeyD1Ev, { 2, 1, 0 }
}

define i32 @function_2fa5() local_unnamed_addr {
dec_label_pc_2fa5:
  %tmp = load i32, i32* @eax, align 8
  ret i32 %tmp
}

define i32 @function_2fab() local_unnamed_addr {
dec_label_pc_2fab:
  %eax.global-to-local = alloca i32, align 4
  %v0_2fab = load i32, i32* %eax.global-to-local, align 8
  ret i32 %v0_2fab
}

define i32 @function_2fac(i32 %arg1) local_unnamed_addr {
dec_label_pc_2fac:
  %tmp = load i32, i32* @eax, align 8
  ret i32 %tmp
}

define i32 @function_2ff9() local_unnamed_addr {
dec_label_pc_2ff9:
  %ecx.global-to-local = alloca i32, align 4
  %tmp91 = call i32 @__decompiler_undefined_function_0()
  %v1_2ff9 = add i32 %tmp91, 22291596
  %v2_2ff9 = inttoptr i32 %v1_2ff9 to i32*
  %v3_2ff9 = load i32, i32* %v2_2ff9, align 4
  %v4_2ff9 = add i32 %v3_2ff9, -1
  store i32 %v4_2ff9, i32* %v2_2ff9, align 4
  %v2_2fff = load i8, i8* bitcast (i32* @eax to i8*), align 8
  %v3_2fff = load i32, i32* @eax, align 8
  %v4_2fff = trunc i32 %v3_2fff to i8
  %v5_2fff = add i8 %v4_2fff, %v2_2fff
  %v21_2fff = inttoptr i32 %v3_2fff to i8*
  store i8 %v5_2fff, i8* %v21_2fff, align 1
  %v0_3003 = load i32, i32* %ecx.global-to-local, align 4
  %v1_300b = call i32 @function_2fac(i32 %v0_3003)
  ret i32 %v1_300b
}

define i32 @function_3073(i32 %arg1) local_unnamed_addr {
dec_label_pc_3073:
  %df.global-to-local = alloca i1, align 1
  %eax.global-to-local = alloca i32, align 4
  %ebx.global-to-local = alloca i32, align 4
  %ecx.global-to-local = alloca i32, align 4
  %edi.global-to-local = alloca i32, align 4
  %esi.global-to-local = alloca i32, align 4
  %v0_3073 = load i32, i32* %ecx.global-to-local, align 4
  %v1_3073 = add i32 %v0_3073, 615288259
  %v2_3073 = inttoptr i32 %v1_3073 to i32*
  %v3_3073 = load i32, i32* %v2_3073, align 4
  %v4_3073 = add i32 %v3_3073, -1
  store i32 %v4_3073, i32* %v2_3073, align 4
  %v2_3079 = load i8, i8* bitcast (i32* @esi to i8*), align 4
  %v3_3079 = load i32, i32* %edi.global-to-local, align 4
  %v4_3079 = inttoptr i32 %v3_3079 to i8*
  store i8 %v2_3079, i8* %v4_3079, align 1
  %v5_3079 = load i32, i32* %edi.global-to-local, align 4
  %v6_3079 = load i32, i32* %esi.global-to-local, align 4
  %v7_3079 = load i1, i1* %df.global-to-local, align 1
  %v8_3079 = select i1 %v7_3079, i32 -1, i32 ptrtoint (i8** @global_var_1.1771 to i32)
  %v9_3079 = add i32 %v8_3079, %v5_3079
  %v10_3079 = add i32 %v8_3079, %v6_3079
  store i32 %v9_3079, i32* %edi.global-to-local, align 4
  store i32 %v10_3079, i32* %esi.global-to-local, align 4
  %v2_307a = load i8, i8* bitcast (i32* @eax to i8*), align 8
  %v3_307a = load i32, i32* %eax.global-to-local, align 8
  %v4_307a = trunc i32 %v3_307a to i8
  %v5_307a = add i8 %v4_307a, %v2_307a
  %v21_307a = inttoptr i32 %v3_307a to i8*
  store i8 %v5_307a, i8* %v21_307a, align 1
  %v0_307c = load i32, i32* %ebx.global-to-local, align 4
  %v1_307c = add i32 %v0_307c, 66069652
  %v2_307c = inttoptr i32 %v1_307c to i8*
  %v3_307c = load i8, i8* %v2_307c, align 1
  %v4_307c = load i32, i32* %ecx.global-to-local, align 4
  %v5_307c = trunc i32 %v4_307c to i8
  %v6_307c = add i8 %v5_307c, %v3_307c
  store i8 %v6_307c, i8* %v2_307c, align 1
  %v2_3082 = load i8, i8* bitcast (i32* @eax to i8*), align 8
  %v3_3082 = load i32, i32* %eax.global-to-local, align 8
  %v4_3082 = trunc i32 %v3_3082 to i8
  %v5_3082 = add i8 %v4_3082, %v2_3082
  %v21_3082 = inttoptr i32 %v3_3082 to i8*
  store i8 %v5_3082, i8* %v21_3082, align 1
  store i32 %arg1, i32* %eax.global-to-local, align 8
  call void @"~is_any_ofF"(i32 ptrtoint (i32* @2 to i32), i32 ptrtoint (i32* @2 to i32))
  store i32 ptrtoint (i32* @2 to i32), i32* @eax, align 8
  %v0_3090 = call i32 @function_2e09()
  store i32 %v0_3090, i32* %eax.global-to-local, align 8
  ret i32 %v0_3090
}

define i32 @function_3095(i32 %arg1, i32 %arg2) local_unnamed_addr {
dec_label_pc_3095:
  call void @"~is_any_ofF"(i32 ptrtoint (i32* @2 to i32), i32 ptrtoint (i32* @2 to i32))
  ret i32 ptrtoint (i32* @2 to i32)
}

define i32 @function_30b3(i32 %arg1, i32 %arg2) local_unnamed_addr {
dec_label_pc_30b3:
  call void @"~is_any_ofF"(i32 ptrtoint (i32* @2 to i32), i32 ptrtoint (i32* @2 to i32))
  ret i32 ptrtoint (i32* @2 to i32)

; uselistorder directives
  uselistorder void (i32, i32)* @"~is_any_ofF", { 2, 1, 0 }
}

define i32 @function_30d1() local_unnamed_addr {
dec_label_pc_30d1:
  %v0_30d3 = call i32 @function_2e09()
  ret i32 %v0_30d3

; uselistorder directives
  uselistorder i32 ()* @function_2e09, { 1, 0 }
}

define i32 @function_30d8() local_unnamed_addr {
dec_label_pc_30d8:
  %tmp = load i32, i32* @eax, align 8
  ret i32 %tmp
}

define i32 @function_30e4() local_unnamed_addr {
dec_label_pc_30e4:
  %tmp = load i32, i32* @eax, align 8
  ret i32 %tmp
}

define i32 @function_30ec() local_unnamed_addr {
dec_label_pc_30ec:
  %v0_30ec = call i32 @function_2e1d()
  ret i32 %v0_30ec
}

define i32 @function_30f1() local_unnamed_addr {
dec_label_pc_30f1:
  %v0_30f3 = call i32 @function_30e4()
  ret i32 %v0_30f3
}

define i32 @function_30f5() local_unnamed_addr {
dec_label_pc_30f5:
  %v0_30f7 = call i32 @function_2dfd()
  ret i32 %v0_30f7

; uselistorder directives
  uselistorder i32 ()* @function_2dfd, { 1, 0 }
}

define i32 @function_30fc() local_unnamed_addr {
dec_label_pc_30fc:
  %eax.global-to-local = alloca i32, align 4
  %ebx.global-to-local = alloca i32, align 4
  %v0_30fc = load i32, i32* %eax.global-to-local, align 8
  %v0_30fe = load i32, i32* %ebx.global-to-local, align 4
  store i32 %v0_30fc, i32* %ebx.global-to-local, align 4
  %v1_3103 = inttoptr i32 %v0_30fe to i32*
  %v2_3103 = call i32 @_ZN5boost9algorithm6detail13token_finderFINS1_10is_any_ofFIcEEED1Ev(i32* %v1_3103)
  store i32 %v2_3103, i32* %eax.global-to-local, align 8
  ret i32 %v2_3103

; uselistorder directives
  uselistorder i32* %ebx.global-to-local, { 1, 0 }
  uselistorder i32* %eax.global-to-local, { 1, 0 }
}

define i32 @function_310a() local_unnamed_addr {
dec_label_pc_310a:
  %v0_310c = call i32 @function_2e11()
  ret i32 %v0_310c
}

define i32 @function_3111() local_unnamed_addr {
dec_label_pc_3111:
  %eax.global-to-local = alloca i32, align 4
  %v5_3118 = load i32, i32* %eax.global-to-local, align 8
  ret i32 %v5_3118
}

define i32 @function_3188() local_unnamed_addr {
dec_label_pc_3188:
  %v0_318a = call i32 @function_2e1d()
  ret i32 %v0_318a

; uselistorder directives
  uselistorder i32 ()* @function_2e1d, { 1, 0 }
}

define i32 @function_318f() local_unnamed_addr {
dec_label_pc_318f:
  %v0_318f = call i32 @function_30d8()
  ret i32 %v0_318f
}

define i32 @function_3194() local_unnamed_addr {
dec_label_pc_3194:
  %v0_3194 = call i32 @function_30f1()
  ret i32 %v0_3194
}

define i32 @function_319a() local_unnamed_addr {
dec_label_pc_319a:
  %eax.global-to-local = alloca i32, align 4
  %v0_319a = load i32, i32* %eax.global-to-local, align 8
  ret i32 %v0_319a
}

define i32 @function_31ac() local_unnamed_addr {
dec_label_pc_31ac:
  %tmp = load i32, i32* @eax, align 8
  ret i32 %tmp
}

define i32 @function_31db() local_unnamed_addr {
dec_label_pc_31db:
  %v0_31db = call i32 @function_31ac()
  ret i32 %v0_31db
}

define %"Value_impl<json_spirit::Config_vector<std::basic_string<char,std::char_traits<char>,std::allocator<char>>>>.11" @_Z10dumpwalletRKSt6vectorIN11json_spirit10Value_implINS0_13Config_vectorISsEEEESaIS4_EEb(i32 %params, i1 %fHelp) local_unnamed_addr {
dec_label_pc_31e0:
  %tmp101 = call i8 @__decompiler_undefined_function_2()
  %v4_3201 = sext i1 %fHelp to i32
  store i32 %v4_3201, i32* @ebx, align 4
  %v10_3208 = icmp eq i8 %tmp101, 0
  br i1 %v10_3208, label %bb, label %dec_label_pc_3216

bb:                                               ; preds = %dec_label_pc_31e0
  %v2_3214 = call i32 @function_3278(i32 %params)
  br label %dec_label_pc_3216

dec_label_pc_3216:                                ; preds = %bb, %dec_label_pc_31e0
  %v3_321d = phi i32 [ %v2_3214, %bb ], [ %params, %dec_label_pc_31e0 ]
  %v4_321d = insertvalue %"Value_impl<json_spirit::Config_vector<std::basic_string<char,std::char_traits<char>,std::allocator<char>>>>.11" undef, i32 %v3_321d, 0
  ret %"Value_impl<json_spirit::Config_vector<std::basic_string<char,std::char_traits<char>,std::allocator<char>>>>.11" %v4_321d
}

define i32 @function_3278(i32 %arg1) local_unnamed_addr {
dec_label_pc_3278:
  %v0_3278 = load i32, i32* @ebx, align 4
  %v1_3278 = add i32 %v0_3278, 4
  %v2_3278 = inttoptr i32 %v1_3278 to i32*
  %v3_3278 = load i32, i32* %v2_3278, align 4
  %v4_327b = sub i32 %v3_3278, %v0_3278
  %v2_327d = sdiv i32 %v4_327b, 4
  %v3_3280 = mul i32 %v2_327d, -858993459
  ret i32 %v3_3280
}

define i32 @function_33af() local_unnamed_addr {
dec_label_pc_33af:
  %tmp = load i32, i32* @eax, align 8
  ret i32 %tmp
}

define i32 @function_344e(i32 %arg1) local_unnamed_addr {
dec_label_pc_344e:
  %eax.global-to-local = alloca i32, align 4
  %v0_344e = load i32, i32* @ebx, align 4
  %v1_344e = add i32 %v0_344e, 996156508
  %v2_344e = inttoptr i32 %v1_344e to i32*
  %v3_344e = load i32, i32* %v2_344e, align 4
  %v4_344e = add i32 %v3_344e, -1
  store i32 %v4_344e, i32* %v2_344e, align 4
  %v0_3455 = load i32, i32* %eax.global-to-local, align 8
  %v1_3455 = trunc i32 %v0_3455 to i8
  %v2_3455 = and i8 %v1_3455, 44
  %v3_3455 = icmp eq i8 %v2_3455, 0
  %v8_3455 = zext i8 %v2_3455 to i32
  %v10_3455 = and i32 %v0_3455, -256
  %v11_3455 = or i32 %v8_3455, %v10_3455
  store i32 %v11_3455, i32* %eax.global-to-local, align 8
  br i1 %v3_3455, label %bb, label %dec_label_pc_347e

bb:                                               ; preds = %dec_label_pc_344e
  %v4_3478 = call i32 @function_35b8(i32 0, i32 0, i32 0)
  store i32 %v4_3478, i32* %eax.global-to-local, align 8
  br label %dec_label_pc_347e

dec_label_pc_347e:                                ; preds = %bb, %dec_label_pc_344e
  store i32 0, i32* @eax, align 8
  %v1_3488 = call i32 @function_3509(i32 0)
  store i32 %v1_3488, i32* %eax.global-to-local, align 8
  ret i32 %v1_3488

; uselistorder directives
  uselistorder i32* %eax.global-to-local, { 1, 0, 2, 3 }
}

define i32 @function_3490(i32 %arg1, i32 %arg2, i32 %arg3, i32 %arg4, i32 %arg5, i32 %arg6) local_unnamed_addr {
dec_label_pc_3490:
  %v0_3490 = load i32, i32* @eax, align 8
  %v1_3490 = icmp eq i32 %v0_3490, 0
  br i1 %v1_3490, label %dec_label_pc_34d9, label %dec_label_pc_3494

dec_label_pc_3494:                                ; preds = %dec_label_pc_3490
  %v2_349b = inttoptr i32 %v0_3490 to i32*
  store i32 %arg1, i32* %v2_349b, align 4
  %v1_34a4 = load i32, i32* @eax, align 8
  %v2_34a4 = add i32 %v1_34a4, 4
  %v3_34a4 = inttoptr i32 %v2_34a4 to i32*
  store i32 %arg2, i32* %v3_34a4, align 4
  %v1_34ae = load i32, i32* @eax, align 8
  %v2_34ae = add i32 %v1_34ae, ptrtoint (double** @global_var_8.1773 to i32)
  %v3_34ae = inttoptr i32 %v2_34ae to i32*
  store i32 %arg3, i32* %v3_34ae, align 4
  %v1_34b8 = load i32, i32* @eax, align 8
  %v2_34b8 = add i32 %v1_34b8, ptrtoint (i8** @global_var_c.1790 to i32)
  %v3_34b8 = inttoptr i32 %v2_34b8 to i32*
  store i32 %arg4, i32* %v3_34b8, align 4
  %v1_34c2 = load i32, i32* @eax, align 8
  %v2_34c2 = add i32 %v1_34c2, ptrtoint (i8** @global_var_10.1772 to i32)
  %v3_34c2 = inttoptr i32 %v2_34c2 to i32*
  store i32 %arg5, i32* %v3_34c2, align 4
  %v1_34cc = load i32, i32* @eax, align 8
  %v2_34cc = add i32 %v1_34cc, 20
  %v3_34cc = inttoptr i32 %v2_34cc to i32*
  store i32 %arg6, i32* %v3_34cc, align 4
  %v1_34d6 = load i32, i32* @eax, align 8
  %v2_34d6 = add i32 %v1_34d6, 24
  %v3_34d6 = inttoptr i32 %v2_34d6 to i32*
  %v0_34d9.pre = load i32, i32* @eax, align 8
  %phitmp = add i32 %v0_34d9.pre, 28
  br label %dec_label_pc_34d9

dec_label_pc_34d9:                                ; preds = %dec_label_pc_3494, %dec_label_pc_3490
  %v0_34d9 = phi i32 [ %phitmp, %dec_label_pc_3494 ], [ 28, %dec_label_pc_3490 ]
  ret i32 %v0_34d9
}

define i32 @function_34ee() local_unnamed_addr {
dec_label_pc_34ee:
  %eax.global-to-local = alloca i32, align 4
  %v0_34ee = load i32, i32* %eax.global-to-local, align 8
  %v2_34ee = sub i32 %v0_34ee, zext (i8 ptrtoint (i8* @global_var_89.1792 to i8) to i32)
  %v16_34ee = and i32 %v2_34ee, 255
  %v18_34ee = and i32 %v0_34ee, -256
  %v19_34ee = or i32 %v16_34ee, %v18_34ee
  store i32 %v19_34ee, i32* %eax.global-to-local, align 8
  ret i32 %v19_34ee

; uselistorder directives
  uselistorder i32 %v0_34ee, { 1, 0 }
}

define i32 @function_3509(i32 %arg1) local_unnamed_addr {
dec_label_pc_3509:
  %stack_var_196 = alloca i32, align 4
  %stack_var_884 = alloca i32, align 4
  %v0_3509 = load i32, i32* @ebx, align 4
  %v1_350f = add i32 %v0_3509, ptrtoint (i8** @global_var_10.1772 to i32)
  %v2_350f = inttoptr i32 %v1_350f to i32*
  %v3_350f = load i32, i32* %v2_350f, align 4
  store i32 %v3_350f, i32* @esi, align 4
  %v1_3512 = add i32 %v0_3509, 28
  %v2_3512 = inttoptr i32 %v1_3512 to i32*
  %v3_3512 = load i32, i32* %v2_3512, align 4
  store i32 %v3_3512, i32* @edi, align 4
  %v1_351c = add i32 %v0_3509, 36
  %v2_351c = inttoptr i32 %v1_351c to i32*
  %v3_351c = load i32, i32* %v2_351c, align 4
  %v1_3526 = add i32 %v0_3509, 40
  %v2_3526 = inttoptr i32 %v1_3526 to i32*
  %v3_3526 = load i32, i32* %v2_3526, align 4
  %v1_3529 = add i32 %v0_3509, 32
  %v2_3529 = inttoptr i32 %v1_3529 to i32*
  %v3_3529 = load i32, i32* %v2_3529, align 4
  store i32 %v3_3529, i32* @ebp, align 4
  %v0_352c = load i32, i32* @eax, align 8
  %v15_352c = icmp eq i32 %v0_352c, %arg1
  store i32 %v3_351c, i32* %stack_var_884, align 4
  %v1_357c = icmp eq i1 %v15_352c, false
  br i1 %v1_357c, label %bb, label %dec_label_pc_3582

bb:                                               ; preds = %dec_label_pc_3509
  %v1_3509 = add i32 %v0_3509, 20
  %v2_3509 = inttoptr i32 %v1_3509 to i32*
  %v3_3541 = load i32, i32* %v2_3509, align 4
  %v1_350c = add i32 %v0_3509, 24
  %v2_350c = inttoptr i32 %v1_350c to i32*
  %v3_3537 = load i32, i32* %v2_350c, align 4
  %v8_357c = call i32 @function_3490(i32 %v3_351c, i32 %v3_3526, i32 %v3_350f, i32 %v3_3541, i32 %v3_3537, i32 %v3_3512)
  br label %dec_label_pc_3582

dec_label_pc_3582:                                ; preds = %bb, %dec_label_pc_3509
  %v0_3589 = phi i32 [ %v8_357c, %bb ], [ %v0_352c, %dec_label_pc_3509 ]
  %v2_3582 = ptrtoint i32* %stack_var_884 to i32
  %v4_359b = call i32 @_ZNSt6vectorISt4pairIx6CKeyIDESaIS2_EE13_M_insert_auxEN9__gnu_cxx17__normal_iteratorIPS2_S4_EERKS2_(i32* nonnull %stack_var_196, i32 %v0_3589, i32 %v2_3582)
  ret i32 %v4_359b

; uselistorder directives
  uselistorder i32 %v0_352c, { 1, 0 }
  uselistorder i32 %v0_3509, { 5, 6, 0, 2, 1, 4, 3 }
}

define i32 @function_35ab() local_unnamed_addr {
dec_label_pc_35ab:
  %eax.global-to-local = alloca i32, align 4
  %v0_35ab = load i32, i32* %eax.global-to-local, align 8
  %v2_35ab = sub i32 %v0_35ab, zext (i8 ptrtoint (i8* @global_var_89.1792 to i8) to i32)
  %v16_35ab = and i32 %v2_35ab, 255
  %v18_35ab = and i32 %v0_35ab, -256
  %v19_35ab = or i32 %v16_35ab, %v18_35ab
  store i32 %v19_35ab, i32* %eax.global-to-local, align 8
  ret i32 %v19_35ab

; uselistorder directives
  uselistorder i32 %v0_35ab, { 1, 0 }
}

define i32 @function_35b8(i32 %arg1, i32 %arg2, i32 %arg3) local_unnamed_addr {
dec_label_pc_35b8:
  %stack_var_88 = alloca i32, align 4
  %stack_var_84 = alloca i32, align 4
  %v2_35bc = ptrtoint i32* %stack_var_84 to i32
  %v2_35c7 = call i32 @_ZNSt8_Rb_treeI6CKeyIDSt4pairIKS0_xESt10_Select1stIS3_ESt4lessIS0_ESaIS3_EE8_M_eraseEPSt13_Rb_tree_nodeIS3_E(i32 %v2_35bc, i32 %arg1)
  store i32 %arg3, i32* @ebx, align 4
  %v2_35d3 = ptrtoint i32* %stack_var_88 to i32
  store i32 %arg2, i32* @esi, align 4
  %v2_35ee = sub i32 %arg3, %arg2
  %v12_35ee = icmp eq i32 %v2_35ee, 0
  br i1 %v12_35ee, label %dec_label_pc_365f, label %dec_label_pc_35fa

dec_label_pc_35fa:                                ; preds = %dec_label_pc_35b8
  store i32 %v2_35ee, i32* @edi, align 4
  %v2_3605 = ashr i32 %v2_35ee, ptrtoint (i8** @global_var_2.1786 to i32)
  %v3_3608 = mul i32 %v2_3605, -1227133513
  %v2_3615 = call i32 @llvm.ctlz.i32(i32 %v3_3608, i1 true)
  %v3_3615 = xor i32 %v2_3615, 31
  %v4_3615 = icmp eq i32 %v3_3608, 0
  %v3_3615.op = mul nuw nsw i32 %v3_3615, 2
  %v2_361d = select i1 %v4_3615, i32 0, i32 %v3_3615.op
  %v3_3623 = inttoptr i32 %arg2 to i32*
  %v4_3623 = call i32 @_ZSt16__introsort_loopIN9__gnu_cxx17__normal_iteratorIPSt4pairIx6CKeyIDESt6vectorIS4_SaIS4_EEEEiEvT_SA_T0_(i32* %v3_3623, i32 %arg3, i32 %v2_361d)
  %v0_3628 = load i32, i32* @edi, align 4
  %v7_362e = icmp sgt i32 %v0_3628, 475
  br i1 %v7_362e, label %dec_label_pc_3634, label %bb

bb:                                               ; preds = %dec_label_pc_35fa
  %v8_362e = call i32 @function_3db8()
  br label %dec_label_pc_3634

dec_label_pc_3634:                                ; preds = %dec_label_pc_35fa, %bb
  %v0_3634 = load i32, i32* @esi, align 4
  %v1_3634 = add i32 %v0_3634, ptrtoint (i32* @global_var_1c0.1804 to i32)
  store i32 %v1_3634, i32* @edi, align 4
  %v2_3641 = inttoptr i32 %v0_3634 to i32*
  %v3_3641 = call i32 @_ZSt16__insertion_sortIN9__gnu_cxx17__normal_iteratorIPSt4pairIx6CKeyIDESt6vectorIS4_SaIS4_EEEEEvT_SA_(i32* %v2_3641, i32 %v1_3634)
  %v0_3646 = load i32, i32* @ebx, align 4
  %v1_3646 = load i32, i32* @edi, align 4
  %v12_3646 = icmp eq i32 %v0_3646, %v1_3646
  br i1 %v12_3646, label %dec_label_pc_365f, label %dec_label_pc_3650

dec_label_pc_3650:                                ; preds = %dec_label_pc_3634, %dec_label_pc_3650
  %v0_3650 = phi i32 [ %v1_365b, %dec_label_pc_3650 ], [ %v1_3646, %dec_label_pc_3634 ]
  %v1_3653 = add i32 %v0_3650, 28
  store i32 %v1_3653, i32* @edi, align 4
  %v1_3656 = inttoptr i32 %v0_3650 to i32*
  %v2_3656 = call i32 @_ZSt25__unguarded_linear_insertIN9__gnu_cxx17__normal_iteratorIPSt4pairIx6CKeyIDESt6vectorIS4_SaIS4_EEEEEvT_(i32* %v1_3656)
  %v0_365b = load i32, i32* @ebx, align 4
  %v1_365b = load i32, i32* @edi, align 4
  %v12_365b = icmp eq i32 %v0_365b, %v1_365b
  %v1_365d = icmp eq i1 %v12_365b, false
  br i1 %v1_365d, label %dec_label_pc_3650, label %dec_label_pc_365f

dec_label_pc_365f:                                ; preds = %dec_label_pc_3650, %dec_label_pc_3634, %dec_label_pc_35b8
  %v2_365d = phi i32 [ %v3_3641, %dec_label_pc_3634 ], [ %v2_35d3, %dec_label_pc_35b8 ], [ %v2_3656, %dec_label_pc_3650 ]
  ret i32 %v2_365d

; uselistorder directives
  uselistorder i32 %v0_3650, { 1, 0 }
  uselistorder i32 %v1_3646, { 1, 0 }
  uselistorder i32 %v2_35ee, { 1, 0, 2 }
  uselistorder i32 %arg3, { 0, 2, 1 }
  uselistorder i32 %arg2, { 0, 2, 1 }
  uselistorder label %dec_label_pc_3650, { 1, 0 }
  uselistorder label %dec_label_pc_3634, { 1, 0 }
}

define i32 @function_36cb() local_unnamed_addr {
dec_label_pc_36cb:
  %eax.global-to-local = alloca i32, align 4
  %v0_36cb = load i32, i32* %eax.global-to-local, align 8
  ret i32 %v0_36cb
}

define i32 @function_376f(i32 %arg1) local_unnamed_addr {
dec_label_pc_376f:
  %eax.global-to-local = alloca i32, align 4
  %ebp.global-to-local = alloca i32, align 4
  %ecx.global-to-local = alloca i32, align 4
  %edi.global-to-local = alloca i32, align 4
  %esi.global-to-local = alloca i32, align 4
  %v6_3774 = load i32, i32* %eax.global-to-local, align 8
  %v4_3777 = mul i32 %v6_3774, 2
  %v21_3777 = inttoptr i32 %v6_3774 to i32*
  store i32 %v4_3777, i32* %v21_3777, align 4
  %v0_3779 = load i32, i32* %ecx.global-to-local, align 4
  %v1_3779 = add i32 %v0_3779, -1928584124
  %v2_3779 = inttoptr i32 %v1_3779 to i8*
  %v3_3779 = load i8, i8* %v2_3779, align 1
  %v5_3779 = trunc i32 %v0_3779 to i8
  %v6_3779 = add i8 %v3_3779, %v5_3779
  store i8 %v6_3779, i8* %v2_3779, align 1
  %v0_377f = load i32, i32* %eax.global-to-local, align 8
  %v1_377f = and i32 %v0_377f, -65281
  %v2_377f = or i32 %v1_377f, 9216
  store i32 %v2_377f, i32* %eax.global-to-local, align 8
  %v1_3782 = inttoptr i32 %v2_377f to i8*
  %v2_3782 = load i8, i8* %v1_3782, align 1
  %v4_3782 = trunc i32 %v0_377f to i8
  %v5_3782 = add i8 %v2_3782, %v4_3782
  store i8 %v5_3782, i8* %v1_3782, align 1
  %v0_3784 = load i32, i32* %ebp.global-to-local, align 4
  %v1_3784 = add i32 %v0_3784, 72033412
  %v2_3784 = inttoptr i32 %v1_3784 to i8*
  %v3_3784 = load i8, i8* %v2_3784, align 1
  %v4_3784 = load i32, i32* %ecx.global-to-local, align 4
  %v5_3784 = trunc i32 %v4_3784 to i8
  %v6_3784 = add i8 %v5_3784, %v3_3784
  store i8 %v6_3784, i8* %v2_3784, align 1
  %v0_378a = load i32, i32* %eax.global-to-local, align 8
  %v1_378a = inttoptr i32 %v0_378a to i8*
  %v2_378a = load i8, i8* %v1_378a, align 1
  %v4_378a = trunc i32 %v0_378a to i8
  %v5_378a = add i8 %v2_378a, %v4_378a
  store i8 %v5_378a, i8* %v1_378a, align 1
  %v0_378c = load i32, i32* %eax.global-to-local, align 8
  %v0_3790 = load i32, i32* %edi.global-to-local, align 4
  %v0_3794 = load i32, i32* %esi.global-to-local, align 4
  %v4_3797 = call i32 @_ZNSsC1IPcEET_S1_RKSaIcE(i32 %v0_3794, i32 %v0_3790, i32 %v0_378c)
  store i32 %arg1, i32* %eax.global-to-local, align 8
  ret i32 %arg1

; uselistorder directives
  uselistorder i32 %v6_3774, { 1, 0 }
  uselistorder i32 %arg1, { 1, 0 }
}

define i32 @function_3985() local_unnamed_addr {
dec_label_pc_3985:
  %tmp = load i32, i32* @eax, align 8
  ret i32 %tmp
}

define i32 @function_3a3b() local_unnamed_addr {
dec_label_pc_3a3b:
  %eax.global-to-local = alloca i32, align 4
  %v0_3a3b = load i32, i32* %eax.global-to-local, align 8
  %v11_3a3b = and i32 %v0_3a3b, -24
  store i32 %v11_3a3b, i32* %eax.global-to-local, align 8
  ret i32 %v11_3a3b

; uselistorder directives
  uselistorder i32 %v11_3a3b, { 1, 0 }
}

define i32 @function_3a9a(i32 %arg1) local_unnamed_addr {
dec_label_pc_3a9a:
  %tmp = load i32, i32* @eax, align 8
  ret i32 %tmp
}

define i32 @function_3db8() local_unnamed_addr {
dec_label_pc_3db8:
  %v0_3db8 = load i32, i32* @ebx, align 4
  %v0_3dbc = load i32, i32* @esi, align 4
  %v2_3dbf = inttoptr i32 %v0_3dbc to i32*
  %v3_3dbf = call i32 @_ZSt16__insertion_sortIN9__gnu_cxx17__normal_iteratorIPSt4pairIx6CKeyIDESt6vectorIS4_SaIS4_EEEEEvT_SA_(i32* %v2_3dbf, i32 %v0_3db8)
  ret i32 %v3_3dbf
}

define i32 @function_3dc9() local_unnamed_addr {
dec_label_pc_3dc9:
  %stack_var_936 = alloca i32, align 4
  %tmp4 = call i32 @__decompiler_undefined_function_0()
  %stack_var_316 = alloca i32, align 4
  %stack_var_988 = alloca i32, align 4
  %tmp11 = call i32 @__decompiler_undefined_function_0()
  %v4_3dc9 = load i32, i32* @ebx, align 4
  %v15_3dc9 = icmp eq i32 %tmp11, %v4_3dc9
  br i1 %v15_3dc9, label %dec_label_pc_3df8, label %dec_label_pc_3dcf

dec_label_pc_3dcf:                                ; preds = %dec_label_pc_3dc9
  %v1_3dcf = add i32 %v4_3dc9, ptrtoint (i8** @global_var_10.1772 to i32)
  %v2_3dd6 = ptrtoint i32* %stack_var_988 to i32
  %v5_3deb = call i32 @_ZNKSt4lessIN5boost7variantI14CNoDestination6CKeyID9CScriptIDNS0_6detail7variant5void_ES7_S7_S7_S7_S7_S7_S7_S7_S7_S7_S7_S7_S7_S7_S7_S7_EEEclERKS8_SB_(i32* nonnull %stack_var_316, i32 %v2_3dd6, i32 %v1_3dcf)
  %v4_3df0 = trunc i32 %v5_3deb to i8
  %v5_3df0 = icmp eq i8 %v4_3df0, 0
  br i1 %v5_3df0, label %bb, label %dec_label_pc_3df8

bb:                                               ; preds = %dec_label_pc_3dcf
  %v1_3df2 = call i32 @function_3eb7()
  br label %dec_label_pc_3df8

dec_label_pc_3df8:                                ; preds = %bb, %dec_label_pc_3dcf, %dec_label_pc_3dc9
  %v2_3e06 = ptrtoint i32* %stack_var_936 to i32
  store i32 %v2_3e06, i32* @esi, align 4
  ret i32 %tmp4

; uselistorder directives
  uselistorder i32 %v4_3dc9, { 1, 0 }
}

define i32 @function_3eb7() local_unnamed_addr {
dec_label_pc_3eb7:
  %stack_var_596 = alloca i32, align 4
  %v2_3eb7 = ptrtoint i32* %stack_var_596 to i32
  ret i32 %v2_3eb7
}

define i32 @function_3f92() local_unnamed_addr {
dec_label_pc_3f92:
  %tmp = load i32, i32* @eax, align 8
  ret i32 %tmp
}

define i32 @function_4117() local_unnamed_addr {
dec_label_pc_4117:
  %eax.global-to-local = alloca i32, align 4
  %ebp.global-to-local = alloca i32, align 4
  %ebx.global-to-local = alloca i32, align 4
  %ecx.global-to-local = alloca i32, align 4
  %v0_4117 = load i32, i32* %ecx.global-to-local, align 4
  %v1_4117 = trunc i32 %v0_4117 to i8
  %v2_4117 = load i32, i32* %ebp.global-to-local, align 4
  %v3_4117 = add i32 %v2_4117, -1802952624
  %v4_4117 = inttoptr i32 %v3_4117 to i8*
  %v5_4117 = load i8, i8* %v4_4117, align 1
  %v6_4117 = or i8 %v5_4117, %v1_4117
  %v12_4117 = zext i8 %v6_4117 to i32
  %v14_4117 = and i32 %v0_4117, -256
  %v15_4117 = or i32 %v12_4117, %v14_4117
  store i32 %v15_4117, i32* %ecx.global-to-local, align 4
  %v0_411d = load i32, i32* %eax.global-to-local, align 8
  %v1_411d = trunc i32 %v0_411d to i8
  %v2_411d = and i8 %v1_411d, -100
  %v8_411d = zext i8 %v2_411d to i32
  %v10_411d = and i32 %v0_411d, -256
  %v11_411d = or i32 %v8_411d, %v10_411d
  store i32 %v11_411d, i32* %eax.global-to-local, align 8
  %v1_411f = inttoptr i32 %v11_411d to i8*
  %v2_411f = load i8, i8* %v1_411f, align 4
  %v5_411f = add i8 %v2_411f, %v2_411d
  store i8 %v5_411f, i8* %v1_411f, align 4
  %v0_4121 = load i32, i32* %ecx.global-to-local, align 4
  %v1_4121 = inttoptr i32 %v0_4121 to i8*
  %v2_4121 = load i8, i8* %v1_4121, align 1
  %v3_4121 = load i32, i32* %ebx.global-to-local, align 4
  %v4_4121 = lshr i32 %v3_4121, ptrtoint (double** @global_var_8.1773 to i32)
  %v5_4121 = trunc i32 %v4_4121 to i8
  %v6_4121 = add i8 %v5_4121, %v2_4121
  store i8 %v6_4121, i8* %v1_4121, align 1
  %v0_4123 = load i32, i32* %eax.global-to-local, align 8
  ret i32 %v0_4123
}

define i32 @function_41ac() local_unnamed_addr {
dec_label_pc_41ac:
  %eax.global-to-local = alloca i32, align 4
  %v0_41ac = load i32, i32* %eax.global-to-local, align 8
  ret i32 %v0_41ac
}

define i32 @function_41b5() local_unnamed_addr {
dec_label_pc_41b5:
  %tmp = load i32, i32* @eax, align 8
  ret i32 %tmp
}

define i32 @function_41e3() local_unnamed_addr {
dec_label_pc_41e3:
  %eax.global-to-local = alloca i32, align 4
  %v0_41e3 = load i32, i32* %eax.global-to-local, align 8
  ret i32 %v0_41e3
}

define i32 @function_4299(i32 %arg1) local_unnamed_addr {
dec_label_pc_4299:
  %tmp = load i32, i32* @eax, align 8
  ret i32 %tmp
}

define i32 @function_44cb() local_unnamed_addr {
dec_label_pc_44cb:
  %v4_44da = load i32, i32* @eax, align 8
  ret i32 %v4_44da
}

define i32 @function_458a() local_unnamed_addr {
dec_label_pc_458a:
  %tmp = load i32, i32* @eax, align 8
  ret i32 %tmp
}

define i32 @function_4668() local_unnamed_addr {
dec_label_pc_4668:
  %cf.global-to-local = alloca i1, align 1
  %eax.global-to-local = alloca i32, align 4
  %ebp.global-to-local = alloca i32, align 4
  %ebx.global-to-local = alloca i32, align 4
  %stack_var_0 = alloca i32, align 4
  %v0_4668 = load i32, i32* %ebx.global-to-local, align 4
  %v1_4668 = add i32 %v0_4668, -1959254972
  %v2_4668 = inttoptr i32 %v1_4668 to i32*
  %v3_4668 = load i32, i32* %v2_4668, align 4
  %v4_4668 = sub i32 %v3_4668, ptrtoint (i8** @global_var_1.1771 to i32)
  store i32 %v4_4668, i32* %v2_4668, align 4
  %v2_466e = ptrtoint i32* %stack_var_0 to i32
  store i1 false, i1* %cf.global-to-local, align 1
  store i32 %v2_466e, i32* %eax.global-to-local, align 8
  %v0_4673 = load i32, i32* %ebp.global-to-local, align 4
  %v1_4673 = add i32 %v0_4673, 51
  %v2_4673 = inttoptr i32 %v1_4673 to i8*
  %v3_4673 = load i8, i8* %v2_4673, align 1
  %v5_4673 = udiv i32 %v2_466e, 256
  %v6_4673 = trunc i32 %v5_4673 to i8
  %v7_4673 = add i8 %v3_4673, %v6_4673
  %v12_4673 = icmp ult i8 %v7_4673, %v3_4673
  store i1 %v12_4673, i1* %cf.global-to-local, align 1
  store i8 %v7_4673, i8* %v2_4673, align 1
  %v0_4676 = load i32, i32* %eax.global-to-local, align 8
  %v1_4676 = load i1, i1* %cf.global-to-local, align 1
  %v2_4676 = zext i1 %v1_4676 to i32
  %v3_4676 = add i32 %v0_4676, 20
  %v4_4676 = add i32 %v3_4676, %v2_4676
  %v14_4676 = icmp eq i32 %v4_4676, 0
  %v22_4676 = icmp ule i32 %v4_4676, %v0_4676
  %v23_4676 = icmp ugt i32 %v0_4676, -21
  %v24_4676 = select i1 %v1_4676, i1 %v22_4676, i1 %v23_4676
  store i1 %v24_4676, i1* %cf.global-to-local, align 1
  store i32 %v4_4676, i32* @eax, align 8
  %v1_467b = icmp eq i1 %v14_4676, false
  br i1 %v1_467b, label %bb, label %dec_label_pc_4681

bb:                                               ; preds = %dec_label_pc_4668
  %v2_467b = call i32 @function_535e()
  store i32 %v2_467b, i32* %eax.global-to-local, align 8
  br label %dec_label_pc_4681

dec_label_pc_4681:                                ; preds = %bb, %dec_label_pc_4668
  %v0_468b = phi i32 [ %v2_467b, %bb ], [ %v4_4676, %dec_label_pc_4668 ]
  %v0_4681 = load i32, i32* @esp, align 4
  %v1_4681 = add i32 %v0_4681, ptrtoint (i32* @global_var_45c.1806 to i32)
  %v5_4681 = icmp ult i32 %v1_4681, %v0_4681
  store i1 %v5_4681, i1* %cf.global-to-local, align 1
  %v1_4687 = inttoptr i32 %v1_4681 to i32*
  %v2_4687 = load i32, i32* %v1_4687, align 4
  store i32 %v2_4687, i32* %ebx.global-to-local, align 4
  %v3_4689 = add i32 %v0_4681, add (i32 ptrtoint (i32* @global_var_45c.1806 to i32), i32 12)
  %v1_468a = inttoptr i32 %v3_4689 to i32*
  %v2_468a = load i32, i32* %v1_468a, align 4
  store i32 %v2_468a, i32* %ebp.global-to-local, align 4
  ret i32 %v0_468b

; uselistorder directives
  uselistorder i32 %v4_4676, { 0, 2, 1, 3 }
  uselistorder i8 %v3_4673, { 1, 0 }
}

define i32 @function_46b1() local_unnamed_addr {
dec_label_pc_46b1:
  %v0_46b1 = call i32 @function_33af()
  ret i32 %v0_46b1
}

define i32 @function_46b6(i32 %arg1, i32 %arg2, i32 %arg3, i32 %arg4, i8 %arg5) local_unnamed_addr {
dec_label_pc_46b6:
  %v0_46b6 = load i32, i32* @esi, align 4
  %v15_46b6 = icmp eq i32 %v0_46b6, %arg1
  br i1 %v15_46b6, label %bb, label %dec_label_pc_46c0

bb:                                               ; preds = %dec_label_pc_46b6
  %v1_46ba = call i32 @function_4b00()
  %v0_46c4.pre = load i32, i32* @esi, align 4
  br label %dec_label_pc_46c0

dec_label_pc_46c0:                                ; preds = %bb, %dec_label_pc_46b6
  %v0_46c4 = phi i32 [ %v0_46c4.pre, %bb ], [ %v0_46b6, %dec_label_pc_46b6 ]
  %v1_46c4 = add i32 %v0_46c4, ptrtoint (i8** @global_var_10.1772 to i32)
  %v3_46ce = inttoptr i32 %arg2 to i32*
  %v4_46ce = call i32 @_ZltRK7uint160S1_(i32* %v3_46ce, i32 %v1_46c4)
  %v4_46d3 = trunc i32 %v4_46ce to i8
  %v5_46d3 = icmp eq i8 %v4_46d3, 0
  %v1_46d5 = icmp eq i1 %v5_46d3, false
  br i1 %v1_46d5, label %bb114, label %dec_label_pc_46db

bb114:                                            ; preds = %dec_label_pc_46c0
  %v2_46d5 = call i32 @function_4b00()
  br label %dec_label_pc_46db

dec_label_pc_46db:                                ; preds = %bb114, %dec_label_pc_46c0
  %v3_47284 = phi i32 [ %v2_46d5, %bb114 ], [ %v4_46ce, %dec_label_pc_46c0 ]
  %v10_46e9 = icmp eq i8 %arg5, 0
  br i1 %v10_46e9, label %bb115, label %dec_label_pc_4728

bb115:                                            ; preds = %dec_label_pc_46db
  %v3_4722 = call i32 @function_5425(i32 %arg4, i32 %arg3)
  br label %dec_label_pc_4728

dec_label_pc_4728:                                ; preds = %bb115, %dec_label_pc_46db
  %v3_4728 = phi i32 [ %v3_4722, %bb115 ], [ %v3_47284, %dec_label_pc_46db ]
  ret i32 %v3_4728

; uselistorder directives
  uselistorder i32 %v0_46b6, { 1, 0 }
  uselistorder i32 ()* @function_4b00, { 1, 0 }
}

define i32 @function_477a() local_unnamed_addr {
dec_label_pc_477a:
  %tmp = load i32, i32* @eax, align 8
  ret i32 %tmp
}

define i32 @function_4804() local_unnamed_addr {
dec_label_pc_4804:
  %eax.global-to-local = alloca i32, align 4
  %v0_4804 = load i32, i32* %eax.global-to-local, align 8
  ret i32 %v0_4804
}

define i32 @function_480d() local_unnamed_addr {
dec_label_pc_480d:
  %tmp = load i32, i32* @eax, align 8
  ret i32 %tmp
}

define i32 @function_483b() local_unnamed_addr {
dec_label_pc_483b:
  %eax.global-to-local = alloca i32, align 4
  %v0_483b = load i32, i32* %eax.global-to-local, align 8
  ret i32 %v0_483b
}

define i32 @function_48ef(i32 %arg1) local_unnamed_addr {
dec_label_pc_48ef:
  %tmp = load i32, i32* @eax, align 8
  ret i32 %tmp
}

define i32 @function_4ac7() local_unnamed_addr {
dec_label_pc_4ac7:
  %tmp = load i32, i32* @eax, align 8
  ret i32 %tmp
}

define i32 @function_4ae4() local_unnamed_addr {
dec_label_pc_4ae4:
  %eax.global-to-local = alloca i32, align 4
  %v4_4ae4 = load i32, i32* %eax.global-to-local, align 8
  ret i32 %v4_4ae4
}

define i32 @function_4afb() local_unnamed_addr {
dec_label_pc_4afb:
  %v0_4afb = call i32 @function_44cb()
  ret i32 %v0_4afb
}

define i32 @function_4b00() local_unnamed_addr {
dec_label_pc_4b00:
  %tmp7 = call i8 @__decompiler_undefined_function_2()
  %tmp8 = call i32 @__decompiler_undefined_function_0()
  %tmp9 = call i32 @__decompiler_undefined_function_0()
  %v10_4b0e = icmp eq i8 %tmp7, 0
  br i1 %v10_4b0e, label %bb, label %dec_label_pc_4b4d

bb:                                               ; preds = %dec_label_pc_4b00
  %v3_4b47 = call i32 @function_5425(i32 %tmp9, i32 %tmp8)
  br label %dec_label_pc_4b4d

dec_label_pc_4b4d:                                ; preds = %bb, %dec_label_pc_4b00
  %v3_4b4d = phi i32 [ %v3_4b47, %bb ], [ %tmp9, %dec_label_pc_4b00 ]
  ret i32 %v3_4b4d

; uselistorder directives
  uselistorder i32 (i32, i32)* @function_5425, { 1, 0 }
}

define i32 @function_4b94() local_unnamed_addr {
dec_label_pc_4b94:
  %eax.global-to-local = alloca i32, align 4
  %ebp.global-to-local = alloca i32, align 4
  %ebx.global-to-local = alloca i32, align 4
  %ecx.global-to-local = alloca i32, align 4
  %v0_4b94 = load i32, i32* %ecx.global-to-local, align 4
  %v1_4b94 = trunc i32 %v0_4b94 to i8
  %v2_4b94 = load i32, i32* %ebp.global-to-local, align 4
  %v3_4b94 = add i32 %v2_4b94, -1802952624
  %v4_4b94 = inttoptr i32 %v3_4b94 to i8*
  %v5_4b94 = load i8, i8* %v4_4b94, align 1
  %v6_4b94 = or i8 %v5_4b94, %v1_4b94
  %v12_4b94 = zext i8 %v6_4b94 to i32
  %v14_4b94 = and i32 %v0_4b94, -256
  %v15_4b94 = or i32 %v12_4b94, %v14_4b94
  store i32 %v15_4b94, i32* %ecx.global-to-local, align 4
  %v0_4b9a = load i32, i32* %eax.global-to-local, align 8
  %v1_4b9a = trunc i32 %v0_4b9a to i8
  %v2_4b9a = and i8 %v1_4b9a, ptrtoint (i8* @global_var_bc.1807 to i8)
  %v8_4b9a = zext i8 %v2_4b9a to i32
  %v10_4b9a = and i32 %v0_4b9a, -256
  %v11_4b9a = or i32 %v8_4b9a, %v10_4b9a
  store i32 %v11_4b9a, i32* %eax.global-to-local, align 8
  %v1_4b9c = inttoptr i32 %v11_4b9a to i8*
  %v2_4b9c = load i8, i8* %v1_4b9c, align 1
  %v5_4b9c = add i8 %v2_4b9c, %v2_4b9a
  store i8 %v5_4b9c, i8* %v1_4b9c, align 1
  %v0_4b9e = load i32, i32* %ecx.global-to-local, align 4
  %v1_4b9e = inttoptr i32 %v0_4b9e to i8*
  %v2_4b9e = load i8, i8* %v1_4b9e, align 1
  %v3_4b9e = load i32, i32* %ebx.global-to-local, align 4
  %v4_4b9e = lshr i32 %v3_4b9e, ptrtoint (double** @global_var_8.1773 to i32)
  %v5_4b9e = trunc i32 %v4_4b9e to i8
  %v6_4b9e = add i8 %v5_4b9e, %v2_4b9e
  store i8 %v6_4b9e, i8* %v1_4b9e, align 1
  %v0_4ba0 = load i32, i32* %eax.global-to-local, align 8
  ret i32 %v0_4ba0
}

define i32 @function_4c24() local_unnamed_addr {
dec_label_pc_4c24:
  %eax.global-to-local = alloca i32, align 4
  %v0_4c29 = load i32, i32* %eax.global-to-local, align 8
  ret i32 %v0_4c29
}

define i32 @function_4c32() local_unnamed_addr {
dec_label_pc_4c32:
  %tmp = load i32, i32* @eax, align 8
  ret i32 %tmp
}

define i32 @function_4c60() local_unnamed_addr {
dec_label_pc_4c60:
  %eax.global-to-local = alloca i32, align 4
  %v0_4c60 = load i32, i32* %eax.global-to-local, align 8
  ret i32 %v0_4c60
}

define i32 @function_4d14(i32 %arg1) local_unnamed_addr {
dec_label_pc_4d14:
  %tmp = load i32, i32* @eax, align 8
  ret i32 %tmp
}

define i32 @function_4eec() local_unnamed_addr {
dec_label_pc_4eec:
  %v0_4eec = call i32 @function_4ac7()
  ret i32 %v0_4eec
}

define i32 @function_4ef1(i32 %arg1, i32 %arg2, i32 %arg3, i32 %arg4) local_unnamed_addr {
dec_label_pc_4ef1:
  %edi.global-to-local = alloca i32, align 4
  %stack_var_988 = alloca i8*, align 4
  %v0_4ef1 = load i32, i32* %edi.global-to-local, align 4
  %v1_4ef4 = inttoptr i32 %v0_4ef1 to i32*
  %v2_4ef4 = call i32 @_ZN5boost7variantI14CNoDestination6CKeyID9CScriptIDNS_6detail7variant5void_ES6_S6_S6_S6_S6_S6_S6_S6_S6_S6_S6_S6_S6_S6_S6_S6_ED1Ev(i32* %v1_4ef4)
  store i32 %arg2, i32* @ebx, align 4
  store i32 %arg3, i32* %edi.global-to-local, align 4
  store i8* bitcast (i8** @global_var_1.1771 to i8*), i8** %stack_var_988, align 4
  %v2_4f5c = ptrtoint i8** %stack_var_988 to i32
  br label %dec_label_pc_4f5c

dec_label_pc_4f4f:                                ; preds = %dec_label_pc_4f5c
  store i32 %v0_4f4f, i32* @ebx, align 4
  %v1_4f51 = add i32 %v0_4f4f, ptrtoint (double** @global_var_8.1773 to i32)
  br label %dec_label_pc_4f54

dec_label_pc_4f54:                                ; preds = %dec_label_pc_4f4f, %dec_label_pc_4f7a
  %storemerge.in.in = phi i32 [ %v1_4f51, %dec_label_pc_4f4f ], [ %v1_4f7a, %dec_label_pc_4f7a ]
  %storemerge.in = inttoptr i32 %storemerge.in.in to i32*
  %storemerge = load i32, i32* %storemerge.in, align 4
  store i32 %storemerge, i32* @esi, align 4
  %v1_4f54 = icmp eq i32 %storemerge, 0
  br i1 %v1_4f54, label %bb, label %dec_label_pc_4f5c.backedge

dec_label_pc_4f5c.backedge:                       ; preds = %dec_label_pc_4f54, %bb
  %v0_4f6e.pre = load i32, i32* %edi.global-to-local, align 4
  br label %dec_label_pc_4f5c

bb:                                               ; preds = %dec_label_pc_4f54
  %v1_4f56 = call i32 @function_3dc9()
  br label %dec_label_pc_4f5c.backedge

dec_label_pc_4f5c:                                ; preds = %dec_label_pc_4f5c.backedge, %dec_label_pc_4ef1
  %v0_4f6e = phi i32 [ %v0_4f6e.pre, %dec_label_pc_4f5c.backedge ], [ %arg3, %dec_label_pc_4ef1 ]
  %v0_4f67 = load i32, i32* @esi, align 4
  %v1_4f67 = add i32 %v0_4f67, ptrtoint (i8** @global_var_10.1772 to i32)
  %v4_4f71 = inttoptr i32 %v0_4f6e to i32*
  %v5_4f71 = call i32 @_ZNKSt4lessIN5boost7variantI14CNoDestination6CKeyID9CScriptIDNS0_6detail7variant5void_ES7_S7_S7_S7_S7_S7_S7_S7_S7_S7_S7_S7_S7_S7_S7_S7_EEEclERKS8_SB_(i32* %v4_4f71, i32 %v1_4f67, i32 %v2_4f5c)
  %v4_4f76 = trunc i32 %v5_4f71 to i8
  %v5_4f76 = icmp eq i8 %v4_4f76, 0
  %v0_4f4f = load i32, i32* @esi, align 4
  br i1 %v5_4f76, label %dec_label_pc_4f4f, label %dec_label_pc_4f7a

dec_label_pc_4f7a:                                ; preds = %dec_label_pc_4f5c
  %v1_4f7a = add i32 %v0_4f4f, ptrtoint (i8** @global_var_c.1790 to i32)
  br label %dec_label_pc_4f54

; uselistorder directives
  uselistorder i32 %v0_4f4f, { 0, 2, 1 }
  uselistorder i8** %stack_var_988, { 1, 0 }
  uselistorder i32 (i32*, i32, i32)* @_ZNKSt4lessIN5boost7variantI14CNoDestination6CKeyID9CScriptIDNS0_6detail7variant5void_ES7_S7_S7_S7_S7_S7_S7_S7_S7_S7_S7_S7_S7_S7_S7_S7_EEEclERKS8_SB_, { 1, 0 }
  uselistorder label %dec_label_pc_4f5c.backedge, { 1, 0 }
  uselistorder label %dec_label_pc_4f54, { 1, 0 }
}

define i32 @function_4f7f() local_unnamed_addr {
dec_label_pc_4f7f:
  %ecx.global-to-local = alloca i32, align 4
  %edx.global-to-local = alloca i32, align 4
  %stack_var_184 = alloca i32, align 4
  %v1_4f84 = load i32, i32* %ecx.global-to-local, align 4
  %v2_4f84 = sub i32 32, %v1_4f84
  %v2_4f8a = ptrtoint i32* %stack_var_184 to i32
  %v0_4f91 = load i32, i32* @ebp, align 4
  %v0_4f95 = load i32, i32* %edx.global-to-local, align 4
  %v4_4f9c = inttoptr i32 %v0_4f91 to i8*
  %v5_4f9c = call i32 @_ZNSt6vectorIh25zero_after_free_allocatorIhEE14_M_fill_insertEN9__gnu_cxx17__normal_iteratorIPhS2_EEjRKh(i32 %v2_4f8a, i32 %v0_4f95, i32 %v2_4f84, i8* %v4_4f9c)
  %v0_4fa1 = load i32, i32* @ebx, align 4
  %v1_4fa1 = add i32 %v0_4fa1, ptrtoint (double** @global_var_8.1773 to i32)
  %v2_4fa1 = inttoptr i32 %v1_4fa1 to i32*
  %v3_4fa1 = load i32, i32* %v2_4fa1, align 4
  store i32 %v3_4fa1, i32* %edx.global-to-local, align 4
  %v1_4fa4 = add i32 %v0_4fa1, 4
  %v2_4fa4 = inttoptr i32 %v1_4fa4 to i32*
  %v3_4fa4 = load i32, i32* %v2_4fa4, align 4
  ret i32 %v3_4fa4
}

define i32 @function_4fac() local_unnamed_addr {
dec_label_pc_4fac:
  %v1_4fb6 = call i32 @function_3a9a(i32 0)
  ret i32 %v1_4fb6
}

define i32 @function_4fea() local_unnamed_addr {
dec_label_pc_4fea:
  %v0_4fea = call i32 @function_3f92()
  ret i32 %v0_4fea
}

define i32 @function_4fef() local_unnamed_addr {
dec_label_pc_4fef:
  %v1_4ff9 = call i32 @function_4d14(i32 0)
  ret i32 %v1_4ff9
}

define i32 @function_4ffe() local_unnamed_addr {
dec_label_pc_4ffe:
  %ecx.global-to-local = alloca i32, align 4
  %edx.global-to-local = alloca i32, align 4
  %stack_var_168 = alloca i32, align 4
  %v1_5003 = load i32, i32* %ecx.global-to-local, align 4
  %v2_5003 = sub i32 32, %v1_5003
  %v2_5009 = ptrtoint i32* %stack_var_168 to i32
  %v0_5010 = load i32, i32* @ebp, align 4
  %v0_5014 = load i32, i32* %edx.global-to-local, align 4
  %v4_501b = inttoptr i32 %v0_5010 to i8*
  %v5_501b = call i32 @_ZNSt6vectorIh25zero_after_free_allocatorIhEE14_M_fill_insertEN9__gnu_cxx17__normal_iteratorIPhS2_EEjRKh(i32 %v2_5009, i32 %v0_5014, i32 %v2_5003, i8* %v4_501b)
  %v0_5020 = load i32, i32* @ebx, align 4
  %v1_5020 = add i32 %v0_5020, ptrtoint (double** @global_var_8.1773 to i32)
  %v2_5020 = inttoptr i32 %v1_5020 to i32*
  %v3_5020 = load i32, i32* %v2_5020, align 4
  store i32 %v3_5020, i32* %edx.global-to-local, align 4
  %v1_5023 = add i32 %v0_5020, 4
  %v2_5023 = inttoptr i32 %v1_5023 to i32*
  %v3_5023 = load i32, i32* %v2_5023, align 4
  store i32 %v3_5023, i32* @eax, align 8
  %v0_5026 = call i32 @function_477a()
  ret i32 %v0_5026
}

define i32 @function_502b() local_unnamed_addr {
dec_label_pc_502b:
  %v1_5035 = call i32 @function_48ef(i32 0)
  ret i32 %v1_5035
}

define i32 @function_503a() local_unnamed_addr {
dec_label_pc_503a:
  %ecx.global-to-local = alloca i32, align 4
  %edx.global-to-local = alloca i32, align 4
  %stack_var_136 = alloca i32, align 4
  %v1_503f = load i32, i32* %ecx.global-to-local, align 4
  %v2_503f = sub i32 20, %v1_503f
  %v2_5041 = ptrtoint i32* %stack_var_136 to i32
  store i32 %v2_5041, i32* %ecx.global-to-local, align 4
  %v0_5048 = load i32, i32* @ebp, align 4
  %v0_5050 = load i32, i32* %edx.global-to-local, align 4
  %v4_5057 = inttoptr i32 %v0_5048 to i8*
  %v5_5057 = call i32 @_ZNSt6vectorIh25zero_after_free_allocatorIhEE14_M_fill_insertEN9__gnu_cxx17__normal_iteratorIPhS2_EEjRKh(i32 %v2_5041, i32 %v0_5050, i32 %v2_503f, i8* %v4_5057)
  %v0_505c = load i32, i32* @ebx, align 4
  %v1_505c = add i32 %v0_505c, ptrtoint (double** @global_var_8.1773 to i32)
  %v2_505c = inttoptr i32 %v1_505c to i32*
  %v3_505c = load i32, i32* %v2_505c, align 4
  store i32 %v3_505c, i32* %edx.global-to-local, align 4
  %v1_505f = add i32 %v0_505c, 4
  %v2_505f = inttoptr i32 %v1_505f to i32*
  %v3_505f = load i32, i32* %v2_505f, align 4
  store i32 %v3_505f, i32* @eax, align 8
  %v0_5062 = call i32 @function_3985()
  ret i32 %v0_5062
}

define i32 @function_5067() local_unnamed_addr {
dec_label_pc_5067:
  %ecx.global-to-local = alloca i32, align 4
  %edx.global-to-local = alloca i32, align 4
  %stack_var_152 = alloca i32, align 4
  %v1_506c = load i32, i32* %ecx.global-to-local, align 4
  %v2_506c = sub i32 32, %v1_506c
  %v2_5072 = ptrtoint i32* %stack_var_152 to i32
  %v0_5079 = load i32, i32* @ebp, align 4
  %v0_507d = load i32, i32* %edx.global-to-local, align 4
  %v4_5084 = inttoptr i32 %v0_5079 to i8*
  %v5_5084 = call i32 @_ZNSt6vectorIh25zero_after_free_allocatorIhEE14_M_fill_insertEN9__gnu_cxx17__normal_iteratorIPhS2_EEjRKh(i32 %v2_5072, i32 %v0_507d, i32 %v2_506c, i8* %v4_5084)
  %v0_5089 = load i32, i32* @ebx, align 4
  %v1_5089 = add i32 %v0_5089, ptrtoint (double** @global_var_8.1773 to i32)
  %v2_5089 = inttoptr i32 %v1_5089 to i32*
  %v3_5089 = load i32, i32* %v2_5089, align 4
  store i32 %v3_5089, i32* %edx.global-to-local, align 4
  %v1_508c = add i32 %v0_5089, 4
  %v2_508c = inttoptr i32 %v1_508c to i32*
  %v3_508c = load i32, i32* %v2_508c, align 4
  ret i32 %v3_508c
}

define i32 @function_5094() local_unnamed_addr {
dec_label_pc_5094:
  %v1_509e = call i32 @function_4299(i32 0)
  ret i32 %v1_509e
}

define i32 @function_50a5() local_unnamed_addr {
dec_label_pc_50a5:
  %tmp = load i32, i32* @eax, align 8
  ret i32 %tmp
}

define i32 @function_50b1() local_unnamed_addr {
dec_label_pc_50b1:
  %tmp = load i32, i32* @eax, align 8
  ret i32 %tmp
}

define i32 @function_50bb() local_unnamed_addr {
dec_label_pc_50bb:
  %tmp = load i32, i32* @eax, align 8
  ret i32 %tmp
}

define i32 @function_50ca() local_unnamed_addr {
dec_label_pc_50ca:
  %tmp = load i32, i32* @eax, align 8
  ret i32 %tmp
}

define i32 @function_50d9() local_unnamed_addr {
dec_label_pc_50d9:
  %tmp = load i32, i32* @eax, align 8
  ret i32 %tmp
}

define i32 @function_50e8() local_unnamed_addr {
dec_label_pc_50e8:
  %tmp = load i32, i32* @eax, align 8
  ret i32 %tmp
}

define i32 @function_50fb() local_unnamed_addr {
dec_label_pc_50fb:
  %tmp = load i32, i32* @eax, align 8
  ret i32 %tmp
}

define i32 @function_5123() local_unnamed_addr {
dec_label_pc_5123:
  %tmp = load i32, i32* @eax, align 8
  ret i32 %tmp
}

define i32 @function_5139() local_unnamed_addr {
dec_label_pc_5139:
  %ecx.global-to-local = alloca i32, align 4
  %st0.global-to-local = alloca x86_fp80, align 4
  %v0_5139 = load i32, i32* %ecx.global-to-local, align 4
  %v1_5139 = add i32 %v0_5139, 612666310
  %v2_5139 = inttoptr i32 %v1_5139 to i32*
  %v3_5139 = load i32, i32* %v2_5139, align 4
  %v4_5139 = add i32 %v3_5139, -1
  store i32 %v4_5139, i32* %v2_5139, align 4
  %v3_513f = load double, double* bitcast (i32* @eax to double*), align 8
  %v4_513f = fpext double %v3_513f to x86_fp80
  %v5_513f = load x86_fp80, x86_fp80* %st0.global-to-local, align 4
  %v6_513f = fadd x86_fp80 %v4_513f, %v5_513f
  store x86_fp80 %v6_513f, x86_fp80* %st0.global-to-local, align 4
  %tmp96 = bitcast double %v3_513f to i64
  %tmp97 = trunc i64 %tmp96 to i8
  %tmp98 = trunc i64 %tmp96 to i32
  %v5_5141 = mul i8 %tmp97, 2
  %v21_5141 = inttoptr i32 %tmp98 to i8*
  store i8 %v5_5141, i8* %v21_5141, align 1
  call void @_ZNSt12_Vector_baseIhSaIhEE13_M_deallocateEPhj(i32 ptrtoint (i32* @2 to i32), i8* bitcast (i32* @2 to i8*), i32 ptrtoint (i32* @2 to i32))
  store i32 ptrtoint (i32* @2 to i32), i32* @eax, align 8
  %v0_5148 = call i32 @function_50a5()
  ret i32 %v0_5148
}

define i32 @function_5157() local_unnamed_addr {
dec_label_pc_5157:
  %tmp = load i32, i32* @eax, align 8
  ret i32 %tmp
}

define i32 @function_5160() local_unnamed_addr {
dec_label_pc_5160:
  %eax.global-to-local = alloca i32, align 4
  %tmp91 = call i32 @__decompiler_undefined_function_0()
  %v1_5160 = add i32 %tmp91, 64758916
  %v2_5160 = inttoptr i32 %v1_5160 to i32*
  %v3_5160 = load i32, i32* %v2_5160, align 4
  %v4_5160 = add i32 %v3_5160, -1
  store i32 %v4_5160, i32* %v2_5160, align 4
  %v2_5166 = load i8, i8* bitcast (i32* @eax to i8*), align 8
  %v3_5166 = load i32, i32* %eax.global-to-local, align 8
  %v4_5166 = trunc i32 %v3_5166 to i8
  %v5_5166 = add i8 %v4_5166, %v2_5166
  %v21_5166 = inttoptr i32 %v3_5166 to i8*
  store i8 %v5_5166, i8* %v21_5166, align 1
  %v0_5168 = load i32, i32* %eax.global-to-local, align 8
  %v1_516b = inttoptr i32 %v0_5168 to i32*
  %v2_516b = call i32 @_ZN5boost7variantI14CNoDestination6CKeyID9CScriptIDNS_6detail7variant5void_ES6_S6_S6_S6_S6_S6_S6_S6_S6_S6_S6_S6_S6_S6_S6_S6_ED1Ev(i32* %v1_516b)
  store i32 %v2_516b, i32* @eax, align 8
  %v0_5170 = call i32 @function_50bb()
  store i32 %v0_5170, i32* %eax.global-to-local, align 8
  ret i32 %v0_5170
}

define i32 @function_5176() local_unnamed_addr {
dec_label_pc_5176:
  %eax.global-to-local = alloca i32, align 4
  %v0_5176 = load i32, i32* %eax.global-to-local, align 8
  ret i32 %v0_5176
}

define i32 @function_5177() local_unnamed_addr {
dec_label_pc_5177:
  %tmp = load i32, i32* @eax, align 8
  ret i32 %tmp
}

define i32 @function_5186() local_unnamed_addr {
dec_label_pc_5186:
  %eax.global-to-local = alloca i32, align 4
  %v0_5186 = load i32, i32* %eax.global-to-local, align 8
  ret i32 %v0_5186
}

define i32 @function_5194() local_unnamed_addr {
dec_label_pc_5194:
  %tmp = load i32, i32* @eax, align 8
  ret i32 %tmp
}

define i32 @function_51a2(i32 %arg1) local_unnamed_addr {
dec_label_pc_51a2:
  %ecx.global-to-local = alloca i32, align 4
  %v0_51a2 = load i32, i32* %ecx.global-to-local, align 4
  %v1_51a2 = add i32 %v0_51a2, 367535132
  %v2_51a2 = inttoptr i32 %v1_51a2 to i32*
  %v3_51a2 = load i32, i32* %v2_51a2, align 4
  %v4_51a2 = add i32 %v3_51a2, -1
  store i32 %v4_51a2, i32* %v2_51a2, align 4
  %v2_51a9 = load i8, i8* bitcast (i32* @eax to i8*), align 8
  %v3_51a9 = load i32, i32* @eax, align 8
  %v4_51a9 = trunc i32 %v3_51a9 to i8
  %v5_51a9 = add i8 %v4_51a9, %v2_51a9
  %v21_51a9 = inttoptr i32 %v3_51a9 to i8*
  store i8 %v5_51a9, i8* %v21_51a9, align 1
  %v0_51ab = call i32 @function_5157()
  ret i32 %v0_51ab
}

define i32 @function_51ad() local_unnamed_addr {
dec_label_pc_51ad:
  %tmp = load i32, i32* @eax, align 8
  ret i32 %tmp
}

define i32 @function_51b9() local_unnamed_addr {
dec_label_pc_51b9:
  %v0_51b9 = call i32 @function_5177()
  ret i32 %v0_51b9
}

define i32 @function_51bb() local_unnamed_addr {
dec_label_pc_51bb:
  %eax.global-to-local = alloca i32, align 4
  %v0_51bb = load i32, i32* %eax.global-to-local, align 8
  ret i32 %v0_51bb
}

define i32 @function_51c0() local_unnamed_addr {
dec_label_pc_51c0:
  %v0_51c0 = call i32 @function_51ad()
  ret i32 %v0_51c0
}

define i32 @function_51c2() local_unnamed_addr {
dec_label_pc_51c2:
  %eax.global-to-local = alloca i32, align 4
  %stack_var_152 = alloca i32, align 4
  %v0_51c9 = load i32, i32* %eax.global-to-local, align 8
  %v2_51cd = ptrtoint i32* %stack_var_152 to i32
  store i32 %v2_51cd, i32* %eax.global-to-local, align 8
  %v3_51db = inttoptr i32 %v0_51c9 to i8*
  %v4_51db = call i32 @_ZNSt6vectorIh25zero_after_free_allocatorIhEE13_M_insert_auxEN9__gnu_cxx17__normal_iteratorIPhS2_EERKh(i32 %v2_51cd, i8* %v3_51db)
  store i32 %v4_51db, i32* @eax, align 8
  %v0_51e0 = call i32 @function_41b5()
  store i32 %v0_51e0, i32* %eax.global-to-local, align 8
  ret i32 %v0_51e0
}

define i32 @function_51e5(i32 %arg1, i32 %arg2) local_unnamed_addr {
dec_label_pc_51e5:
  call void @_ZNSt12_Vector_baseIhSaIhEE13_M_deallocateEPhj(i32 ptrtoint (i32* @2 to i32), i8* bitcast (i32* @2 to i8*), i32 ptrtoint (i32* @2 to i32))
  call void @_ZNSt12_Vector_baseIhSaIhEE13_M_deallocateEPhj(i32 ptrtoint (i32* @2 to i32), i8* bitcast (i32* @2 to i8*), i32 ptrtoint (i32* @2 to i32))
  ret i32 ptrtoint (i32* @2 to i32)
}

define i32 @function_5201() local_unnamed_addr {
dec_label_pc_5201:
  %eax.global-to-local = alloca i32, align 4
  %v0_5201 = load i32, i32* %eax.global-to-local, align 8
  ret i32 %v0_5201
}

define i32 @function_5205() local_unnamed_addr {
dec_label_pc_5205:
  %eax.global-to-local = alloca i32, align 4
  %v0_5205 = load i32, i32* %eax.global-to-local, align 8
  ret i32 %v0_5205
}

define i32 @function_5209(i32 %arg1) local_unnamed_addr {
dec_label_pc_5209:
  %eax.global-to-local = alloca i32, align 4
  %ebx.global-to-local = alloca i32, align 4
  %v0_5209 = load i32, i32* %eax.global-to-local, align 8
  store i32 %arg1, i32* %eax.global-to-local, align 8
  call void @_ZNSt12_Vector_baseIhSaIhEE13_M_deallocateEPhj(i32 ptrtoint (i32* @2 to i32), i8* bitcast (i32* @2 to i8*), i32 ptrtoint (i32* @2 to i32))
  store i32 ptrtoint (i32* @2 to i32), i32* %eax.global-to-local, align 8
  %v0_5217 = load i32, i32* %ebx.global-to-local, align 4
  store i32 %v0_5209, i32* %ebx.global-to-local, align 4
  %v1_521c = call i32 @_ZN11CBase58DataD1Ev(i32 %v0_5217)
  store i32 %v1_521c, i32* @eax, align 8
  %v0_5221 = call i32 @function_50bb()
  store i32 %v0_5221, i32* %eax.global-to-local, align 8
  ret i32 %v0_5221
}

define i32 @function_5226() local_unnamed_addr {
dec_label_pc_5226:
  %eax.global-to-local = alloca i32, align 4
  %ebx.global-to-local = alloca i32, align 4
  %v0_5226 = load i32, i32* %eax.global-to-local, align 8
  %v0_5228 = load i32, i32* %ebx.global-to-local, align 4
  store i32 %v0_5226, i32* %ebx.global-to-local, align 4
  %v1_522d = call i32 @_ZN11CBase58DataD1Ev(i32 %v0_5228)
  store i32 %v1_522d, i32* @eax, align 8
  %v0_5232 = call i32 @function_50bb()
  store i32 %v0_5232, i32* %eax.global-to-local, align 8
  ret i32 %v0_5232
}

define i32 @function_5237() local_unnamed_addr {
dec_label_pc_5237:
  %v0_5239 = call i32 @function_50b1()
  ret i32 %v0_5239
}

define i32 @function_523e() local_unnamed_addr {
dec_label_pc_523e:
  %eax.global-to-local = alloca i32, align 4
  %stack_var_168 = alloca i32, align 4
  %v0_5245 = load i32, i32* %eax.global-to-local, align 8
  %v2_5249 = ptrtoint i32* %stack_var_168 to i32
  store i32 %v2_5249, i32* %eax.global-to-local, align 8
  %v3_5257 = inttoptr i32 %v0_5245 to i8*
  %v4_5257 = call i32 @_ZNSt6vectorIh25zero_after_free_allocatorIhEE13_M_insert_auxEN9__gnu_cxx17__normal_iteratorIPhS2_EERKh(i32 %v2_5249, i8* %v3_5257)
  store i32 %v4_5257, i32* @eax, align 8
  %v0_525c = call i32 @function_480d()
  store i32 %v0_525c, i32* %eax.global-to-local, align 8
  ret i32 %v0_525c
}

define i32 @function_5261() local_unnamed_addr {
dec_label_pc_5261:
  %v0_5263 = call i32 @function_5194()
  ret i32 %v0_5263
}

define i32 @function_5268() local_unnamed_addr {
dec_label_pc_5268:
  %v0_5270 = call i32 @function_5157()
  ret i32 %v0_5270

; uselistorder directives
  uselistorder i32 ()* @function_5157, { 1, 0 }
}

define i32 @function_5275() local_unnamed_addr {
dec_label_pc_5275:
  %eax.global-to-local = alloca i32, align 4
  %v0_5275 = load i32, i32* %eax.global-to-local, align 8
  ret i32 %v0_5275
}

define i32 @function_5279() local_unnamed_addr {
dec_label_pc_5279:
  %eax.global-to-local = alloca i32, align 4
  %stack_var_184 = alloca i32, align 4
  %v0_5280 = load i32, i32* %eax.global-to-local, align 8
  %v2_5284 = ptrtoint i32* %stack_var_184 to i32
  store i32 %v2_5284, i32* %eax.global-to-local, align 8
  %v3_5292 = inttoptr i32 %v0_5280 to i8*
  %v4_5292 = call i32 @_ZNSt6vectorIh25zero_after_free_allocatorIhEE13_M_insert_auxEN9__gnu_cxx17__normal_iteratorIPhS2_EERKh(i32 %v2_5284, i8* %v3_5292)
  store i32 %v4_5292, i32* @eax, align 8
  %v0_5297 = call i32 @function_4c32()
  store i32 %v0_5297, i32* %eax.global-to-local, align 8
  ret i32 %v0_5297
}

define i32 @function_529d() local_unnamed_addr {
dec_label_pc_529d:
  %eax.global-to-local = alloca i32, align 4
  %v0_529d = load i32, i32* %eax.global-to-local, align 8
  ret i32 %v0_529d
}

define i32 @function_52ae() local_unnamed_addr {
dec_label_pc_52ae:
  %tmp = load i32, i32* @eax, align 8
  ret i32 %tmp
}

define i32 @function_52bd() local_unnamed_addr {
dec_label_pc_52bd:
  %eax.global-to-local = alloca i32, align 4
  %v0_52bd = load i32, i32* %eax.global-to-local, align 8
  ret i32 %v0_52bd
}

define i32 @function_52c2() local_unnamed_addr {
dec_label_pc_52c2:
  %stack_var_912 = alloca i32, align 4
  %v2_52ce = call i32 @_ZN5boost7variantI14CNoDestination6CKeyID9CScriptIDNS_6detail7variant5void_ES6_S6_S6_S6_S6_S6_S6_S6_S6_S6_S6_S6_S6_S6_S6_S6_ED1Ev(i32* nonnull %stack_var_912)
  store i32 %v2_52ce, i32* @eax, align 8
  %v0_52d3 = call i32 @function_52ae()
  ret i32 %v0_52d3
}

define i32 @function_52d5() local_unnamed_addr {
dec_label_pc_52d5:
  %v0_52d7 = call i32 @function_50ca()
  ret i32 %v0_52d7
}

define i32 @function_52e4() local_unnamed_addr {
dec_label_pc_52e4:
  %eax.global-to-local = alloca i32, align 4
  %v0_52e4 = load i32, i32* %eax.global-to-local, align 8
  ret i32 %v0_52e4
}

define i32 @function_52ec() local_unnamed_addr {
dec_label_pc_52ec:
  %eax.global-to-local = alloca i32, align 4
  %tmp91 = call i32 @__decompiler_undefined_function_0()
  %v1_52ec = add i32 %tmp91, 61613188
  %v2_52ec = inttoptr i32 %v1_52ec to i32*
  %v3_52ec = load i32, i32* %v2_52ec, align 4
  %v4_52ec = add i32 %v3_52ec, -1
  store i32 %v4_52ec, i32* %v2_52ec, align 4
  %v2_52f2 = load i8, i8* bitcast (i32* @eax to i8*), align 8
  %v3_52f2 = load i32, i32* %eax.global-to-local, align 8
  %v4_52f2 = trunc i32 %v3_52f2 to i8
  %v5_52f2 = add i8 %v4_52f2, %v2_52f2
  %v21_52f2 = inttoptr i32 %v3_52f2 to i8*
  store i8 %v5_52f2, i8* %v21_52f2, align 1
  %v0_52f4 = load i32, i32* %eax.global-to-local, align 8
  %v1_52f7 = inttoptr i32 %v0_52f4 to i32*
  %v2_52f7 = call i32 @_ZN5boost7variantI14CNoDestination6CKeyID9CScriptIDNS_6detail7variant5void_ES6_S6_S6_S6_S6_S6_S6_S6_S6_S6_S6_S6_S6_S6_S6_S6_ED1Ev(i32* %v1_52f7)
  store i32 %v2_52f7, i32* @eax, align 8
  %v0_52fc = call i32 @function_50d9()
  store i32 %v0_52fc, i32* %eax.global-to-local, align 8
  ret i32 %v0_52fc

; uselistorder directives
  uselistorder i32 (i32*)* @_ZN5boost7variantI14CNoDestination6CKeyID9CScriptIDNS_6detail7variant5void_ES6_S6_S6_S6_S6_S6_S6_S6_S6_S6_S6_S6_S6_S6_S6_S6_ED1Ev, { 0, 1, 2, 6, 3, 4, 5 }
}

define i32 @function_5324() local_unnamed_addr {
dec_label_pc_5324:
  %v0_5324 = call i32 @function_458a()
  ret i32 %v0_5324
}

define i32 @function_5329() local_unnamed_addr {
dec_label_pc_5329:
  %v0_532b = call i32 @function_50bb()
  ret i32 %v0_532b
}

define i32 @function_5330(i32 %arg1) local_unnamed_addr {
dec_label_pc_5330:
  %eax.global-to-local = alloca i32, align 4
  %ebx.global-to-local = alloca i32, align 4
  %v0_5330 = load i32, i32* %eax.global-to-local, align 8
  store i32 %arg1, i32* %eax.global-to-local, align 8
  call void @_ZNSt12_Vector_baseIhSaIhEE13_M_deallocateEPhj(i32 ptrtoint (i32* @2 to i32), i8* bitcast (i32* @2 to i8*), i32 ptrtoint (i32* @2 to i32))
  store i32 ptrtoint (i32* @2 to i32), i32* %eax.global-to-local, align 8
  %v0_533e = load i32, i32* %ebx.global-to-local, align 4
  store i32 %v0_5330, i32* %ebx.global-to-local, align 4
  %v1_5343 = call i32 @_ZN11CBase58DataD1Ev(i32 %v0_533e)
  store i32 %v1_5343, i32* %eax.global-to-local, align 8
  ret i32 %v1_5343
}

define i32 @function_534a() local_unnamed_addr {
dec_label_pc_534a:
  %eax.global-to-local = alloca i32, align 4
  %v0_534a = load i32, i32* %eax.global-to-local, align 8
  ret i32 %v0_534a
}

define i32 @function_534e(i32 %arg1) local_unnamed_addr {
dec_label_pc_534e:
  call void @_ZNSt12_Vector_baseIhSaIhEE13_M_deallocateEPhj(i32 ptrtoint (i32* @2 to i32), i8* bitcast (i32* @2 to i8*), i32 ptrtoint (i32* @2 to i32))
  ret i32 ptrtoint (i32* @2 to i32)
}

define i32 @function_535e() local_unnamed_addr {
dec_label_pc_535e:
  %tmp = load i32, i32* @eax, align 8
  ret i32 %tmp
}

define i32 @function_5364() local_unnamed_addr {
dec_label_pc_5364:
  %eax.global-to-local = alloca i32, align 4
  %v0_5364 = load i32, i32* %eax.global-to-local, align 8
  ret i32 %v0_5364
}

define i32 @function_5365() local_unnamed_addr {
dec_label_pc_5365:
  %tmp = load i32, i32* @eax, align 8
  ret i32 %tmp
}

define i32 @function_53b0() local_unnamed_addr {
dec_label_pc_53b0:
  %eax.global-to-local = alloca i32, align 4
  %v0_53b0 = load i32, i32* %eax.global-to-local, align 8
  ret i32 %v0_53b0
}

define i32 @function_53b9() local_unnamed_addr {
dec_label_pc_53b9:
  %v0_53b9 = call i32 @function_5365()
  ret i32 %v0_53b9
}

define i32 @function_53bb() local_unnamed_addr {
dec_label_pc_53bb:
  %eax.global-to-local = alloca i32, align 4
  %ebx.global-to-local = alloca i32, align 4
  %v0_53bb = load i32, i32* %eax.global-to-local, align 8
  %v0_53bd = load i32, i32* %ebx.global-to-local, align 4
  store i32 %v0_53bb, i32* %ebx.global-to-local, align 4
  %v1_53c2 = call i32 @_ZN11CBase58DataD1Ev(i32 %v0_53bd)
  store i32 %v1_53c2, i32* @eax, align 8
  %v0_53c7 = call i32 @function_50bb()
  store i32 %v0_53c7, i32* %eax.global-to-local, align 8
  ret i32 %v0_53c7

; uselistorder directives
  uselistorder i32 ()* @function_50bb, { 4, 3, 2, 1, 0 }
}

define i32 @function_53cc() local_unnamed_addr {
dec_label_pc_53cc:
  %eax.global-to-local = alloca i32, align 4
  %ebx.global-to-local = alloca i32, align 4
  %v0_53cc = load i32, i32* %eax.global-to-local, align 8
  %v0_53ce = load i32, i32* %ebx.global-to-local, align 4
  store i32 %v0_53cc, i32* %ebx.global-to-local, align 4
  %v1_53d3 = call i32 @_ZN11CBase58DataD1Ev(i32 %v0_53ce)
  store i32 %v1_53d3, i32* %eax.global-to-local, align 8
  ret i32 %v1_53d3

; uselistorder directives
  uselistorder i32 (i32)* @_ZN11CBase58DataD1Ev, { 7, 6, 5, 4, 3, 2, 1, 0 }
}

define i32 @function_53dd() local_unnamed_addr {
dec_label_pc_53dd:
  %tmp = load i32, i32* @eax, align 8
  ret i32 %tmp
}

define i32 @function_53e9() local_unnamed_addr {
dec_label_pc_53e9:
  %tmp = load i32, i32* @eax, align 8
  ret i32 %tmp
}

define i32 @function_53f1() local_unnamed_addr {
dec_label_pc_53f1:
  %v0_53f1 = call i32 @function_50e8()
  ret i32 %v0_53f1
}

define i32 @function_53f6() local_unnamed_addr {
dec_label_pc_53f6:
  %v0_53f8 = call i32 @function_53e9()
  ret i32 %v0_53f8
}

define i32 @function_5400() local_unnamed_addr {
dec_label_pc_5400:
  %v0_5400 = call i32 @function_53dd()
  ret i32 %v0_5400
}

define i32 @function_5402() local_unnamed_addr {
dec_label_pc_5402:
  %v0_5402 = call i32 @function_53f6()
  ret i32 %v0_5402
}

define i32 @function_5404() local_unnamed_addr {
dec_label_pc_5404:
  %v0_5404 = call i32 @function_53dd()
  ret i32 %v0_5404

; uselistorder directives
  uselistorder i32 ()* @function_53dd, { 1, 0 }
}

define i32 @function_5410() local_unnamed_addr {
dec_label_pc_5410:
  %v0_5410 = call i32 @function_53f6()
  ret i32 %v0_5410

; uselistorder directives
  uselistorder i32 ()* @function_53f6, { 1, 0 }
}

define i32 @function_5412(i32 %arg1) local_unnamed_addr {
dec_label_pc_5412:
  call void @_ZNSt12_Vector_baseIhSaIhEE13_M_deallocateEPhj(i32 ptrtoint (i32* @2 to i32), i8* bitcast (i32* @2 to i8*), i32 ptrtoint (i32* @2 to i32))
  ret i32 ptrtoint (i32* @2 to i32)

; uselistorder directives
  uselistorder void (i32, i8*, i32)* @_ZNSt12_Vector_baseIhSaIhEE13_M_deallocateEPhj, { 9, 8, 7, 6, 5, 4, 3, 2, 1, 0 }
}

define i32 @function_5425(i32 %arg1, i32 %arg2) local_unnamed_addr {
dec_label_pc_5425:
  %v0_5425 = call i32 @_ZN14CBitcoinSecretC2ERK4CKey.part.667()
  store i32 %v0_5425, i32* @esi, align 4
  ret i32 %v0_5425

; uselistorder directives
  uselistorder i32 ()* @_ZN14CBitcoinSecretC2ERK4CKey.part.667, { 1, 0 }
}

define i32 @function_5436() local_unnamed_addr {
dec_label_pc_5436:
  %tmp = load i32, i32* @eax, align 8
  ret i32 %tmp
}

define i32 @function_543e() local_unnamed_addr {
dec_label_pc_543e:
  %eax.global-to-local = alloca i32, align 4
  %v0_543e = load i32, i32* %eax.global-to-local, align 8
  ret i32 %v0_543e
}

define i32 @function_5443() local_unnamed_addr {
dec_label_pc_5443:
  %v0_5445 = call i32 @function_5436()
  ret i32 %v0_5445
}

define i32 @function_5453() local_unnamed_addr {
dec_label_pc_5453:
  %tmp = load i32, i32* @eax, align 8
  ret i32 %tmp
}

define i32 @function_5463() local_unnamed_addr {
dec_label_pc_5463:
  %v0_5465 = call i32 @function_5453()
  ret i32 %v0_5465
}

define i32 @function_5473() local_unnamed_addr {
dec_label_pc_5473:
  %tmp = load i32, i32* @eax, align 8
  ret i32 %tmp
}

define i32 @function_547b() local_unnamed_addr {
dec_label_pc_547b:
  %v0_547b = call i32 @function_50b1()
  ret i32 %v0_547b

; uselistorder directives
  uselistorder i32 ()* @function_50b1, { 1, 0 }
}

define i32 @function_5480() local_unnamed_addr {
dec_label_pc_5480:
  %v0_5482 = call i32 @function_5473()
  ret i32 %v0_5482
}

define i32 @function_5490() local_unnamed_addr {
dec_label_pc_5490:
  %v0_5490 = call i32 @function_50e8()
  ret i32 %v0_5490
}

define i32 @function_5495() local_unnamed_addr {
dec_label_pc_5495:
  %v0_5497 = call i32 @function_50e8()
  ret i32 %v0_5497

; uselistorder directives
  uselistorder i32 ()* @function_50e8, { 2, 1, 0 }
}

define i32 @function_549c() local_unnamed_addr {
dec_label_pc_549c:
  %v0_54a0 = call i32 @function_50fb()
  ret i32 %v0_54a0
}

define i32 @function_550c() local_unnamed_addr {
dec_label_pc_550c:
  %v0_550e = call i32 @function_5123()
  ret i32 %v0_550e
}

define i32 @function_5514() local_unnamed_addr {
dec_label_pc_5514:
  %eax.global-to-local = alloca i32, align 4
  %v0_5514 = load i32, i32* %eax.global-to-local, align 8
  ret i32 %v0_5514
}

define i32 @function_5526() local_unnamed_addr {
dec_label_pc_5526:
  %tmp = load i32, i32* @eax, align 8
  ret i32 %tmp
}

define i32 @function_552d() local_unnamed_addr {
dec_label_pc_552d:
  %eax.global-to-local = alloca i32, align 4
  %v0_552d = load i32, i32* %eax.global-to-local, align 8
  ret i32 %v0_552d
}

define i32 @function_5545() local_unnamed_addr {
dec_label_pc_5545:
  %tmp = load i32, i32* @eax, align 8
  ret i32 %tmp
}

define i32 @function_555c() local_unnamed_addr {
dec_label_pc_555c:
  %v0_555c = call i32 @function_5526()
  ret i32 %v0_555c
}

define i32 @function_555e() local_unnamed_addr {
dec_label_pc_555e:
  %v0_5560 = call i32 @function_5545()
  ret i32 %v0_5560
}

define i32 @function_556e() local_unnamed_addr {
dec_label_pc_556e:
  %tmp = load i32, i32* @eax, align 8
  ret i32 %tmp
}

define i32 @function_5576() local_unnamed_addr {
dec_label_pc_5576:
  %v0_5576 = call i32 @function_5123()
  ret i32 %v0_5576

; uselistorder directives
  uselistorder i32 ()* @function_5123, { 1, 0 }
}

define i32 @function_557b() local_unnamed_addr {
dec_label_pc_557b:
  %v0_5580 = call i32 @function_556e()
  ret i32 %v0_5580
}

define i32 @_ZN5boost16exception_detail10clone_baseD1Ev() local_unnamed_addr {
dec_label_pc_5590:
  %eax.global-to-local = alloca i32, align 4
  %tmp96 = load i32, i32* %eax.global-to-local, align 8
  ret i32 %tmp96
}

define i32 @function_5591(i32* %arg1) local_unnamed_addr {
dec_label_pc_5591:
  %cf.global-to-local = alloca i1, align 1
  %eax.global-to-local = alloca i32, align 4
  %v0_5592 = load i32, i32* %eax.global-to-local, align 8
  %v2_5592 = load i1, i1* %cf.global-to-local, align 1
  %v3_5592 = zext i1 %v2_5592 to i32
  %v4_5592 = add i32 %v0_5592, sub (i32 0, i32 zext (i8 ptrtoint (i8* @global_var_65.1808 to i8) to i32))
  %v5_5592 = add i32 %v4_5592, %v3_5592
  %v31_5592 = urem i32 %v5_5592, 256
  %v33_5592 = and i32 %v0_5592, -256
  %v34_5592 = or i32 %v31_5592, %v33_5592
  store i32 %v34_5592, i32* %eax.global-to-local, align 8
  %v0_5594 = load i32, i32* inttoptr (i32 20 to i32*), align 4
  store i32 ptrtoint (i32* @global_var_1fcc0.1809 to i32), i32* %arg1, align 4
  store i32 %v0_5594, i32* %eax.global-to-local, align 8
  store i1 false, i1* %cf.global-to-local, align 1
  store i32 0, i32* %eax.global-to-local, align 8
  br i1 false, label %dec_label_pc_55ba, label %dec_label_pc_55b6

dec_label_pc_55b6:                                ; preds = %dec_label_pc_5591
  %v0_55b6 = load i32, i32* @esp, align 4
  %v5_55b6 = icmp ugt i32 %v0_55b6, -29
  store i1 %v5_55b6, i1* %cf.global-to-local, align 1
  ret i32 0

dec_label_pc_55ba:                                ; preds = %dec_label_pc_5591
  ret i32 0

; uselistorder directives
  uselistorder i32 %v0_5592, { 1, 0 }
}

define i32 @_ZNK5boost10lock_error4whatEv() {
dec_label_pc_5930:
  br i1 false, label %dec_label_pc_5955, label %dec_label_pc_5951

dec_label_pc_5951:                                ; preds = %dec_label_pc_5930
  ret i32 ptrtoint ([18 x i8]* @global_var_55bf.1810 to i32)

dec_label_pc_5955:                                ; preds = %dec_label_pc_5930
  ret i32 ptrtoint ([18 x i8]* @global_var_55bf.1810 to i32)
}

define i32 @_ZN5boost6detail15sp_counted_baseD1Ev(i32* %arg1) local_unnamed_addr {
dec_label_pc_5960:
  store i32 ptrtoint (i32* @global_var_206c0.1811 to i32), i32* %arg1, align 4
  br i1 false, label %dec_label_pc_598a, label %dec_label_pc_5986

dec_label_pc_5986:                                ; preds = %dec_label_pc_5960
  ret i32 0

dec_label_pc_598a:                                ; preds = %dec_label_pc_5960
  ret i32 0
}

define i32 @_ZN5boost6detail15sp_counted_base7destroyEv(i32* %arg1) {
dec_label_pc_5990:
  %v1_59a4 = icmp eq i32* %arg1, null
  br i1 %v1_59a4, label %dec_label_pc_59c8, label %dec_label_pc_59a8

dec_label_pc_59a8:                                ; preds = %dec_label_pc_5990
  br i1 false, label %dec_label_pc_59d9, label %dec_label_pc_59b5

dec_label_pc_59b5:                                ; preds = %dec_label_pc_59a8
  %v2_59b5 = load i32, i32* %arg1, align 4
  %v1_59bb = add i32 %v2_59b5, 4
  %v2_59bb = inttoptr i32 %v1_59bb to i32*
  %v3_59bb = load i32, i32* %v2_59bb, align 4
  ret i32 %v3_59bb

dec_label_pc_59c8:                                ; preds = %dec_label_pc_5990
  br i1 false, label %dec_label_pc_59d9, label %dec_label_pc_59d5

dec_label_pc_59d5:                                ; preds = %dec_label_pc_59c8
  ret i32 0

dec_label_pc_59d9:                                ; preds = %dec_label_pc_59c8, %dec_label_pc_59a8
  ret i32 undef
}

define i32 @_ZN5boost6system14error_categoryD1Ev(i32* %arg1) local_unnamed_addr {
dec_label_pc_59f0:
  store i32 ptrtoint (i32* @global_var_1b238.1812 to i32), i32* %arg1, align 4
  br i1 false, label %dec_label_pc_5a1a, label %dec_label_pc_5a16

dec_label_pc_5a16:                                ; preds = %dec_label_pc_59f0
  ret i32 0

dec_label_pc_5a1a:                                ; preds = %dec_label_pc_59f0
  ret i32 0
}

define i32 @_ZNK5boost6system14error_category23default_error_conditionEi(i32* %arg1, i32 %arg2, i32 %arg3) local_unnamed_addr {
dec_label_pc_5a20:
  %eax.global-to-local = alloca i32, align 4
  %tmp101 = ptrtoint i32* %arg1 to i32
  store i32 %tmp101, i32* %eax.global-to-local, align 8
  store i32 %arg3, i32* %arg1, align 4
  %v2_5a3e = add i32 %tmp101, 4
  %v3_5a3e = inttoptr i32 %v2_5a3e to i32*
  store i32 %arg2, i32* %v3_5a3e, align 4
  br i1 false, label %dec_label_pc_5a54, label %dec_label_pc_5a4e

dec_label_pc_5a4e:                                ; preds = %dec_label_pc_5a20
  %v0_5a51 = load i32, i32* %eax.global-to-local, align 8
  ret i32 %v0_5a51

dec_label_pc_5a54:                                ; preds = %dec_label_pc_5a20
  ret i32 undef
}

define i32 @_ZNK5boost6system14error_category10equivalentEiRKNS0_15error_conditionE(i32* %arg1, i32 %arg2, i32 %arg3) local_unnamed_addr {
dec_label_pc_5a60:
  %tmp98 = call i32 @__decompiler_undefined_function_0()
  %tmp99 = call i32 @__decompiler_undefined_function_0()
  %tmp106 = call i32 @__decompiler_undefined_function_0()
  %v1_5a9b = add i32 %arg3, 4
  %v2_5a9b = inttoptr i32 %v1_5a9b to i32*
  %v3_5a9b = load i32, i32* %v2_5a9b, align 4
  %v15_5a9b = icmp eq i32 %v3_5a9b, %tmp106
  br i1 %v15_5a9b, label %dec_label_pc_5ab8, label %dec_label_pc_5aa4

dec_label_pc_5aa4:                                ; preds = %dec_label_pc_5ab8, %dec_label_pc_5a60
  %v0_5abf = phi i32 [ %v1_5aba, %dec_label_pc_5ab8 ], [ 0, %dec_label_pc_5a60 ]
  %v1_5aa8 = load i32, i32* inttoptr (i32 20 to i32*), align 4
  %v3_5aa8 = icmp eq i32 %v1_5aa8, %tmp98
  %v1_5aaf = icmp eq i1 %v3_5aa8, false
  br i1 %v1_5aaf, label %dec_label_pc_5abf, label %dec_label_pc_5ab1

dec_label_pc_5ab1:                                ; preds = %dec_label_pc_5aa4
  ret i32 %v0_5abf

dec_label_pc_5ab8:                                ; preds = %dec_label_pc_5a60
  %v1_5ab8 = inttoptr i32 %arg3 to i32*
  %v2_5ab8 = load i32, i32* %v1_5ab8, align 4
  %v14_5ab8 = icmp eq i32 %v2_5ab8, %tmp99
  %v1_5aba = zext i1 %v14_5ab8 to i32
  br label %dec_label_pc_5aa4

dec_label_pc_5abf:                                ; preds = %dec_label_pc_5aa4
  ret i32 %v0_5abf
}

define i32 @_ZNK5boost6system14error_category10equivalentERKNS0_10error_codeEi(i32 %arg1, i32* %arg2, i32 %arg3) local_unnamed_addr {
dec_label_pc_5ad0:
  %ebx.global-to-local = alloca i32, align 4
  %tmp102 = ptrtoint i32* %arg2 to i32
  %v0_5ad0 = load i32, i32* %ebx.global-to-local, align 4
  store i32 %arg1, i32* %ebx.global-to-local, align 4
  %v1_5aec = add i32 %tmp102, 4
  %v2_5aec = inttoptr i32 %v1_5aec to i32*
  %v3_5aec = load i32, i32* %v2_5aec, align 4
  %v15_5aec = icmp eq i32 %v3_5aec, %arg1
  br i1 %v15_5aec, label %dec_label_pc_5b08, label %dec_label_pc_5af1

dec_label_pc_5af1:                                ; preds = %dec_label_pc_5b08, %dec_label_pc_5ad0
  %v0_5b0f = phi i32 [ %v1_5b0a, %dec_label_pc_5b08 ], [ 0, %dec_label_pc_5ad0 ]
  br i1 false, label %dec_label_pc_5b0f, label %dec_label_pc_5afe

dec_label_pc_5afe:                                ; preds = %dec_label_pc_5af1
  store i32 %v0_5ad0, i32* %ebx.global-to-local, align 4
  ret i32 %v0_5b0f

dec_label_pc_5b08:                                ; preds = %dec_label_pc_5ad0
  %v2_5b08 = load i32, i32* %arg2, align 4
  %v14_5b08 = icmp eq i32 %v2_5b08, %arg3
  %v1_5b0a = zext i1 %v14_5b08 to i32
  br label %dec_label_pc_5af1

dec_label_pc_5b0f:                                ; preds = %dec_label_pc_5af1
  ret i32 %v0_5b0f
}

define i32 @_ZNK5boost7bad_get4whatEv() {
dec_label_pc_6140:
  br i1 false, label %dec_label_pc_6165, label %dec_label_pc_6161

dec_label_pc_6161:                                ; preds = %dec_label_pc_6140
  ret i32 ptrtoint ([50 x i8]* @global_var_5b14.1813 to i32)

dec_label_pc_6165:                                ; preds = %dec_label_pc_6140
  ret i32 ptrtoint ([50 x i8]* @global_var_5b14.1813 to i32)
}

define i32 @_ZNK5boost16bad_lexical_cast4whatEv() {
dec_label_pc_6170:
  br i1 false, label %dec_label_pc_6195, label %dec_label_pc_6191

dec_label_pc_6191:                                ; preds = %dec_label_pc_6170
  ret i32 ptrtoint ([71 x i8]* @global_var_5b48.1814 to i32)

dec_label_pc_6195:                                ; preds = %dec_label_pc_6170
  ret i32 ptrtoint ([71 x i8]* @global_var_5b48.1814 to i32)
}

define i32 @_ZN5boost6detail17sp_counted_impl_pINS_16exception_detail10clone_implINS2_10bad_alloc_EEEED1Ev(i32* %arg1) {
dec_label_pc_61a0:
  store i32 ptrtoint (i32* @global_var_206c0.1811 to i32), i32* %arg1, align 4
  br i1 false, label %dec_label_pc_61ca, label %dec_label_pc_61c6

dec_label_pc_61c6:                                ; preds = %dec_label_pc_61a0
  ret i32 0

dec_label_pc_61ca:                                ; preds = %dec_label_pc_61a0
  ret i32 0
}

define i32 @_ZN5boost6detail17sp_counted_impl_pINS_16exception_detail10clone_implINS2_10bad_alloc_EEEE7disposeEv(i32 %arg1) {
dec_label_pc_61d0:
  %v1_61e3 = add i32 %arg1, ptrtoint (i8** @global_var_c.1790 to i32)
  %v2_61e3 = inttoptr i32 %v1_61e3 to i32*
  %v3_61e3 = load i32, i32* %v2_61e3, align 4
  %v1_61e6 = icmp eq i32 %v3_61e3, 0
  br i1 %v1_61e6, label %dec_label_pc_6208, label %dec_label_pc_61ea

dec_label_pc_61ea:                                ; preds = %dec_label_pc_61d0
  br i1 false, label %dec_label_pc_6219, label %dec_label_pc_61f7

dec_label_pc_61f7:                                ; preds = %dec_label_pc_61ea
  %v1_61f7 = inttoptr i32 %v3_61e3 to i32*
  %v2_61f7 = load i32, i32* %v1_61f7, align 4
  %v1_61fd = add i32 %v2_61f7, 4
  %v2_61fd = inttoptr i32 %v1_61fd to i32*
  %v3_61fd = load i32, i32* %v2_61fd, align 4
  ret i32 %v3_61fd

dec_label_pc_6208:                                ; preds = %dec_label_pc_61d0
  br i1 false, label %dec_label_pc_6219, label %dec_label_pc_6215

dec_label_pc_6215:                                ; preds = %dec_label_pc_6208
  ret i32 0

dec_label_pc_6219:                                ; preds = %dec_label_pc_6208, %dec_label_pc_61ea
  ret i32 undef
}

define i32 @_ZN5boost6detail17sp_counted_impl_pINS_16exception_detail10clone_implINS2_10bad_alloc_EEEE11get_deleterERKSt9type_info() {
dec_label_pc_6230:
  br i1 false, label %dec_label_pc_6250, label %dec_label_pc_624c

dec_label_pc_624c:                                ; preds = %dec_label_pc_6230
  ret i32 0

dec_label_pc_6250:                                ; preds = %dec_label_pc_6230
  ret i32 0
}

define i32 @_ZN5boost6detail17sp_counted_impl_pINS_16exception_detail10clone_implINS2_10bad_alloc_EEEED0Ev(i32* %arg1) {
dec_label_pc_6260:
  %tmp99 = ptrtoint i32* %arg1 to i32
  store i32 %tmp99, i32* @eax, align 8
  store i32 ptrtoint (i32* @global_var_206c0.1811 to i32), i32* %arg1, align 4
  br i1 false, label %bb, label %dec_label_pc_6260.dec_label_pc_6287_crit_edge

dec_label_pc_6260.dec_label_pc_6287_crit_edge:    ; preds = %dec_label_pc_6260
  %v17_628b.pre = load i32, i32* @eax, align 8
  br label %dec_label_pc_6287

bb:                                               ; preds = %dec_label_pc_6260
  br label %dec_label_pc_6287

dec_label_pc_6287:                                ; preds = %dec_label_pc_6260.dec_label_pc_6287_crit_edge, %bb
  %v17_628b = phi i32 [ %v17_628b.pre, %dec_label_pc_6260.dec_label_pc_6287_crit_edge ], [ undef, %bb ]
  ret i32 %v17_628b

; uselistorder directives
  uselistorder label %dec_label_pc_6287, { 1, 0 }
}

define i32 @function_6293(i32 %arg1) local_unnamed_addr {
dec_label_pc_6293:
  %tmp = load i32, i32* @eax, align 8
  ret i32 %tmp
}

define i32 @_ZN5boost6detail15sp_counted_baseD0Ev(i32* %arg1) local_unnamed_addr {
dec_label_pc_62a0:
  %tmp99 = ptrtoint i32* %arg1 to i32
  store i32 %tmp99, i32* @eax, align 8
  store i32 ptrtoint (i32* @global_var_206c0.1811 to i32), i32* %arg1, align 4
  br i1 false, label %bb, label %dec_label_pc_62a0.dec_label_pc_62c7_crit_edge

dec_label_pc_62a0.dec_label_pc_62c7_crit_edge:    ; preds = %dec_label_pc_62a0
  %v17_62cb.pre = load i32, i32* @eax, align 8
  br label %dec_label_pc_62c7

bb:                                               ; preds = %dec_label_pc_62a0
  br label %dec_label_pc_62c7

dec_label_pc_62c7:                                ; preds = %dec_label_pc_62a0.dec_label_pc_62c7_crit_edge, %bb
  %v17_62cb = phi i32 [ %v17_62cb.pre, %dec_label_pc_62a0.dec_label_pc_62c7_crit_edge ], [ undef, %bb ]
  ret i32 %v17_62cb

; uselistorder directives
  uselistorder label %dec_label_pc_62c7, { 1, 0 }
}

define i32 @function_62d3(i32 %arg1) local_unnamed_addr {
dec_label_pc_62d3:
  %tmp = load i32, i32* @eax, align 8
  ret i32 %tmp
}

define i32 @_ZN5boost16exception_detail10clone_baseD0Ev(i32* %arg1) local_unnamed_addr {
dec_label_pc_62e0:
  %tmp99 = ptrtoint i32* %arg1 to i32
  store i32 %tmp99, i32* @eax, align 8
  store i32 ptrtoint (i32* @global_var_1fcc0.1809 to i32), i32* %arg1, align 4
  br i1 false, label %bb, label %dec_label_pc_62e0.dec_label_pc_6307_crit_edge

dec_label_pc_62e0.dec_label_pc_6307_crit_edge:    ; preds = %dec_label_pc_62e0
  %v17_630b.pre = load i32, i32* @eax, align 8
  br label %dec_label_pc_6307

bb:                                               ; preds = %dec_label_pc_62e0
  br label %dec_label_pc_6307

dec_label_pc_6307:                                ; preds = %dec_label_pc_62e0.dec_label_pc_6307_crit_edge, %bb
  %v17_630b = phi i32 [ %v17_630b.pre, %dec_label_pc_62e0.dec_label_pc_6307_crit_edge ], [ undef, %bb ]
  ret i32 %v17_630b

; uselistorder directives
  uselistorder label %dec_label_pc_6307, { 1, 0 }
}

define i32 @function_6313(i32 %arg1) local_unnamed_addr {
dec_label_pc_6313:
  %tmp = load i32, i32* @eax, align 8
  ret i32 %tmp
}

define i32 @_ZN5boost6system14error_categoryD0Ev(i32* %arg1) local_unnamed_addr {
dec_label_pc_6320:
  %tmp99 = ptrtoint i32* %arg1 to i32
  store i32 %tmp99, i32* @eax, align 8
  store i32 ptrtoint (i32* @global_var_1b238.1812 to i32), i32* %arg1, align 4
  br i1 false, label %bb, label %dec_label_pc_6320.dec_label_pc_6347_crit_edge

dec_label_pc_6320.dec_label_pc_6347_crit_edge:    ; preds = %dec_label_pc_6320
  %v17_634b.pre = load i32, i32* @eax, align 8
  br label %dec_label_pc_6347

bb:                                               ; preds = %dec_label_pc_6320
  br label %dec_label_pc_6347

dec_label_pc_6347:                                ; preds = %dec_label_pc_6320.dec_label_pc_6347_crit_edge, %bb
  %v17_634b = phi i32 [ %v17_634b.pre, %dec_label_pc_6320.dec_label_pc_6347_crit_edge ], [ undef, %bb ]
  ret i32 %v17_634b

; uselistorder directives
  uselistorder label %dec_label_pc_6347, { 1, 0 }
}

define i32 @function_6353(i32 %arg1) local_unnamed_addr {
dec_label_pc_6353:
  %tmp = load i32, i32* @eax, align 8
  ret i32 %tmp
}

define i32 @_ZN5boost17bad_function_callD1Ev(i32* %arg1) {
dec_label_pc_6360:
  %tmp99 = ptrtoint i32* %arg1 to i32
  store i32 %tmp99, i32* @eax, align 8
  store i32 ptrtoint (%vtable_1fdb8_type* @global_var_1fdb8.1815 to i32), i32* %arg1, align 4
  br i1 false, label %bb, label %dec_label_pc_6360.dec_label_pc_6387_crit_edge

dec_label_pc_6360.dec_label_pc_6387_crit_edge:    ; preds = %dec_label_pc_6360
  %v17_638b.pre = load i32, i32* @eax, align 8
  br label %dec_label_pc_6387

bb:                                               ; preds = %dec_label_pc_6360
  br label %dec_label_pc_6387

dec_label_pc_6387:                                ; preds = %dec_label_pc_6360.dec_label_pc_6387_crit_edge, %bb
  %v17_638b = phi i32 [ %v17_638b.pre, %dec_label_pc_6360.dec_label_pc_6387_crit_edge ], [ undef, %bb ]
  ret i32 %v17_638b

; uselistorder directives
  uselistorder label %dec_label_pc_6387, { 1, 0 }
}

define i32 @function_6393(i32 %arg1) local_unnamed_addr {
dec_label_pc_6393:
  %tmp = load i32, i32* @eax, align 8
  ret i32 %tmp
}

define i32 @_ZN12bignum_errorD1Ev(i32* %arg1) {
dec_label_pc_63a0:
  %tmp99 = ptrtoint i32* %arg1 to i32
  store i32 %tmp99, i32* @eax, align 8
  store i32 ptrtoint (%vtable_1fc28_type* @global_var_1fc28.1816 to i32), i32* %arg1, align 4
  br i1 false, label %bb, label %dec_label_pc_63a0.dec_label_pc_63c7_crit_edge

dec_label_pc_63a0.dec_label_pc_63c7_crit_edge:    ; preds = %dec_label_pc_63a0
  %v17_63cb.pre = load i32, i32* @eax, align 8
  br label %dec_label_pc_63c7

bb:                                               ; preds = %dec_label_pc_63a0
  br label %dec_label_pc_63c7

dec_label_pc_63c7:                                ; preds = %dec_label_pc_63a0.dec_label_pc_63c7_crit_edge, %bb
  %v17_63cb = phi i32 [ %v17_63cb.pre, %dec_label_pc_63a0.dec_label_pc_63c7_crit_edge ], [ undef, %bb ]
  ret i32 %v17_63cb

; uselistorder directives
  uselistorder label %dec_label_pc_63c7, { 1, 0 }
}

define i32 @function_63d3(i32 %arg1) local_unnamed_addr {
dec_label_pc_63d3:
  %tmp = load i32, i32* @eax, align 8
  ret i32 %tmp
}

define i32 @_ZN5boost6system12system_errorD1Ev(i32* %arg1) {
dec_label_pc_63e0:
  %ebx.global-to-local = alloca i32, align 4
  %tmp100 = ptrtoint i32* %arg1 to i32
  %v0_63e0 = load i32, i32* %ebx.global-to-local, align 4
  store i32 %tmp100, i32* %ebx.global-to-local, align 4
  store i32 ptrtoint (%vtable_1b260_type* @global_var_1b260.1817 to i32), i32* %arg1, align 4
  store i32 0, i32* @eax, align 8
  br i1 false, label %bb, label %dec_label_pc_6412

bb:                                               ; preds = %dec_label_pc_63e0
  br label %dec_label_pc_6412

dec_label_pc_6412:                                ; preds = %bb, %dec_label_pc_63e0
  store i32 %v0_63e0, i32* %ebx.global-to-local, align 4
  ret i32 0
}

define i32 @function_641f(i32 %arg1) local_unnamed_addr {
dec_label_pc_641f:
  %v0_641f = load i32, i32* @eax, align 8
  ret i32 %v0_641f
}

define i32 @_ZThn24_NK5boost16exception_detail10clone_implINS0_10bad_alloc_EE7rethrowEv(i32 %arg1) local_unnamed_addr {
dec_label_pc_6430:
  %v4_6430 = add i32 %arg1, -24
  %v1_6435 = call i32 @_ZNK5boost16exception_detail10clone_implINS0_10bad_alloc_EE7rethrowEv(i32 %v4_6430)
  ret i32 %v1_6435
}

define i32 @_ZNK5boost16exception_detail10clone_implINS0_10bad_alloc_EE7rethrowEv(i32 %arg1) {
dec_label_pc_6440:
  ret i32 0
}

define i32 @function_6462() local_unnamed_addr {
dec_label_pc_6462:
  %eax.global-to-local = alloca i32, align 4
  %v0_6462 = load i32, i32* %eax.global-to-local, align 8
  ret i32 %v0_6462
}

define i32 @_ZN5boost16thread_exceptionD1Ev(i32* %arg1) {
dec_label_pc_77e0:
  %tmp99 = ptrtoint i32* %arg1 to i32
  store i32 %tmp99, i32* @eax, align 8
  store i32 ptrtoint (%vtable_1fc48_type* @global_var_1fc48.1818 to i32), i32* %arg1, align 4
  br i1 false, label %bb, label %dec_label_pc_77e0.dec_label_pc_7807_crit_edge

dec_label_pc_77e0.dec_label_pc_7807_crit_edge:    ; preds = %dec_label_pc_77e0
  %v17_780b.pre = load i32, i32* @eax, align 8
  br label %dec_label_pc_7807

bb:                                               ; preds = %dec_label_pc_77e0
  br label %dec_label_pc_7807

dec_label_pc_7807:                                ; preds = %dec_label_pc_77e0.dec_label_pc_7807_crit_edge, %bb
  %v17_780b = phi i32 [ %v17_780b.pre, %dec_label_pc_77e0.dec_label_pc_7807_crit_edge ], [ undef, %bb ]
  ret i32 %v17_780b

; uselistorder directives
  uselistorder label %dec_label_pc_7807, { 1, 0 }
}

define i32 @function_7813(i32 %arg1) local_unnamed_addr {
dec_label_pc_7813:
  %tmp = load i32, i32* @eax, align 8
  ret i32 %tmp
}

define i32 @_ZN5boost7bad_getD1Ev(i32* %arg1) {
dec_label_pc_7820:
  %tmp99 = ptrtoint i32* %arg1 to i32
  store i32 %tmp99, i32* @eax, align 8
  store i32 ptrtoint (%vtable_1fc08_type* @global_var_1fc08.1819 to i32), i32* %arg1, align 4
  br i1 false, label %bb, label %dec_label_pc_7820.dec_label_pc_7847_crit_edge

dec_label_pc_7820.dec_label_pc_7847_crit_edge:    ; preds = %dec_label_pc_7820
  %v17_784b.pre = load i32, i32* @eax, align 8
  br label %dec_label_pc_7847

bb:                                               ; preds = %dec_label_pc_7820
  br label %dec_label_pc_7847

dec_label_pc_7847:                                ; preds = %dec_label_pc_7820.dec_label_pc_7847_crit_edge, %bb
  %v17_784b = phi i32 [ %v17_784b.pre, %dec_label_pc_7820.dec_label_pc_7847_crit_edge ], [ undef, %bb ]
  ret i32 %v17_784b

; uselistorder directives
  uselistorder label %dec_label_pc_7847, { 1, 0 }
}

define i32 @function_7853(i32 %arg1) local_unnamed_addr {
dec_label_pc_7853:
  %tmp = load i32, i32* @eax, align 8
  ret i32 %tmp
}

define i32 @_ZN5boost9gregorian16bad_day_of_monthD1Ev(i32* %arg1) {
dec_label_pc_7860:
  %tmp99 = ptrtoint i32* %arg1 to i32
  store i32 %tmp99, i32* @eax, align 8
  store i32 ptrtoint (%vtable_1ff88_type* @global_var_1ff88.1820 to i32), i32* %arg1, align 4
  br i1 false, label %bb, label %dec_label_pc_7860.dec_label_pc_7887_crit_edge

dec_label_pc_7860.dec_label_pc_7887_crit_edge:    ; preds = %dec_label_pc_7860
  %v17_788b.pre = load i32, i32* @eax, align 8
  br label %dec_label_pc_7887

bb:                                               ; preds = %dec_label_pc_7860
  br label %dec_label_pc_7887

dec_label_pc_7887:                                ; preds = %dec_label_pc_7860.dec_label_pc_7887_crit_edge, %bb
  %v17_788b = phi i32 [ %v17_788b.pre, %dec_label_pc_7860.dec_label_pc_7887_crit_edge ], [ undef, %bb ]
  ret i32 %v17_788b

; uselistorder directives
  uselistorder label %dec_label_pc_7887, { 1, 0 }
}

define i32 @function_7893(i32 %arg1) local_unnamed_addr {
dec_label_pc_7893:
  %tmp = load i32, i32* @eax, align 8
  ret i32 %tmp
}

define i32 @_ZN5boost9gregorian11bad_weekdayD1Ev(i32* %arg1) {
dec_label_pc_78a0:
  %tmp99 = ptrtoint i32* %arg1 to i32
  store i32 %tmp99, i32* @eax, align 8
  store i32 ptrtoint (%vtable_20398_type* @global_var_20398.1821 to i32), i32* %arg1, align 4
  br i1 false, label %bb, label %dec_label_pc_78a0.dec_label_pc_78c7_crit_edge

dec_label_pc_78a0.dec_label_pc_78c7_crit_edge:    ; preds = %dec_label_pc_78a0
  %v17_78cb.pre = load i32, i32* @eax, align 8
  br label %dec_label_pc_78c7

bb:                                               ; preds = %dec_label_pc_78a0
  br label %dec_label_pc_78c7

dec_label_pc_78c7:                                ; preds = %dec_label_pc_78a0.dec_label_pc_78c7_crit_edge, %bb
  %v17_78cb = phi i32 [ %v17_78cb.pre, %dec_label_pc_78a0.dec_label_pc_78c7_crit_edge ], [ undef, %bb ]
  ret i32 %v17_78cb

; uselistorder directives
  uselistorder label %dec_label_pc_78c7, { 1, 0 }
}

define i32 @function_78d3(i32 %arg1) local_unnamed_addr {
dec_label_pc_78d3:
  %tmp = load i32, i32* @eax, align 8
  ret i32 %tmp
}

define i32 @_ZN5boost9gregorian8bad_yearD1Ev(i32* %arg1) {
dec_label_pc_78e0:
  %tmp99 = ptrtoint i32* %arg1 to i32
  store i32 %tmp99, i32* @eax, align 8
  store i32 ptrtoint (%vtable_20158_type* @global_var_20158.1822 to i32), i32* %arg1, align 4
  br i1 false, label %bb, label %dec_label_pc_78e0.dec_label_pc_7907_crit_edge

dec_label_pc_78e0.dec_label_pc_7907_crit_edge:    ; preds = %dec_label_pc_78e0
  %v17_790b.pre = load i32, i32* @eax, align 8
  br label %dec_label_pc_7907

bb:                                               ; preds = %dec_label_pc_78e0
  br label %dec_label_pc_7907

dec_label_pc_7907:                                ; preds = %dec_label_pc_78e0.dec_label_pc_7907_crit_edge, %bb
  %v17_790b = phi i32 [ %v17_790b.pre, %dec_label_pc_78e0.dec_label_pc_7907_crit_edge ], [ undef, %bb ]
  ret i32 %v17_790b

; uselistorder directives
  uselistorder label %dec_label_pc_7907, { 1, 0 }
}

define i32 @function_7913(i32 %arg1) local_unnamed_addr {
dec_label_pc_7913:
  %tmp = load i32, i32* @eax, align 8
  ret i32 %tmp
}

define i32 @_ZN5boost9gregorian9bad_monthD1Ev(i32* %arg1) {
dec_label_pc_7920:
  %tmp99 = ptrtoint i32* %arg1 to i32
  store i32 %tmp99, i32* @eax, align 8
  store i32 ptrtoint (%vtable_20078_type* @global_var_20078.1823 to i32), i32* %arg1, align 4
  br i1 false, label %bb, label %dec_label_pc_7920.dec_label_pc_7947_crit_edge

dec_label_pc_7920.dec_label_pc_7947_crit_edge:    ; preds = %dec_label_pc_7920
  %v17_794b.pre = load i32, i32* @eax, align 8
  br label %dec_label_pc_7947

bb:                                               ; preds = %dec_label_pc_7920
  br label %dec_label_pc_7947

dec_label_pc_7947:                                ; preds = %dec_label_pc_7920.dec_label_pc_7947_crit_edge, %bb
  %v17_794b = phi i32 [ %v17_794b.pre, %dec_label_pc_7920.dec_label_pc_7947_crit_edge ], [ undef, %bb ]
  ret i32 %v17_794b

; uselistorder directives
  uselistorder label %dec_label_pc_7947, { 1, 0 }
}

define i32 @function_7953(i32 %arg1) local_unnamed_addr {
dec_label_pc_7953:
  %tmp = load i32, i32* @eax, align 8
  ret i32 %tmp
}

define i32 @_ZN5boost9gregorian15bad_day_of_yearD1Ev(i32* %arg1) {
dec_label_pc_7960:
  %tmp99 = ptrtoint i32* %arg1 to i32
  store i32 %tmp99, i32* @eax, align 8
  store i32 ptrtoint (%vtable_20478_type* @global_var_20478.1824 to i32), i32* %arg1, align 4
  br i1 false, label %bb, label %dec_label_pc_7960.dec_label_pc_7987_crit_edge

dec_label_pc_7960.dec_label_pc_7987_crit_edge:    ; preds = %dec_label_pc_7960
  %v17_798b.pre = load i32, i32* @eax, align 8
  br label %dec_label_pc_7987

bb:                                               ; preds = %dec_label_pc_7960
  br label %dec_label_pc_7987

dec_label_pc_7987:                                ; preds = %dec_label_pc_7960.dec_label_pc_7987_crit_edge, %bb
  %v17_798b = phi i32 [ %v17_798b.pre, %dec_label_pc_7960.dec_label_pc_7987_crit_edge ], [ undef, %bb ]
  ret i32 %v17_798b

; uselistorder directives
  uselistorder label %dec_label_pc_7987, { 1, 0 }
}

define i32 @function_7993(i32 %arg1) local_unnamed_addr {
dec_label_pc_7993:
  %tmp = load i32, i32* @eax, align 8
  ret i32 %tmp
}

define i32 @_ZN5boost16bad_lexical_castD1Ev(i32* %arg1) {
dec_label_pc_79a0:
  %tmp99 = ptrtoint i32* %arg1 to i32
  store i32 %tmp99, i32* @eax, align 8
  store i32 ptrtoint (%vtable_20298_type* @global_var_20298.1825 to i32), i32* %arg1, align 4
  br i1 false, label %bb, label %dec_label_pc_79a0.dec_label_pc_79c7_crit_edge

dec_label_pc_79a0.dec_label_pc_79c7_crit_edge:    ; preds = %dec_label_pc_79a0
  %v17_79cb.pre = load i32, i32* @eax, align 8
  br label %dec_label_pc_79c7

bb:                                               ; preds = %dec_label_pc_79a0
  br label %dec_label_pc_79c7

dec_label_pc_79c7:                                ; preds = %dec_label_pc_79a0.dec_label_pc_79c7_crit_edge, %bb
  %v17_79cb = phi i32 [ %v17_79cb.pre, %dec_label_pc_79a0.dec_label_pc_79c7_crit_edge ], [ undef, %bb ]
  ret i32 %v17_79cb

; uselistorder directives
  uselistorder label %dec_label_pc_79c7, { 1, 0 }
}

define i32 @function_79d3(i32 %arg1) local_unnamed_addr {
dec_label_pc_79d3:
  %tmp = load i32, i32* @eax, align 8
  ret i32 %tmp
}

define i32 @_ZN5boost7pthread25pthread_mutex_scoped_lockC2EP15pthread_mutex_t.part.35() local_unnamed_addr {
dec_label_pc_79d8:
  ret i32 0
}

define i32 @_ZN5boost7pthread25pthread_mutex_scoped_lockD2Ev.part.36() local_unnamed_addr {
dec_label_pc_7a0c:
  ret i32 0
}

define i32 @_ZN5boost11unique_lockINS_5mutexEED2Ev.part.193() local_unnamed_addr {
dec_label_pc_7a40:
  ret i32 0
}

define i32 @_ZN14CBitcoinSecretC2ERK4CKey.part.667() local_unnamed_addr {
dec_label_pc_7a74:
  ret i32 0
}

define i32 @_ZN5boost2CV23simple_exception_policyItLt1ELt31ENS_9gregorian16bad_day_of_monthEE8on_errorEttNS0_14violation_enumE.isra.372() local_unnamed_addr {
dec_label_pc_7aa7:
  %stack_var_-17 = alloca i32, align 4
  %v2_7abb = ptrtoint i32* %stack_var_-17 to i32
  ret i32 %v2_7abb
}

define i32 @_ZN5boost2CV23simple_exception_policyItLt1400ELt10000ENS_9gregorian8bad_yearEE8on_errorEttNS0_14violation_enumE.isra.621() local_unnamed_addr {
dec_label_pc_7b2f:
  %stack_var_-17 = alloca i32, align 4
  %v2_7b43 = ptrtoint i32* %stack_var_-17 to i32
  ret i32 %v2_7b43
}

define i32 @_ZN5boost2CV23simple_exception_policyItLt1ELt12ENS_9gregorian9bad_monthEE8on_errorEttNS0_14violation_enumE.isra.622() local_unnamed_addr {
dec_label_pc_7bb7:
  %stack_var_-17 = alloca i32, align 4
  %v2_7bcb = ptrtoint i32* %stack_var_-17 to i32
  ret i32 %v2_7bcb
}

define i32 @_ZN5boost2CV23simple_exception_policyItLt1ELt366ENS_9gregorian15bad_day_of_yearEE8on_errorEttNS0_14violation_enumE.isra.624() local_unnamed_addr {
dec_label_pc_7c3f:
  %stack_var_-17 = alloca i32, align 4
  %v2_7c53 = ptrtoint i32* %stack_var_-17 to i32
  ret i32 %v2_7c53
}

define i32 @_ZN5boost7bad_getD0Ev(i32* %arg1) {
dec_label_pc_7cd0:
  store i32 ptrtoint (%vtable_1fc08_type* @global_var_1fc08.1819 to i32), i32* %arg1, align 4
  ret i32 0

; uselistorder directives
  uselistorder i32 ptrtoint (%vtable_1fc08_type* @global_var_1fc08.1819 to i32), { 1, 0 }
}

define i32 @_ZN12bignum_errorD0Ev(i32* %arg1) {
dec_label_pc_7d20:
  store i32 ptrtoint (%vtable_1fc28_type* @global_var_1fc28.1816 to i32), i32* %arg1, align 4
  ret i32 0

; uselistorder directives
  uselistorder i32 ptrtoint (%vtable_1fc28_type* @global_var_1fc28.1816 to i32), { 1, 0 }
}

define i32 @_ZN5boost17bad_function_callD0Ev(i32* %arg1) {
dec_label_pc_7d70:
  store i32 ptrtoint (%vtable_1fdb8_type* @global_var_1fdb8.1815 to i32), i32* %arg1, align 4
  ret i32 0
}

define i32 @_ZN5boost9gregorian11bad_weekdayD0Ev(i32* %arg1) {
dec_label_pc_7dc0:
  store i32 ptrtoint (%vtable_20398_type* @global_var_20398.1821 to i32), i32* %arg1, align 4
  ret i32 0
}

define i32 @_ZN5boost9gregorian8bad_yearD0Ev(i32* %arg1) {
dec_label_pc_7e10:
  store i32 ptrtoint (%vtable_20158_type* @global_var_20158.1822 to i32), i32* %arg1, align 4
  ret i32 0
}

define i32 @_ZN5boost9gregorian9bad_monthD0Ev(i32* %arg1) {
dec_label_pc_7e60:
  store i32 ptrtoint (%vtable_20078_type* @global_var_20078.1823 to i32), i32* %arg1, align 4
  ret i32 0
}

define i32 @_ZN5boost9gregorian15bad_day_of_yearD0Ev(i32* %arg1) {
dec_label_pc_7eb0:
  store i32 ptrtoint (%vtable_20478_type* @global_var_20478.1824 to i32), i32* %arg1, align 4
  ret i32 0
}

define i32 @_ZN5boost9gregorian16bad_day_of_monthD0Ev(i32* %arg1) {
dec_label_pc_7f00:
  store i32 ptrtoint (%vtable_1ff88_type* @global_var_1ff88.1820 to i32), i32* %arg1, align 4
  ret i32 0
}

define i32 @_ZN5boost6detail26lexical_stream_limited_srcIcSt15basic_streambufIcSt11char_traitsIcEES4_ED1Ev(i32 %arg1) local_unnamed_addr {
dec_label_pc_7f50:
  ret i32 %arg1
}

define i32 @function_7f86() local_unnamed_addr {
dec_label_pc_7f86:
  %eax.global-to-local = alloca i32, align 4
  %tmp96 = load i32, i32* %eax.global-to-local, align 8
  ret i32 %tmp96
}

define i32 @_ZN5boost16bad_lexical_castD0Ev(i32* %arg1) {
dec_label_pc_7f90:
  store i32 ptrtoint (%vtable_20298_type* @global_var_20298.1825 to i32), i32* %arg1, align 4
  ret i32 0
}

define i32 @_ZN5boost10lock_errorD1Ev(i32* %arg1) {
dec_label_pc_7fe0:
  %tmp99 = ptrtoint i32* %arg1 to i32
  store i32 %tmp99, i32* @eax, align 8
  store i32 ptrtoint (%vtable_1fc48_type* @global_var_1fc48.1818 to i32), i32* %arg1, align 4
  br i1 false, label %bb, label %dec_label_pc_7fe0.dec_label_pc_8007_crit_edge

dec_label_pc_7fe0.dec_label_pc_8007_crit_edge:    ; preds = %dec_label_pc_7fe0
  %v17_800b.pre = load i32, i32* @eax, align 8
  br label %dec_label_pc_8007

bb:                                               ; preds = %dec_label_pc_7fe0
  br label %dec_label_pc_8007

dec_label_pc_8007:                                ; preds = %dec_label_pc_7fe0.dec_label_pc_8007_crit_edge, %bb
  %v17_800b = phi i32 [ %v17_800b.pre, %dec_label_pc_7fe0.dec_label_pc_8007_crit_edge ], [ undef, %bb ]
  ret i32 %v17_800b

; uselistorder directives
  uselistorder label %dec_label_pc_8007, { 1, 0 }
}

define i32 @function_8013(i32 %arg1) local_unnamed_addr {
dec_label_pc_8013:
  %tmp = load i32, i32* @eax, align 8
  ret i32 %tmp
}

define i32 @_ZN5boost16thread_exceptionD0Ev(i32* %arg1) {
dec_label_pc_8020:
  store i32 ptrtoint (%vtable_1fc48_type* @global_var_1fc48.1818 to i32), i32* %arg1, align 4
  ret i32 0
}

define i32 @_ZN5boost10lock_errorD0Ev(i32* %arg1) {
dec_label_pc_8070:
  store i32 ptrtoint (%vtable_1fc48_type* @global_var_1fc48.1818 to i32), i32* %arg1, align 4
  ret i32 0
}

define i32 @_ZN5boost6system12system_errorD0Ev(i32* %arg1) {
dec_label_pc_80c0:
  %tmp98 = ptrtoint i32* %arg1 to i32
  store i32 ptrtoint (%vtable_1b260_type* @global_var_1b260.1817 to i32), i32* %arg1, align 4
  %v1_80da = add i32 %tmp98, ptrtoint (i8** @global_var_10.1772 to i32)
  ret i32 %v1_80da

; uselistorder directives
  uselistorder i32 ptrtoint (%vtable_1b260_type* @global_var_1b260.1817 to i32), { 1, 0 }
}

define i32 @_ZN5boost6detail26lexical_stream_limited_srcIcSt15basic_streambufIcSt11char_traitsIcEES4_ED0Ev(i32 %arg1) local_unnamed_addr {
dec_label_pc_8110:
  ret i32 0
}

define i32 @_ZThn24_NK5boost16exception_detail10clone_implINS0_10bad_alloc_EE5cloneEv(i32 %arg1) local_unnamed_addr {
dec_label_pc_8160:
  %v4_8160 = add i32 %arg1, -24
  %v1_8165 = call i32 @_ZNK5boost16exception_detail10clone_implINS0_10bad_alloc_EE5cloneEv(i32 %v4_8160)
  ret i32 %v1_8165
}

define i32 @_ZNK5boost16exception_detail10clone_implINS0_10bad_alloc_EE5cloneEv(i32 %arg1) {
dec_label_pc_8170:
  ret i32 0
}

define i32 @function_8190(i32 %arg1, i32 %arg2, i32 %arg3) local_unnamed_addr {
dec_label_pc_8190:
  %eax.global-to-local = alloca i32, align 4
  %ebx.global-to-local = alloca i32, align 4
  %ecx.global-to-local = alloca i32, align 4
  %esi.global-to-local = alloca i32, align 4
  %v0_8190 = load i32, i32* %ecx.global-to-local, align 4
  %v1_8190 = add i32 %v0_8190, 2013317059
  %v2_8190 = inttoptr i32 %v1_8190 to i32*
  %v3_8190 = load i32, i32* %v2_8190, align 4
  %v4_8190 = add i32 %v3_8190, -1
  store i32 %v4_8190, i32* %v2_8190, align 4
  %v2_8197 = load i32, i32* %eax.global-to-local, align 8
  %v4_8197 = mul i32 %v2_8197, 2
  %v21_8197 = inttoptr i32 %v2_8197 to i32*
  store i32 %v4_8197, i32* %v21_8197, align 4
  %v0_8199 = load i32, i32* %esi.global-to-local, align 4
  %v1_8199 = add i32 %v0_8199, 4
  %v2_8199 = inttoptr i32 %v1_8199 to i32*
  %v3_8199 = load i32, i32* %v2_8199, align 4
  store i32 %v3_8199, i32* %eax.global-to-local, align 8
  %v1_819c = icmp eq i32 %v3_8199, 0
  %v1_819e = load i32, i32* %ebx.global-to-local, align 4
  %v2_819e = add i32 %v1_819e, 4
  %v3_819e = inttoptr i32 %v2_819e to i32*
  store i32 %v3_8199, i32* %v3_819e, align 4
  br i1 %v1_819c, label %dec_label_pc_81ab, label %dec_label_pc_81a3

dec_label_pc_81a3:                                ; preds = %dec_label_pc_8190
  br label %dec_label_pc_81ab

dec_label_pc_81ab:                                ; preds = %dec_label_pc_81a3, %dec_label_pc_8190
  %v0_81ab = load i32, i32* %esi.global-to-local, align 4
  %v1_81ab = add i32 %v0_81ab, ptrtoint (double** @global_var_8.1773 to i32)
  %v2_81ab = inttoptr i32 %v1_81ab to i32*
  %v3_81ab = load i32, i32* %v2_81ab, align 4
  store i32 %v3_81ab, i32* %eax.global-to-local, align 8
  %v1_81b2 = load i32, i32* inttoptr (i32 20 to i32*), align 4
  %v3_81b2 = icmp eq i32 %v1_81b2, %arg1
  %v0_81b9 = load i32, i32* %ebx.global-to-local, align 4
  %v1_81b9 = inttoptr i32 %v0_81b9 to i32*
  store i32 ptrtoint (%vtable_20678_type* @global_var_20678.1842 to i32), i32* %v1_81b9, align 4
  %v0_81bf = load i32, i32* %eax.global-to-local, align 8
  %v1_81bf = load i32, i32* %ebx.global-to-local, align 4
  %v2_81bf = add i32 %v1_81bf, ptrtoint (double** @global_var_8.1773 to i32)
  %v3_81bf = inttoptr i32 %v2_81bf to i32*
  store i32 %v0_81bf, i32* %v3_81bf, align 4
  %v0_81c2 = load i32, i32* %esi.global-to-local, align 4
  %v1_81c2 = add i32 %v0_81c2, ptrtoint (i8** @global_var_c.1790 to i32)
  %v2_81c2 = inttoptr i32 %v1_81c2 to i32*
  %v3_81c2 = load i32, i32* %v2_81c2, align 4
  store i32 %v3_81c2, i32* %eax.global-to-local, align 8
  %v1_81c5 = load i32, i32* %ebx.global-to-local, align 4
  %v2_81c5 = add i32 %v1_81c5, ptrtoint (i8** @global_var_c.1790 to i32)
  %v3_81c5 = inttoptr i32 %v2_81c5 to i32*
  store i32 %v3_81c2, i32* %v3_81c5, align 4
  %v0_81c8 = load i32, i32* %esi.global-to-local, align 4
  %v1_81c8 = add i32 %v0_81c8, ptrtoint (i8** @global_var_10.1772 to i32)
  %v2_81c8 = inttoptr i32 %v1_81c8 to i32*
  %v3_81c8 = load i32, i32* %v2_81c8, align 4
  store i32 %v3_81c8, i32* %eax.global-to-local, align 8
  %v0_81cb = load i32, i32* %ebx.global-to-local, align 4
  %v1_81cb = add i32 %v0_81cb, 20
  %v2_81cb = inttoptr i32 %v1_81cb to i32*
  store i32 ptrtoint (i32* @global_var_20690.1843 to i32), i32* %v2_81cb, align 4
  %v0_81d2 = load i32, i32* %ebx.global-to-local, align 4
  %v1_81d2 = add i32 %v0_81d2, 24
  %v2_81d2 = inttoptr i32 %v1_81d2 to i32*
  store i32 ptrtoint (i32* @global_var_206a4.1844 to i32), i32* %v2_81d2, align 4
  %v0_81d9 = load i32, i32* %eax.global-to-local, align 8
  %v1_81d9 = load i32, i32* %ebx.global-to-local, align 4
  %v2_81d9 = add i32 %v1_81d9, ptrtoint (i8** @global_var_10.1772 to i32)
  %v3_81d9 = inttoptr i32 %v2_81d9 to i32*
  store i32 %v0_81d9, i32* %v3_81d9, align 4
  %v0_81dc = load i32, i32* %ebx.global-to-local, align 4
  %v1_81dc = add i32 %v0_81dc, 24
  store i32 %v1_81dc, i32* %eax.global-to-local, align 8
  %v1_81df = icmp eq i1 %v3_81b2, false
  br i1 %v1_81df, label %dec_label_pc_81e7, label %dec_label_pc_81e1

dec_label_pc_81e1:                                ; preds = %dec_label_pc_81ab
  store i32 %arg2, i32* %ebx.global-to-local, align 4
  store i32 %arg3, i32* %esi.global-to-local, align 4
  ret i32 %v1_81dc

dec_label_pc_81e7:                                ; preds = %dec_label_pc_81ab
  ret i32 %v1_81dc

; uselistorder directives
  uselistorder i32 %v1_81dc, { 1, 0, 2 }
  uselistorder i32 %v2_8197, { 1, 0 }
  uselistorder i32* %esi.global-to-local, { 0, 1, 2, 4, 3 }
}

define i32 @_ZN5boost9date_time16time_input_facetINS_10posix_time5ptimeEcSt19istreambuf_iteratorIcSt11char_traitsIcEEE23set_iso_extended_formatEv(i32 %arg1) {
dec_label_pc_8200:
  ret i32 0
}

define i32 @function_823b(i32 %arg1, i32 %arg2) local_unnamed_addr {
dec_label_pc_823b:
  %eax.global-to-local = alloca i32, align 4
  %ebx.global-to-local = alloca i32, align 4
  %v0_823b = load i32, i32* %ebx.global-to-local, align 4
  %v1_823b = add i32 %v0_823b, 1696343108
  %v2_823b = inttoptr i32 %v1_823b to i32*
  %v3_823b = load i32, i32* %v2_823b, align 4
  %v4_823b = add i32 %v3_823b, -1
  store i32 %v4_823b, i32* %v2_823b, align 4
  %v0_8241 = load i32, i32* %eax.global-to-local, align 8
  %v1_8241 = load i32, i32* inttoptr (i32 20 to i32*), align 4
  %v2_8241 = xor i32 %v1_8241, %v0_8241
  %v3_8241 = icmp eq i32 %v2_8241, 0
  store i32 %v2_8241, i32* %eax.global-to-local, align 8
  %v1_8247 = icmp eq i1 %v3_8241, false
  br i1 %v1_8247, label %dec_label_pc_8255, label %dec_label_pc_8249

dec_label_pc_8249:                                ; preds = %dec_label_pc_823b
  store i32 %arg1, i32* %ebx.global-to-local, align 4
  ret i32 %v2_8241

dec_label_pc_8255:                                ; preds = %dec_label_pc_823b
  ret i32 %v2_8241

; uselistorder directives
  uselistorder i32 %v2_8241, { 1, 0, 2, 3 }
}

define i32 @_ZN5boost9date_time16date_input_facetINS_9gregorian4dateEcSt19istreambuf_iteratorIcSt11char_traitsIcEEE23set_iso_extended_formatEv(i32 %arg1) {
dec_label_pc_8260:
  ret i32 0
}

define i32 @function_8289() local_unnamed_addr {
dec_label_pc_8289:
  %eax.global-to-local = alloca i32, align 4
  %v0_8289 = load i32, i32* %eax.global-to-local, align 8
  ret i32 %v0_8289
}

define i32 @function_8296(i32 %arg1) local_unnamed_addr {
dec_label_pc_8296:
  %eax.global-to-local = alloca i32, align 4
  %ebx.global-to-local = alloca i32, align 4
  %v0_8296 = load i32, i32* %ebx.global-to-local, align 4
  %v1_8296 = add i32 %v0_8296, 1696343108
  %v2_8296 = inttoptr i32 %v1_8296 to i32*
  %v3_8296 = load i32, i32* %v2_8296, align 4
  %v4_8296 = add i32 %v3_8296, -1
  store i32 %v4_8296, i32* %v2_8296, align 4
  %v0_829c = load i32, i32* %eax.global-to-local, align 8
  %v1_829c = load i32, i32* inttoptr (i32 20 to i32*), align 4
  %v2_829c = xor i32 %v1_829c, %v0_829c
  %v3_829c = icmp eq i32 %v2_829c, 0
  store i32 %v2_829c, i32* %eax.global-to-local, align 8
  %v1_82a2 = icmp eq i1 %v3_829c, false
  br i1 %v1_82a2, label %dec_label_pc_82a9, label %dec_label_pc_82a4

dec_label_pc_82a4:                                ; preds = %dec_label_pc_8296
  store i32 %arg1, i32* %ebx.global-to-local, align 4
  ret i32 %v2_829c

dec_label_pc_82a9:                                ; preds = %dec_label_pc_8296
  ret i32 %v2_829c

; uselistorder directives
  uselistorder i32 %v2_829c, { 1, 0, 2, 3 }
}

define i32 @_ZN5boost9date_time16date_input_facetINS_9gregorian4dateEcSt19istreambuf_iteratorIcSt11char_traitsIcEEE14set_iso_formatEv(i32 %arg1) {
dec_label_pc_82b0:
  ret i32 0
}

define i32 @function_82d9() local_unnamed_addr {
dec_label_pc_82d9:
  %eax.global-to-local = alloca i32, align 4
  %v0_82d9 = load i32, i32* %eax.global-to-local, align 8
  ret i32 %v0_82d9
}

define i32 @function_82e6(i32 %arg1) local_unnamed_addr {
dec_label_pc_82e6:
  %eax.global-to-local = alloca i32, align 4
  %ebx.global-to-local = alloca i32, align 4
  %v0_82e6 = load i32, i32* %ebx.global-to-local, align 4
  %v1_82e6 = add i32 %v0_82e6, 1696343108
  %v2_82e6 = inttoptr i32 %v1_82e6 to i32*
  %v3_82e6 = load i32, i32* %v2_82e6, align 4
  %v4_82e6 = add i32 %v3_82e6, -1
  store i32 %v4_82e6, i32* %v2_82e6, align 4
  %v0_82ec = load i32, i32* %eax.global-to-local, align 8
  %v1_82ec = load i32, i32* inttoptr (i32 20 to i32*), align 4
  %v2_82ec = xor i32 %v1_82ec, %v0_82ec
  %v3_82ec = icmp eq i32 %v2_82ec, 0
  store i32 %v2_82ec, i32* %eax.global-to-local, align 8
  %v1_82f2 = icmp eq i1 %v3_82ec, false
  br i1 %v1_82f2, label %dec_label_pc_82f9, label %dec_label_pc_82f4

dec_label_pc_82f4:                                ; preds = %dec_label_pc_82e6
  store i32 %arg1, i32* %ebx.global-to-local, align 4
  ret i32 %v2_82ec

dec_label_pc_82f9:                                ; preds = %dec_label_pc_82e6
  ret i32 %v2_82ec

; uselistorder directives
  uselistorder i32 %v2_82ec, { 1, 0, 2, 3 }
}

define i32 @_ZN5boost9date_time16time_input_facetINS_10posix_time5ptimeEcSt19istreambuf_iteratorIcSt11char_traitsIcEEE14set_iso_formatEv(i32 %arg1) {
dec_label_pc_8300:
  ret i32 0
}

define i32 @function_833b(i32 %arg1, i32 %arg2) local_unnamed_addr {
dec_label_pc_833b:
  %eax.global-to-local = alloca i32, align 4
  %ebx.global-to-local = alloca i32, align 4
  %v0_833b = load i32, i32* %ebx.global-to-local, align 4
  %v1_833b = add i32 %v0_833b, 1696343108
  %v2_833b = inttoptr i32 %v1_833b to i32*
  %v3_833b = load i32, i32* %v2_833b, align 4
  %v4_833b = add i32 %v3_833b, -1
  store i32 %v4_833b, i32* %v2_833b, align 4
  %v0_8341 = load i32, i32* %eax.global-to-local, align 8
  %v1_8341 = load i32, i32* inttoptr (i32 20 to i32*), align 4
  %v2_8341 = xor i32 %v1_8341, %v0_8341
  %v3_8341 = icmp eq i32 %v2_8341, 0
  store i32 %v2_8341, i32* %eax.global-to-local, align 8
  %v1_8347 = icmp eq i1 %v3_8341, false
  br i1 %v1_8347, label %dec_label_pc_8355, label %dec_label_pc_8349

dec_label_pc_8349:                                ; preds = %dec_label_pc_833b
  store i32 %arg1, i32* %ebx.global-to-local, align 4
  ret i32 %v2_8341

dec_label_pc_8355:                                ; preds = %dec_label_pc_833b
  ret i32 %v2_8341

; uselistorder directives
  uselistorder i32 %v2_8341, { 1, 0, 2, 3 }
}

define i32 @_ZThn28_NK5boost16exception_detail10clone_implINS0_19error_info_injectorINS_10lock_errorEEEE5cloneEv(i32 %arg1) local_unnamed_addr {
dec_label_pc_8360:
  %v4_8360 = add i32 %arg1, -28
  %v1_8365 = call i32 @_ZNK5boost16exception_detail10clone_implINS0_19error_info_injectorINS_10lock_errorEEEE5cloneEv(i32 %v4_8360)
  ret i32 %v1_8365
}

define i32 @_ZNK5boost16exception_detail10clone_implINS0_19error_info_injectorINS_10lock_errorEEEE5cloneEv(i32 %arg1) {
dec_label_pc_8370:
  ret i32 0
}

define i32 @function_8390(i32 %arg1, i32 %arg2, i32 %arg3) local_unnamed_addr {
dec_label_pc_8390:
  %eax.global-to-local = alloca i32, align 4
  %ebx.global-to-local = alloca i32, align 4
  %ecx.global-to-local = alloca i32, align 4
  %esi.global-to-local = alloca i32, align 4
  %v0_8390 = load i32, i32* %ecx.global-to-local, align 4
  %v1_8390 = add i32 %v0_8390, 71732163
  %v2_8390 = inttoptr i32 %v1_8390 to i32*
  %v3_8390 = load i32, i32* %v2_8390, align 4
  %v4_8390 = add i32 %v3_8390, -1
  store i32 %v4_8390, i32* %v2_8390, align 4
  %v0_8396 = load i32, i32* %ebx.global-to-local, align 4
  %v1_8396 = inttoptr i32 %v0_8396 to i32*
  store i32 ptrtoint (%vtable_1fc60_type* @global_var_1fc60.1851 to i32), i32* %v1_8396, align 4
  %v0_839c = load i32, i32* %ebx.global-to-local, align 4
  %v1_839c = add i32 %v0_839c, ptrtoint (double** @global_var_8.1773 to i32)
  %v2_839c = inttoptr i32 %v1_839c to i32*
  store i32 ptrtoint (i32* @global_var_1fc78.1852 to i32), i32* %v2_839c, align 4
  %v0_83a3 = load i32, i32* %eax.global-to-local, align 8
  %v1_83a3 = load i32, i32* %ebx.global-to-local, align 4
  %v2_83a3 = add i32 %v1_83a3, 4
  %v3_83a3 = inttoptr i32 %v2_83a3 to i32*
  store i32 %v0_83a3, i32* %v3_83a3, align 4
  %v0_83a6 = load i32, i32* %esi.global-to-local, align 4
  %v1_83a6 = add i32 %v0_83a6, ptrtoint (i8** @global_var_c.1790 to i32)
  %v2_83a6 = inttoptr i32 %v1_83a6 to i32*
  %v3_83a6 = load i32, i32* %v2_83a6, align 4
  store i32 %v3_83a6, i32* %eax.global-to-local, align 8
  %v1_83a9 = icmp eq i32 %v3_83a6, 0
  %v1_83ab = load i32, i32* %ebx.global-to-local, align 4
  %v2_83ab = add i32 %v1_83ab, ptrtoint (i8** @global_var_c.1790 to i32)
  %v3_83ab = inttoptr i32 %v2_83ab to i32*
  store i32 %v3_83a6, i32* %v3_83ab, align 4
  br i1 %v1_83a9, label %dec_label_pc_83b8, label %dec_label_pc_83b0

dec_label_pc_83b0:                                ; preds = %dec_label_pc_8390
  br label %dec_label_pc_83b8

dec_label_pc_83b8:                                ; preds = %dec_label_pc_83b0, %dec_label_pc_8390
  %v0_83b8 = load i32, i32* %esi.global-to-local, align 4
  %v1_83b8 = add i32 %v0_83b8, ptrtoint (i8** @global_var_10.1772 to i32)
  %v2_83b8 = inttoptr i32 %v1_83b8 to i32*
  %v3_83b8 = load i32, i32* %v2_83b8, align 4
  store i32 %v3_83b8, i32* %eax.global-to-local, align 8
  %v1_83bf = load i32, i32* inttoptr (i32 20 to i32*), align 4
  %v3_83bf = icmp eq i32 %v1_83bf, %arg1
  %v0_83c6 = load i32, i32* %ebx.global-to-local, align 4
  %v1_83c6 = add i32 %v0_83c6, ptrtoint (double** @global_var_8.1773 to i32)
  %v2_83c6 = inttoptr i32 %v1_83c6 to i32*
  store i32 ptrtoint (i32* @global_var_1fcf4.1853 to i32), i32* %v2_83c6, align 4
  %v0_83cd = load i32, i32* %eax.global-to-local, align 8
  %v1_83cd = load i32, i32* %ebx.global-to-local, align 4
  %v2_83cd = add i32 %v1_83cd, ptrtoint (i8** @global_var_10.1772 to i32)
  %v3_83cd = inttoptr i32 %v2_83cd to i32*
  store i32 %v0_83cd, i32* %v3_83cd, align 4
  %v0_83d0 = load i32, i32* %esi.global-to-local, align 4
  %v1_83d0 = add i32 %v0_83d0, 20
  %v2_83d0 = inttoptr i32 %v1_83d0 to i32*
  %v3_83d0 = load i32, i32* %v2_83d0, align 4
  store i32 %v3_83d0, i32* %eax.global-to-local, align 8
  %v1_83d3 = load i32, i32* %ebx.global-to-local, align 4
  %v2_83d3 = add i32 %v1_83d3, 20
  %v3_83d3 = inttoptr i32 %v2_83d3 to i32*
  store i32 %v3_83d0, i32* %v3_83d3, align 4
  %v0_83d6 = load i32, i32* %esi.global-to-local, align 4
  %v1_83d6 = add i32 %v0_83d6, 24
  %v2_83d6 = inttoptr i32 %v1_83d6 to i32*
  %v3_83d6 = load i32, i32* %v2_83d6, align 4
  store i32 %v3_83d6, i32* %eax.global-to-local, align 8
  %v0_83d9 = load i32, i32* %ebx.global-to-local, align 4
  %v1_83d9 = inttoptr i32 %v0_83d9 to i32*
  store i32 ptrtoint (%vtable_1fcd8_type* @global_var_1fcd8.1854 to i32), i32* %v1_83d9, align 4
  %v0_83df = load i32, i32* %ebx.global-to-local, align 4
  %v1_83df = add i32 %v0_83df, 28
  %v2_83df = inttoptr i32 %v1_83df to i32*
  store i32 ptrtoint (i32* @global_var_1fd04.1855 to i32), i32* %v2_83df, align 4
  %v0_83e6 = load i32, i32* %eax.global-to-local, align 8
  %v1_83e6 = load i32, i32* %ebx.global-to-local, align 4
  %v2_83e6 = add i32 %v1_83e6, 24
  %v3_83e6 = inttoptr i32 %v2_83e6 to i32*
  store i32 %v0_83e6, i32* %v3_83e6, align 4
  %v0_83e9 = load i32, i32* %ebx.global-to-local, align 4
  %v1_83e9 = add i32 %v0_83e9, 28
  store i32 %v1_83e9, i32* %eax.global-to-local, align 8
  %v1_83ec = icmp eq i1 %v3_83bf, false
  br i1 %v1_83ec, label %dec_label_pc_83f4, label %dec_label_pc_83ee

