source_filename = "test"
target datalayout = "e-m:e-p:32:32-f64:32:64-f80:32-n8:16:32-S128"

%vtable_1b4ec_type = type { void (i32, i32, i32)*, void (i32, i32, i32)*, void (i32, i32)*, void (i32)*, void (i32, i32)*, void (i32, i32, i32)*, void (i32, i32)*, i32 (i32*)*, i32 (i32)* }
%vtable_1b5dc_type = type { i32 (i32*)*, i32 (i32)*, i32 (i8)* }
%vtable_1b64c_type = type { i32 (i32*)*, i32 (i32)*, i32 (i32)*, i32 (i32)* }
%vtable_1b6ac_type = type { i32 (i32*)*, i32 (i32)* }
%Slice.0 = type { i8*, i32 }
%Slice = type { i8*, i32 }
%Slice.1 = type { i8*, i32 }

@cf = internal unnamed_addr global i1 false
@zf = internal unnamed_addr global i1 false
@df = internal unnamed_addr global i1 false
@ss = internal unnamed_addr global i16 0
@st0 = internal unnamed_addr global x86_fp80 0xK00000000000000000000
@eax = internal unnamed_addr global i32 0
@ecx = internal unnamed_addr global i32 0
@edx = internal unnamed_addr global i32 0
@ebx = internal unnamed_addr global i32 0
@esp = internal unnamed_addr global i32 0
@ebp = internal unnamed_addr global i32 0
@esi = internal unnamed_addr global i32 0
@edi = internal unnamed_addr global i32 0
@global_var_8.1178 = constant i32 138775296
@global_var_1c.1180 = constant i32 5281
@global_var_3df5.1182 = constant [11 x i8] c"chainstate\00"
@global_var_20.1184 = constant i32 -196769536
@global_var_3e38.1185 = constant [6 x i8] c"index\00"
@global_var_3e3e.1186 = constant [7 x i8] c"blocks\00"
@global_var_ffff.1188 = constant i32 -400292727
@global_var_1b70c.1190 = constant i32 0
@global_var_1b6f4.1191 = constant i32 0
@global_var_1b6d4.1192 = constant i32 14970
@global_var_9.1193 = constant i32 -1995946613
@global_var_3d20.1197 = constant [34 x i8] c"CDataStream::read() : end of data\00"
@global_var_1b60c.1200 = constant i32 20168
@global_var_3e89.1209 = constant [16 x i8] c"vector::reserve\00"
@global_var_1b6bc.1211 = constant i32 35206
@global_var_1b664.1213 = constant i32 57177
@global_var_1b678.1214 = constant i32 113122
@global_var_3ef1.1219 = constant [24 x i8] c"vector::_M_range_insert\00"
@global_var_3f09.1220 = constant [23 x i8] c"vector::_M_fill_insert\00"
@global_var_19.1222 = constant i32 -1587176379
@global_var_3f4a.1224 = constant [28 x i8] c"vector<bool>::_M_insert_aux\00"
@global_var_fe.1225 = constant i32 41924
@0 = external global i32
@1 = internal constant [6 x i8] c"\89\E5\81\EC\98\00"
@global_var_1.1176 = constant i8* getelementptr inbounds ([6 x i8], [6 x i8]* @1, i32 0, i32 0)
@2 = internal constant [3 x i8] c"\EC\98\00"
@global_var_4.1177 = constant i8* getelementptr inbounds ([3 x i8], [3 x i8]* @2, i32 0, i32 0)
@3 = internal constant [7 x i8] c"\89E\9Ce\A1\14\00"
@global_var_18.1179 = constant i8* getelementptr inbounds ([7 x i8], [7 x i8]* @3, i32 0, i32 0)
@global_var_31.1187 = constant i8 -124
@global_var_5.1189 = constant i8 -104
@global_var_1b4ec.1181 = constant %vtable_1b4ec_type { void (i32, i32, i32)* @_ZN12CCoinsViewDB8GetCoinsERK7uint256R6CCoins, void (i32, i32, i32)* @_ZN12CCoinsViewDB8SetCoinsERK7uint256RK6CCoins, void (i32, i32)* @_ZN12CCoinsViewDB9HaveCoinsERK7uint256, void (i32)* @_ZN12CCoinsViewDB12GetBestBlockEv, void (i32, i32)* @_ZN12CCoinsViewDB12SetBestBlockEP11CBlockIndex, void (i32, i32, i32)* @_ZN12CCoinsViewDB10BatchWriteERKSt3mapI7uint2566CCoinsSt4lessIS1_ESaISt4pairIKS1_S2_EEEP11CBlockIndex, void (i32, i32)* @_ZN12CCoinsViewDB8GetStatsER11CCoinsStats, i32 (i32*)* @_ZN12CCoinsViewDBD1Ev, i32 (i32)* @_ZN12CCoinsViewDBD0Ev }
@global_var_1b5dc.1205 = constant %vtable_1b5dc_type { i32 (i32*)* @_ZN5boost6system12system_errorD1Ev, i32 (i32)* @_ZN5boost6system12system_errorD0Ev, i32 (i8)* @_ZNK5boost6system12system_error4whatEv }
@global_var_1b64c.1212 = constant %vtable_1b64c_type { i32 (i32*)* @_ZN5boost16exception_detail10clone_implINS0_10bad_alloc_EED1Ev, i32 (i32)* @_ZN5boost16exception_detail10clone_implINS0_10bad_alloc_EED0Ev, i32 (i32)* @_ZNK5boost16exception_detail10clone_implINS0_10bad_alloc_EE5cloneEv.1175, i32 (i32)* @_ZNK5boost16exception_detail10clone_implINS0_10bad_alloc_EE7rethrowEv }
@global_var_1b6ac.1210 = constant %vtable_1b6ac_type { i32 (i32*)* @_ZN5boost16exception_detail10bad_alloc_D1Ev, i32 (i32)* @_ZN5boost16exception_detail10bad_alloc_D0Ev }

define i32 @_ZL15BatchWriteCoinsR13CLevelDBBatchRK7uint256RK6CCoins() local_unnamed_addr {
dec_label_pc_0:
  %eax.global-to-local = alloca i32, align 4
  %tmp96 = load i32, i32* %eax.global-to-local, align 4
  ret i32 %tmp96
}

define i32 @function_1() {
dec_label_pc_1:
  %eax.global-to-local = alloca i32, align 4
  %tmp96 = load i32, i32* %eax.global-to-local, align 4
  ret i32 %tmp96
}

define void @_ZNK5boost16exception_detail10clone_implINS0_10bad_alloc_EE5cloneEv(i32 %this) local_unnamed_addr {
dec_label_pc_8:
  ret void
}

define void @"~clone_impl"(i32 %this, i32 %__in_chrg) local_unnamed_addr {
dec_label_pc_e:
  ret void
}

define i32 @function_84() local_unnamed_addr {
dec_label_pc_84:
  %df.global-to-local = alloca i1, align 1
  %eax.global-to-local = alloca i32, align 4
  %ebp.global-to-local = alloca i32, align 4
  %esi.global-to-local = alloca i32, align 4
  %v0_84 = load i32, i32* %eax.global-to-local, align 4
  %v0_86 = load i32, i32* %ebp.global-to-local, align 4
  %v1_86 = add i32 %v0_86, ptrtoint (i8** @global_var_1.1176 to i32)
  store i32 %v1_86, i32* @ebp, align 4
  %v2_87 = load i8, i8* bitcast (i32* @esi to i8*), align 4
  %v3_87 = zext i8 %v2_87 to i32
  %v5_87 = and i32 %v0_84, -256
  %v6_87 = or i32 %v3_87, %v5_87
  store i32 %v6_87, i32* %eax.global-to-local, align 4
  %v7_87 = load i32, i32* %esi.global-to-local, align 4
  %v8_87 = load i1, i1* %df.global-to-local, align 1
  %v9_87 = select i1 %v8_87, i32 -1, i32 ptrtoint (i8** @global_var_1.1176 to i32)
  %v10_87 = add i32 %v9_87, %v7_87
  store i32 %v10_87, i32* %esi.global-to-local, align 4
  %v1_8c = add i32 %v0_86, add (i32 ptrtoint (i8** @global_var_1.1176 to i32), i32 -92)
  %v2_8c = inttoptr i32 %v1_8c to i32*
  %v3_8c = load i32, i32* %v2_8c, align 4
  store i32 %v3_8c, i32* %eax.global-to-local, align 4
  %v2_92 = call i32 @_ZN13CLevelDBBatch5EraseISt4pairIc7uint256EEEvRKT_(i32 %v3_8c, i32 %v6_87)
  store i32 %v2_92, i32* %eax.global-to-local, align 4
  %v0_97 = call i32 @function_102()
  store i32 %v0_97, i32* %eax.global-to-local, align 4
  ret i32 %v0_97
}

define i32 @function_99() local_unnamed_addr {
dec_label_pc_99:
  %v0_99 = load i32, i32* @ebp, align 4
  %v1_99 = add i32 %v0_99, -48
  %v1_9c = add i32 %v0_99, -96
  %v2_9c = inttoptr i32 %v1_9c to i32*
  %v3_9c = load i32, i32* %v2_9c, align 4
  %v1_9f = inttoptr i32 %v3_9c to i32*
  %v2_9f = load i32, i32* %v1_9f, align 4
  %v1_a5 = add i32 %v3_9c, ptrtoint (i8** @global_var_4.1177 to i32)
  %v2_a5 = inttoptr i32 %v1_a5 to i32*
  %v3_a5 = load i32, i32* %v2_a5, align 4
  %v1_ac = add i32 %v3_9c, ptrtoint (i32* @global_var_8.1178 to i32)
  %v2_ac = inttoptr i32 %v1_ac to i32*
  %v3_ac = load i32, i32* %v2_ac, align 4
  %v1_b3 = add i32 %v3_9c, 12
  %v2_b3 = inttoptr i32 %v1_b3 to i32*
  %v3_b3 = load i32, i32* %v2_b3, align 4
  %v1_ba = add i32 %v3_9c, 16
  %v2_ba = inttoptr i32 %v1_ba to i32*
  %v3_ba = load i32, i32* %v2_ba, align 4
  %v1_c1 = add i32 %v3_9c, 20
  %v2_c1 = inttoptr i32 %v1_c1 to i32*
  %v3_c1 = load i32, i32* %v2_c1, align 4
  %v1_c8 = add i32 %v3_9c, ptrtoint (i8** @global_var_18.1179 to i32)
  %v2_c8 = inttoptr i32 %v1_c8 to i32*
  %v3_c8 = load i32, i32* %v2_c8, align 4
  store i32 %v3_c8, i32* @ecx, align 4
  %v1_cf = add i32 %v3_9c, ptrtoint (i32* @global_var_1c.1180 to i32)
  %v2_cf = inttoptr i32 %v1_cf to i32*
  %v3_cf = load i32, i32* %v2_cf, align 4
  %v11_e1 = call i32 @_ZSt9make_pairIc7uint256ESt4pairIT_T0_ES2_S3_(i32 %v1_99, i8 99, i32 %v2_9f, i32 %v3_a5, i32 %v3_ac, i32 %v3_b3, i32 %v3_ba, i32 %v3_c1, i32 %v3_c8, i32 %v3_cf)
  %v0_e9 = load i32, i32* @ebp, align 4
  %v1_e9 = add i32 %v0_e9, -100
  %v2_e9 = inttoptr i32 %v1_e9 to i32*
  %v3_e9 = load i32, i32* %v2_e9, align 4
  %v1_f0 = add i32 %v0_e9, -48
  %v1_f7 = add i32 %v0_e9, -92
  %v2_f7 = inttoptr i32 %v1_f7 to i32*
  %v3_f7 = load i32, i32* %v2_f7, align 4
  %v3_fd = call i32 @_ZN13CLevelDBBatch5WriteISt4pairIc7uint256E6CCoinsEEvRKT_RKT0_(i32 %v3_f7, i32 %v1_f0, i32 %v3_e9)
  ret i32 %v3_fd

; uselistorder directives
  uselistorder i32 %v3_9c, { 1, 0, 3, 2, 5, 4, 6, 7 }
}

define i32 @function_102() local_unnamed_addr {
dec_label_pc_102:
  %v0_102 = load i32, i32* @ebp, align 4
  %v1_102 = add i32 %v0_102, -12
  %v2_102 = inttoptr i32 %v1_102 to i32*
  %v3_102 = load i32, i32* %v2_102, align 4
  %v1_105 = load i32, i32* inttoptr (i32 20 to i32*), align 4
  %v2_105 = xor i32 %v1_105, %v3_102
  %v3_105 = icmp eq i32 %v2_105, 0
  store i32 %v2_105, i32* @eax, align 4
  br i1 %v3_105, label %bb, label %dec_label_pc_10e

bb:                                               ; preds = %dec_label_pc_102
  %v1_10c = call i32 @function_113()
  br label %dec_label_pc_10e

dec_label_pc_10e:                                 ; preds = %bb, %dec_label_pc_102
  %v2_10c = phi i32 [ %v1_10c, %bb ], [ %v2_105, %dec_label_pc_102 ]
  ret i32 %v2_10c
}

define i32 @function_113() local_unnamed_addr {
dec_label_pc_113:
  %v0_114 = load i32, i32* @eax, align 4
  ret i32 %v0_114
}

define void @BatchWriteHashBestChain(i32 %batch, i32 %hash) local_unnamed_addr {
dec_label_pc_115:
  %stack_var_-17 = alloca i8, align 1
  store i8 66, i8* %stack_var_-17, align 1
  %v2_13d = ptrtoint i8* %stack_var_-17 to i32
  %v3_14a = call i32 @_ZN13CLevelDBBatch5WriteIc7uint256EEvRKT_RKT0_(i32 %batch, i32 %v2_13d, i32 %hash)
  store i32 0, i32* @eax, align 4
  br i1 true, label %bb, label %dec_label_pc_15b

bb:                                               ; preds = %dec_label_pc_115
  %v1_159 = call i32 @function_160()
  br label %dec_label_pc_15b

dec_label_pc_15b:                                 ; preds = %bb, %dec_label_pc_115
  ret void
}

define i32 @function_160() local_unnamed_addr {
dec_label_pc_160:
  %v0_161 = load i32, i32* @eax, align 4
  ret i32 %v0_161
}

define void @CCoinsViewDB(i32 %this, i32 %nCacheSize, i1 %fMemory, i1 %fWipe) local_unnamed_addr {
dec_label_pc_162:
  %stack_var_-20 = alloca i32, align 4
  %v2_193 = call i32 @_ZN10CCoinsViewC1Ev(i32 %this)
  %v1_19b = inttoptr i32 %this to i32*
  store i32 ptrtoint (%vtable_1b4ec_type* @global_var_1b4ec.1181 to i32), i32* %v1_19b, align 4
  %v2_1b9 = ptrtoint i32* %stack_var_-20 to i32
  %v5_1bf = call i32 @_ZN5boost11filesystem34pathC1IA11_cEERKT_PNS_9enable_ifINS0_11path_traits11is_pathableINS_5decayIS4_E4typeEEEvE4typeE(i32 %v2_1b9, i32 ptrtoint ([11 x i8]* @global_var_3df5.1182 to i32), i32 0)
  ret void

; uselistorder directives
  uselistorder i32 %this, { 1, 0 }
}

define i32 @function_1d1() local_unnamed_addr {
dec_label_pc_1d1:
  %eax.global-to-local = alloca i32, align 4
  %v0_1d1 = load i32, i32* %eax.global-to-local, align 4
  ret i32 %v0_1d1
}

define i32 @function_20e() local_unnamed_addr {
dec_label_pc_20e:
  %eax.global-to-local = alloca i32, align 4
  %edx.global-to-local = alloca i32, align 4
  %v0_20e = load i32, i32* @ebp, align 4
  %v1_20e = add i32 %v0_20e, 76147781
  %v2_20e = inttoptr i32 %v1_20e to i32*
  %v3_20e = load i32, i32* %v2_20e, align 4
  %v4_20e = add i32 %v3_20e, -1
  store i32 %v4_20e, i32* %v2_20e, align 4
  %v0_214 = load i32, i32* %eax.global-to-local, align 4
  %v1_214 = trunc i32 %v0_214 to i8
  %v2_214 = and i8 %v1_214, -24
  %v8_214 = zext i8 %v2_214 to i32
  %v10_214 = and i32 %v0_214, -256
  %v11_214 = or i32 %v8_214, %v10_214
  store i32 %v11_214, i32* %eax.global-to-local, align 4
  %v0_216 = load i32, i32* %edx.global-to-local, align 4
  %v1_216 = and i32 %v0_216, -256
  %v2_216 = or i32 %v1_216, 82
  store i32 %v2_216, i32* %edx.global-to-local, align 4
  %v1_218 = inttoptr i32 %v11_214 to i8*
  %v2_218 = load i8, i8* %v1_218, align 8
  %v5_218 = add i8 %v2_218, %v2_214
  store i8 %v5_218, i8* %v1_218, align 8
  %v0_21a = load i32, i32* @ebp, align 4
  %v1_21a = add i32 %v0_21a, -16
  store i32 %v1_21a, i32* %eax.global-to-local, align 4
  %v1_220 = call i32 @_ZN5boost11filesystem34pathD1Ev(i32 %v1_21a)
  store i32 %v1_220, i32* %eax.global-to-local, align 4
  %v0_225 = call i32 @function_25c()
  store i32 %v0_225, i32* %eax.global-to-local, align 4
  ret i32 %v0_225
}

define i32 @function_227() local_unnamed_addr {
dec_label_pc_227:
  %eax.global-to-local = alloca i32, align 4
  %v0_227 = load i32, i32* %eax.global-to-local, align 4
  store i32 %v0_227, i32* @ebx, align 4
  %v0_229 = load i32, i32* @ebp, align 4
  %v1_229 = add i32 %v0_229, -20
  store i32 %v1_229, i32* %eax.global-to-local, align 4
  %v1_22f = call i32 @_ZN5boost11filesystem34pathD1Ev(i32 %v1_229)
  store i32 %v1_22f, i32* %eax.global-to-local, align 4
  %v0_234 = call i32 @function_238()
  store i32 %v0_234, i32* %eax.global-to-local, align 4
  ret i32 %v0_234
}

define i32 @function_236() local_unnamed_addr {
dec_label_pc_236:
  %eax.global-to-local = alloca i32, align 4
  %v0_236 = load i32, i32* %eax.global-to-local, align 4
  ret i32 %v0_236
}

define i32 @function_238() local_unnamed_addr {
dec_label_pc_238:
  %v0_238 = load i32, i32* @ebp, align 4
  %v1_238 = add i32 %v0_238, -16
  %v1_23e = call i32 @_ZN5boost11filesystem34pathD1Ev(i32 %v1_238)
  %v0_243 = call i32 @function_247()
  ret i32 %v0_243
}

define i32 @function_245() local_unnamed_addr {
dec_label_pc_245:
  %eax.global-to-local = alloca i32, align 4
  %v0_245 = load i32, i32* %eax.global-to-local, align 4
  ret i32 %v0_245
}

define i32 @function_247() local_unnamed_addr {
dec_label_pc_247:
  %v0_247 = load i32, i32* @ebp, align 4
  %v1_247 = add i32 %v0_247, -28
  %v2_247 = inttoptr i32 %v1_247 to i32*
  %v3_247 = load i32, i32* %v2_247, align 4
  %v1_24d = call i32 @_ZN10CCoinsViewD1Ev(i32 %v3_247)
  %v0_252 = load i32, i32* @ebx, align 4
  ret i32 %v0_252
}

define i32 @function_25c() local_unnamed_addr {
dec_label_pc_25c:
  %v0_25c = load i32, i32* @ebp, align 4
  %v1_25c = add i32 %v0_25c, -12
  %v2_25c = inttoptr i32 %v1_25c to i32*
  %v3_25c = load i32, i32* %v2_25c, align 4
  %v1_25f = load i32, i32* inttoptr (i32 20 to i32*), align 4
  %v2_25f = xor i32 %v1_25f, %v3_25c
  %v3_25f = icmp eq i32 %v2_25f, 0
  store i32 %v2_25f, i32* @eax, align 4
  br i1 %v3_25f, label %bb, label %dec_label_pc_268

bb:                                               ; preds = %dec_label_pc_25c
  %v1_266 = call i32 @function_26d()
  br label %dec_label_pc_268

dec_label_pc_268:                                 ; preds = %bb, %dec_label_pc_25c
  %v2_266 = phi i32 [ %v1_266, %bb ], [ %v2_25f, %dec_label_pc_25c ]
  ret i32 %v2_266
}

define i32 @function_26d() local_unnamed_addr {
dec_label_pc_26d:
  %v0_273 = load i32, i32* @eax, align 4
  ret i32 %v0_273
}

define void @_ZN12CCoinsViewDB8GetCoinsERK7uint256R6CCoins(i32 %this, i32 %txid, i32 %coins) {
dec_label_pc_274:
  %stack_var_-52 = alloca i32, align 4
  %v2_297 = ptrtoint i32* %stack_var_-52 to i32
  %v1_29d = inttoptr i32 %txid to i32*
  %v2_29d = load i32, i32* %v1_29d, align 4
  %v1_2a3 = add i32 %txid, ptrtoint (i8** @global_var_4.1177 to i32)
  %v2_2a3 = inttoptr i32 %v1_2a3 to i32*
  %v3_2a3 = load i32, i32* %v2_2a3, align 4
  %v1_2aa = add i32 %txid, ptrtoint (i32* @global_var_8.1178 to i32)
  %v2_2aa = inttoptr i32 %v1_2aa to i32*
  %v3_2aa = load i32, i32* %v2_2aa, align 4
  %v1_2b1 = add i32 %txid, 12
  %v2_2b1 = inttoptr i32 %v1_2b1 to i32*
  %v3_2b1 = load i32, i32* %v2_2b1, align 4
  %v1_2b8 = add i32 %txid, 16
  %v2_2b8 = inttoptr i32 %v1_2b8 to i32*
  %v3_2b8 = load i32, i32* %v2_2b8, align 4
  %v1_2bf = add i32 %txid, 20
  %v2_2bf = inttoptr i32 %v1_2bf to i32*
  %v3_2bf = load i32, i32* %v2_2bf, align 4
  %v1_2c6 = add i32 %txid, ptrtoint (i8** @global_var_18.1179 to i32)
  %v2_2c6 = inttoptr i32 %v1_2c6 to i32*
  %v3_2c6 = load i32, i32* %v2_2c6, align 4
  store i32 %v3_2c6, i32* @ecx, align 4
  %v1_2cd = add i32 %txid, ptrtoint (i32* @global_var_1c.1180 to i32)
  %v2_2cd = inttoptr i32 %v1_2cd to i32*
  %v3_2cd = load i32, i32* %v2_2cd, align 4
  %v11_2df = call i32 @_ZSt9make_pairIc7uint256ESt4pairIT_T0_ES2_S3_(i32 %v2_297, i8 99, i32 %v2_29d, i32 %v3_2a3, i32 %v3_2aa, i32 %v3_2b1, i32 %v3_2b8, i32 %v3_2bf, i32 %v3_2c6, i32 %v3_2cd)
  %v1_2ea = add i32 %this, ptrtoint (i8** @global_var_4.1177 to i32)
  %v4_2fe = call i32 @_ZN8CLevelDB4ReadISt4pairIc7uint256E6CCoinsEEbRKT_RT0_(i32 %v1_2ea, i32 %v2_297, i32 %coins)
  store i32 %v4_2fe, i32* @eax, align 4
  br i1 true, label %bb, label %dec_label_pc_30f

bb:                                               ; preds = %dec_label_pc_274
  %v1_30d = call i32 @DEFAULT_BLOCK_PRIORITY_SIZE()
  br label %dec_label_pc_30f

dec_label_pc_30f:                                 ; preds = %bb, %dec_label_pc_274
  ret void

; uselistorder directives
  uselistorder i32 %txid, { 1, 0, 3, 2, 5, 4, 7, 6 }
}

define i32 @DEFAULT_BLOCK_PRIORITY_SIZE() local_unnamed_addr {
dec_label_pc_314:
  %v0_315 = load i32, i32* @eax, align 4
  ret i32 %v0_315
}

define void @_ZN12CCoinsViewDB8SetCoinsERK7uint256RK6CCoins(i32 %this, i32 %txid, i32 %coins) {
dec_label_pc_316:
  %stack_var_-20 = alloca i32, align 4
  %v2_33a = ptrtoint i32* %stack_var_-20 to i32
  %v2_340 = call i32 @_ZN13CLevelDBBatchC1Ev(i32 %v2_33a)
  ret void
}

define i32 @function_37a() local_unnamed_addr {
dec_label_pc_37a:
  %eax.global-to-local = alloca i32, align 4
  %ebp.global-to-local = alloca i32, align 4
  %ebx.global-to-local = alloca i32, align 4
  %ecx.global-to-local = alloca i32, align 4
  %v0_37a = load i32, i32* %ecx.global-to-local, align 4
  %v1_37a = add i32 %v0_37a, -263877181
  %v2_37a = inttoptr i32 %v1_37a to i32*
  %v3_37a = load i32, i32* %v2_37a, align 4
  %v4_37a = sub i32 %v3_37a, ptrtoint (i8** @global_var_1.1176 to i32)
  store i32 %v4_37a, i32* %v2_37a, align 4
  %v0_380 = load i32, i32* %eax.global-to-local, align 4
  %v1_383 = call i32 @_ZN13CLevelDBBatchD1Ev(i32 %v0_380)
  %v0_388 = load i32, i32* %ebx.global-to-local, align 4
  store i32 %v0_388, i32* @eax, align 4
  %v0_38a = load i32, i32* %ebp.global-to-local, align 4
  %v1_38a = add i32 %v0_38a, -12
  %v2_38a = inttoptr i32 %v1_38a to i32*
  %v3_38a = load i32, i32* %v2_38a, align 4
  %v1_38d = load i32, i32* inttoptr (i32 20 to i32*), align 4
  %v3_38d = icmp eq i32 %v1_38d, %v3_38a
  br i1 %v3_38d, label %bb, label %dec_label_pc_396

bb:                                               ; preds = %dec_label_pc_37a
  %v1_394 = call i32 @function_3b4()
  store i32 %v1_394, i32* @eax, align 4
  br label %dec_label_pc_396

dec_label_pc_396:                                 ; preds = %bb, %dec_label_pc_37a
  %v0_396 = call i32 @function_3af()
  store i32 %v0_396, i32* %eax.global-to-local, align 4
  ret i32 %v0_396
}

define i32 @function_399() local_unnamed_addr {
dec_label_pc_399:
  %eax.global-to-local = alloca i32, align 4
  %v0_399 = load i32, i32* %eax.global-to-local, align 4
  ret i32 %v0_399
}

define i32 @function_3af() local_unnamed_addr {
dec_label_pc_3af:
  %tmp = load i32, i32* @eax, align 4
  ret i32 %tmp
}

define i32 @function_3b4() local_unnamed_addr {
dec_label_pc_3b4:
  %v0_3b9 = load i32, i32* @eax, align 4
  ret i32 %v0_3b9
}

define void @_ZN12CCoinsViewDB9HaveCoinsERK7uint256(i32 %this, i32 %txid) {
dec_label_pc_3ba:
  %stack_var_-52 = alloca i32, align 4
  %v2_3d7 = ptrtoint i32* %stack_var_-52 to i32
  %v1_3dd = inttoptr i32 %txid to i32*
  %v2_3dd = load i32, i32* %v1_3dd, align 4
  %v1_3e3 = add i32 %txid, ptrtoint (i8** @global_var_4.1177 to i32)
  %v2_3e3 = inttoptr i32 %v1_3e3 to i32*
  %v3_3e3 = load i32, i32* %v2_3e3, align 4
  %v1_3ea = add i32 %txid, ptrtoint (i32* @global_var_8.1178 to i32)
  %v2_3ea = inttoptr i32 %v1_3ea to i32*
  %v3_3ea = load i32, i32* %v2_3ea, align 4
  %v1_3f1 = add i32 %txid, 12
  %v2_3f1 = inttoptr i32 %v1_3f1 to i32*
  %v3_3f1 = load i32, i32* %v2_3f1, align 4
  %v1_3f8 = add i32 %txid, 16
  %v2_3f8 = inttoptr i32 %v1_3f8 to i32*
  %v3_3f8 = load i32, i32* %v2_3f8, align 4
  %v1_3ff = add i32 %txid, 20
  %v2_3ff = inttoptr i32 %v1_3ff to i32*
  %v3_3ff = load i32, i32* %v2_3ff, align 4
  %v1_406 = add i32 %txid, ptrtoint (i8** @global_var_18.1179 to i32)
  %v2_406 = inttoptr i32 %v1_406 to i32*
  %v3_406 = load i32, i32* %v2_406, align 4
  store i32 %v3_406, i32* @ecx, align 4
  %v1_40d = add i32 %txid, ptrtoint (i32* @global_var_1c.1180 to i32)
  %v2_40d = inttoptr i32 %v1_40d to i32*
  %v3_40d = load i32, i32* %v2_40d, align 4
  %v11_41f = call i32 @_ZSt9make_pairIc7uint256ESt4pairIT_T0_ES2_S3_(i32 %v2_3d7, i8 99, i32 %v2_3dd, i32 %v3_3e3, i32 %v3_3ea, i32 %v3_3f1, i32 %v3_3f8, i32 %v3_3ff, i32 %v3_406, i32 %v3_40d)
  %v1_42a = add i32 %this, ptrtoint (i8** @global_var_4.1177 to i32)
  %v3_437 = call i32 @_ZN8CLevelDB6ExistsISt4pairIc7uint256EEEbRKT_(i32 %v1_42a, i32 %v2_3d7)
  ret void

; uselistorder directives
  uselistorder i32 %txid, { 1, 0, 3, 2, 5, 4, 7, 6 }
}

define void @_ZN12CCoinsViewDB12GetBestBlockEv(i32 %this) {
dec_label_pc_450:
  %stack_var_-49 = alloca i8, align 1
  %stack_var_-48 = alloca i32, align 4
  %v2_467 = ptrtoint i32* %stack_var_-48 to i32
  %v2_46d = call i32 @_ZN7uint256C1Ev(i32 %v2_467)
  store i8 66, i8* %stack_var_-49, align 1
  %v1_479 = add i32 %this, ptrtoint (i8** @global_var_4.1177 to i32)
  %v2_483 = ptrtoint i8* %stack_var_-49 to i32
  %v4_48d = call i32 @_ZN8CLevelDB4ReadIc7uint256EEbRKT_RT0_(i32 %v1_479, i32 %v2_483, i32 %v2_467)
  %v1_492 = xor i32 %v4_48d, ptrtoint (i8** @global_var_1.1176 to i32)
  %v4_492 = trunc i32 %v1_492 to i8
  %v5_495 = icmp eq i8 %v4_492, 0
  br i1 %v5_495, label %dec_label_pc_4a0, label %dec_label_pc_499

dec_label_pc_499:                                 ; preds = %dec_label_pc_450
  ret void

dec_label_pc_4a0:                                 ; preds = %dec_label_pc_450
  ret void
}

define i32 @function_50f() local_unnamed_addr {
dec_label_pc_50f:
  %eax.global-to-local = alloca i32, align 4
  %v0_510 = load i32, i32* %eax.global-to-local, align 4
  ret i32 %v0_510
}

define void @_ZN12CCoinsViewDB12SetBestBlockEP11CBlockIndex(i32 %this, i32 %pindex) {
dec_label_pc_512:
  %stack_var_-48 = alloca i32, align 4
  %stack_var_-52 = alloca i32, align 4
  %v2_530 = ptrtoint i32* %stack_var_-52 to i32
  %v1_536 = call i32 @_ZN13CLevelDBBatchC1Ev(i32 %v2_530)
  %v2_53b = ptrtoint i32* %stack_var_-48 to i32
  %v3_548 = call i32 @_ZNK11CBlockIndex12GetBlockHashEv(i32* nonnull %stack_var_-48, i32 %pindex)
  call void @BatchWriteHashBestChain(i32 %v2_530, i32 %v2_53b)
  ret void
}

define i32 @function_57e() local_unnamed_addr {
dec_label_pc_57e:
  %eax.global-to-local = alloca i32, align 4
  %ebx.global-to-local = alloca i32, align 4
  %ecx.global-to-local = alloca i32, align 4
  %v0_57e = load i32, i32* %ecx.global-to-local, align 4
  %v1_57e = add i32 %v0_57e, -800748093
  %v2_57e = inttoptr i32 %v1_57e to i32*
  %v3_57e = load i32, i32* %v2_57e, align 4
  %v4_57e = sub i32 %v3_57e, ptrtoint (i8** @global_var_1.1176 to i32)
  store i32 %v4_57e, i32* %v2_57e, align 4
  %v0_584 = load i32, i32* %eax.global-to-local, align 4
  %v1_587 = call i32 @_ZN13CLevelDBBatchD1Ev(i32 %v0_584)
  %v0_58c = load i32, i32* %ebx.global-to-local, align 4
  store i32 %v0_58c, i32* @eax, align 4
  %v0_58e = load i32, i32* @ebp, align 4
  %v1_58e = add i32 %v0_58e, -12
  %v2_58e = inttoptr i32 %v1_58e to i32*
  %v3_58e = load i32, i32* %v2_58e, align 4
  %v1_591 = load i32, i32* inttoptr (i32 20 to i32*), align 4
  %v3_591 = icmp eq i32 %v1_591, %v3_58e
  br i1 %v3_591, label %bb, label %dec_label_pc_59a

bb:                                               ; preds = %dec_label_pc_57e
  %v1_598 = call i32 @function_5b8()
  store i32 %v1_598, i32* @eax, align 4
  br label %dec_label_pc_59a

dec_label_pc_59a:                                 ; preds = %bb, %dec_label_pc_57e
  %v0_59a = call i32 @function_5b3()
  store i32 %v0_59a, i32* %eax.global-to-local, align 4
  ret i32 %v0_59a
}

define i32 @function_59d() local_unnamed_addr {
dec_label_pc_59d:
  %eax.global-to-local = alloca i32, align 4
  %v0_59d = load i32, i32* %eax.global-to-local, align 4
  ret i32 %v0_59d
}

define i32 @function_5b3() local_unnamed_addr {
dec_label_pc_5b3:
  %tmp = load i32, i32* @eax, align 4
  ret i32 %tmp
}

define i32 @function_5b8() local_unnamed_addr {
dec_label_pc_5b8:
  %v0_5bc = load i32, i32* @eax, align 4
  ret i32 %v0_5bc
}

define void @_ZN12CCoinsViewDB10BatchWriteERKSt3mapI7uint2566CCoinsSt4lessIS1_ESaISt4pairIKS1_S2_EEEP11CBlockIndex(i32 %this, i32 %mapCoins, i32 %pindex) {
dec_label_pc_5be:
  %v2_5e8 = call i32 @_ZNKSt3mapI7uint2566CCoinsSt4lessIS0_ESaISt4pairIKS0_S1_EEE4sizeEv(i32 %mapCoins)
  ret void
}

define i32 @function_5fc() local_unnamed_addr {
dec_label_pc_5fc:
  %eax.global-to-local = alloca i32, align 4
  %ecx.global-to-local = alloca i32, align 4
  %edx.global-to-local = alloca i32, align 4
  %stack_var_-8 = alloca i32, align 4
  %stack_var_-4 = alloca i32, align 4
  %v0_5fc = load i32, i32* @ebp, align 4
  %v1_5fc = add i32 %v0_5fc, 76137541
  %v2_5fc = inttoptr i32 %v1_5fc to i32*
  %v3_5fc = load i32, i32* %v2_5fc, align 4
  %v4_5fc = add i32 %v3_5fc, -1
  store i32 %v4_5fc, i32* %v2_5fc, align 4
  %v0_602 = load i32, i32* %eax.global-to-local, align 4
  %v1_602 = trunc i32 %v0_602 to i8
  %v2_602 = and i8 %v1_602, -24
  %v3_602 = icmp eq i8 %v2_602, 0
  %v8_602 = zext i8 %v2_602 to i32
  %v10_602 = and i32 %v0_602, -256
  %v11_602 = or i32 %v8_602, %v10_602
  store i32 %v11_602, i32* %eax.global-to-local, align 4
  %v0_604 = load i32, i32* %ecx.global-to-local, align 4
  %v1_604 = sub i32 %v0_604, ptrtoint (i8** @global_var_1.1176 to i32)
  store i32 %v1_604, i32* @ecx, align 4
  %v2_604 = icmp eq i32 %v1_604, 0
  %v4_604 = or i1 %v3_602, %v2_604
  br i1 %v4_604, label %dec_label_pc_606, label %dec_label_pc_676

dec_label_pc_606:                                 ; preds = %dec_label_pc_5fc
  %v1_606 = inttoptr i32 %v11_602 to i8*
  %v2_606 = load i8, i8* %v1_606, align 8
  %v5_606 = add i8 %v2_606, %v2_602
  store i8 %v5_606, i8* %v1_606, align 8
  %v0_608 = load i32, i32* @ebp, align 4
  %v1_608 = add i32 %v0_608, -56
  store i32 %v1_608, i32* %eax.global-to-local, align 4
  %v1_60b = add i32 %v0_608, -80
  %v2_60b = inttoptr i32 %v1_60b to i32*
  %v3_60b = load i32, i32* %v2_60b, align 4
  store i32 %v3_60b, i32* %edx.global-to-local, align 4
  %v2_615 = call i32 @_ZNKSt3mapI7uint2566CCoinsSt4lessIS0_ESaISt4pairIKS0_S1_EEE5beginEv(i32 %v1_608, i32 %v3_60b)
  br label %dec_label_pc_668

dec_label_pc_61f:                                 ; preds = %dec_label_pc_676
  %v1_61f = add i32 %v0_61f, -56
  store i32 %v1_61f, i32* %eax.global-to-local, align 4
  store i32 %v1_61f, i32* %stack_var_-4, align 4
  %v1_625 = inttoptr i32 %v1_61f to i32*
  %v2_625 = call i32 @_ZNKSt23_Rb_tree_const_iteratorISt4pairIK7uint2566CCoinsEEptEv(i32* %v1_625)
  %v0_62d = load i32, i32* @ebp, align 4
  %v1_62d = add i32 %v0_62d, -56
  store i32 %v1_62d, i32* %eax.global-to-local, align 4
  store i32 %v1_62d, i32* %stack_var_-4, align 4
  %v1_633 = inttoptr i32 %v1_62d to i32*
  %v2_633 = call i32 @_ZNKSt23_Rb_tree_const_iteratorISt4pairIK7uint2566CCoinsEEptEv(i32* %v1_633)
  %v0_640 = load i32, i32* @ebp, align 4
  %v1_64b = add i32 %v0_640, -48
  store i32 %v1_64b, i32* %eax.global-to-local, align 4
  %v1_656 = add i32 %v0_640, -56
  store i32 %v1_656, i32* %edx.global-to-local, align 4
  store i32 %v1_64b, i32* %stack_var_-4, align 4
  %v3_660 = inttoptr i32 %v1_64b to i32*
  %v4_660 = call i32 @_ZNSt23_Rb_tree_const_iteratorISt4pairIK7uint2566CCoinsEEppEi(i32* %v3_660, i32 %v1_656, i32 0)
  br label %dec_label_pc_668

dec_label_pc_668:                                 ; preds = %dec_label_pc_61f, %dec_label_pc_606
  %storemerge.in = phi i32* [ %stack_var_-8, %dec_label_pc_61f ], [ %stack_var_-4, %dec_label_pc_606 ]
  %storemerge = ptrtoint i32* %storemerge.in to i32
  %v0_668 = load i32, i32* @ebp, align 4
  %v1_668 = add i32 %v0_668, -52
  store i32 %v1_668, i32* %eax.global-to-local, align 4
  %v1_66b = add i32 %v0_668, -80
  %v2_66b = inttoptr i32 %v1_66b to i32*
  %v3_66b = load i32, i32* %v2_66b, align 4
  store i32 %v3_66b, i32* %edx.global-to-local, align 4
  %v2_66e = add i32 %storemerge, ptrtoint (i8** @global_var_4.1177 to i32)
  %v3_66e = inttoptr i32 %v2_66e to i32*
  store i32 %v3_66b, i32* %v3_66e, align 4
  %v0_672 = load i32, i32* %eax.global-to-local, align 4
  %v1_672 = load i32, i32* @esp, align 4
  %v2_672 = inttoptr i32 %v1_672 to i32*
  store i32 %v0_672, i32* %v2_672, align 4
  %v3_672 = load i32, i32* %eax.global-to-local, align 4
  ret i32 %v3_672

dec_label_pc_676:                                 ; preds = %dec_label_pc_5fc
  %v2_676 = and i8 %v1_602, -88
  %v8_676 = zext i8 %v2_676 to i32
  %v11_676 = or i32 %v8_676, %v10_602
  store i32 %v11_676, i32* %eax.global-to-local, align 4
  %v1_678 = inttoptr i32 %v11_676 to i8*
  %v2_678 = load i8, i8* %v1_678, align 8
  %v5_678 = add i8 %v2_678, %v2_676
  store i8 %v5_678, i8* %v1_678, align 8
  %v0_67d = load i32, i32* @ebp, align 4
  %v1_67d = add i32 %v0_67d, -52
  %v1_684 = add i32 %v0_67d, -56
  store i32 %v1_684, i32* %eax.global-to-local, align 4
  store i32 %v1_684, i32* %stack_var_-4, align 4
  %v2_68a = inttoptr i32 %v1_684 to i32*
  %v3_68a = call i32 @_ZNKSt23_Rb_tree_const_iteratorISt4pairIK7uint2566CCoinsEEneERKS5_(i32* %v2_68a, i32 %v1_67d)
  store i32 %v3_68a, i32* %eax.global-to-local, align 4
  %v4_68f = trunc i32 %v3_68a to i8
  %v5_68f = icmp eq i8 %v4_68f, 0
  %v1_691 = icmp eq i1 %v5_68f, false
  %v0_61f = load i32, i32* @ebp, align 4
  br i1 %v1_691, label %dec_label_pc_61f, label %dec_label_pc_693

dec_label_pc_693:                                 ; preds = %dec_label_pc_676
  %v1_693 = add i32 %v0_61f, -84
  %v2_693 = inttoptr i32 %v1_693 to i32*
  %v3_693 = load i32, i32* %v2_693, align 4
  %v10_693 = icmp eq i32 %v3_693, 0
  br i1 %v10_693, label %dec_label_pc_6c0, label %dec_label_pc_699

dec_label_pc_699:                                 ; preds = %dec_label_pc_693
  %v1_699 = add i32 %v0_61f, -44
  store i32 %v1_699, i32* %eax.global-to-local, align 4
  %v3_69c = load i32, i32* %v2_693, align 4
  store i32 %v3_69c, i32* %edx.global-to-local, align 4
  store i32 %v1_699, i32* %stack_var_-4, align 4
  %v2_6a6 = inttoptr i32 %v1_699 to i32*
  %v3_6a6 = call i32 @_ZNK11CBlockIndex12GetBlockHashEv(i32* %v2_6a6, i32 %v3_69c)
  %v0_6ae = load i32, i32* @ebp, align 4
  %v1_6ae = add i32 %v0_6ae, -44
  store i32 %v1_6ae, i32* %stack_var_-4, align 4
  %v1_6b5 = add i32 %v0_6ae, -60
  store i32 %v1_6b5, i32* %eax.global-to-local, align 4
  store i32 %v1_6b5, i32* %stack_var_-8, align 4
  call void @BatchWriteHashBestChain(i32 %v1_6b5, i32 %v1_6ae)
  store i32 ptrtoint (i32* @0 to i32), i32* %eax.global-to-local, align 4
  %v0_6c0.pre = load i32, i32* @ebp, align 4
  br label %dec_label_pc_6c0

dec_label_pc_6c0:                                 ; preds = %dec_label_pc_699, %dec_label_pc_693
  %v0_6c0 = phi i32 [ %v0_6c0.pre, %dec_label_pc_699 ], [ %v0_61f, %dec_label_pc_693 ]
  %v1_6c0 = add i32 %v0_6c0, -76
  %v2_6c0 = inttoptr i32 %v1_6c0 to i32*
  %v3_6c0 = load i32, i32* %v2_6c0, align 4
  %v1_6c3 = add i32 %v3_6c0, ptrtoint (i8** @global_var_4.1177 to i32)
  store i32 %v1_6c3, i32* %edx.global-to-local, align 4
  %v0_6c6 = load i32, i32* @esp, align 4
  %v1_6c6 = add i32 %v0_6c6, ptrtoint (i32* @global_var_8.1178 to i32)
  %v2_6c6 = inttoptr i32 %v1_6c6 to i32*
  store i32 0, i32* %v2_6c6, align 4
  %v0_6ce = load i32, i32* @ebp, align 4
  %v1_6ce = add i32 %v0_6ce, -60
  store i32 %v1_6ce, i32* %eax.global-to-local, align 4
  %v1_6d1 = load i32, i32* @esp, align 4
  %v2_6d1 = add i32 %v1_6d1, ptrtoint (i8** @global_var_4.1177 to i32)
  %v3_6d1 = inttoptr i32 %v2_6d1 to i32*
  store i32 %v1_6ce, i32* %v3_6d1, align 4
  %v0_6d5 = load i32, i32* %edx.global-to-local, align 4
  %v1_6d5 = load i32, i32* @esp, align 4
  %v2_6d5 = inttoptr i32 %v1_6d5 to i32*
  store i32 %v0_6d5, i32* %v2_6d5, align 4
  %v3_6d5 = load i32, i32* %eax.global-to-local, align 4
  ret i32 %v3_6d5

; uselistorder directives
  uselistorder i32* %stack_var_-4, { 1, 2, 3, 0, 4, 5, 6 }
  uselistorder i32* %stack_var_-8, { 1, 0 }
  uselistorder i32* %edx.global-to-local, { 0, 1, 3, 4, 2, 5 }
  uselistorder i32* %eax.global-to-local, { 0, 1, 5, 6, 7, 8, 9, 10, 11, 12, 13, 2, 3, 4, 14, 15, 16 }
  uselistorder void (i32, i32)* @BatchWriteHashBestChain, { 1, 0 }
}

define i32 @function_6dc() local_unnamed_addr {
dec_label_pc_6dc:
  %eax.global-to-local = alloca i32, align 4
  %ebx.global-to-local = alloca i32, align 4
  %ecx.global-to-local = alloca i32, align 4
  %v0_6dc = load i32, i32* %ecx.global-to-local, align 4
  %v1_6dc = add i32 %v0_6dc, -1002074685
  %v2_6dc = inttoptr i32 %v1_6dc to i32*
  %v3_6dc = load i32, i32* %v2_6dc, align 4
  %v4_6dc = sub i32 %v3_6dc, ptrtoint (i8** @global_var_1.1176 to i32)
  store i32 %v4_6dc, i32* %v2_6dc, align 4
  %v0_6e2 = load i32, i32* %eax.global-to-local, align 4
  %v1_6e5 = call i32 @_ZN13CLevelDBBatchD1Ev(i32 %v0_6e2)
  %v0_6ea = load i32, i32* %ebx.global-to-local, align 4
  store i32 %v0_6ea, i32* @eax, align 4
  %v0_6ec = load i32, i32* @ebp, align 4
  %v1_6ec = add i32 %v0_6ec, -12
  %v2_6ec = inttoptr i32 %v1_6ec to i32*
  %v3_6ec = load i32, i32* %v2_6ec, align 4
  %v1_6ef = load i32, i32* inttoptr (i32 20 to i32*), align 4
  %v3_6ef = icmp eq i32 %v1_6ef, %v3_6ec
  br i1 %v3_6ef, label %bb, label %dec_label_pc_6f8

bb:                                               ; preds = %dec_label_pc_6dc
  %v1_6f6 = call i32 @function_716()
  store i32 %v1_6f6, i32* @eax, align 4
  br label %dec_label_pc_6f8

dec_label_pc_6f8:                                 ; preds = %bb, %dec_label_pc_6dc
  %v0_6f8 = call i32 @function_711()
  store i32 %v0_6f8, i32* %eax.global-to-local, align 4
  ret i32 %v0_6f8
}

define i32 @function_6fb() local_unnamed_addr {
dec_label_pc_6fb:
  %eax.global-to-local = alloca i32, align 4
  %v0_6fb = load i32, i32* %eax.global-to-local, align 4
  ret i32 %v0_6fb
}

define i32 @function_711() local_unnamed_addr {
dec_label_pc_711:
  %tmp = load i32, i32* @eax, align 4
  ret i32 %tmp
}

define i32 @function_716() local_unnamed_addr {
dec_label_pc_716:
  %v0_71a = load i32, i32* @eax, align 4
  ret i32 %v0_71a
}

define void @CBlockTreeDB(i32 %this, i32 %nCacheSize, i1 %fMemory, i1 %fWipe) local_unnamed_addr {
dec_label_pc_71c:
  %stack_var_-24 = alloca i32, align 4
  %stack_var_-20 = alloca i32, align 4
  %v4_724 = sext i1 %fMemory to i32
  store i32 %v4_724, i32* @edx, align 4
  %tmp125 = zext i1 %fWipe to i32
  store i32 %tmp125, i32* @esi, align 4
  %v2_75f = ptrtoint i32* %stack_var_-20 to i32
  %v5_765 = call i32 @_ZN5boost11filesystem34pathC1IA6_cEERKT_PNS_9enable_ifINS0_11path_traits11is_pathableINS_5decayIS4_E4typeEEEvE4typeE(i32 %v2_75f, i32 ptrtoint ([6 x i8]* @global_var_3e38.1185 to i32), i32 0)
  %v2_77a = ptrtoint i32* %stack_var_-24 to i32
  %v5_780 = call i32 @_ZN5boost11filesystem34pathC1IA7_cEERKT_PNS_9enable_ifINS0_11path_traits11is_pathableINS_5decayIS4_E4typeEEEvE4typeE(i32 %v2_77a, i32 ptrtoint ([7 x i8]* @global_var_3e3e.1186 to i32), i32 0)
  ret void
}

define i32 @function_792() local_unnamed_addr {
dec_label_pc_792:
  %eax.global-to-local = alloca i32, align 4
  %v0_792 = load i32, i32* %eax.global-to-local, align 4
  ret i32 %v0_792
}

define i32 @function_7e8() local_unnamed_addr {
dec_label_pc_7e8:
  %eax.global-to-local = alloca i32, align 4
  %st0.global-to-local = alloca x86_fp80, align 4
  %v0_7e8 = load i32, i32* @ebp, align 4
  %v1_7e8 = add i32 %v0_7e8, 76145733
  %v2_7e8 = inttoptr i32 %v1_7e8 to i32*
  %v3_7e8 = load i32, i32* %v2_7e8, align 4
  %v4_7e8 = add i32 %v3_7e8, -1
  store i32 %v4_7e8, i32* %v2_7e8, align 4
  %v0_7ee = load i32, i32* %eax.global-to-local, align 4
  %v11_7ee = and i32 %v0_7ee, -24
  store i32 %v11_7ee, i32* %eax.global-to-local, align 4
  %v4_7f0 = mul i32 %v11_7ee, add (i32 ptrtoint (i8** @global_var_1.1176 to i32), i32 1)
  %v5_7f0 = inttoptr i32 %v4_7f0 to float*
  %v6_7f0 = load float, float* %v5_7f0, align 8
  %v7_7f0 = fpext float %v6_7f0 to x86_fp80
  %v8_7f0 = load x86_fp80, x86_fp80* %st0.global-to-local, align 4
  %v9_7f0 = fmul x86_fp80 %v7_7f0, %v8_7f0
  store x86_fp80 %v9_7f0, x86_fp80* %st0.global-to-local, align 4
  %v0_7f4 = load i32, i32* @ebp, align 4
  %v1_7f4 = add i32 %v0_7f4, -24
  store i32 %v1_7f4, i32* %eax.global-to-local, align 4
  %v1_7fa = call i32 @_ZN5boost11filesystem34pathD1Ev(i32 %v1_7f4)
  %v0_7ff = load i32, i32* @ebp, align 4
  %v1_7ff = add i32 %v0_7ff, -20
  store i32 %v1_7ff, i32* %eax.global-to-local, align 4
  %v1_805 = call i32 @_ZN5boost11filesystem34pathD1Ev(i32 %v1_7ff)
  %v0_80a = load i32, i32* @ebp, align 4
  %v1_80a = add i32 %v0_80a, -16
  store i32 %v1_80a, i32* %eax.global-to-local, align 4
  %v1_810 = call i32 @_ZN5boost11filesystem34pathD1Ev(i32 %v1_80a)
  store i32 %v1_810, i32* %eax.global-to-local, align 4
  %v0_815 = load i32, i32* @ebp, align 4
  %v1_815 = add i32 %v0_815, -12
  %v2_815 = inttoptr i32 %v1_815 to i32*
  %v3_815 = load i32, i32* %v2_815, align 4
  store i32 %v3_815, i32* %eax.global-to-local, align 4
  %v1_818 = load i32, i32* inttoptr (i32 20 to i32*), align 4
  %v2_818 = xor i32 %v1_818, %v3_815
  %v3_818 = icmp eq i32 %v2_818, 0
  store i32 %v2_818, i32* @eax, align 4
  br i1 %v3_818, label %bb, label %dec_label_pc_821

bb:                                               ; preds = %dec_label_pc_7e8
  %v1_81f = call i32 @function_86c()
  store i32 %v1_81f, i32* @eax, align 4
  br label %dec_label_pc_821

dec_label_pc_821:                                 ; preds = %bb, %dec_label_pc_7e8
  %v0_821 = call i32 @function_867()
  store i32 %v0_821, i32* %eax.global-to-local, align 4
  ret i32 %v0_821

; uselistorder directives
  uselistorder i32 %v11_7ee, { 1, 0 }
}

define i32 @function_823() local_unnamed_addr {
dec_label_pc_823:
  %eax.global-to-local = alloca i32, align 4
  %v0_823 = load i32, i32* %eax.global-to-local, align 4
  store i32 %v0_823, i32* @ebx, align 4
  %v0_825 = load i32, i32* @ebp, align 4
  %v1_825 = add i32 %v0_825, -28
  store i32 %v1_825, i32* %eax.global-to-local, align 4
  %v1_82b = call i32 @_ZN5boost11filesystem34pathD1Ev(i32 %v1_825)
  store i32 %v1_82b, i32* %eax.global-to-local, align 4
  %v0_830 = call i32 @function_834()
  store i32 %v0_830, i32* %eax.global-to-local, align 4
  ret i32 %v0_830
}

define i32 @function_832() local_unnamed_addr {
dec_label_pc_832:
  %eax.global-to-local = alloca i32, align 4
  %v0_832 = load i32, i32* %eax.global-to-local, align 4
  ret i32 %v0_832
}

define i32 @function_834() local_unnamed_addr {
dec_label_pc_834:
  %v0_834 = load i32, i32* @ebp, align 4
  %v1_834 = add i32 %v0_834, -24
  %v1_83a = call i32 @_ZN5boost11filesystem34pathD1Ev(i32 %v1_834)
  %v0_83f = call i32 @function_843()
  ret i32 %v0_83f
}

define i32 @function_841() local_unnamed_addr {
dec_label_pc_841:
  %eax.global-to-local = alloca i32, align 4
  %v0_841 = load i32, i32* %eax.global-to-local, align 4
  ret i32 %v0_841
}

define i32 @function_843() local_unnamed_addr {
dec_label_pc_843:
  %v0_843 = load i32, i32* @ebp, align 4
  %v1_843 = add i32 %v0_843, -20
  %v1_849 = call i32 @_ZN5boost11filesystem34pathD1Ev(i32 %v1_843)
  %v0_84e = call i32 @function_852()
  ret i32 %v0_84e
}

define i32 @function_850() local_unnamed_addr {
dec_label_pc_850:
  %eax.global-to-local = alloca i32, align 4
  %v0_850 = load i32, i32* %eax.global-to-local, align 4
  ret i32 %v0_850
}

define i32 @function_852() local_unnamed_addr {
dec_label_pc_852:
  %v0_852 = load i32, i32* @ebp, align 4
  %v1_852 = add i32 %v0_852, -16
  %v1_858 = call i32 @_ZN5boost11filesystem34pathD1Ev(i32 %v1_852)
  %v0_85d = load i32, i32* @ebx, align 4
  ret i32 %v0_85d

; uselistorder directives
  uselistorder i32 (i32)* @_ZN5boost11filesystem34pathD1Ev, { 9, 8, 7, 6, 5, 4, 3, 2, 1, 0 }
}

define i32 @function_867() local_unnamed_addr {
dec_label_pc_867:
  %v0_867 = load i32, i32* @eax, align 4
  ret i32 %v0_867
}

define i32 @function_86c() local_unnamed_addr {
dec_label_pc_86c:
  %v0_872 = load i32, i32* @eax, align 4
  ret i32 %v0_872
}

define void @_ZN12CBlockTreeDB15WriteBlockIndexERK15CDiskBlockIndex(i32 %this, i32 %blockindex) local_unnamed_addr {
dec_label_pc_874:
  %tmp98 = call i32 @__decompiler_undefined_function_0()
  %tmp100 = call i32 @__decompiler_undefined_function_0()
  %tmp102 = call i32 @__decompiler_undefined_function_0()
  %tmp104 = call i32 @__decompiler_undefined_function_0()
  %tmp106 = call i32 @__decompiler_undefined_function_0()
  %tmp108 = call i32 @__decompiler_undefined_function_0()
  %tmp110 = call i32 @__decompiler_undefined_function_0()
  %stack_var_-84 = alloca i32, align 4
  %stack_var_-48 = alloca i32, align 4
  %v2_894 = ptrtoint i32* %stack_var_-48 to i32
  %v2_8a1 = call i32 @_ZNK15CDiskBlockIndex12GetBlockHashEv(i32 %v2_894, i32 %blockindex)
  %v2_8a9 = ptrtoint i32* %stack_var_-84 to i32
  %v3_8ac = load i32, i32* %stack_var_-48, align 4
  %v11_8ef = call i32 @_ZSt9make_pairIc7uint256ESt4pairIT_T0_ES2_S3_(i32 %v2_8a9, i8 98, i32 %v3_8ac, i32 %tmp110, i32 %tmp108, i32 %tmp106, i32 %tmp104, i32 %tmp102, i32 %tmp100, i32 %tmp98)
  %v5_913 = call i32 @_ZN8CLevelDB5WriteISt4pairIc7uint256E15CDiskBlockIndexEEbRKT_RKT0_b(i32 %this, i32 %v2_8a9, i32 %blockindex, i8 0)
  store i32 %v5_913, i32* @eax, align 4
  br i1 true, label %bb, label %dec_label_pc_924

bb:                                               ; preds = %dec_label_pc_874
  %v1_922 = call i32 @function_929()
  br label %dec_label_pc_924

dec_label_pc_924:                                 ; preds = %bb, %dec_label_pc_874
  ret void
}

define i32 @function_929() local_unnamed_addr {
dec_label_pc_929:
  %v0_92a = load i32, i32* @eax, align 4
  ret i32 %v0_92a
}

define void @_ZN12CBlockTreeDB19ReadBestInvalidWorkER7CBigNum(i32 %this, i32 %bnBestInvalidWork) local_unnamed_addr {
dec_label_pc_92c:
  %stack_var_-17 = alloca i8, align 1
  store i8 73, i8* %stack_var_-17, align 1
  %v2_957 = ptrtoint i8* %stack_var_-17 to i32
  %v3_961 = call i32 @_ZN8CLevelDB4ReadIc7CBigNumEEbRKT_RT0_(i32 %this, i32 %v2_957, i32 %bnBestInvalidWork)
  store i32 %v3_961, i32* @eax, align 4
  br i1 true, label %bb, label %dec_label_pc_972

bb:                                               ; preds = %dec_label_pc_92c
  %v1_970 = call i32 @function_977()
  br label %dec_label_pc_972

dec_label_pc_972:                                 ; preds = %bb, %dec_label_pc_92c
  ret void
}

define i32 @function_977() local_unnamed_addr {
dec_label_pc_977:
  %v0_978 = load i32, i32* @eax, align 4
  ret i32 %v0_978
}

define void @_ZN12CBlockTreeDB20WriteBestInvalidWorkERK7CBigNum(i32 %this, i32 %bnBestInvalidWork) local_unnamed_addr {
dec_label_pc_97a:
  %stack_var_-17 = alloca i8, align 1
  store i8 73, i8* %stack_var_-17, align 1
  %v2_9ad = ptrtoint i8* %stack_var_-17 to i32
  %v5_9b7 = call i32 @_ZN8CLevelDB5WriteIc7CBigNumEEbRKT_RKT0_b(i32 %this, i32 %v2_9ad, i32 %bnBestInvalidWork, i8 0)
  store i32 %v5_9b7, i32* @eax, align 4
  br i1 true, label %bb, label %dec_label_pc_9c8

bb:                                               ; preds = %dec_label_pc_97a
  %v1_9c6 = call i32 @function_9cd()
  br label %dec_label_pc_9c8

dec_label_pc_9c8:                                 ; preds = %bb, %dec_label_pc_97a
  ret void
}

define i32 @function_9cd() local_unnamed_addr {
dec_label_pc_9cd:
  %v0_9ce = load i32, i32* @eax, align 4
  ret i32 %v0_9ce
}

define void @_ZN12CBlockTreeDB18WriteBlockFileInfoEiRK14CBlockFileInfo(i32 %this, i32 %nFile, i32 %info) local_unnamed_addr {
dec_label_pc_9d0:
  %stack_var_-24 = alloca i32, align 4
  %v2_9f3 = ptrtoint i32* %stack_var_-24 to i32
  %v4_a08 = call i32 @_ZSt9make_pairIciESt4pairIT_T0_ES1_S2_(i32 %v2_9f3, i8 102, i32 %nFile)
  %v5_a2c = call i32 @_ZN8CLevelDB5WriteISt4pairIciE14CBlockFileInfoEEbRKT_RKT0_b(i32 %this, i32 %v2_9f3, i32 %info, i8 0)
  store i32 %v5_a2c, i32* @eax, align 4
  br i1 true, label %bb, label %dec_label_pc_a3d

bb:                                               ; preds = %dec_label_pc_9d0
  %v1_a3b = call i32 @function_a42()
  br label %dec_label_pc_a3d

dec_label_pc_a3d:                                 ; preds = %bb, %dec_label_pc_9d0
  ret void
}

define i32 @function_a42() local_unnamed_addr {
dec_label_pc_a42:
  %v0_a43 = load i32, i32* @eax, align 4
  ret i32 %v0_a43
}

define void @_ZN12CBlockTreeDB17ReadBlockFileInfoEiR14CBlockFileInfo(i32 %this, i32 %nFile, i32 %info) local_unnamed_addr {
dec_label_pc_a44:
  %stack_var_-24 = alloca i32, align 4
  %v2_a67 = ptrtoint i32* %stack_var_-24 to i32
  %v4_a7c = call i32 @_ZSt9make_pairIciESt4pairIT_T0_ES1_S2_(i32 %v2_a67, i8 102, i32 %nFile)
  %v3_a98 = call i32 @_ZN8CLevelDB4ReadISt4pairIciE14CBlockFileInfoEEbRKT_RT0_(i32 %this, i32 %v2_a67, i32 %info)
  ret void
}

define void @_ZN12CBlockTreeDB18WriteLastBlockFileEi(i32 %this, i32 %nFile) local_unnamed_addr {
dec_label_pc_ab0:
  %stack_var_-17 = alloca i8, align 1
  %stack_var_-36 = alloca i32, align 4
  store i32 %nFile, i32* %stack_var_-36, align 4
  store i8 108, i8* %stack_var_-17, align 1
  %v4_adf = ptrtoint i32* %stack_var_-36 to i32
  %v2_ae3 = ptrtoint i8* %stack_var_-17 to i32
  %v5_aed = call i32 @_ZN8CLevelDB5WriteIciEEbRKT_RKT0_b(i32 %this, i32 %v2_ae3, i32 %v4_adf, i8 0)
  store i32 %v5_aed, i32* @eax, align 4
  br i1 true, label %bb, label %dec_label_pc_afe

bb:                                               ; preds = %dec_label_pc_ab0
  %v1_afc = call i32 @function_b03()
  br label %dec_label_pc_afe

dec_label_pc_afe:                                 ; preds = %bb, %dec_label_pc_ab0
  ret void
}

define i32 @function_b03() local_unnamed_addr {
dec_label_pc_b03:
  %v0_b04 = load i32, i32* @eax, align 4
  ret i32 %v0_b04
}

define void @_ZN12CBlockTreeDB15WriteReindexingEb(i32 %this, i1 %fReindexing) local_unnamed_addr {
dec_label_pc_b06:
  %stack_var_-17 = alloca i8, align 1
  %stack_var_-19 = alloca i8, align 1
  %stack_var_-18 = alloca i8, align 1
  %v11_b23 = icmp eq i1 %fReindexing, false
  br i1 %v11_b23, label %dec_label_pc_b54, label %dec_label_pc_b29

dec_label_pc_b29:                                 ; preds = %dec_label_pc_b06
  store i8 ptrtoint (i8* @global_var_31.1187 to i8), i8* %stack_var_-18, align 1
  store i8 82, i8* %stack_var_-19, align 1
  %v4_b3f = ptrtoint i8* %stack_var_-18 to i32
  %v2_b43 = ptrtoint i8* %stack_var_-19 to i32
  %v5_b4d = call i32 @_ZN8CLevelDB5WriteIccEEbRKT_RKT0_b(i32 %this, i32 %v2_b43, i32 %v4_b3f, i8 0)
  br label %dec_label_pc_b72

dec_label_pc_b54:                                 ; preds = %dec_label_pc_b06
  store i8 82, i8* %stack_var_-17, align 1
  %v2_b63 = ptrtoint i8* %stack_var_-17 to i32
  %v4_b6d = call i32 @_ZN8CLevelDB5EraseIcEEbRKT_b(i32 %this, i32 %v2_b63, i8 0)
  br label %dec_label_pc_b72

dec_label_pc_b72:                                 ; preds = %dec_label_pc_b54, %dec_label_pc_b29
  %storemerge = phi i32 [ %v4_b6d, %dec_label_pc_b54 ], [ %v5_b4d, %dec_label_pc_b29 ]
  store i32 %storemerge, i32* @eax, align 4
  br i1 true, label %bb, label %dec_label_pc_b7e

bb:                                               ; preds = %dec_label_pc_b72
  %v1_b7c = call i32 @function_b83()
  br label %dec_label_pc_b7e

dec_label_pc_b7e:                                 ; preds = %bb, %dec_label_pc_b72
  ret void

; uselistorder directives
  uselistorder i32 %this, { 1, 0 }
}

define i32 @function_b83() local_unnamed_addr {
dec_label_pc_b83:
  %v0_b84 = load i32, i32* @eax, align 4
  ret i32 %v0_b84
}

define void @_ZN12CBlockTreeDB14ReadReindexingERb(i32 %this, i1 %fReindexing) local_unnamed_addr {
dec_label_pc_b86:
  %stack_var_-17 = alloca i8, align 1
  %v4_b92 = sext i1 %fReindexing to i32
  store i8 82, i8* %stack_var_-17, align 1
  %v2_baa = ptrtoint i8* %stack_var_-17 to i32
  store i32 %v2_baa, i32* @edx, align 4
  %v2_bb4 = call i32 @_ZN8CLevelDB6ExistsIcEEbRKT_(i32 %this, i32 %v2_baa)
  %v1_bbe = trunc i32 %v2_bb4 to i8
  %v3_bbe = inttoptr i32 %v4_b92 to i8*
  store i8 %v1_bbe, i8* %v3_bbe, align 1
  store i32 ptrtoint (i8** @global_var_1.1176 to i32), i32* @eax, align 4
  br i1 true, label %bb, label %dec_label_pc_bd1

bb:                                               ; preds = %dec_label_pc_b86
  %v1_bcf = call i32 @function_bd6()
  br label %dec_label_pc_bd1

dec_label_pc_bd1:                                 ; preds = %bb, %dec_label_pc_b86
  ret void
}

define i32 @function_bd6() local_unnamed_addr {
dec_label_pc_bd6:
  %v0_bd7 = load i32, i32* @eax, align 4
  ret i32 %v0_bd7
}

define void @_ZN12CBlockTreeDB17ReadLastBlockFileERi(i32 %this, i32 %nFile) local_unnamed_addr {
dec_label_pc_bd8:
  %stack_var_-17 = alloca i8, align 1
  store i8 108, i8* %stack_var_-17, align 1
  %v2_c03 = ptrtoint i8* %stack_var_-17 to i32
  %v3_c0d = call i32 @_ZN8CLevelDB4ReadIciEEbRKT_RT0_(i32 %this, i32 %v2_c03, i32 %nFile)
  store i32 %v3_c0d, i32* @eax, align 4
  br i1 true, label %bb, label %dec_label_pc_c1e

bb:                                               ; preds = %dec_label_pc_bd8
  %v1_c1c = call i32 @function_c23()
  br label %dec_label_pc_c1e

dec_label_pc_c1e:                                 ; preds = %bb, %dec_label_pc_bd8
  ret void
}

define i32 @function_c23() local_unnamed_addr {
dec_label_pc_c23:
  %v0_c24 = load i32, i32* @eax, align 4
  ret i32 %v0_c24
}

define void @_ZN12CCoinsViewDB8GetStatsER11CCoinsStats(i32 %this, i32 %stats) {
dec_label_pc_c26:
  %slKey_-232 = alloca %Slice.0, align 8
  %slKey_-236 = alloca %Slice, align 8
  %stack_var_-364 = alloca i32, align 4
  %stack_var_-168 = alloca i32, align 4
  %v1_c54 = add i32 %this, ptrtoint (i8** @global_var_4.1177 to i32)
  %v2_c5a = call i32 @_ZN8CLevelDB11NewIteratorEv(i32 %v1_c54)
  %v2_c8d = ptrtoint i32* %stack_var_-168 to i32
  %v5_c96 = call i32 @_ZN11CHashWriterC1Eii(i32 %v2_c8d, i32 ptrtoint (i8** @global_var_4.1177 to i32), i32 80000)
  store i32 %stats, i32* @ebx, align 4
  %v5_cc8 = call i32 @_ZNK11CBlockIndex12GetBlockHashEv(i32* nonnull %stack_var_-364, i32 %this)
  %v3_cd0 = load i32, i32* %stack_var_-364, align 4
  %v1_cd6 = load i32, i32* @ebx, align 4
  %v2_cd6 = add i32 %v1_cd6, ptrtoint (i8** @global_var_4.1177 to i32)
  %v3_cd6 = inttoptr i32 %v2_cd6 to i32*
  store i32 %v3_cd0, i32* %v3_cd6, align 4
  %v1_cdf = load i32, i32* @ebx, align 4
  %v2_cdf = add i32 %v1_cdf, ptrtoint (i32* @global_var_8.1178 to i32)
  %v3_cdf = inttoptr i32 %v2_cdf to i32*
  %v1_ce8 = load i32, i32* @ebx, align 4
  %v2_ce8 = add i32 %v1_ce8, 12
  %v3_ce8 = inttoptr i32 %v2_ce8 to i32*
  %v1_cf1 = load i32, i32* @ebx, align 4
  %v2_cf1 = add i32 %v1_cf1, 16
  %v3_cf1 = inttoptr i32 %v2_cf1 to i32*
  %v1_cfa = load i32, i32* @ebx, align 4
  %v2_cfa = add i32 %v1_cfa, 20
  %v3_cfa = inttoptr i32 %v2_cfa to i32*
  %v1_d03 = load i32, i32* @ebx, align 4
  %v2_d03 = add i32 %v1_d03, ptrtoint (i8** @global_var_18.1179 to i32)
  %v3_d03 = inttoptr i32 %v2_d03 to i32*
  %v1_d0c = load i32, i32* @ebx, align 4
  %v2_d0c = add i32 %v1_d0c, ptrtoint (i32* @global_var_1c.1180 to i32)
  %v3_d0c = inttoptr i32 %v2_d0c to i32*
  %v1_d15 = load i32, i32* @ebx, align 4
  %v2_d15 = add i32 %v1_d15, ptrtoint (i32* @global_var_20.1184 to i32)
  %v3_d15 = inttoptr i32 %v2_d15 to i32*
  %v1_d1e = add i32 %stats, ptrtoint (i8** @global_var_4.1177 to i32)
  %v3_d2e = call i32 @_ZN11CHashWriterlsI7uint256EERS_RKT_(i32 %v2_c8d, i32 %v1_d1e)
  store %Slice { i8* null, i32 undef }, %Slice* %slKey_-236, align 8
  store %Slice.0 { i8* null, i32 undef }, %Slice.0* %slKey_-232, align 8
  %v2_d47 = bitcast %Slice* %slKey_-236 to i32*
  %v3_d47 = load i32, i32* %v2_d47, align 8
  %v4_d47 = bitcast %Slice.0* %slKey_-232 to i32*
  %v5_d47 = load i32, i32* %v4_d47, align 8
  %v6_d47 = call i32 @function_1176(i32 %v3_d47, i32 %v5_d47)
  ret void

; uselistorder directives
  uselistorder i32* %stack_var_-364, { 1, 0 }
  uselistorder i32 (i32*, i32)* @_ZNK11CBlockIndex12GetBlockHashEv, { 1, 0, 2 }
  uselistorder i32 %stats, { 1, 0 }
  uselistorder i32 %this, { 1, 0 }
}

define i32 @function_d50() local_unnamed_addr {
dec_label_pc_d50:
  %eax.global-to-local = alloca i32, align 4
  %ebp.global-to-local = alloca i32, align 4
  %ebx.global-to-local = alloca i32, align 4
  %ecx.global-to-local = alloca i32, align 4
  %edx.global-to-local = alloca i32, align 4
  %esi.global-to-local = alloca i32, align 4
  %stack_var_-16 = alloca i32, align 4
  %stack_var_-12 = alloca i32, align 4
  %v0_d50 = load i32, i32* %ebx.global-to-local, align 4
  %v1_d50 = add i32 %v0_d50, -45947
  %v2_d50 = inttoptr i32 %v1_d50 to i32*
  %v3_d50 = load i32, i32* %v2_d50, align 4
  %v4_d50 = sub i32 %v3_d50, ptrtoint (i8** @global_var_1.1176 to i32)
  store i32 %v4_d50, i32* %v2_d50, align 4
  %v0_d56 = load i32, i32* %ebx.global-to-local, align 4
  %v1_d56 = add i32 %v0_d56, 549487360
  %v2_d56 = inttoptr i32 %v1_d56 to i32*
  %v3_d56 = load i32, i32* %v2_d56, align 4
  %v4_d56 = add i32 %v3_d56, -1
  store i32 %v4_d56, i32* %v2_d56, align 4
  %v2_d5c = load i32, i32* %eax.global-to-local, align 4
  store i32 %v2_d5c, i32* @ecx, align 4
  %v0_d5e = load i32, i32* %ebp.global-to-local, align 4
  %v1_d5e = add i32 %v0_d5e, -224
  store i32 %v1_d5e, i32* %eax.global-to-local, align 4
  %v1_d64 = add i32 %v0_d5e, -180
  %v2_d64 = inttoptr i32 %v1_d64 to i32*
  %v3_d64 = load i32, i32* %v2_d64, align 4
  store i32 %v3_d64, i32* %edx.global-to-local, align 4
  store i32 %v1_d5e, i32* %eax.global-to-local, align 4
  %v1_d7f = call i32 @_ZNK7leveldb5Slice4dataEv(i32 %v1_d5e)
  store i32 %v1_d7f, i32* %ebx.global-to-local, align 4
  %v0_d86 = load i32, i32* @ebp, align 4
  %v1_d86 = add i32 %v0_d86, -224
  store i32 %v1_d86, i32* %eax.global-to-local, align 4
  %v1_d8f = call i32 @_ZNK7leveldb5Slice4sizeEv(i32 %v1_d86)
  %v2_d94 = add i32 %v1_d7f, %v1_d8f
  store i32 %v2_d94, i32* %ebx.global-to-local, align 4
  %v0_d96 = load i32, i32* @ebp, align 4
  %v1_d96 = add i32 %v0_d96, -224
  store i32 %v1_d96, i32* %eax.global-to-local, align 4
  %v1_d9f = call i32 @_ZNK7leveldb5Slice4dataEv(i32 %v1_d96)
  %v0_dbc = load i32, i32* @ebp, align 4
  %v1_dbc = add i32 %v0_dbc, -312
  store i32 %v1_dbc, i32* %eax.global-to-local, align 4
  %v5_dc5 = call i32 @_ZN11CDataStreamC1EPKcS1_ii(i32 %v1_dbc, i32 %v1_d9f, i32 %v2_d94, i32 2, i32 1020000)
  %v0_dca = load i32, i32* @ebp, align 4
  %v1_dca = add i32 %v0_dca, -166
  %v1_dd4 = add i32 %v0_dca, -312
  store i32 %v1_dd4, i32* %eax.global-to-local, align 4
  %v2_ddd = call i32 @_ZN11CDataStreamrsIcEERS_RT_(i32 %v1_dd4, i32 %v1_dca)
  store i32 %v2_ddd, i32* %eax.global-to-local, align 4
  %v0_de2 = load i32, i32* @ebp, align 4
  %v1_de2 = add i32 %v0_de2, -166
  %v2_de2 = inttoptr i32 %v1_de2 to i8*
  %v3_de2 = load i8, i8* %v2_de2, align 1
  %v4_de2 = zext i8 %v3_de2 to i32
  store i32 %v4_de2, i32* %eax.global-to-local, align 4
  %v11_de9 = icmp eq i8 %v3_de2, 99
  %v1_deb = icmp eq i1 %v11_de9, false
  br i1 %v1_deb, label %dec_label_pc_1150, label %dec_label_pc_df1

dec_label_pc_df1:                                 ; preds = %dec_label_pc_d50
  %v1_df1 = add i32 %v0_de2, -180
  %v2_df1 = inttoptr i32 %v1_df1 to i32*
  %v3_df1 = load i32, i32* %v2_df1, align 4
  store i32 %v3_df1, i32* %eax.global-to-local, align 4
  %v1_df7 = inttoptr i32 %v3_df1 to i32*
  %v2_df7 = load i32, i32* %v1_df7, align 4
  %v1_df9 = add i32 %v2_df7, 36
  store i32 %v1_df9, i32* %eax.global-to-local, align 4
  %v1_dfc = inttoptr i32 %v1_df9 to i32*
  %v2_dfc = load i32, i32* %v1_dfc, align 4
  store i32 %v2_dfc, i32* @ecx, align 4
  %v1_dfe = add i32 %v0_de2, -216
  store i32 %v1_dfe, i32* %eax.global-to-local, align 4
  %v3_e04 = load i32, i32* %v2_df1, align 4
  store i32 %v3_e04, i32* %edx.global-to-local, align 4
  store i32 %v1_dfe, i32* %eax.global-to-local, align 4
  %v1_e1f = call i32 @_ZNK7leveldb5Slice4dataEv(i32 %v1_dfe)
  store i32 %v1_e1f, i32* %ebx.global-to-local, align 4
  %v0_e26 = load i32, i32* @ebp, align 4
  %v1_e26 = add i32 %v0_e26, -216
  store i32 %v1_e26, i32* %eax.global-to-local, align 4
  %v1_e2f = call i32 @_ZNK7leveldb5Slice4sizeEv(i32 %v1_e26)
  %v2_e34 = add i32 %v1_e1f, %v1_e2f
  store i32 %v2_e34, i32* @ebx, align 4
  %v0_e36 = load i32, i32* @ebp, align 4
  %v1_e36 = add i32 %v0_e36, -216
  store i32 %v1_e36, i32* %eax.global-to-local, align 4
  %v1_e3f = call i32 @_ZNK7leveldb5Slice4dataEv(i32 %v1_e36)
  %v0_e54 = load i32, i32* @ebx, align 4
  %v0_e5c = load i32, i32* @ebp, align 4
  %v1_e5c = add i32 %v0_e5c, -284
  store i32 %v1_e5c, i32* %eax.global-to-local, align 4
  %v5_e65 = call i32 @_ZN11CDataStreamC1EPKcS1_ii(i32 %v1_e5c, i32 %v1_e3f, i32 %v0_e54, i32 2, i32 1020000)
  %v0_e6a = load i32, i32* @ebp, align 4
  %v1_e6a = add i32 %v0_e6a, -256
  store i32 %v1_e6a, i32* %eax.global-to-local, align 4
  %v1_e73 = inttoptr i32 %v1_e6a to i8*
  %v2_e73 = call i32 @_ZN6CCoinsC1Ev(i8* %v1_e73)
  %v0_e78 = load i32, i32* @ebp, align 4
  %v1_e78 = add i32 %v0_e78, -256
  %v1_e82 = add i32 %v0_e78, -284
  store i32 %v1_e82, i32* %eax.global-to-local, align 4
  %v2_e8b = call i32 @_ZN11CDataStreamrsI6CCoinsEERS_RT_(i32 %v1_e82, i32 %v1_e78)
  %v0_e90 = load i32, i32* @ebp, align 4
  %v1_e90 = add i32 %v0_e90, -44
  store i32 %v1_e90, i32* %eax.global-to-local, align 4
  %v1_e96 = call i32 @_ZN7uint256C1Ev(i32 %v1_e90)
  %v0_e9b = load i32, i32* @ebp, align 4
  %v1_e9b = add i32 %v0_e9b, -44
  %v1_ea2 = add i32 %v0_e9b, -312
  store i32 %v1_ea2, i32* %eax.global-to-local, align 4
  %v2_eab = call i32 @_ZN11CDataStreamrsI7uint256EERS_RT_(i32 %v1_ea2, i32 %v1_e9b)
  %v0_eb0 = load i32, i32* @ebp, align 4
  %v1_eb0 = add i32 %v0_eb0, -44
  %v1_eb7 = add i32 %v0_eb0, -164
  store i32 %v1_eb7, i32* %eax.global-to-local, align 4
  %v2_ec0 = call i32 @_ZN11CHashWriterlsI7uint256EERS_RKT_(i32 %v1_eb7, i32 %v1_eb0)
  %v0_ec5 = load i32, i32* @ebp, align 4
  %v1_ecb = add i32 %v0_ec5, -236
  store i32 %v1_ecb, i32* %eax.global-to-local, align 4
  %v1_ed1 = call i32 @_Z3REFIiERT_RKS0_(i32 %v1_ecb)
  store i32 %v1_ed1, i32* %eax.global-to-local, align 4
  %v0_ed6 = load i32, i32* @ebp, align 4
  %v1_ed6 = add i32 %v0_ed6, -208
  store i32 %v1_ed6, i32* %edx.global-to-local, align 4
  %v2_ee3 = call i32 @_Z10WrapVarIntIiE7CVarIntIT_ERS1_(i32 %v1_ed6, i32 %v1_ed1)
  %v0_eeb = load i32, i32* @ebp, align 4
  %v1_eeb = add i32 %v0_eeb, -208
  store i32 %v1_eeb, i32* %eax.global-to-local, align 4
  store i32 %v1_eeb, i32* %stack_var_-12, align 4
  %v1_ef4 = call i32 @_Z3REFI7CVarIntIiEERT_RKS2_(i32 %v1_eeb)
  %v0_efd = load i32, i32* @ebp, align 4
  %v1_efd = add i32 %v0_efd, -164
  store i32 %v1_efd, i32* %eax.global-to-local, align 4
  store i32 %v1_efd, i32* %stack_var_-12, align 4
  %v2_f06 = call i32 @_ZN11CHashWriterlsI7CVarIntIiEEERS_RKT_(i32 %v1_efd, i32 %v1_ef4)
  store i32 %v2_f06, i32* %eax.global-to-local, align 4
  %v0_f0b = load i32, i32* @ebp, align 4
  %v1_f0b = add i32 %v0_f0b, -256
  %v2_f0b = inttoptr i32 %v1_f0b to i8*
  %v3_f0b = load i8, i8* %v2_f0b, align 1
  %v5_f12 = icmp eq i8 %v3_f0b, 0
  %v1_f22 = select i1 %v5_f12, i8 110, i8 99
  %v3_f22 = add i32 %v0_f0b, -165
  %v4_f22 = inttoptr i32 %v3_f22 to i8*
  store i8 %v1_f22, i8* %v4_f22, align 1
  %v0_f28 = load i32, i32* @ebp, align 4
  %v1_f28 = add i32 %v0_f28, -165
  %v1_f32 = add i32 %v0_f28, -164
  store i32 %v1_f32, i32* %eax.global-to-local, align 4
  store i32 %v1_f32, i32* %stack_var_-12, align 4
  %v2_f3b = call i32 @_ZN11CHashWriterlsIcEERS_RKT_(i32 %v1_f32, i32 %v1_f28)
  %v0_f40 = load i32, i32* @ebp, align 4
  %v1_f46 = add i32 %v0_f40, -240
  store i32 %v1_f46, i32* %eax.global-to-local, align 4
  store i32 %v1_f46, i32* %stack_var_-12, align 4
  %v1_f4c = call i32 @_Z3REFIiERT_RKS0_(i32 %v1_f46)
  store i32 %v1_f4c, i32* %eax.global-to-local, align 4
  %v0_f51 = load i32, i32* @ebp, align 4
  %v1_f51 = add i32 %v0_f51, -204
  store i32 %v1_f51, i32* %edx.global-to-local, align 4
  store i32 %v1_f51, i32* %stack_var_-12, align 4
  %v2_f5e = call i32 @_Z10WrapVarIntIiE7CVarIntIT_ERS1_(i32 %v1_f51, i32 %v1_f4c)
  %v0_f66 = load i32, i32* @ebp, align 4
  %v1_f66 = add i32 %v0_f66, -204
  store i32 %v1_f66, i32* %eax.global-to-local, align 4
  store i32 %v1_f66, i32* %stack_var_-16, align 4
  %v1_f6f = call i32 @_Z3REFI7CVarIntIiEERT_RKS2_(i32 %v1_f66)
  store i32 %v1_f6f, i32* %stack_var_-12, align 4
  %v0_f78 = load i32, i32* @ebp, align 4
  %v1_f78 = add i32 %v0_f78, -164
  store i32 %v1_f78, i32* %eax.global-to-local, align 4
  store i32 %v1_f78, i32* %stack_var_-16, align 4
  %v2_f81 = call i32 @_ZN11CHashWriterlsI7CVarIntIiEEERS_RKT_(i32 %v1_f78, i32 %v1_f6f)
  store i32 %v2_f81, i32* %eax.global-to-local, align 4
  %v0_f86 = load i32, i32* @ebp, align 4
  %v1_f86 = add i32 %v0_f86, -320
  %v2_f86 = inttoptr i32 %v1_f86 to i32*
  %v3_f86 = load i32, i32* %v2_f86, align 4
  store i32 %v3_f86, i32* %eax.global-to-local, align 4
  %v1_f8c = add i32 %v3_f86, 40
  %v2_f8c = inttoptr i32 %v1_f8c to i32*
  %v3_f8c = load i32, i32* %v2_f8c, align 4
  store i32 %v3_f8c, i32* %edx.global-to-local, align 4
  %v1_f8f = add i32 %v3_f86, 36
  %v2_f8f = inttoptr i32 %v1_f8f to i32*
  %v3_f8f = load i32, i32* %v2_f8f, align 4
  %v1_f92 = add i32 %v3_f8f, 1
  %v5_f92 = icmp eq i32 %v3_f8f, -1
  store i32 %v1_f92, i32* %eax.global-to-local, align 4
  %v2_f95 = zext i1 %v5_f92 to i32
  %v3_f95 = add i32 %v2_f95, %v3_f8c
  store i32 %v3_f95, i32* %edx.global-to-local, align 4
  %v3_f98 = load i32, i32* %v2_f86, align 4
  store i32 %v3_f98, i32* %ecx.global-to-local, align 4
  %v2_f9e = add i32 %v3_f98, 36
  %v3_f9e = inttoptr i32 %v2_f9e to i32*
  store i32 %v1_f92, i32* %v3_f9e, align 4
  %v0_fa1 = load i32, i32* %edx.global-to-local, align 4
  %v1_fa1 = load i32, i32* %ecx.global-to-local, align 4
  %v2_fa1 = add i32 %v1_fa1, 40
  %v3_fa1 = inttoptr i32 %v2_fa1 to i32*
  store i32 %v0_fa1, i32* %v3_fa1, align 4
  %v0_fa4 = load i32, i32* @ebp, align 4
  %v1_fa4 = add i32 %v0_fa4, -184
  %v2_fa4 = inttoptr i32 %v1_fa4 to i32*
  store i32 0, i32* %v2_fa4, align 4
  br label %dec_label_pc_1093

dec_label_pc_fb3:                                 ; preds = %dec_label_pc_1093
  %v3_fb3 = load i32, i32* %v3_10a4, align 4
  %v1_fb9 = load i32, i32* @esp, align 4
  %v2_fb9 = add i32 %v1_fb9, 4
  %v3_fb9 = inttoptr i32 %v2_fb9 to i32*
  store i32 %v3_fb3, i32* %v3_fb9, align 4
  %v0_fbd = load i32, i32* @ebp, align 4
  %v1_fc3 = add i32 %v0_fbd, -252
  store i32 %v1_fc3, i32* %eax.global-to-local, align 4
  %v1_fc6 = load i32, i32* @esp, align 4
  %v2_fc6 = inttoptr i32 %v1_fc6 to i32*
  store i32 %v1_fc3, i32* %v2_fc6, align 4
  %v0_fc9 = call i32 @_ZNSt6vectorI6CTxOutSaIS0_EEixEj()
  store i32 %v0_fc9, i32* %eax.global-to-local, align 4
  %v1_fce = load i32, i32* @ebp, align 4
  %v2_fce = add i32 %v1_fce, -176
  %v3_fce = inttoptr i32 %v2_fce to i32*
  store i32 %v0_fc9, i32* %v3_fce, align 4
  %v0_fd4 = load i32, i32* @ebp, align 4
  %v1_fd4 = add i32 %v0_fd4, -176
  %v2_fd4 = inttoptr i32 %v1_fd4 to i32*
  %v3_fd4 = load i32, i32* %v2_fd4, align 4
  store i32 %v3_fd4, i32* %eax.global-to-local, align 4
  %v1_fda = load i32, i32* @esp, align 4
  %v2_fda = inttoptr i32 %v1_fda to i32*
  store i32 %v3_fd4, i32* %v2_fda, align 4
  %v0_fdd = call i32 @_ZNK6CTxOut6IsNullEv()
  %v1_fe2 = xor i32 %v0_fdd, ptrtoint (i8** @global_var_1.1176 to i32)
  %v4_fe2 = trunc i32 %v1_fe2 to i8
  store i32 %v1_fe2, i32* %eax.global-to-local, align 4
  %v5_fe5 = icmp eq i8 %v4_fe2, 0
  br i1 %v5_fe5, label %dec_label_pc_108c, label %dec_label_pc_fed

dec_label_pc_fed:                                 ; preds = %dec_label_pc_fb3
  %v0_fed = load i32, i32* @ebp, align 4
  %v1_fed = add i32 %v0_fed, -320
  %v2_fed = inttoptr i32 %v1_fed to i32*
  %v3_fed = load i32, i32* %v2_fed, align 4
  store i32 %v3_fed, i32* %eax.global-to-local, align 4
  %v1_ff3 = add i32 %v3_fed, 48
  %v2_ff3 = inttoptr i32 %v1_ff3 to i32*
  %v3_ff3 = load i32, i32* %v2_ff3, align 4
  store i32 %v3_ff3, i32* %edx.global-to-local, align 4
  %v1_ff6 = add i32 %v3_fed, 44
  %v2_ff6 = inttoptr i32 %v1_ff6 to i32*
  %v3_ff6 = load i32, i32* %v2_ff6, align 4
  %v1_ff9 = add i32 %v3_ff6, 1
  %v5_ff9 = icmp eq i32 %v3_ff6, -1
  store i32 %v1_ff9, i32* %eax.global-to-local, align 4
  %v2_ffc = zext i1 %v5_ff9 to i32
  %v3_ffc = add i32 %v2_ffc, %v3_ff3
  store i32 %v3_ffc, i32* %edx.global-to-local, align 4
  %v3_fff = load i32, i32* %v2_fed, align 4
  store i32 %v3_fff, i32* %ecx.global-to-local, align 4
  %v2_1005 = add i32 %v3_fff, 44
  %v3_1005 = inttoptr i32 %v2_1005 to i32*
  store i32 %v1_ff9, i32* %v3_1005, align 4
  %v0_1008 = load i32, i32* %edx.global-to-local, align 4
  %v1_1008 = load i32, i32* %ecx.global-to-local, align 4
  %v2_1008 = add i32 %v1_1008, 48
  %v3_1008 = inttoptr i32 %v2_1008 to i32*
  store i32 %v0_1008, i32* %v3_1008, align 4
  %v0_100b = load i32, i32* @ebp, align 4
  %v1_100b = add i32 %v0_100b, -184
  %v2_100b = inttoptr i32 %v1_100b to i32*
  %v3_100b = load i32, i32* %v2_100b, align 4
  %v1_1011 = add i32 %v3_100b, ptrtoint (i8** @global_var_1.1176 to i32)
  %v2_1014 = add i32 %v0_100b, -200
  %v3_1014 = inttoptr i32 %v2_1014 to i32*
  store i32 %v1_1011, i32* %v3_1014, align 4
  %v0_101a = load i32, i32* @ebp, align 4
  %v1_101a = add i32 %v0_101a, -200
  store i32 %v1_101a, i32* %eax.global-to-local, align 4
  %v1_1020 = load i32, i32* @esp, align 4
  %v2_1020 = inttoptr i32 %v1_1020 to i32*
  store i32 %v1_101a, i32* %v2_1020, align 4
  %v0_1023 = call i32 @_Z3REFIjERT_RKS0_()
  store i32 %v0_1023, i32* %eax.global-to-local, align 4
  %v0_1028 = load i32, i32* @ebp, align 4
  %v1_1028 = add i32 %v0_1028, -196
  store i32 %v1_1028, i32* %edx.global-to-local, align 4
  %v1_102e = load i32, i32* @esp, align 4
  %v2_102e = add i32 %v1_102e, ptrtoint (i8** @global_var_4.1177 to i32)
  %v3_102e = inttoptr i32 %v2_102e to i32*
  store i32 %v0_1023, i32* %v3_102e, align 4
  %v0_1032 = load i32, i32* %edx.global-to-local, align 4
  %v1_1032 = load i32, i32* @esp, align 4
  %v2_1032 = inttoptr i32 %v1_1032 to i32*
  store i32 %v0_1032, i32* %v2_1032, align 4
  %v0_1035 = call i32 @_Z10WrapVarIntIjE7CVarIntIT_ERS1_()
  %v0_103a = load i32, i32* @esp, align 4
  %v1_103a = sub i32 %v0_103a, ptrtoint (i8** @global_var_4.1177 to i32)
  %v0_103d = load i32, i32* @ebp, align 4
  %v1_103d = add i32 %v0_103d, -196
  store i32 %v1_103d, i32* %eax.global-to-local, align 4
  %v2_1043 = inttoptr i32 %v1_103a to i32*
  store i32 %v1_103d, i32* %v2_1043, align 4
  %v0_1046 = call i32 @_Z3REFI7CVarIntIjEERT_RKS2_()
  %v1_104b = load i32, i32* @esp, align 4
  %v2_104b = add i32 %v1_104b, ptrtoint (i8** @global_var_4.1177 to i32)
  %v3_104b = inttoptr i32 %v2_104b to i32*
  store i32 %v0_1046, i32* %v3_104b, align 4
  %v0_104f = load i32, i32* @ebp, align 4
  %v1_104f = add i32 %v0_104f, -164
  store i32 %v1_104f, i32* %eax.global-to-local, align 4
  %v1_1055 = load i32, i32* @esp, align 4
  %v2_1055 = inttoptr i32 %v1_1055 to i32*
  store i32 %v1_104f, i32* %v2_1055, align 4
  %v0_1058 = call i32 @_ZN11CHashWriterlsI7CVarIntIjEEERS_RKT_()
  store i32 %v0_1058, i32* %eax.global-to-local, align 4
  %v0_105d = load i32, i32* @ebp, align 4
  %v1_105d = add i32 %v0_105d, -176
  %v2_105d = inttoptr i32 %v1_105d to i32*
  %v3_105d = load i32, i32* %v2_105d, align 4
  %v1_1063 = load i32, i32* @esp, align 4
  %v2_1063 = add i32 %v1_1063, ptrtoint (i8** @global_var_4.1177 to i32)
  %v3_1063 = inttoptr i32 %v2_1063 to i32*
  store i32 %v3_105d, i32* %v3_1063, align 4
  %v0_1067 = load i32, i32* @ebp, align 4
  %v1_1067 = add i32 %v0_1067, -164
  store i32 %v1_1067, i32* %eax.global-to-local, align 4
  %v1_106d = load i32, i32* @esp, align 4
  %v2_106d = inttoptr i32 %v1_106d to i32*
  store i32 %v1_1067, i32* %v2_106d, align 4
  %v0_1070 = call i32 @_ZN11CHashWriterlsI6CTxOutEERS_RKT_()
  store i32 %v0_1070, i32* %eax.global-to-local, align 4
  %v0_1075 = load i32, i32* @ebp, align 4
  %v1_1075 = add i32 %v0_1075, -176
  %v2_1075 = inttoptr i32 %v1_1075 to i32*
  %v3_1075 = load i32, i32* %v2_1075, align 4
  store i32 %v3_1075, i32* %eax.global-to-local, align 4
  %v1_107b = add i32 %v3_1075, ptrtoint (i8** @global_var_4.1177 to i32)
  %v2_107b = inttoptr i32 %v1_107b to i32*
  %v3_107b = load i32, i32* %v2_107b, align 4
  store i32 %v3_107b, i32* %edx.global-to-local, align 4
  %v1_107e = inttoptr i32 %v3_1075 to i32*
  %v2_107e = load i32, i32* %v1_107e, align 4
  store i32 %v2_107e, i32* %eax.global-to-local, align 4
  %v1_1080 = add i32 %v0_1075, -232
  %v2_1080 = inttoptr i32 %v1_1080 to i32*
  %v3_1080 = load i32, i32* %v2_1080, align 4
  %v5_1080 = add i32 %v3_1080, %v2_107e
  %v10_1080 = icmp ult i32 %v5_1080, %v3_1080
  store i32 %v5_1080, i32* %v2_1080, align 4
  %v0_1086 = load i32, i32* @ebp, align 4
  %v1_1086 = add i32 %v0_1086, -228
  %v2_1086 = inttoptr i32 %v1_1086 to i32*
  %v3_1086 = load i32, i32* %v2_1086, align 4
  %v4_1086 = load i32, i32* %edx.global-to-local, align 4
  %v6_1086 = zext i1 %v10_1080 to i32
  %v7_1086 = add i32 %v4_1086, %v3_1086
  %v8_1086 = add i32 %v7_1086, %v6_1086
  store i32 %v8_1086, i32* %v2_1086, align 4
  br label %dec_label_pc_108c

dec_label_pc_108c:                                ; preds = %dec_label_pc_fed, %dec_label_pc_fb3
  %v0_108c = load i32, i32* @ebp, align 4
  %v1_108c = add i32 %v0_108c, -184
  %v2_108c = inttoptr i32 %v1_108c to i32*
  %v3_108c = load i32, i32* %v2_108c, align 4
  %v4_108c = add i32 %v3_108c, ptrtoint (i8** @global_var_1.1176 to i32)
  store i32 %v4_108c, i32* %v2_108c, align 4
  br label %dec_label_pc_1093

dec_label_pc_1093:                                ; preds = %dec_label_pc_108c, %dec_label_pc_df1
  %v0_1093 = load i32, i32* @ebp, align 4
  %v1_1099 = add i32 %v0_1093, -252
  store i32 %v1_1099, i32* %eax.global-to-local, align 4
  %v1_109c = load i32, i32* @esp, align 4
  %v2_109c = inttoptr i32 %v1_109c to i32*
  store i32 %v1_1099, i32* %v2_109c, align 4
  %v0_109f = call i32 @_ZNKSt6vectorI6CTxOutSaIS0_EE4sizeEv()
  store i32 %v0_109f, i32* %eax.global-to-local, align 4
  %v1_10a4 = load i32, i32* @ebp, align 4
  %v2_10a4 = add i32 %v1_10a4, -184
  %v3_10a4 = inttoptr i32 %v2_10a4 to i32*
  %v4_10a4 = load i32, i32* %v3_10a4, align 4
  %tmp119 = icmp ule i32 %v0_109f, %v4_10a4
  %v3_10aa = icmp ne i1 %tmp119, ptrtoint (i8** @global_var_1.1176 to i1)
  %v4_10aa = zext i1 %v3_10aa to i32
  %v6_10aa = and i32 %v0_109f, -256
  %v7_10aa = or i32 %v4_10aa, %v6_10aa
  store i32 %v7_10aa, i32* %eax.global-to-local, align 4
  %v5_10ad = icmp eq i1 %v3_10aa, false
  %v1_10af = icmp eq i1 %v5_10ad, false
  br i1 %v1_10af, label %dec_label_pc_fb3, label %dec_label_pc_10b5

dec_label_pc_10b5:                                ; preds = %dec_label_pc_1093
  %v1_10b5 = add i32 %v1_10a4, -320
  %v2_10b5 = inttoptr i32 %v1_10b5 to i32*
  %v3_10b5 = load i32, i32* %v2_10b5, align 4
  store i32 %v3_10b5, i32* %eax.global-to-local, align 4
  %v1_10bb = add i32 %v3_10b5, 52
  %v2_10bb = inttoptr i32 %v1_10bb to i32*
  %v3_10bb = load i32, i32* %v2_10bb, align 4
  store i32 %v3_10bb, i32* %ebx.global-to-local, align 4
  %v1_10be = add i32 %v3_10b5, 56
  %v2_10be = inttoptr i32 %v1_10be to i32*
  %v3_10be = load i32, i32* %v2_10be, align 4
  store i32 %v3_10be, i32* %esi.global-to-local, align 4
  %v1_10c1 = add i32 %v1_10a4, -216
  store i32 %v1_10c1, i32* %eax.global-to-local, align 4
  %v1_10c7 = load i32, i32* @esp, align 4
  %v2_10c7 = inttoptr i32 %v1_10c7 to i32*
  store i32 %v1_10c1, i32* %v2_10c7, align 4
  %v0_10ca = load i32, i32* %stack_var_-16, align 4
  %v1_10ca = call i32 @_ZNK7leveldb5Slice4sizeEv(i32 %v0_10ca)
  %v1_10cf = add i32 %v1_10ca, ptrtoint (i32* @global_var_20.1184 to i32)
  %v1_10d7 = load i32, i32* %ebx.global-to-local, align 4
  %v2_10d7 = add i32 %v1_10d7, %v1_10cf
  %v7_10d7 = icmp ult i32 %v2_10d7, %v1_10cf
  store i32 %v2_10d7, i32* %eax.global-to-local, align 4
  %v1_10d9 = load i32, i32* %esi.global-to-local, align 4
  %v3_10d9 = zext i1 %v7_10d7 to i32
  %v5_10d9 = add i32 %v3_10d9, %v1_10d9
  store i32 %v5_10d9, i32* %edx.global-to-local, align 4
  %v0_10db = load i32, i32* @ebp, align 4
  %v1_10db = add i32 %v0_10db, -320
  %v2_10db = inttoptr i32 %v1_10db to i32*
  %v3_10db = load i32, i32* %v2_10db, align 4
  store i32 %v3_10db, i32* @ecx, align 4
  %v2_10e1 = add i32 %v3_10db, 52
  %v3_10e1 = inttoptr i32 %v2_10e1 to i32*
  store i32 %v2_10d7, i32* %v3_10e1, align 4
  %v0_10e4 = load i32, i32* %edx.global-to-local, align 4
  %v1_10e4 = load i32, i32* @ecx, align 4
  %v2_10e4 = add i32 %v1_10e4, 56
  %v3_10e4 = inttoptr i32 %v2_10e4 to i32*
  store i32 %v0_10e4, i32* %v3_10e4, align 4
  %v0_10e7 = load i32, i32* @ebp, align 4
  %v1_10e7 = add i32 %v0_10e7, -192
  %v2_10e7 = inttoptr i32 %v1_10e7 to i32*
  store i32 0, i32* %v2_10e7, align 4
  %v0_10f1 = load i32, i32* @ebp, align 4
  %v1_10f1 = add i32 %v0_10f1, -192
  store i32 %v1_10f1, i32* %eax.global-to-local, align 4
  %v1_10f7 = load i32, i32* @esp, align 4
  %v2_10f7 = inttoptr i32 %v1_10f7 to i32*
  store i32 %v1_10f1, i32* %v2_10f7, align 4
  %v0_10fa = load i32, i32* %stack_var_-16, align 4
  %v1_10fa = call i32 @_Z3REFIiERT_RKS0_(i32 %v0_10fa)
  store i32 %v1_10fa, i32* %eax.global-to-local, align 4
  %v0_10ff = load i32, i32* @ebp, align 4
  %v1_10ff = add i32 %v0_10ff, -188
  store i32 %v1_10ff, i32* %edx.global-to-local, align 4
  %v1_1105 = load i32, i32* @esp, align 4
  %v2_1105 = add i32 %v1_1105, ptrtoint (i8** @global_var_4.1177 to i32)
  %v3_1105 = inttoptr i32 %v2_1105 to i32*
  store i32 %v1_10fa, i32* %v3_1105, align 4
  %v0_1109 = load i32, i32* %edx.global-to-local, align 4
  %v1_1109 = load i32, i32* @esp, align 4
  %v2_1109 = inttoptr i32 %v1_1109 to i32*
  store i32 %v0_1109, i32* %v2_1109, align 4
  %v0_110c = load i32, i32* %stack_var_-16, align 4
  %v1_110c = load i32, i32* %stack_var_-12, align 4
  %v2_110c = call i32 @_Z10WrapVarIntIiE7CVarIntIT_ERS1_(i32 %v0_110c, i32 %v1_110c)
  %v0_1111 = load i32, i32* @esp, align 4
  %v1_1111 = sub i32 %v0_1111, ptrtoint (i8** @global_var_4.1177 to i32)
  %v0_1114 = load i32, i32* @ebp, align 4
  %v1_1114 = add i32 %v0_1114, -188
  store i32 %v1_1114, i32* %eax.global-to-local, align 4
  %v2_111a = inttoptr i32 %v1_1111 to i32*
  store i32 %v1_1114, i32* %v2_111a, align 4
  %v0_111d = load i32, i32* %stack_var_-16, align 4
  %v1_111d = call i32 @_Z3REFI7CVarIntIiEERT_RKS2_(i32 %v0_111d)
  %v1_1122 = load i32, i32* @esp, align 4
  %v2_1122 = add i32 %v1_1122, ptrtoint (i8** @global_var_4.1177 to i32)
  %v3_1122 = inttoptr i32 %v2_1122 to i32*
  store i32 %v1_111d, i32* %v3_1122, align 4
  %v0_1126 = load i32, i32* @ebp, align 4
  %v1_1126 = add i32 %v0_1126, -164
  store i32 %v1_1126, i32* %eax.global-to-local, align 4
  %v1_112c = load i32, i32* @esp, align 4
  %v2_112c = inttoptr i32 %v1_112c to i32*
  store i32 %v1_1126, i32* %v2_112c, align 4
  %v0_112f = load i32, i32* %stack_var_-16, align 4
  %v1_112f = load i32, i32* %stack_var_-12, align 4
  %v2_112f = call i32 @_ZN11CHashWriterlsI7CVarIntIiEEERS_RKT_(i32 %v0_112f, i32 %v1_112f)
  %v0_1134 = load i32, i32* @ebp, align 4
  %v1_1134 = add i32 %v0_1134, -256
  store i32 %v1_1134, i32* %eax.global-to-local, align 4
  %v1_113a = load i32, i32* @esp, align 4
  %v2_113a = inttoptr i32 %v1_113a to i32*
  store i32 %v1_1134, i32* %v2_113a, align 4
  %v0_113d = load i32, i32* %stack_var_-16, align 4
  %v1_113d = call i32 @_ZN6CCoinsD1Ev(i32 %v0_113d)
  %v0_1142 = load i32, i32* @ebp, align 4
  %v1_1142 = add i32 %v0_1142, -284
  store i32 %v1_1142, i32* %eax.global-to-local, align 4
  %v1_1148 = load i32, i32* @esp, align 4
  %v2_1148 = inttoptr i32 %v1_1148 to i32*
  store i32 %v1_1142, i32* %v2_1148, align 4
  %v0_114b = load i32, i32* %stack_var_-16, align 4
  %v1_114b = call i32 @_ZN11CDataStreamD1Ev(i32 %v0_114b)
  store i32 %v1_114b, i32* %eax.global-to-local, align 4
  %v0_1150.pre = load i32, i32* @ebp, align 4
  br label %dec_label_pc_1150

dec_label_pc_1150:                                ; preds = %dec_label_pc_10b5, %dec_label_pc_d50
  %v0_115d = phi i32 [ %v0_1150.pre, %dec_label_pc_10b5 ], [ %v0_de2, %dec_label_pc_d50 ]
  %v1_1150 = add i32 %v0_115d, -180
  %v2_1150 = inttoptr i32 %v1_1150 to i32*
  %v3_1150 = load i32, i32* %v2_1150, align 4
  store i32 %v3_1150, i32* %eax.global-to-local, align 4
  %v1_1156 = inttoptr i32 %v3_1150 to i32*
  %v2_1156 = load i32, i32* %v1_1156, align 4
  %v1_1158 = add i32 %v2_1156, ptrtoint (i8** @global_var_18.1179 to i32)
  store i32 %v1_1158, i32* %eax.global-to-local, align 4
  %v1_115b = inttoptr i32 %v1_1158 to i32*
  %v2_115b = load i32, i32* %v1_115b, align 4
  store i32 %v2_115b, i32* %edx.global-to-local, align 4
  %v3_115d = load i32, i32* %v2_1150, align 4
  %v1_1163 = load i32, i32* @esp, align 4
  %v2_1163 = inttoptr i32 %v1_1163 to i32*
  store i32 %v3_115d, i32* %v2_1163, align 4
  %v0_1168 = load i32, i32* @ebp, align 4
  %v1_1168 = add i32 %v0_1168, -312
  store i32 %v1_1168, i32* %eax.global-to-local, align 4
  %v1_116e = load i32, i32* @esp, align 4
  %v2_116e = inttoptr i32 %v1_116e to i32*
  store i32 %v1_1168, i32* %v2_116e, align 4
  %v0_1171 = load i32, i32* %stack_var_-16, align 4
  %v1_1171 = call i32 @_ZN11CDataStreamD1Ev(i32 %v0_1171)
  store i32 %v1_1171, i32* %eax.global-to-local, align 4
  ret i32 %v1_1171

; uselistorder directives
  uselistorder i32 %v1_10cf, { 1, 0 }
  uselistorder i32* %v3_10a4, { 1, 0 }
  uselistorder i32 %v0_109f, { 1, 0, 2 }
  uselistorder i32 %v3_1080, { 1, 0 }
  uselistorder i32 %v1_dfe, { 1, 0, 2 }
  uselistorder i32 %v1_d5e, { 1, 0, 2 }
  uselistorder i32* %stack_var_-16, { 3, 4, 1, 0, 5, 6, 7, 2, 8, 9 }
  uselistorder i32* %edx.global-to-local, { 0, 8, 9, 10, 11, 1, 2, 3, 4, 5, 6, 7, 12, 13, 14, 15, 16, 17, 18 }
  uselistorder i32* %eax.global-to-local, { 0, 1, 2, 3, 19, 20, 21, 22, 23, 24, 25, 26, 27, 28, 29, 30, 31, 4, 5, 6, 7, 8, 9, 10, 11, 12, 13, 14, 15, 16, 17, 18, 32, 33, 34, 35, 36, 37, 38, 39, 40, 41, 42, 43, 44, 45, 46, 47, 48, 49, 50, 51, 52, 53, 54, 55, 56, 57, 58, 59, 60, 61, 62, 63, 64, 65 }
  uselistorder i32 -252, { 1, 0 }
  uselistorder i32 -184, { 2, 0, 1, 3 }
  uselistorder i32 (i32, i32)* @_ZN11CHashWriterlsI7CVarIntIiEEERS_RKT_, { 2, 1, 0 }
  uselistorder i32 (i32)* @_Z3REFI7CVarIntIiEERT_RKS2_, { 2, 1, 0 }
  uselistorder i32 (i32, i32)* @_Z10WrapVarIntIiE7CVarIntIT_ERS1_, { 2, 1, 0 }
  uselistorder i32 (i32)* @_Z3REFIiERT_RKS0_, { 2, 1, 0 }
  uselistorder i32 (i32, i32)* @_ZN11CHashWriterlsI7uint256EERS_RKT_, { 1, 0 }
  uselistorder i32 (i32)* @_ZN7uint256C1Ev, { 1, 0 }
  uselistorder i8 99, { 1, 0, 2, 3, 4 }
  uselistorder i32 (i32, i32, i32, i32, i32)* @_ZN11CDataStreamC1EPKcS1_ii, { 1, 0 }
  uselistorder i32 (i32)* @_ZNK7leveldb5Slice4sizeEv, { 2, 1, 0 }
  uselistorder i32 (i32)* @_ZNK7leveldb5Slice4dataEv, { 3, 2, 1, 0 }
}

define i32 @function_1176(i32 %arg1, i32 %arg2) local_unnamed_addr {
dec_label_pc_1176:
  %ebx.global-to-local = alloca i32, align 4
  %ecx.global-to-local = alloca i32, align 4
  %edx.global-to-local = alloca i32, align 4
  %v0_1176 = load i32, i32* @ebp, align 4
  %v1_1176 = add i32 %v0_1176, -180
  %v2_1176 = inttoptr i32 %v1_1176 to i32*
  %v3_1176 = load i32, i32* %v2_1176, align 4
  %v1_117c = inttoptr i32 %v3_1176 to i32*
  %v2_117c = load i32, i32* %v1_117c, align 4
  %v1_117e = add i32 %v2_117c, ptrtoint (i32* @global_var_8.1178 to i32)
  %v1_1181 = inttoptr i32 %v1_117e to i32*
  %v2_1181 = load i32, i32* %v1_1181, align 4
  store i32 %v2_1181, i32* %edx.global-to-local, align 4
  %v3_1196 = load i32, i32* %v2_1176, align 4
  %v10_1196 = icmp eq i32 %v3_1196, 0
  br i1 %v10_1196, label %dec_label_pc_11b7, label %dec_label_pc_119f

dec_label_pc_119f:                                ; preds = %dec_label_pc_1176
  %v1_11a5 = inttoptr i32 %v3_1196 to i32*
  %v2_11a5 = load i32, i32* %v1_11a5, align 4
  %v1_11a7 = add i32 %v2_11a5, ptrtoint (i8** @global_var_4.1177 to i32)
  %v1_11aa = inttoptr i32 %v1_11a7 to i32*
  %v2_11aa = load i32, i32* %v1_11aa, align 4
  store i32 %v2_11aa, i32* %edx.global-to-local, align 4
  br label %dec_label_pc_11b7

dec_label_pc_11b7:                                ; preds = %dec_label_pc_119f, %dec_label_pc_1176
  %v1_11b7 = add i32 %v0_1176, -316
  %v2_11b7 = inttoptr i32 %v1_11b7 to i32*
  %v3_11b7 = load i32, i32* %v2_11b7, align 4
  %v1_11bd = inttoptr i32 %v3_11b7 to i32*
  %v2_11bd = load i32, i32* %v1_11bd, align 4
  %v1_11bf = add i32 %v2_11bd, 12
  %v1_11c2 = inttoptr i32 %v1_11bf to i32*
  %v2_11c2 = load i32, i32* %v1_11c2, align 4
  store i32 %v2_11c2, i32* %edx.global-to-local, align 4
  %v3_11c4 = load i32, i32* %v2_11b7, align 4
  %v1_11cf = add i32 %v3_11c4, ptrtoint (i32* @global_var_8.1178 to i32)
  %v2_11cf = inttoptr i32 %v1_11cf to i32*
  %v3_11cf = load i32, i32* %v2_11cf, align 4
  store i32 %v3_11cf, i32* %edx.global-to-local, align 4
  %v1_11d2 = add i32 %v0_1176, -320
  %v2_11d2 = inttoptr i32 %v1_11d2 to i32*
  %v3_11d2 = load i32, i32* %v2_11d2, align 4
  %v2_11d8 = inttoptr i32 %v3_11d2 to i32*
  store i32 %v3_11cf, i32* %v2_11d8, align 4
  %v0_11da = load i32, i32* @ebp, align 4
  %v1_11da = add i32 %v0_11da, -320
  %v2_11da = inttoptr i32 %v1_11da to i32*
  %v3_11da = load i32, i32* %v2_11da, align 4
  store i32 %v3_11da, i32* %ebx.global-to-local, align 4
  %v1_11e0 = add i32 %v0_11da, -360
  %v1_11e6 = add i32 %v0_11da, -164
  store i32 %v1_11e6, i32* %edx.global-to-local, align 4
  %v2_11f3 = call i32 @_ZN11CHashWriter7GetHashEv(i32 %v1_11e0, i32 %v1_11e6)
  %v0_11fb = load i32, i32* @ebp, align 4
  %v1_11fb = add i32 %v0_11fb, -360
  %v2_11fb = inttoptr i32 %v1_11fb to i32*
  %v3_11fb = load i32, i32* %v2_11fb, align 4
  %v1_1201 = load i32, i32* %ebx.global-to-local, align 4
  %v2_1201 = add i32 %v1_1201, 60
  %v3_1201 = inttoptr i32 %v2_1201 to i32*
  store i32 %v3_11fb, i32* %v3_1201, align 4
  %v0_1204 = load i32, i32* @ebp, align 4
  %v1_1204 = add i32 %v0_1204, -356
  %v2_1204 = inttoptr i32 %v1_1204 to i32*
  %v3_1204 = load i32, i32* %v2_1204, align 4
  %v1_120a = load i32, i32* %ebx.global-to-local, align 4
  %v2_120a = add i32 %v1_120a, 64
  %v3_120a = inttoptr i32 %v2_120a to i32*
  store i32 %v3_1204, i32* %v3_120a, align 4
  %v0_120d = load i32, i32* @ebp, align 4
  %v1_120d = add i32 %v0_120d, -352
  %v2_120d = inttoptr i32 %v1_120d to i32*
  %v3_120d = load i32, i32* %v2_120d, align 4
  %v1_1213 = load i32, i32* %ebx.global-to-local, align 4
  %v2_1213 = add i32 %v1_1213, 68
  %v3_1213 = inttoptr i32 %v2_1213 to i32*
  store i32 %v3_120d, i32* %v3_1213, align 4
  %v0_1216 = load i32, i32* @ebp, align 4
  %v1_1216 = add i32 %v0_1216, -348
  %v2_1216 = inttoptr i32 %v1_1216 to i32*
  %v3_1216 = load i32, i32* %v2_1216, align 4
  %v1_121c = load i32, i32* %ebx.global-to-local, align 4
  %v2_121c = add i32 %v1_121c, 72
  %v3_121c = inttoptr i32 %v2_121c to i32*
  store i32 %v3_1216, i32* %v3_121c, align 4
  %v0_121f = load i32, i32* @ebp, align 4
  %v1_121f = add i32 %v0_121f, -344
  %v2_121f = inttoptr i32 %v1_121f to i32*
  %v3_121f = load i32, i32* %v2_121f, align 4
  %v1_1225 = load i32, i32* %ebx.global-to-local, align 4
  %v2_1225 = add i32 %v1_1225, 76
  %v3_1225 = inttoptr i32 %v2_1225 to i32*
  store i32 %v3_121f, i32* %v3_1225, align 4
  %v0_1228 = load i32, i32* @ebp, align 4
  %v1_1228 = add i32 %v0_1228, -340
  %v2_1228 = inttoptr i32 %v1_1228 to i32*
  %v3_1228 = load i32, i32* %v2_1228, align 4
  %v1_122e = load i32, i32* %ebx.global-to-local, align 4
  %v2_122e = add i32 %v1_122e, 80
  %v3_122e = inttoptr i32 %v2_122e to i32*
  store i32 %v3_1228, i32* %v3_122e, align 4
  %v0_1231 = load i32, i32* @ebp, align 4
  %v1_1231 = add i32 %v0_1231, -336
  %v2_1231 = inttoptr i32 %v1_1231 to i32*
  %v3_1231 = load i32, i32* %v2_1231, align 4
  %v1_1237 = load i32, i32* %ebx.global-to-local, align 4
  %v2_1237 = add i32 %v1_1237, 84
  %v3_1237 = inttoptr i32 %v2_1237 to i32*
  store i32 %v3_1231, i32* %v3_1237, align 4
  %v0_123a = load i32, i32* @ebp, align 4
  %v1_123a = add i32 %v0_123a, -332
  %v2_123a = inttoptr i32 %v1_123a to i32*
  %v3_123a = load i32, i32* %v2_123a, align 4
  %v1_1240 = load i32, i32* %ebx.global-to-local, align 4
  %v2_1240 = add i32 %v1_1240, 88
  %v3_1240 = inttoptr i32 %v2_1240 to i32*
  store i32 %v3_123a, i32* %v3_1240, align 4
  %v0_1243 = load i32, i32* @ebp, align 4
  %v1_1243 = add i32 %v0_1243, -320
  %v2_1243 = inttoptr i32 %v1_1243 to i32*
  %v3_1243 = load i32, i32* %v2_1243, align 4
  store i32 %v3_1243, i32* %ecx.global-to-local, align 4
  %v1_1249 = add i32 %v0_1243, -232
  %v2_1249 = inttoptr i32 %v1_1249 to i32*
  %v3_1249 = load i32, i32* %v2_1249, align 4
  %v1_124f = add i32 %v0_1243, -228
  %v2_124f = inttoptr i32 %v1_124f to i32*
  %v3_124f = load i32, i32* %v2_124f, align 4
  store i32 %v3_124f, i32* %edx.global-to-local, align 4
  %v2_1255 = add i32 %v3_1243, 92
  %v3_1255 = inttoptr i32 %v2_1255 to i32*
  store i32 %v3_1249, i32* %v3_1255, align 4
  %v0_1258 = load i32, i32* %edx.global-to-local, align 4
  %v1_1258 = load i32, i32* %ecx.global-to-local, align 4
  %v2_1258 = add i32 %v1_1258, 96
  %v3_1258 = inttoptr i32 %v2_1258 to i32*
  store i32 %v0_1258, i32* %v3_1258, align 4
  store i32 ptrtoint (i8** @global_var_1.1176 to i32), i32* %ebx.global-to-local, align 4
  store i32 ptrtoint (i8** @global_var_1.1176 to i32), i32* @eax, align 4
  %v0_1262 = load i32, i32* @ebp, align 4
  %v1_1262 = add i32 %v0_1262, -12
  %v2_1262 = inttoptr i32 %v1_1262 to i32*
  %v3_1262 = load i32, i32* %v2_1262, align 4
  store i32 %v3_1262, i32* %edx.global-to-local, align 4
  %v1_1265 = load i32, i32* inttoptr (i32 20 to i32*), align 4
  %v2_1265 = xor i32 %v1_1265, %v3_1262
  %v3_1265 = icmp eq i32 %v2_1265, 0
  store i32 %v2_1265, i32* %edx.global-to-local, align 4
  br i1 %v3_1265, label %bb, label %dec_label_pc_1272

bb:                                               ; preds = %dec_label_pc_11b7
  %v1_126c = call i32 @function_1308()
  store i32 %v1_126c, i32* @eax, align 4
  br label %dec_label_pc_1272

dec_label_pc_1272:                                ; preds = %bb, %dec_label_pc_11b7
  %v0_1272 = call i32 @function_1303()
  ret i32 %v0_1272

; uselistorder directives
  uselistorder i32 -228, { 1, 0 }
  uselistorder i32 -232, { 1, 0 }
  uselistorder i32 -164, { 7, 2, 0, 1, 3, 4, 5, 6 }
  uselistorder i32 -320, { 4, 5, 6, 1, 2, 0, 3 }
  uselistorder i32 -180, { 3, 0, 1, 2 }
}

define i32 @function_1277() local_unnamed_addr {
dec_label_pc_1277:
  %eax.global-to-local = alloca i32, align 4
  %v0_1277 = load i32, i32* %eax.global-to-local, align 4
  store i32 %v0_1277, i32* @esi, align 4
  %v0_127b = load i32, i32* @ebp, align 4
  %v1_127b = add i32 %v0_127b, -256
  store i32 %v1_127b, i32* %eax.global-to-local, align 4
  %v1_1284 = call i32 @_ZN6CCoinsD1Ev(i32 %v1_127b)
  store i32 %v1_1284, i32* %eax.global-to-local, align 4
  %v0_1289 = call i32 @function_128f()
  store i32 %v0_1289, i32* %eax.global-to-local, align 4
  ret i32 %v0_1289

; uselistorder directives
  uselistorder i32 (i32)* @_ZN6CCoinsD1Ev, { 1, 0 }
}

define i32 @function_128b() local_unnamed_addr {
dec_label_pc_128b:
  %eax.global-to-local = alloca i32, align 4
  %v0_128b = load i32, i32* %eax.global-to-local, align 4
  ret i32 %v0_128b
}

define i32 @function_128f() local_unnamed_addr {
dec_label_pc_128f:
  %v0_128f = load i32, i32* @ebp, align 4
  %v1_128f = add i32 %v0_128f, -284
  %v1_1298 = call i32 @_ZN11CDataStreamD1Ev(i32 %v1_128f)
  %v0_129d = call i32 @function_12a3()
  ret i32 %v0_129d
}

define i32 @function_129f() local_unnamed_addr {
dec_label_pc_129f:
  %eax.global-to-local = alloca i32, align 4
  %v0_129f = load i32, i32* %eax.global-to-local, align 4
  ret i32 %v0_129f
}

define i32 @function_12a3() local_unnamed_addr {
dec_label_pc_12a3:
  %v0_12a3 = load i32, i32* @ebp, align 4
  %v1_12a3 = add i32 %v0_12a3, -312
  %v1_12ac = call i32 @_ZN11CDataStreamD1Ev(i32 %v1_12a3)
  %v0_12b1 = load i32, i32* @esi, align 4
  store i32 %v0_12b1, i32* @eax, align 4
  %v0_12b3 = load i32, i32* @ebx, align 4
  store i32 %v0_12b3, i32* @edx, align 4
  %v0_12b5 = call i32 @function_12c8()
  ret i32 %v0_12b5
}

define i32 @function_12b8() local_unnamed_addr {
dec_label_pc_12b8:
  %eax.global-to-local = alloca i32, align 4
  %v0_12b8 = load i32, i32* %eax.global-to-local, align 4
  ret i32 %v0_12b8
}

define i32 @function_12c8() local_unnamed_addr {
dec_label_pc_12c8:
  %v0_12c8 = load i32, i32* @edx, align 4
  %v10_12c8 = icmp eq i32 %v0_12c8, 1
  br i1 %v10_12c8, label %bb, label %dec_label_pc_12c8.dec_label_pc_12cd_crit_edge

dec_label_pc_12c8.dec_label_pc_12cd_crit_edge:    ; preds = %dec_label_pc_12c8
  %v3_12cd.pre = load i32, i32* @eax, align 4
  br label %dec_label_pc_12cd

bb:                                               ; preds = %dec_label_pc_12c8
  %v1_12cb = call i32 @function_12d5()
  br label %dec_label_pc_12cd

dec_label_pc_12cd:                                ; preds = %dec_label_pc_12c8.dec_label_pc_12cd_crit_edge, %bb
  %v3_12cd = phi i32 [ %v3_12cd.pre, %dec_label_pc_12c8.dec_label_pc_12cd_crit_edge ], [ %v1_12cb, %bb ]
  ret i32 %v3_12cd

; uselistorder directives
  uselistorder label %dec_label_pc_12cd, { 1, 0 }
}

define i32 @function_12d5() local_unnamed_addr {
dec_label_pc_12d5:
  %v3_12d5 = load i32, i32* @eax, align 4
  ret i32 %v3_12d5
}

define i32 @function_12f8() local_unnamed_addr {
dec_label_pc_12f8:
  %eax.global-to-local = alloca i32, align 4
  %v0_12f8 = load i32, i32* %eax.global-to-local, align 4
  ret i32 %v0_12f8
}

define i32 @function_12fe() local_unnamed_addr {
dec_label_pc_12fe:
  %eax.global-to-local = alloca i32, align 4
  %v0_12fe = load i32, i32* %eax.global-to-local, align 4
  ret i32 %v0_12fe
}

define i32 @function_1303() local_unnamed_addr {
dec_label_pc_1303:
  %tmp = load i32, i32* @eax, align 4
  ret i32 %tmp
}

define i32 @function_1308() local_unnamed_addr {
dec_label_pc_1308:
  %v0_130e = load i32, i32* @eax, align 4
  ret i32 %v0_130e
}

define void @_ZN12CBlockTreeDB11ReadTxIndexERK7uint256R10CDiskTxPos(i32 %this, i32 %txid, i32 %pos) local_unnamed_addr {
dec_label_pc_1310:
  %stack_var_-52 = alloca i32, align 4
  %v2_1333 = ptrtoint i32* %stack_var_-52 to i32
  %v1_1339 = inttoptr i32 %txid to i32*
  %v2_1339 = load i32, i32* %v1_1339, align 4
  %v1_133f = add i32 %txid, ptrtoint (i8** @global_var_4.1177 to i32)
  %v2_133f = inttoptr i32 %v1_133f to i32*
  %v3_133f = load i32, i32* %v2_133f, align 4
  %v1_1346 = add i32 %txid, ptrtoint (i32* @global_var_8.1178 to i32)
  %v2_1346 = inttoptr i32 %v1_1346 to i32*
  %v3_1346 = load i32, i32* %v2_1346, align 4
  %v1_134d = add i32 %txid, 12
  %v2_134d = inttoptr i32 %v1_134d to i32*
  %v3_134d = load i32, i32* %v2_134d, align 4
  %v1_1354 = add i32 %txid, 16
  %v2_1354 = inttoptr i32 %v1_1354 to i32*
  %v3_1354 = load i32, i32* %v2_1354, align 4
  %v1_135b = add i32 %txid, 20
  %v2_135b = inttoptr i32 %v1_135b to i32*
  %v3_135b = load i32, i32* %v2_135b, align 4
  %v1_1362 = add i32 %txid, ptrtoint (i8** @global_var_18.1179 to i32)
  %v2_1362 = inttoptr i32 %v1_1362 to i32*
  %v3_1362 = load i32, i32* %v2_1362, align 4
  store i32 %v3_1362, i32* @ecx, align 4
  %v1_1369 = add i32 %txid, ptrtoint (i32* @global_var_1c.1180 to i32)
  %v2_1369 = inttoptr i32 %v1_1369 to i32*
  %v3_1369 = load i32, i32* %v2_1369, align 4
  %v11_137b = call i32 @_ZSt9make_pairIc7uint256ESt4pairIT_T0_ES2_S3_(i32 %v2_1333, i8 116, i32 %v2_1339, i32 %v3_133f, i32 %v3_1346, i32 %v3_134d, i32 %v3_1354, i32 %v3_135b, i32 %v3_1362, i32 %v3_1369)
  %v3_1397 = call i32 @_ZN8CLevelDB4ReadISt4pairIc7uint256E10CDiskTxPosEEbRKT_RT0_(i32 %this, i32 %v2_1333, i32 %pos)
  store i32 %v3_1397, i32* @eax, align 4
  br i1 true, label %bb, label %dec_label_pc_13a8

bb:                                               ; preds = %dec_label_pc_1310
  %v1_13a6 = call i32 @function_13ad()
  br label %dec_label_pc_13a8

dec_label_pc_13a8:                                ; preds = %bb, %dec_label_pc_1310
  ret void

; uselistorder directives
  uselistorder i32 %txid, { 1, 0, 3, 2, 5, 4, 7, 6 }
}

define i32 @function_13ad() local_unnamed_addr {
dec_label_pc_13ad:
  %v0_13ae = load i32, i32* @eax, align 4
  ret i32 %v0_13ae
}

define void @_ZN12CBlockTreeDB12WriteTxIndexERKSt6vectorISt4pairI7uint25610CDiskTxPosESaIS4_EE(i32 %this, i32 %vect) local_unnamed_addr {
dec_label_pc_13b0:
  %eax.global-to-local = alloca i32, align 4
  %stack_var_-60 = alloca i32, align 4
  %stack_var_-56 = alloca i32, align 4
  %stack_var_-52 = alloca i32, align 4
  %stack_var_-144 = alloca i32, align 4
  %stack_var_-64 = alloca i32, align 4
  %it_-68 = alloca i32, align 4
  %stack_var_-140 = alloca i32, align 4
  %v2_13d1 = ptrtoint i32* %it_-68 to i32
  store i32 %v2_13d1, i32* %eax.global-to-local, align 4
  store i32 %v2_13d1, i32* %stack_var_-140, align 4
  %v1_13d7 = call i32 @_ZN13CLevelDBBatchC1Ev(i32 %v2_13d1)
  %v2_13dc = ptrtoint i32* %stack_var_-64 to i32
  store i32 %v2_13dc, i32* %eax.global-to-local, align 4
  store i32 %v2_13dc, i32* %stack_var_-140, align 4
  %v2_13e9 = inttoptr i32 %vect to i32*
  %v3_13e9 = call i32 @_ZNKSt6vectorISt4pairI7uint25610CDiskTxPosESaIS3_EE5beginEv(i32 %v2_13dc, i32* %v2_13e9)
  store i32 %v3_13e9, i32* %eax.global-to-local, align 4
  %v16_13ee = ptrtoint i32* %stack_var_-144 to i32
  %v2_148f = ptrtoint i32* %stack_var_-60 to i32
  %v2_140f = ptrtoint i32* %stack_var_-52 to i32
  %v10_1454 = trunc i32 %vect to i8
  %v2_1472 = ptrtoint i32* %stack_var_-56 to i32
  br label %dec_label_pc_148f

dec_label_pc_13f6:                                ; preds = %dec_label_pc_148f
  store i32 %v2_13dc, i32* %eax.global-to-local, align 4
  %v1_13f9 = load i32, i32* @esp, align 4
  %v2_13f9 = inttoptr i32 %v1_13f9 to i32*
  store i32 %v2_13dc, i32* %v2_13f9, align 4
  %v0_13fc = call i32 @_ZNK9__gnu_cxx17__normal_iteratorIPKSt4pairI7uint25610CDiskTxPosESt6vectorIS4_SaIS4_EEEptEv()
  %v1_1401 = add i32 %v0_13fc, ptrtoint (i32* @global_var_20.1184 to i32)
  store i32 %v1_1401, i32* @ebx, align 4
  store i32 %v2_13dc, i32* %eax.global-to-local, align 4
  %v1_1407 = load i32, i32* @esp, align 4
  %v2_1407 = inttoptr i32 %v1_1407 to i32*
  store i32 %v2_13dc, i32* %v2_1407, align 4
  %v0_140a = call i32 @_ZNK9__gnu_cxx17__normal_iteratorIPKSt4pairI7uint25610CDiskTxPosESt6vectorIS4_SaIS4_EEEptEv()
  store i32 %v0_140a, i32* %eax.global-to-local, align 4
  %v1_1412 = inttoptr i32 %v0_140a to i32*
  %v2_1412 = load i32, i32* %v1_1412, align 4
  %v1_1414 = load i32, i32* @esp, align 4
  %v2_1414 = add i32 %v1_1414, ptrtoint (i32* @global_var_8.1178 to i32)
  %v3_1414 = inttoptr i32 %v2_1414 to i32*
  store i32 %v2_1412, i32* %v3_1414, align 4
  %v0_1418 = load i32, i32* %eax.global-to-local, align 4
  %v1_1418 = add i32 %v0_1418, ptrtoint (i8** @global_var_4.1177 to i32)
  %v2_1418 = inttoptr i32 %v1_1418 to i32*
  %v3_1418 = load i32, i32* %v2_1418, align 4
  %v1_141b = load i32, i32* @esp, align 4
  %v2_141b = add i32 %v1_141b, 12
  %v3_141b = inttoptr i32 %v2_141b to i32*
  store i32 %v3_1418, i32* %v3_141b, align 4
  %v0_141f = load i32, i32* %eax.global-to-local, align 4
  %v1_141f = add i32 %v0_141f, ptrtoint (i32* @global_var_8.1178 to i32)
  %v2_141f = inttoptr i32 %v1_141f to i32*
  %v3_141f = load i32, i32* %v2_141f, align 4
  %v1_1422 = load i32, i32* @esp, align 4
  %v2_1422 = add i32 %v1_1422, 16
  %v3_1422 = inttoptr i32 %v2_1422 to i32*
  store i32 %v3_141f, i32* %v3_1422, align 4
  %v0_1426 = load i32, i32* %eax.global-to-local, align 4
  %v1_1426 = add i32 %v0_1426, 12
  %v2_1426 = inttoptr i32 %v1_1426 to i32*
  %v3_1426 = load i32, i32* %v2_1426, align 4
  %v1_1429 = load i32, i32* @esp, align 4
  %v2_1429 = add i32 %v1_1429, 20
  %v3_1429 = inttoptr i32 %v2_1429 to i32*
  store i32 %v3_1426, i32* %v3_1429, align 4
  %v0_142d = load i32, i32* %eax.global-to-local, align 4
  %v1_142d = add i32 %v0_142d, 16
  %v2_142d = inttoptr i32 %v1_142d to i32*
  %v3_142d = load i32, i32* %v2_142d, align 4
  %v1_1430 = load i32, i32* @esp, align 4
  %v2_1430 = add i32 %v1_1430, ptrtoint (i8** @global_var_18.1179 to i32)
  %v3_1430 = inttoptr i32 %v2_1430 to i32*
  store i32 %v3_142d, i32* %v3_1430, align 4
  %v0_1434 = load i32, i32* %eax.global-to-local, align 4
  %v1_1434 = add i32 %v0_1434, 20
  %v2_1434 = inttoptr i32 %v1_1434 to i32*
  %v3_1434 = load i32, i32* %v2_1434, align 4
  %v1_1437 = load i32, i32* @esp, align 4
  %v2_1437 = add i32 %v1_1437, ptrtoint (i32* @global_var_1c.1180 to i32)
  %v3_1437 = inttoptr i32 %v2_1437 to i32*
  store i32 %v3_1434, i32* %v3_1437, align 4
  %v0_143b = load i32, i32* %eax.global-to-local, align 4
  %v1_143b = add i32 %v0_143b, ptrtoint (i8** @global_var_18.1179 to i32)
  %v2_143b = inttoptr i32 %v1_143b to i32*
  %v3_143b = load i32, i32* %v2_143b, align 4
  store i32 %v3_143b, i32* @ecx, align 4
  %v1_143e = load i32, i32* @esp, align 4
  %v2_143e = add i32 %v1_143e, ptrtoint (i32* @global_var_20.1184 to i32)
  %v3_143e = inttoptr i32 %v2_143e to i32*
  store i32 %v3_143b, i32* %v3_143e, align 4
  %v0_1442 = load i32, i32* %eax.global-to-local, align 4
  %v1_1442 = add i32 %v0_1442, ptrtoint (i32* @global_var_1c.1180 to i32)
  %v2_1442 = inttoptr i32 %v1_1442 to i32*
  %v3_1442 = load i32, i32* %v2_1442, align 4
  store i32 %v3_1442, i32* %eax.global-to-local, align 4
  %v1_1445 = load i32, i32* @esp, align 4
  %v2_1445 = add i32 %v1_1445, 36
  %v3_1445 = inttoptr i32 %v2_1445 to i32*
  store i32 %v3_1442, i32* %v3_1445, align 4
  %v0_1449 = load i32, i32* @esp, align 4
  %v1_1449 = add i32 %v0_1449, 4
  %v2_1449 = inttoptr i32 %v1_1449 to i32*
  store i32 116, i32* %v2_1449, align 4
  %v1_1451 = load i32, i32* @esp, align 4
  %v2_1451 = inttoptr i32 %v1_1451 to i32*
  store i32 %v2_140f, i32* %v2_1451, align 4
  %v0_1454 = load i32, i32* %stack_var_-140, align 4
  %v11_1454 = call i32 @_ZSt9make_pairIc7uint256ESt4pairIT_T0_ES2_S3_(i32 %v0_1454, i8 %v10_1454, i32 ptrtoint (i32* @0 to i32), i32 ptrtoint (i32* @0 to i32), i32 ptrtoint (i32* @0 to i32), i32 ptrtoint (i32* @0 to i32), i32 ptrtoint (i32* @0 to i32), i32 ptrtoint (i32* @0 to i32), i32 ptrtoint (i32* @0 to i32), i32 ptrtoint (i32* @0 to i32))
  %v0_1459 = load i32, i32* @esp, align 4
  %v1_1459 = sub i32 %v0_1459, ptrtoint (i8** @global_var_4.1177 to i32)
  %v0_145c = load i32, i32* @ebx, align 4
  %v2_145c = add i32 %v1_1459, ptrtoint (i32* @global_var_8.1178 to i32)
  %v3_145c = inttoptr i32 %v2_145c to i32*
  store i32 %v0_145c, i32* %v3_145c, align 4
  %v1_1463 = load i32, i32* @esp, align 4
  %v2_1463 = add i32 %v1_1463, ptrtoint (i8** @global_var_4.1177 to i32)
  %v3_1463 = inttoptr i32 %v2_1463 to i32*
  store i32 %v2_140f, i32* %v3_1463, align 4
  store i32 %v2_13d1, i32* %eax.global-to-local, align 4
  %v1_146a = load i32, i32* @esp, align 4
  %v2_146a = inttoptr i32 %v1_146a to i32*
  store i32 %v2_13d1, i32* %v2_146a, align 4
  %v0_146d = call i32 @_ZN13CLevelDBBatch5WriteISt4pairIc7uint256E10CDiskTxPosEEvRKT_RKT0_()
  store i32 %v2_1472, i32* %eax.global-to-local, align 4
  %v0_1475 = load i32, i32* @esp, align 4
  %v1_1475 = add i32 %v0_1475, ptrtoint (i32* @global_var_8.1178 to i32)
  %v2_1475 = inttoptr i32 %v1_1475 to i32*
  store i32 0, i32* %v2_1475, align 4
  %v1_1480 = load i32, i32* @esp, align 4
  %v2_1480 = add i32 %v1_1480, ptrtoint (i8** @global_var_4.1177 to i32)
  %v3_1480 = inttoptr i32 %v2_1480 to i32*
  store i32 %v2_13dc, i32* %v3_1480, align 4
  %v1_1484 = load i32, i32* @esp, align 4
  %v2_1484 = inttoptr i32 %v1_1484 to i32*
  store i32 %v2_1472, i32* %v2_1484, align 4
  %v0_1487 = call i32 @_ZN9__gnu_cxx17__normal_iteratorIPKSt4pairI7uint25610CDiskTxPosESt6vectorIS4_SaIS4_EEEppEi()
  store i32 %v0_1487, i32* %eax.global-to-local, align 4
  %v0_148c = load i32, i32* @esp, align 4
  %v1_148c = sub i32 %v0_148c, ptrtoint (i8** @global_var_4.1177 to i32)
  br label %dec_label_pc_148f

dec_label_pc_148f:                                ; preds = %dec_label_pc_13f6, %dec_label_pc_13b0
  %storemerge = phi i32 [ %v1_148c, %dec_label_pc_13f6 ], [ %v16_13ee, %dec_label_pc_13b0 ]
  store i32 %v2_148f, i32* %eax.global-to-local, align 4
  %v2_1495 = add i32 %storemerge, ptrtoint (i8** @global_var_4.1177 to i32)
  %v3_1495 = inttoptr i32 %v2_1495 to i32*
  store i32 %vect, i32* %v3_1495, align 4
  %v1_1499 = load i32, i32* @esp, align 4
  %v2_1499 = inttoptr i32 %v1_1499 to i32*
  store i32 %v2_148f, i32* %v2_1499, align 4
  %v0_149c = call i32 @_ZNKSt6vectorISt4pairI7uint25610CDiskTxPosESaIS3_EE3endEv()
  %v0_14a1 = load i32, i32* @esp, align 4
  %v3_14a7 = inttoptr i32 %v0_14a1 to i32*
  store i32 %v2_148f, i32* %v3_14a7, align 4
  store i32 %v2_13dc, i32* %eax.global-to-local, align 4
  %v1_14ae = load i32, i32* @esp, align 4
  %v2_14ae = inttoptr i32 %v1_14ae to i32*
  store i32 %v2_13dc, i32* %v2_14ae, align 4
  %v0_14b1 = call i32 @_ZN9__gnu_cxxneIPKSt4pairI7uint25610CDiskTxPosESt6vectorIS4_SaIS4_EEEEbRKNS_17__normal_iteratorIT_T0_EESF_()
  store i32 %v0_14b1, i32* %eax.global-to-local, align 4
  %v4_14b6 = trunc i32 %v0_14b1 to i8
  %v5_14b6 = icmp eq i8 %v4_14b6, 0
  %v1_14b8 = icmp eq i1 %v5_14b6, false
  br i1 %v1_14b8, label %dec_label_pc_13f6, label %dec_label_pc_14be

dec_label_pc_14be:                                ; preds = %dec_label_pc_148f
  store i32 %this, i32* %eax.global-to-local, align 4
  %v0_14c1 = load i32, i32* @esp, align 4
  %v1_14c1 = add i32 %v0_14c1, ptrtoint (i32* @global_var_8.1178 to i32)
  %v2_14c1 = inttoptr i32 %v1_14c1 to i32*
  store i32 0, i32* %v2_14c1, align 4
  %v1_14cc = load i32, i32* @esp, align 4
  %v2_14cc = add i32 %v1_14cc, ptrtoint (i8** @global_var_4.1177 to i32)
  %v3_14cc = inttoptr i32 %v2_14cc to i32*
  store i32 %v2_13d1, i32* %v3_14cc, align 4
  %v0_14d0 = load i32, i32* %eax.global-to-local, align 4
  %v1_14d0 = load i32, i32* @esp, align 4
  %v2_14d0 = inttoptr i32 %v1_14d0 to i32*
  store i32 %v0_14d0, i32* %v2_14d0, align 4
  ret void

; uselistorder directives
  uselistorder i32 %v2_13dc, { 5, 6, 0, 1, 2, 3, 4, 8, 7, 9 }
  uselistorder i32 %v2_13d1, { 0, 1, 2, 4, 3, 5 }
  uselistorder i32* %eax.global-to-local, { 14, 15, 16, 17, 18, 0, 1, 2, 3, 4, 5, 6, 7, 8, 9, 10, 11, 12, 13, 19, 20, 21 }
  uselistorder i32 ()* @_ZNK9__gnu_cxx17__normal_iteratorIPKSt4pairI7uint25610CDiskTxPosESt6vectorIS4_SaIS4_EEEptEv, { 1, 0 }
  uselistorder i32 (i32)* @_ZN13CLevelDBBatchC1Ev, { 2, 1, 0 }
  uselistorder i32 %vect, { 1, 0, 2 }
}

define i32 @function_14d7() local_unnamed_addr {
dec_label_pc_14d7:
  %eax.global-to-local = alloca i32, align 4
  %ebx.global-to-local = alloca i32, align 4
  %ecx.global-to-local = alloca i32, align 4
  %v0_14d7 = load i32, i32* %ecx.global-to-local, align 4
  %v1_14d7 = add i32 %v0_14d7, -1069183549
  %v2_14d7 = inttoptr i32 %v1_14d7 to i32*
  %v3_14d7 = load i32, i32* %v2_14d7, align 4
  %v4_14d7 = sub i32 %v3_14d7, ptrtoint (i8** @global_var_1.1176 to i32)
  store i32 %v4_14d7, i32* %v2_14d7, align 4
  %v0_14dd = load i32, i32* %eax.global-to-local, align 4
  %v1_14e0 = call i32 @_ZN13CLevelDBBatchD1Ev(i32 %v0_14dd)
  %v0_14e5 = load i32, i32* %ebx.global-to-local, align 4
  store i32 %v0_14e5, i32* @eax, align 4
  %v0_14e7 = load i32, i32* @ebp, align 4
  %v1_14e7 = add i32 %v0_14e7, -12
  %v2_14e7 = inttoptr i32 %v1_14e7 to i32*
  %v3_14e7 = load i32, i32* %v2_14e7, align 4
  %v1_14ea = load i32, i32* inttoptr (i32 20 to i32*), align 4
  %v3_14ea = icmp eq i32 %v1_14ea, %v3_14e7
  br i1 %v3_14ea, label %bb, label %dec_label_pc_14f3

bb:                                               ; preds = %dec_label_pc_14d7
  %v1_14f1 = call i32 @function_1511()
  store i32 %v1_14f1, i32* @eax, align 4
  br label %dec_label_pc_14f3

dec_label_pc_14f3:                                ; preds = %bb, %dec_label_pc_14d7
  %v0_14f3 = call i32 @function_150c()
  store i32 %v0_14f3, i32* %eax.global-to-local, align 4
  ret i32 %v0_14f3

; uselistorder directives
  uselistorder i32 (i32)* @_ZN13CLevelDBBatchD1Ev, { 3, 2, 1, 0 }
}

define i32 @function_14f6() local_unnamed_addr {
dec_label_pc_14f6:
  %eax.global-to-local = alloca i32, align 4
  %v0_14f6 = load i32, i32* %eax.global-to-local, align 4
  ret i32 %v0_14f6
}

define i32 @function_150c() local_unnamed_addr {
dec_label_pc_150c:
  %tmp = load i32, i32* @eax, align 4
  ret i32 %tmp
}

define i32 @function_1511() local_unnamed_addr {
dec_label_pc_1511:
  %v0_1515 = load i32, i32* @eax, align 4
  ret i32 %v0_1515
}

define void @_ZN12CBlockTreeDB9WriteFlagERKSsb(i32 %this, i32 %name, i1 %fValue) local_unnamed_addr {
dec_label_pc_1516:
  ret void
}

define i32 @function_15a0() local_unnamed_addr {
dec_label_pc_15a0:
  %eax.global-to-local = alloca i32, align 4
  %v0_15a0 = load i32, i32* %eax.global-to-local, align 4
  ret i32 %v0_15a0
}

define i32 @function_15b6() local_unnamed_addr {
dec_label_pc_15b6:
  %ecx.global-to-local = alloca i32, align 4
  %edx.global-to-local = alloca i32, align 4
  %v0_15b6 = load i32, i32* %ecx.global-to-local, align 4
  %v1_15b6 = add i32 %v0_15b6, -195720232
  %v2_15b6 = inttoptr i32 %v1_15b6 to i32*
  %v3_15b6 = load i32, i32* %v2_15b6, align 4
  %v4_15b6 = sub i32 %v3_15b6, ptrtoint (i8** @global_var_1.1176 to i32)
  store i32 %v4_15b6, i32* %v2_15b6, align 4
  %v0_15bc = load i32, i32* %edx.global-to-local, align 4
  %v1_15bc = load i32, i32* inttoptr (i32 20 to i32*), align 4
  %v2_15bc = xor i32 %v1_15bc, %v0_15bc
  %v3_15bc = icmp eq i32 %v2_15bc, 0
  store i32 %v2_15bc, i32* %edx.global-to-local, align 4
  br i1 %v3_15bc, label %bb, label %dec_label_pc_15c5

bb:                                               ; preds = %dec_label_pc_15b6
  %v1_15c3 = call i32 @function_15f2()
  store i32 %v1_15c3, i32* @eax, align 4
  br label %dec_label_pc_15c5

dec_label_pc_15c5:                                ; preds = %bb, %dec_label_pc_15b6
  %v0_15c5 = call i32 @function_15ed()
  ret i32 %v0_15c5

; uselistorder directives
  uselistorder i32* %edx.global-to-local, { 1, 0 }
}

define i32 @function_15c7() local_unnamed_addr {
dec_label_pc_15c7:
  %v0_15c9 = load i32, i32* @ebp, align 4
  %v1_15c9 = add i32 %v0_15c9, -28
  %v1_15cf = call i32 @_ZNSt4pairIcSsED1Ev(i32 %v1_15c9)
  %v0_15d4 = call i32 @function_15d8()
  ret i32 %v0_15d4
}

define i32 @function_15d6() local_unnamed_addr {
dec_label_pc_15d6:
  %eax.global-to-local = alloca i32, align 4
  %v0_15d6 = load i32, i32* %eax.global-to-local, align 4
  ret i32 %v0_15d6
}

define i32 @function_15d8() local_unnamed_addr {
dec_label_pc_15d8:
  %v0_15d8 = load i32, i32* @ebp, align 4
  %v1_15d8 = add i32 %v0_15d8, -20
  ret i32 %v1_15d8
}

define i32 @function_15ed() local_unnamed_addr {
dec_label_pc_15ed:
  %tmp = load i32, i32* @eax, align 4
  ret i32 %tmp
}

define i32 @function_15f2() local_unnamed_addr {
dec_label_pc_15f2:
  %v0_15f6 = load i32, i32* @eax, align 4
  ret i32 %v0_15f6
}

define void @_ZN12CBlockTreeDB8ReadFlagERKSsRb(i32 %this, i32 %name, i1 %fValue) local_unnamed_addr {
dec_label_pc_15f8:
  ret void
}

define i32 @function_1665() local_unnamed_addr {
dec_label_pc_1665:
  %eax.global-to-local = alloca i32, align 4
  %v0_1665 = load i32, i32* %eax.global-to-local, align 4
  ret i32 %v0_1665
}

define i32 @function_167e() local_unnamed_addr {
dec_label_pc_167e:
  %eax.global-to-local = alloca i32, align 4
  %ebx.global-to-local = alloca i32, align 4
  %ecx.global-to-local = alloca i32, align 4
  %edi.global-to-local = alloca i32, align 4
  %edx.global-to-local = alloca i32, align 4
  %v0_167e = load i32, i32* %ebx.global-to-local, align 4
  %v2_167e = mul i32 %v0_167e, 8
  %v3_167e = add i32 %v0_167e, 12060532
  %v4_167e = add i32 %v3_167e, %v2_167e
  %v5_167e = inttoptr i32 %v4_167e to i32*
  %v6_167e = load i32, i32* %v5_167e, align 4
  %v7_167e = add i32 %v6_167e, 1
  store i32 %v7_167e, i32* %v5_167e, align 4
  %v2_1685 = load i8, i8* bitcast (i32* @eax to i8*), align 4
  %v3_1685 = load i32, i32* %eax.global-to-local, align 4
  %v4_1685 = trunc i32 %v3_1685 to i8
  %v5_1685 = add i8 %v4_1685, %v2_1685
  %v21_1685 = inttoptr i32 %v3_1685 to i8*
  store i8 %v5_1685, i8* %v21_1685, align 1
  %v0_1687 = load i32, i32* %ebx.global-to-local, align 4
  %v1_1687 = trunc i32 %v0_1687 to i8
  %v2_1687 = load i32, i32* %ecx.global-to-local, align 4
  %v3_1687 = lshr i32 %v2_1687, ptrtoint (i32* @global_var_8.1178 to i32)
  %v4_1687 = trunc i32 %v3_1687 to i8
  %v5_1687 = add i8 %v4_1687, %v1_1687
  %v10_1687 = icmp ult i8 %v5_1687, %v1_1687
  %v20_1687 = zext i8 %v5_1687 to i32
  %v22_1687 = and i32 %v0_1687, -256
  %v23_1687 = or i32 %v20_1687, %v22_1687
  store i32 %v23_1687, i32* %ebx.global-to-local, align 4
  %v3_1689 = load i32, i32* %edi.global-to-local, align 4
  %v5_1689 = zext i1 %v10_1687 to i32
  %v6_1689 = add i32 %v3_1689, %v2_1687
  %v7_1689 = add i32 %v6_1689, %v5_1689
  store i32 %v7_1689, i32* %ecx.global-to-local, align 4
  %v0_168b = load i32, i32* %edx.global-to-local, align 4
  %v0_168d = load i32, i32* %eax.global-to-local, align 4
  %v1_168d = trunc i32 %v0_168d to i8
  %v11_168d = icmp eq i8 %v1_168d, 49
  %v1_1690 = zext i1 %v11_168d to i32
  %v2_168b = and i32 %v0_168b, -65536
  %v3_1690 = or i32 %v2_168b, %v1_1690
  %v4_1690 = or i32 %v3_1690, 17664
  store i32 %v4_1690, i32* %edx.global-to-local, align 4
  %v0_1693 = load i32, i32* @ebp, align 4
  %v1_1693 = add i32 %v0_1693, -52
  %v2_1693 = inttoptr i32 %v1_1693 to i32*
  %v3_1693 = load i32, i32* %v2_1693, align 4
  %v1_1696 = zext i1 %v11_168d to i8
  %v3_1696 = inttoptr i32 %v3_1693 to i8*
  store i8 %v1_1696, i8* %v3_1696, align 1
  store i32 ptrtoint (i8** @global_var_1.1176 to i32), i32* @eax, align 4
  %v0_169d = load i32, i32* @ebp, align 4
  %v1_169d = add i32 %v0_169d, -12
  %v2_169d = inttoptr i32 %v1_169d to i32*
  %v3_169d = load i32, i32* %v2_169d, align 4
  store i32 %v3_169d, i32* %edx.global-to-local, align 4
  %v1_16a0 = load i32, i32* inttoptr (i32 20 to i32*), align 4
  %v2_16a0 = xor i32 %v1_16a0, %v3_169d
  %v3_16a0 = icmp eq i32 %v2_16a0, 0
  store i32 %v2_16a0, i32* %edx.global-to-local, align 4
  br i1 %v3_16a0, label %bb, label %dec_label_pc_16a9

bb:                                               ; preds = %dec_label_pc_167e
  %v1_16a7 = call i32 @function_16d6()
  store i32 %v1_16a7, i32* @eax, align 4
  br label %dec_label_pc_16a9

dec_label_pc_16a9:                                ; preds = %bb, %dec_label_pc_167e
  %v0_16a9 = call i32 @function_16d1()
  store i32 %v0_16a9, i32* %eax.global-to-local, align 4
  ret i32 %v0_16a9

; uselistorder directives
  uselistorder i8 %v1_1687, { 1, 0 }
  uselistorder i32 %v0_167e, { 1, 0 }
  uselistorder i32* %edx.global-to-local, { 1, 2, 3, 0 }
  uselistorder i32* %ecx.global-to-local, { 1, 0 }
  uselistorder i32* %ebx.global-to-local, { 2, 0, 1 }
  uselistorder i32* %eax.global-to-local, { 2, 0, 1 }
}

define i32 @function_16ab() local_unnamed_addr {
dec_label_pc_16ab:
  %v0_16ad = load i32, i32* @ebp, align 4
  %v1_16ad = add i32 %v0_16ad, -28
  %v1_16b3 = call i32 @_ZNSt4pairIcSsED1Ev(i32 %v1_16ad)
  %v0_16b8 = call i32 @function_16bc()
  ret i32 %v0_16b8

; uselistorder directives
  uselistorder i32 (i32)* @_ZNSt4pairIcSsED1Ev, { 1, 0 }
}

define i32 @function_16ba() local_unnamed_addr {
dec_label_pc_16ba:
  %eax.global-to-local = alloca i32, align 4
  %v0_16ba = load i32, i32* %eax.global-to-local, align 4
  ret i32 %v0_16ba
}

define i32 @function_16bc() local_unnamed_addr {
dec_label_pc_16bc:
  %v0_16bc = load i32, i32* @ebp, align 4
  %v1_16bc = add i32 %v0_16bc, -20
  ret i32 %v1_16bc
}

define i32 @function_16d1() local_unnamed_addr {
dec_label_pc_16d1:
  %tmp = load i32, i32* @eax, align 4
  ret i32 %tmp
}

define i32 @function_16d6() local_unnamed_addr {
dec_label_pc_16d6:
  %v0_16da = load i32, i32* @eax, align 4
  ret i32 %v0_16da
}

define void @_ZN12CBlockTreeDB18LoadBlockIndexGutsEv(i32 %this) local_unnamed_addr {
dec_label_pc_16dc:
  %slKey_-344 = alloca %Slice.1, align 8
  %pcursor_-320 = alloca i32, align 4
  %tmp101 = call i32 @__decompiler_undefined_function_0()
  %tmp103 = call i32 @__decompiler_undefined_function_0()
  %tmp105 = call i32 @__decompiler_undefined_function_0()
  %tmp107 = call i32 @__decompiler_undefined_function_0()
  %tmp109 = call i32 @__decompiler_undefined_function_0()
  %tmp111 = call i32 @__decompiler_undefined_function_0()
  %tmp113 = call i32 @__decompiler_undefined_function_0()
  %stack_var_-148 = alloca i32, align 4
  %stack_var_-112 = alloca i32, align 4
  %stack_var_-428 = alloca i32, align 4
  %v1_1704 = call i32 @_ZN8CLevelDB11NewIteratorEv(i32 %this)
  %v2_171f = ptrtoint i32* %stack_var_-428 to i32
  %v3_1728 = call i32 @_ZN11CDataStreamC1Eii(i32 %v2_171f, i32 2, i32 1020000)
  %v4_1743 = call i32 @_ZN7uint256C1Ey(i32* nonnull %stack_var_-112, i32 0, i32 0)
  %v2_1748 = ptrtoint i32* %stack_var_-148 to i32
  %v3_174e = load i32, i32* %stack_var_-112, align 4
  %v11_1791 = call i32 @_ZSt9make_pairIc7uint256ESt4pairIT_T0_ES2_S3_(i32 %v2_1748, i8 98, i32 %v3_174e, i32 %tmp113, i32 %tmp111, i32 %tmp109, i32 %tmp107, i32 %tmp105, i32 %tmp103, i32 %tmp101)
  %v2_17ac = call i32 @_ZN11CDataStreamlsISt4pairIc7uint256EEERS_RKT_(i32 %v2_171f, i32 %v2_1748)
  %v2_17be = ptrtoint i32* %pcursor_-320 to i32
  %v2_17d1 = call i32 @_ZNK11CDataStream3strEv(i32 %v2_17be, i32 %v2_171f)
  %v2_17e3 = ptrtoint %Slice.1* %slKey_-344 to i32
  %v2_17ec = call i32 @_ZN7leveldb5SliceC1ERKSs(i32 %v2_17e3, i32 %v2_17be)
  ret void

; uselistorder directives
  uselistorder i32* %stack_var_-112, { 1, 0 }
  uselistorder i32 (i32, i8, i32, i32, i32, i32, i32, i32, i32, i32)* @_ZSt9make_pairIc7uint256ESt4pairIT_T0_ES2_S3_, { 1, 2, 3, 4, 5, 6, 0 }
  uselistorder i32 (i32)* @_ZN8CLevelDB11NewIteratorEv, { 1, 0 }
}

define i32 @function_1814() local_unnamed_addr {
dec_label_pc_1814:
  %eax.global-to-local = alloca i32, align 4
  %v0_1814 = load i32, i32* %eax.global-to-local, align 4
  ret i32 %v0_1814
}

define i32 @function_1819(i32 %arg1) local_unnamed_addr {
dec_label_pc_1819:
  %tmp = load i32, i32* @eax, align 4
  ret i32 %tmp
}

define i32 @function_1852() local_unnamed_addr {
dec_label_pc_1852:
  %eax.global-to-local = alloca i32, align 4
  %v0_1852 = load i32, i32* %eax.global-to-local, align 4
  ret i32 %v0_1852
}

define i32 @function_1860() local_unnamed_addr {
dec_label_pc_1860:
  %eax.global-to-local = alloca i32, align 4
  %ecx.global-to-local = alloca i32, align 4
  %v2_1860 = load i8, i8* bitcast (i32* @ecx to i8*), align 4
  %v3_1860 = load i32, i32* %eax.global-to-local, align 4
  %v4_1860 = trunc i32 %v3_1860 to i8
  %v5_1860 = add i8 %v4_1860, %v2_1860
  %v20_1860 = load i32, i32* %ecx.global-to-local, align 4
  %v21_1860 = inttoptr i32 %v20_1860 to i8*
  store i8 %v5_1860, i8* %v21_1860, align 1
  %v0_1862 = load i32, i32* %eax.global-to-local, align 4
  ret i32 %v0_1862
}

define i32 @function_18f2() local_unnamed_addr {
dec_label_pc_18f2:
  %eax.global-to-local = alloca i32, align 4
  %v0_18f2 = load i32, i32* %eax.global-to-local, align 4
  ret i32 %v0_18f2
}

define i32 @function_18f4() local_unnamed_addr {
dec_label_pc_18f4:
  %eax.global-to-local = alloca i32, align 4
  %v0_18fb = load i32, i32* %eax.global-to-local, align 4
  %v11_18fb = and i32 %v0_18fb, -24
  store i32 %v11_18fb, i32* %eax.global-to-local, align 4
  ret i32 %v11_18fb

; uselistorder directives
  uselistorder i32 %v11_18fb, { 1, 0 }
}

define i32 @function_1931() local_unnamed_addr {
dec_label_pc_1931:
  %eax.global-to-local = alloca i32, align 4
  %v0_1931 = load i32, i32* %eax.global-to-local, align 4
  %v11_1931 = and i32 %v0_1931, -24
  store i32 %v11_1931, i32* %eax.global-to-local, align 4
  ret i32 %v11_1931

; uselistorder directives
  uselistorder i32 %v11_1931, { 1, 0 }
}

define i32 @function_1a0c() local_unnamed_addr {
dec_label_pc_1a0c:
  %eax.global-to-local = alloca i32, align 4
  %v0_1a0c = load i32, i32* %eax.global-to-local, align 4
  ret i32 %v0_1a0c
}

define i32 @function_1b07() local_unnamed_addr {
dec_label_pc_1b07:
  %eax.global-to-local = alloca i32, align 4
  %v0_1b07 = load i32, i32* @ecx, align 4
  %v1_1b07 = add i32 %v0_1b07, -1830280188
  %v2_1b07 = inttoptr i32 %v1_1b07 to i32*
  %v3_1b07 = load i32, i32* %v2_1b07, align 4
  %v4_1b07 = sub i32 %v3_1b07, ptrtoint (i8** @global_var_1.1176 to i32)
  store i32 %v4_1b07, i32* %v2_1b07, align 4
  %v2_1b0e = load i8, i8* bitcast (i32* @eax to i8*), align 4
  %v3_1b0e = load i32, i32* %eax.global-to-local, align 4
  %v4_1b0e = trunc i32 %v3_1b0e to i8
  %v5_1b0e = add i8 %v4_1b0e, %v2_1b0e
  %v21_1b0e = inttoptr i32 %v3_1b0e to i8*
  store i8 %v5_1b0e, i8* %v21_1b0e, align 1
  %v0_1b10 = load i32, i32* %eax.global-to-local, align 4
  store i32 %v0_1b10, i32* @ebx, align 4
  %v0_1b12 = load i32, i32* @ebp, align 4
  %v1_1b12 = add i32 %v0_1b12, -44
  store i32 %v1_1b12, i32* %eax.global-to-local, align 4
  %v1_1b15 = add i32 %v0_1b12, -292
  %v2_1b22 = call i32 @_ZNK15CDiskBlockIndex12GetBlockHashEv(i32 %v1_1b12, i32 %v1_1b15)
  %v0_1b2a = load i32, i32* @ebx, align 4
  %v0_1b2e = load i32, i32* @ebp, align 4
  %v1_1b2e = add i32 %v0_1b2e, -44
  store i32 %v1_1b2e, i32* %eax.global-to-local, align 4
  %v2_1b34 = inttoptr i32 %v1_1b2e to i32*
  %v3_1b34 = call i32 @_ZeqRK7uint256S1_(i32* %v2_1b34, i32 %v0_1b2a)
  store i32 %v3_1b34, i32* %eax.global-to-local, align 4
  %v4_1b39 = trunc i32 %v3_1b34 to i8
  %v5_1b39 = icmp eq i8 %v4_1b39, 0
  br i1 %v5_1b39, label %bb, label %dec_label_pc_1b3d

bb:                                               ; preds = %dec_label_pc_1b07
  %v1_1b3b = call i32 @function_1b44()
  store i32 %v1_1b3b, i32* %eax.global-to-local, align 4
  br label %dec_label_pc_1b3d

dec_label_pc_1b3d:                                ; preds = %bb, %dec_label_pc_1b07
  store i32 ptrtoint (i8** @global_var_1.1176 to i32), i32* %eax.global-to-local, align 4
  ret i32 ptrtoint (i8** @global_var_1.1176 to i32)

; uselistorder directives
  uselistorder i32* %eax.global-to-local, { 1, 0, 2, 3, 4, 5, 6 }
  uselistorder i32 (i32, i32)* @_ZNK15CDiskBlockIndex12GetBlockHashEv, { 1, 0 }
}

define i32 @function_1b44() local_unnamed_addr {
dec_label_pc_1b44:
  %v1_1b4b = call i32 @function_1b58()
  %v0_1b4d = load i32, i32* @ebp, align 4
  %v1_1b4d = add i32 %v0_1b4d, -304
  %v2_1b4d = inttoptr i32 %v1_1b4d to i32*
  %v3_1b4d = load i32, i32* %v2_1b4d, align 4
  ret i32 %v3_1b4d
}

define i32 @function_1b58() local_unnamed_addr {
dec_label_pc_1b58:
  %v0_1b58 = load i32, i32* @ebp, align 4
  %v1_1b58 = add i32 %v0_1b58, -304
  %v2_1b58 = inttoptr i32 %v1_1b58 to i32*
  %v3_1b58 = load i32, i32* %v2_1b58, align 4
  %v1_1b61 = call i32 @_ZNK11CBlockIndex10CheckIndexEv(i32 %v3_1b58)
  %v1_1b66 = xor i32 %v1_1b61, ptrtoint (i8** @global_var_1.1176 to i32)
  %v4_1b66 = trunc i32 %v1_1b66 to i8
  %v5_1b69 = icmp eq i8 %v4_1b66, 0
  br i1 %v5_1b69, label %bb, label %dec_label_pc_1b6d

bb:                                               ; preds = %dec_label_pc_1b58
  %v1_1b6b = call i32 @function_1bbd()
  br label %dec_label_pc_1b6d

dec_label_pc_1b6d:                                ; preds = %bb, %dec_label_pc_1b58
  %v0_1b6d = load i32, i32* @ebp, align 4
  %v1_1b6d = add i32 %v0_1b6d, -312
  %v1_1b73 = add i32 %v0_1b6d, -304
  %v2_1b73 = inttoptr i32 %v1_1b73 to i32*
  %v3_1b73 = load i32, i32* %v2_1b73, align 4
  %v2_1b80 = call i32 @_ZNK11CBlockIndex8ToStringEv(i32 %v1_1b6d, i32 %v3_1b73)
  %v0_1b88 = load i32, i32* @ebp, align 4
  %v1_1b88 = add i32 %v0_1b88, -312
  ret i32 %v1_1b88

; uselistorder directives
  uselistorder i32 -312, { 5, 6, 0, 1, 2, 3, 4 }
}

define i32 @function_1bb6() local_unnamed_addr {
dec_label_pc_1bb6:
  %eax.global-to-local = alloca i32, align 4
  %v0_1bbb = load i32, i32* %eax.global-to-local, align 4
  ret i32 %v0_1bbb
}

define i32 @function_1bbd() local_unnamed_addr {
dec_label_pc_1bbd:
  %v0_1bbd = load i32, i32* @ebp, align 4
  %v1_1bda = add i32 %v0_1bbd, -368
  %v1_1be3 = call i32 @_ZN11CDataStreamD1Ev(i32 %v1_1bda)
  %v0_1c00 = load i32, i32* @ebp, align 4
  %v1_1c00 = add i32 %v0_1c00, -396
  %v1_1c09 = call i32 @_ZN11CDataStreamD1Ev(i32 %v1_1c00)
  %v0_1c0e = load i32, i32* @ebx, align 4
  %v1_1c0e = icmp eq i32 %v0_1c0e, 0
  br i1 %v1_1c0e, label %dec_label_pc_1bbd.dec_label_pc_1c5d_crit_edge, label %dec_label_pc_1c12

dec_label_pc_1bbd.dec_label_pc_1c5d_crit_edge:    ; preds = %dec_label_pc_1bbd
  %v0_1c5d.pre = load i32, i32* @ebp, align 4
  br label %dec_label_pc_1c5d

dec_label_pc_1c12:                                ; preds = %dec_label_pc_1bbd
  %v10_1c12 = icmp eq i32 %v0_1c0e, 2
  %v1_1c15 = icmp eq i1 %v10_1c12, false
  br i1 %v1_1c15, label %dec_label_pc_1c37, label %dec_label_pc_1c17

dec_label_pc_1c17:                                ; preds = %dec_label_pc_1c12
  %v0_1c17 = load i32, i32* @ebp, align 4
  %v1_1c17 = add i32 %v0_1c17, -308
  %v2_1c17 = inttoptr i32 %v1_1c17 to i32*
  %v3_1c24 = load i32, i32* %v2_1c17, align 4
  store i32 %v3_1c24, i32* @eax, align 4
  %v4_1c2f = trunc i32 %v3_1c24 to i8
  %v5_1c2f = icmp eq i8 %v4_1c2f, 0
  %v1_1c31 = icmp eq i1 %v5_1c2f, false
  br i1 %v1_1c31, label %bb, label %dec_label_pc_1c37

bb:                                               ; preds = %dec_label_pc_1c17
  %v3_1c31 = call i32 @function_1819(i32 %v3_1c24)
  br label %dec_label_pc_1c37

dec_label_pc_1c37:                                ; preds = %bb, %dec_label_pc_1c17, %dec_label_pc_1c12
  %v0_1c37 = load i32, i32* @ebp, align 4
  %v1_1c37 = add i32 %v0_1c37, -308
  %v2_1c37 = inttoptr i32 %v1_1c37 to i32*
  %v3_1c37 = load i32, i32* %v2_1c37, align 4
  %v10_1c37 = icmp eq i32 %v3_1c37, 0
  br i1 %v10_1c37, label %dec_label_pc_1c58, label %dec_label_pc_1c40

dec_label_pc_1c40:                                ; preds = %dec_label_pc_1c37
  br label %dec_label_pc_1c58

dec_label_pc_1c58:                                ; preds = %dec_label_pc_1c40, %dec_label_pc_1c37
  store i32 ptrtoint (i8** @global_var_1.1176 to i32), i32* @esi, align 4
  br label %dec_label_pc_1c5d

dec_label_pc_1c5d:                                ; preds = %dec_label_pc_1bbd.dec_label_pc_1c5d_crit_edge, %dec_label_pc_1c58
  %v0_1c5d = phi i32 [ %v0_1c5d.pre, %dec_label_pc_1bbd.dec_label_pc_1c5d_crit_edge ], [ %v0_1c37, %dec_label_pc_1c58 ]
  %v1_1c5d = add i32 %v0_1c5d, -424
  %v1_1c66 = call i32 @_ZN11CDataStreamD1Ev(i32 %v1_1c5d)
  %v0_1c6b = load i32, i32* @esi, align 4
  store i32 %v0_1c6b, i32* @eax, align 4
  %v0_1c6d = load i32, i32* @ebp, align 4
  %v1_1c6d = add i32 %v0_1c6d, -12
  %v2_1c6d = inttoptr i32 %v1_1c6d to i32*
  %v3_1c6d = load i32, i32* %v2_1c6d, align 4
  %v1_1c70 = load i32, i32* inttoptr (i32 20 to i32*), align 4
  %v3_1c70 = icmp eq i32 %v1_1c70, %v3_1c6d
  br i1 %v3_1c70, label %bb7, label %dec_label_pc_1c7d

bb7:                                              ; preds = %dec_label_pc_1c5d
  %v1_1c77 = call i32 @function_1d36()
  store i32 %v1_1c77, i32* @eax, align 4
  br label %dec_label_pc_1c7d

dec_label_pc_1c7d:                                ; preds = %bb7, %dec_label_pc_1c5d
  %v0_1c7d = call i32 @function_1d31()
  ret i32 %v0_1c7d

; uselistorder directives
  uselistorder label %dec_label_pc_1c5d, { 1, 0 }
}

define i32 @function_1c83() local_unnamed_addr {
dec_label_pc_1c83:
  %eax.global-to-local = alloca i32, align 4
  %v0_1c83 = load i32, i32* %eax.global-to-local, align 4
  ret i32 %v0_1c83
}

define i32 @function_1c92() local_unnamed_addr {
dec_label_pc_1c92:
  %v0_1c92 = call i32 @function_1d19()
  ret i32 %v0_1c92
}

define i32 @function_1ca9() local_unnamed_addr {
dec_label_pc_1ca9:
  %v0_1ca9 = call i32 @function_1caf()
  ret i32 %v0_1ca9
}

define i32 @function_1cab() local_unnamed_addr {
dec_label_pc_1cab:
  %eax.global-to-local = alloca i32, align 4
  %v0_1cab = load i32, i32* %eax.global-to-local, align 4
  ret i32 %v0_1cab
}

define i32 @function_1caf() local_unnamed_addr {
dec_label_pc_1caf:
  %v0_1caf = load i32, i32* @ebp, align 4
  %v1_1caf = add i32 %v0_1caf, -368
  %v1_1cb8 = call i32 @_ZN11CDataStreamD1Ev(i32 %v1_1caf)
  %v0_1cbd = call i32 @function_1cc3()
  ret i32 %v0_1cbd
}

define i32 @function_1cbf() local_unnamed_addr {
dec_label_pc_1cbf:
  %eax.global-to-local = alloca i32, align 4
  %v0_1cbf = load i32, i32* %eax.global-to-local, align 4
  ret i32 %v0_1cbf
}

define i32 @function_1cc3() local_unnamed_addr {
dec_label_pc_1cc3:
  %v0_1cc3 = load i32, i32* @ebp, align 4
  %v1_1cc3 = add i32 %v0_1cc3, -396
  %v1_1ccc = call i32 @_ZN11CDataStreamD1Ev(i32 %v1_1cc3)
  %v0_1cd1 = load i32, i32* @esi, align 4
  store i32 %v0_1cd1, i32* @eax, align 4
  %v0_1cd3 = load i32, i32* @ebx, align 4
  store i32 %v0_1cd3, i32* @edx, align 4
  %v0_1cd5 = call i32 @function_1ce0()
  ret i32 %v0_1cd5
}

define i32 @function_1cd8() local_unnamed_addr {
dec_label_pc_1cd8:
  %eax.global-to-local = alloca i32, align 4
  %v0_1cd8 = load i32, i32* %eax.global-to-local, align 4
  ret i32 %v0_1cd8
}

define i32 @function_1cde() local_unnamed_addr {
dec_label_pc_1cde:
  %v0_1cde = call i32 @function_1d19()
  ret i32 %v0_1cde
}

define i32 @function_1ce0() local_unnamed_addr {
dec_label_pc_1ce0:
  %v0_1ce0 = load i32, i32* @edx, align 4
  %v10_1ce0 = icmp eq i32 %v0_1ce0, 1
  br i1 %v10_1ce0, label %dec_label_pc_1ce9, label %dec_label_pc_1ce5

dec_label_pc_1ce5:                                ; preds = %dec_label_pc_1ce0
  %v0_1ce7 = call i32 @function_1d19()
  ret i32 %v0_1ce7

dec_label_pc_1ce9:                                ; preds = %dec_label_pc_1ce0
  %v3_1ce9 = load i32, i32* @eax, align 4
  ret i32 %v3_1ce9

; uselistorder directives
  uselistorder i32 ()* @function_1d19, { 1, 2, 0 }
}

define i32 @function_1d12() local_unnamed_addr {
dec_label_pc_1d12:
  %eax.global-to-local = alloca i32, align 4
  %v0_1d12 = load i32, i32* %eax.global-to-local, align 4
  ret i32 %v0_1d12
}

define i32 @function_1d18() local_unnamed_addr {
dec_label_pc_1d18:
  %eax.global-to-local = alloca i32, align 4
  %v0_1d18 = load i32, i32* %eax.global-to-local, align 4
  ret i32 %v0_1d18
}

define i32 @function_1d19() local_unnamed_addr {
dec_label_pc_1d19:
  %v0_1d19 = load i32, i32* @ebp, align 4
  %v1_1d19 = add i32 %v0_1d19, -424
  %v1_1d22 = call i32 @_ZN11CDataStreamD1Ev(i32 %v1_1d19)
  %v0_1d27 = load i32, i32* @ebx, align 4
  ret i32 %v0_1d27

; uselistorder directives
  uselistorder i32 (i32)* @_ZN11CDataStreamD1Ev, { 7, 9, 8, 2, 1, 0, 6, 5, 4, 3 }
}

define i32 @function_1d31() local_unnamed_addr {
dec_label_pc_1d31:
  %tmp = load i32, i32* @eax, align 4
  ret i32 %tmp
}

define i32 @function_1d36() local_unnamed_addr {
dec_label_pc_1d36:
  %v0_1d36 = load i32, i32* @ebp, align 4
  %v1_1d36 = add i32 %v0_1d36, -8
  %v1_1d39 = inttoptr i32 %v1_1d36 to i32*
  %v2_1d39 = load i32, i32* %v1_1d39, align 4
  store i32 %v2_1d39, i32* @ebx, align 4
  %v1_1d3b = inttoptr i32 %v0_1d36 to i32*
  %v2_1d3b = load i32, i32* %v1_1d3b, align 4
  store i32 %v2_1d3b, i32* @ebp, align 4
  %v0_1d3c = load i32, i32* @eax, align 4
  ret i32 %v0_1d3c
}

define void @__static_initialization_and_destruction_0(i32 %__initialize_p, i32 %__priority) local_unnamed_addr {
dec_label_pc_1d3d:
  %v0_1d4f = load i32, i32* inttoptr (i32 20 to i32*), align 4
  %v13_1d5a = icmp eq i32 %__initialize_p, 1
  %v1_1d5e = icmp eq i1 %v13_1d5a, false
  br i1 %v1_1d5e, label %bb, label %dec_label_pc_1d64

bb:                                               ; preds = %dec_label_pc_1d3d
  %v4_1d5e = call i32 @function_1e65(i32 %__priority, i32 %__initialize_p)
  br label %dec_label_pc_1d64

dec_label_pc_1d64:                                ; preds = %bb, %dec_label_pc_1d3d
  %v13_1d64 = icmp eq i32 %__priority, 65535
  %v1_1d6b = icmp eq i1 %v13_1d64, false
  br i1 %v1_1d6b, label %bb9, label %dec_label_pc_1d71

bb9:                                              ; preds = %dec_label_pc_1d64
  %v4_1d6b = call i32 @function_1e65(i32 %v0_1d4f, i32 ptrtoint (i32* @0 to i32))
  br label %dec_label_pc_1d71

dec_label_pc_1d71:                                ; preds = %bb9, %dec_label_pc_1d64
  ret void

; uselistorder directives
  uselistorder i32 (i32, i32)* @function_1e65, { 1, 0 }
  uselistorder i32 %__initialize_p, { 1, 0 }
}

define i32 @function_1e4b() local_unnamed_addr {
dec_label_pc_1e4b:
  %eax.global-to-local = alloca i32, align 4
  %v0_1e4b = load i32, i32* %eax.global-to-local, align 4
  ret i32 %v0_1e4b
}

define i32 @function_1e55() local_unnamed_addr {
dec_label_pc_1e55:
  %eax.global-to-local = alloca i32, align 4
  %v0_1e55 = load i32, i32* %eax.global-to-local, align 4
  ret i32 %v0_1e55
}

define i32 @function_1e5f() local_unnamed_addr {
dec_label_pc_1e5f:
  %eax.global-to-local = alloca i32, align 4
  %v0_1e5f = load i32, i32* %eax.global-to-local, align 4
  ret i32 %v0_1e5f
}

define i32 @function_1e65(i32 %arg1, i32 %arg2) local_unnamed_addr {
dec_label_pc_1e65:
  %v0_1e65 = load i32, i32* @ebp, align 4
  %v1_1e65 = add i32 %v0_1e65, -12
  %v2_1e65 = inttoptr i32 %v1_1e65 to i32*
  %v3_1e65 = load i32, i32* %v2_1e65, align 4
  %v1_1e68 = load i32, i32* inttoptr (i32 20 to i32*), align 4
  %v2_1e68 = xor i32 %v1_1e68, %v3_1e65
  %v3_1e68 = icmp eq i32 %v2_1e68, 0
  store i32 %v2_1e68, i32* @eax, align 4
  br i1 %v3_1e68, label %bb, label %dec_label_pc_1e71

bb:                                               ; preds = %dec_label_pc_1e65
  %v1_1e6f = call i32 @function_1e76()
  br label %dec_label_pc_1e71

dec_label_pc_1e71:                                ; preds = %bb, %dec_label_pc_1e65
  %v2_1e6f = phi i32 [ %v1_1e6f, %bb ], [ %v2_1e68, %dec_label_pc_1e65 ]
  ret i32 %v2_1e6f
}

define i32 @function_1e76() local_unnamed_addr {
dec_label_pc_1e76:
  %v0_1e77 = load i32, i32* @eax, align 4
  ret i32 %v0_1e77
}

define void @_GLOBAL__sub_I__ZN12CCoinsViewDBC2Ejbb() local_unnamed_addr {
dec_label_pc_1e78:
  call void @__static_initialization_and_destruction_0(i32 ptrtoint (i8** @global_var_1.1176 to i32), i32 ptrtoint (i32* @global_var_ffff.1188 to i32))
  store i32 0, i32* @eax, align 4
  br i1 true, label %bb, label %dec_label_pc_1ea9

bb:                                               ; preds = %dec_label_pc_1e78
  %v1_1ea7 = call i32 @function_1eae()
  br label %dec_label_pc_1ea9

dec_label_pc_1ea9:                                ; preds = %bb, %dec_label_pc_1e78
  ret void
}

define i32 @function_1eae() local_unnamed_addr {
dec_label_pc_1eae:
  %v0_1eaf = load i32, i32* @eax, align 4
  ret i32 %v0_1eaf
}

define i32 @_ZNSt11char_traitsIcE6assignERcRKc(i8* %arg1, i32 %arg2) local_unnamed_addr {
dec_label_pc_1eb0:
  %ebp.global-to-local = alloca i32, align 4
  %tmp105 = inttoptr i32 %arg2 to i8*
  %v0_1eb0 = load i32, i32* %ebp.global-to-local, align 4
  %v2_1ed0 = load i8, i8* %tmp105, align 1
  store i8 %v2_1ed0, i8* %arg1, align 1
  store i32 %v0_1eb0, i32* %ebp.global-to-local, align 4
  ret i32 0
}

define i32 @_ZNSt9exceptionC1Ev(i32* %arg1) local_unnamed_addr {
dec_label_pc_1eec:
  store i32 ptrtoint (i32* @global_var_8.1178 to i32), i32* %arg1, align 4
  store i32 0, i32* @eax, align 4
  br i1 true, label %bb, label %dec_label_pc_1f18

bb:                                               ; preds = %dec_label_pc_1eec
  %tmp100 = ptrtoint i32* %arg1 to i32
  %v2_1f16 = call i32 @function_1f1d(i32 %tmp100)
  br label %dec_label_pc_1f18

dec_label_pc_1f18:                                ; preds = %bb, %dec_label_pc_1eec
  %v3_1f16 = phi i32 [ %v2_1f16, %bb ], [ 0, %dec_label_pc_1eec ]
  ret i32 %v3_1f16

; uselistorder directives
  uselistorder i32* %arg1, { 1, 0 }
}

define i32 @function_1f1d(i32 %arg1) local_unnamed_addr {
dec_label_pc_1f1d:
  %v0_1f1e = load i32, i32* @eax, align 4
  ret i32 %v0_1f1e
}

define i32 @_ZNSt9bad_allocC1Ev(i32* %arg1) local_unnamed_addr {
dec_label_pc_1f20:
  %tmp100 = ptrtoint i32* %arg1 to i32
  store i32 %tmp100, i32* @eax, align 4
  %v1_1f3d = call i32 @function_3e0c(i32 %tmp100)
  store i32 ptrtoint (i32* @global_var_8.1178 to i32), i32* %arg1, align 4
  ret i32 0

; uselistorder directives
  uselistorder i32 %tmp100, { 1, 0 }
}

define i32 @_ZnwjPv(i32 %arg1, i32 %arg2) local_unnamed_addr {
dec_label_pc_1f5e:
  store i32 %arg2, i32* @eax, align 4
  br i1 true, label %bb, label %dec_label_pc_1f8a

bb:                                               ; preds = %dec_label_pc_1f5e
  %v3_1f88 = call i32 @function_1f8f(i32 %arg2, i32 %arg1)
  br label %dec_label_pc_1f8a

dec_label_pc_1f8a:                                ; preds = %bb, %dec_label_pc_1f5e
  %v4_1f88 = phi i32 [ %v3_1f88, %bb ], [ %arg2, %dec_label_pc_1f5e ]
  ret i32 %v4_1f88
}

define i32 @function_1f8f(i32 %arg1, i32 %arg2) local_unnamed_addr {
dec_label_pc_1f8f:
  %v0_1f90 = load i32, i32* @eax, align 4
  ret i32 %v0_1f90
}

define i32 @_ZdlPvS_(i32 %arg1, i32 %arg2) local_unnamed_addr {
dec_label_pc_1f91:
  store i32 0, i32* @eax, align 4
  br i1 true, label %bb, label %dec_label_pc_1fba

bb:                                               ; preds = %dec_label_pc_1f91
  %v3_1fb8 = call i32 @function_1fbf(i32 %arg2, i32 %arg1)
  br label %dec_label_pc_1fba

dec_label_pc_1fba:                                ; preds = %bb, %dec_label_pc_1f91
  %v4_1fb8 = phi i32 [ %v3_1fb8, %bb ], [ 0, %dec_label_pc_1f91 ]
  ret i32 %v4_1fb8
}

define i32 @function_1fbf(i32 %arg1, i32 %arg2) local_unnamed_addr {
dec_label_pc_1fbf:
  %v0_1fc0 = load i32, i32* @eax, align 4
  ret i32 %v0_1fc0
}

define i32 @_ZNSt14_Bit_referenceC1EPmm(i32* %arg1, i32 %arg2, i32 %arg3) local_unnamed_addr {
dec_label_pc_1fc2:
  %tmp104 = ptrtoint i32* %arg1 to i32
  store i32 %arg2, i32* %arg1, align 4
  %v2_1ff3 = add i32 %tmp104, ptrtoint (i8** @global_var_4.1177 to i32)
  %v3_1ff3 = inttoptr i32 %v2_1ff3 to i32*
  store i32 %arg3, i32* %v3_1ff3, align 4
  ret i32 0
}

define i32 @_ZNKSt14_Bit_referencecvbEv(i32* %arg1) local_unnamed_addr {
dec_label_pc_200a:
  %tmp101 = ptrtoint i32* %arg1 to i32
  %v2_2024 = load i32, i32* %arg1, align 4
  %v1_2026 = inttoptr i32 %v2_2024 to i32*
  %v2_2026 = load i32, i32* %v1_2026, align 4
  %v1_202b = add i32 %tmp101, ptrtoint (i8** @global_var_4.1177 to i32)
  %v2_202b = inttoptr i32 %v1_202b to i32*
  %v3_202b = load i32, i32* %v2_202b, align 4
  %v2_202e = and i32 %v3_202b, %v2_2026
  %v3_202e = icmp eq i32 %v2_202e, 0
  %v1_2032 = icmp eq i1 %v3_202e, false
  %v2_2032 = zext i1 %v1_2032 to i32
  %v4_2032 = and i32 %v2_202e, -256
  %v5_2032 = or i32 %v2_2032, %v4_2032
  store i32 %v5_2032, i32* @eax, align 4
  br i1 true, label %bb, label %dec_label_pc_2041

bb:                                               ; preds = %dec_label_pc_200a
  %v2_203f = call i32 @function_2046(i32 %tmp101)
  br label %dec_label_pc_2041

dec_label_pc_2041:                                ; preds = %bb, %dec_label_pc_200a
  %v3_203f = phi i32 [ %v2_203f, %bb ], [ %v5_2032, %dec_label_pc_200a ]
  ret i32 %v3_203f
}

define i32 @function_2046(i32 %arg1) local_unnamed_addr {
dec_label_pc_2046:
  %v0_2047 = load i32, i32* @eax, align 4
  ret i32 %v0_2047
}

define i32 @_ZNSt14_Bit_referenceaSEb(i32* %arg1, i32 %arg2) local_unnamed_addr {
dec_label_pc_2048:
  %tmp102 = ptrtoint i32* %arg1 to i32
  %tmp105 = trunc i32 %arg2 to i8
  %v10_2065 = icmp eq i8 %tmp105, 0
  %v2_2086 = load i32, i32* %arg1, align 4
  %v1_208d = inttoptr i32 %v2_2086 to i32*
  %v2_208d = load i32, i32* %v1_208d, align 4
  %v1_2092 = add i32 %tmp102, ptrtoint (i8** @global_var_4.1177 to i32)
  %v2_2092 = inttoptr i32 %v1_2092 to i32*
  %v3_2092 = load i32, i32* %v2_2092, align 4
  br i1 %v10_2065, label %dec_label_pc_2083, label %dec_label_pc_206b

dec_label_pc_206b:                                ; preds = %dec_label_pc_2048
  %v2_207d = or i32 %v3_2092, %v2_208d
  %v2_207f = inttoptr i32 %v2_2086 to i32*
  store i32 %v2_207d, i32* %v2_207f, align 4
  br label %dec_label_pc_209b

dec_label_pc_2083:                                ; preds = %dec_label_pc_2048
  %v1_2095 = sub i32 -1, %v3_2092
  %v2_2097 = and i32 %v2_208d, %v1_2095
  %v2_2099 = inttoptr i32 %v2_2086 to i32*
  store i32 %v2_2097, i32* %v2_2099, align 4
  br label %dec_label_pc_209b

dec_label_pc_209b:                                ; preds = %dec_label_pc_2083, %dec_label_pc_206b
  ret i32 %tmp102

; uselistorder directives
  uselistorder i32 %v2_2086, { 1, 2, 0 }
}

define i32 @_ZNSt14_Bit_referenceaSERKS_(i32 %arg1, i32 %arg2) local_unnamed_addr {
dec_label_pc_20b2:
  store i32 %arg2, i32* @eax, align 4
  %v1_20d5 = call i32 @function_40bc(i32 %arg2)
  %v1_20da = urem i32 %v1_20d5, 256
  store i32 %arg1, i32* @eax, align 4
  %v2_20e7 = call i32 @function_40fa(i32 %arg1, i32 %v1_20da)
  store i32 %v2_20e7, i32* @eax, align 4
  br i1 true, label %bb, label %dec_label_pc_20f8

bb:                                               ; preds = %dec_label_pc_20b2
  %v1_20f6 = call i32 @function_20fd()
  br label %dec_label_pc_20f8

dec_label_pc_20f8:                                ; preds = %bb, %dec_label_pc_20b2
  %v2_20f6 = phi i32 [ %v1_20f6, %bb ], [ %v2_20e7, %dec_label_pc_20b2 ]
  ret i32 %v2_20f6

; uselistorder directives
  uselistorder i32 %arg2, { 1, 0 }
  uselistorder i32 %arg1, { 1, 0 }
}

define i32 @function_20fd() local_unnamed_addr {
dec_label_pc_20fd:
  %v0_20fe = load i32, i32* @eax, align 4
  ret i32 %v0_20fe
}

define i32 @_ZNSt8iteratorISt26random_access_iterator_tagbiPbRbEC1Ev(i32 %arg1) local_unnamed_addr {
dec_label_pc_2100:
  ret i32 0
}

define i32 @_ZNSt18_Bit_iterator_baseC1EPmj(i32* %arg1, i32 %arg2, i32 %arg3) local_unnamed_addr {
dec_label_pc_212a:
  %tmp104 = ptrtoint i32* %arg1 to i32
  store i32 %tmp104, i32* @eax, align 4
  %v1_2153 = call i32 @function_422a(i32 %tmp104)
  store i32 %arg2, i32* %arg1, align 4
  %v2_2166 = add i32 %tmp104, ptrtoint (i8** @global_var_4.1177 to i32)
  %v3_2166 = inttoptr i32 %v2_2166 to i32*
  store i32 %arg3, i32* %v3_2166, align 4
  store i32 0, i32* @eax, align 4
  br i1 true, label %bb, label %dec_label_pc_2175

bb:                                               ; preds = %dec_label_pc_212a
  %v1_2173 = call i32 @function_217a()
  br label %dec_label_pc_2175

dec_label_pc_2175:                                ; preds = %bb, %dec_label_pc_212a
  %v2_2173 = phi i32 [ %v1_2173, %bb ], [ 0, %dec_label_pc_212a ]
  ret i32 %v2_2173

; uselistorder directives
  uselistorder i32 %tmp104, { 2, 1, 0 }
}

define i32 @function_217a() local_unnamed_addr {
dec_label_pc_217a:
  %v0_217b = load i32, i32* @eax, align 4
  ret i32 %v0_217b
}

define i32 @_ZNSt18_Bit_iterator_base10_M_bump_upEv(i32* %arg1) local_unnamed_addr {
dec_label_pc_217c:
  %edx.global-to-local = alloca i32, align 4
  %tmp101 = ptrtoint i32* %arg1 to i32
  %v1_2196 = add i32 %tmp101, ptrtoint (i8** @global_var_4.1177 to i32)
  %v2_2196 = inttoptr i32 %v1_2196 to i32*
  %v3_2196 = load i32, i32* %v2_2196, align 4
  %v10_2199 = icmp eq i32 %v3_2196, 31
  %v1_219c = zext i1 %v10_2199 to i32
  %v2_219c = load i32, i32* %edx.global-to-local, align 4
  %v3_219c = and i32 %v2_219c, -256
  %v4_219c = or i32 %v3_219c, %v1_219c
  store i32 %v4_219c, i32* %edx.global-to-local, align 4
  %v1_219f = add i32 %v3_2196, ptrtoint (i8** @global_var_1.1176 to i32)
  store i32 %v1_219f, i32* %v2_2196, align 4
  %v0_21a8 = load i32, i32* %edx.global-to-local, align 4
  %v4_21a8 = trunc i32 %v0_21a8 to i8
  %v5_21a8 = icmp eq i8 %v4_21a8, 0
  br i1 %v5_21a8, label %dec_label_pc_21c3, label %dec_label_pc_21ac

dec_label_pc_21ac:                                ; preds = %dec_label_pc_217c
  store i32 0, i32* %v2_2196, align 4
  %v2_21b9 = load i32, i32* %arg1, align 4
  %v1_21bb = add i32 %v2_21b9, ptrtoint (i8** @global_var_4.1177 to i32)
  store i32 %v1_21bb, i32* %edx.global-to-local, align 4
  store i32 %v1_21bb, i32* %arg1, align 4
  br label %dec_label_pc_21c3

dec_label_pc_21c3:                                ; preds = %dec_label_pc_21ac, %dec_label_pc_217c
  ret i32 0

; uselistorder directives
  uselistorder i32 %v3_2196, { 1, 0 }
}

define i32 @_ZNSt18_Bit_iterator_base12_M_bump_downEv(i32* %arg1) local_unnamed_addr {
dec_label_pc_21d6:
  %edx.global-to-local = alloca i32, align 4
  %tmp102 = ptrtoint i32* %arg1 to i32
  %v1_21f0 = add i32 %tmp102, ptrtoint (i8** @global_var_4.1177 to i32)
  %v2_21f0 = inttoptr i32 %v1_21f0 to i32*
  %v3_21f0 = load i32, i32* %v2_21f0, align 4
  %v1_21f3 = icmp eq i32 %v3_21f0, 0
  %v1_21f5 = zext i1 %v1_21f3 to i32
  %v2_21f5 = load i32, i32* %edx.global-to-local, align 4
  %v3_21f5 = and i32 %v2_21f5, -256
  %v4_21f5 = or i32 %v3_21f5, %v1_21f5
  store i32 %v4_21f5, i32* %edx.global-to-local, align 4
  %v1_21f8 = add i32 %v3_21f0, -1
  store i32 %v1_21f8, i32* %v2_21f0, align 4
  %v0_2201 = load i32, i32* %edx.global-to-local, align 4
  %v4_2201 = trunc i32 %v0_2201 to i8
  %v5_2201 = icmp eq i8 %v4_2201, 0
  br i1 %v5_2201, label %dec_label_pc_221c, label %dec_label_pc_2205

dec_label_pc_2205:                                ; preds = %dec_label_pc_21d6
  store i32 31, i32* %v2_21f0, align 4
  %v2_2212 = load i32, i32* %arg1, align 4
  %v1_2214 = add i32 %v2_2212, -4
  store i32 %v1_2214, i32* %edx.global-to-local, align 4
  store i32 %v1_2214, i32* %arg1, align 4
  br label %dec_label_pc_221c

dec_label_pc_221c:                                ; preds = %dec_label_pc_2205, %dec_label_pc_21d6
  store i32 0, i32* @eax, align 4
  br i1 true, label %bb, label %dec_label_pc_2228

bb:                                               ; preds = %dec_label_pc_221c
  %v1_2226 = call i32 @function_222d()
  br label %dec_label_pc_2228

dec_label_pc_2228:                                ; preds = %bb, %dec_label_pc_221c
  %v2_2226 = phi i32 [ %v1_2226, %bb ], [ 0, %dec_label_pc_221c ]
  ret i32 %v2_2226
}

define i32 @function_222d() local_unnamed_addr {
dec_label_pc_222d:
  %v0_222e = load i32, i32* @eax, align 4
  ret i32 %v0_222e
}

define i32 @_ZNSt18_Bit_iterator_base7_M_incrEi(i32* %arg1, i32 %arg2) local_unnamed_addr {
dec_label_pc_2230:
  %tmp104 = ptrtoint i32* %arg1 to i32
  %v1_2250 = add i32 %tmp104, ptrtoint (i8** @global_var_4.1177 to i32)
  %v2_2250 = inttoptr i32 %v1_2250 to i32*
  %v3_2250 = load i32, i32* %v2_2250, align 4
  %v2_2256 = add i32 %v3_2250, %arg2
  %v13_2256 = icmp slt i32 %v2_2256, 0
  %v2_225e = load i32, i32* %arg1, align 4
  %v1_2263 = add i32 %v2_2256, 31
  %v3_2268 = select i1 %v13_2256, i32 %v1_2263, i32 %v2_2256
  %v2_226b = ashr i32 %v3_2268, ptrtoint (i8* @global_var_5.1189 to i32)
  %v2_226e = mul i32 %v2_226b, 4
  %v2_2271 = add i32 %v2_226e, %v2_225e
  store i32 %v2_2271, i32* %arg1, align 4
  %v2_2288 = srem i32 %v2_2256, 32
  %v13_2288 = icmp slt i32 %v2_2288, 0
  %v1_2291 = icmp eq i1 %v13_2288, false
  br i1 %v1_2291, label %dec_label_pc_22a4, label %dec_label_pc_2293

dec_label_pc_2293:                                ; preds = %dec_label_pc_2230
  %v4_2293 = add i32 %v2_2288, ptrtoint (i32* @global_var_20.1184 to i32)
  %v2_229a = load i32, i32* %arg1, align 4
  %v1_229c = add i32 %v2_229a, -4
  store i32 %v1_229c, i32* %arg1, align 4
  br label %dec_label_pc_22a4

dec_label_pc_22a4:                                ; preds = %dec_label_pc_2293, %dec_label_pc_2230
  %stack_var_-20.0 = phi i32 [ %v2_2288, %dec_label_pc_2230 ], [ %v4_2293, %dec_label_pc_2293 ]
  store i32 %stack_var_-20.0, i32* %v2_2250, align 4
  store i32 0, i32* @eax, align 4
  br i1 true, label %bb, label %dec_label_pc_22b9

bb:                                               ; preds = %dec_label_pc_22a4
  %v1_22b7 = call i32 @function_22be()
  br label %dec_label_pc_22b9

dec_label_pc_22b9:                                ; preds = %bb, %dec_label_pc_22a4
  %v2_22b7 = phi i32 [ %v1_22b7, %bb ], [ 0, %dec_label_pc_22a4 ]
  ret i32 %v2_22b7

; uselistorder directives
  uselistorder i32 %v2_2288, { 1, 2, 0 }
}

define i32 @function_22be() local_unnamed_addr {
dec_label_pc_22be:
  %v0_22bf = load i32, i32* @eax, align 4
  ret i32 %v0_22bf
}

define i32 @_ZStmiRKSt18_Bit_iterator_baseS1_(i32* %arg1, i32 %arg2) local_unnamed_addr {
dec_label_pc_22c0:
  %ebp.global-to-local = alloca i32, align 4
  %tmp102 = ptrtoint i32* %arg1 to i32
  %v0_22c0 = load i32, i32* %ebp.global-to-local, align 4
  %v2_22e0 = load i32, i32* %arg1, align 4
  %v1_22e7 = inttoptr i32 %arg2 to i32*
  %v2_22e7 = load i32, i32* %v1_22e7, align 4
  %v2_22eb = sub i32 %v2_22e0, %v2_22e7
  %v2_22ef = sdiv i32 %v2_22eb, 4
  %v2_22f2 = shl i32 %v2_22ef, ptrtoint (i8* @global_var_5.1189 to i32)
  %v1_22fa = add i32 %tmp102, ptrtoint (i8** @global_var_4.1177 to i32)
  %v2_22fa = inttoptr i32 %v1_22fa to i32*
  %v3_22fa = load i32, i32* %v2_22fa, align 4
  %v2_22fd = add i32 %v3_22fa, %v2_22f2
  %v1_2302 = add i32 %arg2, ptrtoint (i8** @global_var_4.1177 to i32)
  %v2_2302 = inttoptr i32 %v1_2302 to i32*
  %v3_2302 = load i32, i32* %v2_2302, align 4
  %v2_2307 = sub i32 %v2_22fd, %v3_2302
  store i32 %v0_22c0, i32* %ebp.global-to-local, align 4
  ret i32 %v2_2307

; uselistorder directives
  uselistorder i32 %arg2, { 1, 0 }
}

define i32 @_ZNSt13_Bit_iteratorC1Ev(i32 %arg1) local_unnamed_addr {
dec_label_pc_231e:
  store i32 %arg1, i32* @eax, align 4
  %v3_234b = call i32 @function_4448(i32 %arg1, i32 0, i32 0)
  store i32 0, i32* @eax, align 4
  br i1 true, label %bb, label %dec_label_pc_235c

bb:                                               ; preds = %dec_label_pc_231e
  %v1_235a = call i32 @function_2361()
  br label %dec_label_pc_235c

dec_label_pc_235c:                                ; preds = %bb, %dec_label_pc_231e
  %v2_235a = phi i32 [ %v1_235a, %bb ], [ 0, %dec_label_pc_231e ]
  ret i32 %v2_235a

; uselistorder directives
  uselistorder i32 %arg1, { 1, 0 }
}

define i32 @function_2361() local_unnamed_addr {
dec_label_pc_2361:
  %v0_2362 = load i32, i32* @eax, align 4
  ret i32 %v0_2362
}

define i32 @_ZNSt13_Bit_iteratorC1EPmj(i32 %arg1, i32 %arg2, i32 %arg3) local_unnamed_addr {
dec_label_pc_2364:
  store i32 %arg1, i32* @eax, align 4
  %v3_239b = call i32 @function_448e(i32 %arg1, i32 %arg2, i32 %arg3)
  store i32 0, i32* @eax, align 4
  br i1 true, label %bb, label %dec_label_pc_23ac

bb:                                               ; preds = %dec_label_pc_2364
  %v1_23aa = call i32 @function_23b1()
  br label %dec_label_pc_23ac

dec_label_pc_23ac:                                ; preds = %bb, %dec_label_pc_2364
  %v2_23aa = phi i32 [ %v1_23aa, %bb ], [ 0, %dec_label_pc_2364 ]
  ret i32 %v2_23aa

; uselistorder directives
  uselistorder i32 %arg1, { 1, 0 }
}

define i32 @function_23b1() local_unnamed_addr {
dec_label_pc_23b1:
  %v0_23b2 = load i32, i32* @eax, align 4
  ret i32 %v0_23b2
}

define i32 @_ZNKSt13_Bit_iteratordeEv(i32 %arg1, i32* %arg2) local_unnamed_addr {
dec_label_pc_23b4:
  %tmp104 = ptrtoint i32* %arg2 to i32
  %v1_23d4 = add i32 %tmp104, ptrtoint (i8** @global_var_4.1177 to i32)
  %v2_23d4 = inttoptr i32 %v1_23d4 to i32*
  %v3_23d4 = load i32, i32* %v2_23d4, align 4
  store i32 %v3_23d4, i32* @ecx, align 4
  %v3_23de = urem i32 %v3_23d4, 32
  %v5_23de = icmp eq i32 %v3_23de, 0
  br i1 %v5_23de, label %dec_label_pc_240c, label %bb

bb:                                               ; preds = %dec_label_pc_23b4
  %v6_23de = shl i32 ptrtoint (i8** @global_var_1.1176 to i32), %v3_23de
  br label %dec_label_pc_240c

dec_label_pc_240c:                                ; preds = %dec_label_pc_23b4, %bb
  %v0_23e5 = phi i32 [ ptrtoint (i8** @global_var_1.1176 to i32), %dec_label_pc_23b4 ], [ %v6_23de, %bb ]
  %v2_23e3 = load i32, i32* %arg2, align 4
  store i32 %arg1, i32* @eax, align 4
  %v4_23f3 = call i32 @function_4376(i32 %arg1, i32 %v2_23e3, i32 %v0_23e5)
  ret i32 %arg1

; uselistorder directives
  uselistorder i32 %v3_23de, { 1, 0 }
  uselistorder i32 %arg1, { 0, 2, 1 }
  uselistorder label %dec_label_pc_240c, { 1, 0 }
}

define i32 @_ZNSt13_Bit_iteratorppEv(i32 %arg1) local_unnamed_addr {
dec_label_pc_2410:
  store i32 %arg1, i32* @eax, align 4
  %v1_242d = call i32 @function_458c(i32 %arg1)
  store i32 %arg1, i32* @eax, align 4
  br i1 true, label %bb, label %dec_label_pc_2441

bb:                                               ; preds = %dec_label_pc_2410
  %v1_243f = call i32 @function_2446()
  br label %dec_label_pc_2441

dec_label_pc_2441:                                ; preds = %bb, %dec_label_pc_2410
  %v2_243f = phi i32 [ %v1_243f, %bb ], [ %arg1, %dec_label_pc_2410 ]
  ret i32 %v2_243f

; uselistorder directives
  uselistorder i32 %arg1, { 0, 3, 2, 1 }
}

define i32 @function_2446() local_unnamed_addr {
dec_label_pc_2446:
  %v0_2447 = load i32, i32* @eax, align 4
  ret i32 %v0_2447
}

define i32 @_ZNSt13_Bit_iteratorppEi(i32* %arg1, i32 %arg2, i32 %arg3) local_unnamed_addr {
dec_label_pc_2448:
  %ecx.global-to-local = alloca i32, align 4
  %tmp104 = ptrtoint i32* %arg1 to i32
  store i32 %tmp104, i32* %ecx.global-to-local, align 4
  %v1_2471 = add i32 %arg2, ptrtoint (i8** @global_var_4.1177 to i32)
  %v2_2471 = inttoptr i32 %v1_2471 to i32*
  %v3_2471 = load i32, i32* %v2_2471, align 4
  %v1_2474 = inttoptr i32 %arg2 to i32*
  %v2_2474 = load i32, i32* %v1_2474, align 4
  store i32 %v2_2474, i32* %arg1, align 4
  %v1_2478 = load i32, i32* %ecx.global-to-local, align 4
  %v2_2478 = add i32 %v1_2478, ptrtoint (i8** @global_var_4.1177 to i32)
  %v3_2478 = inttoptr i32 %v2_2478 to i32*
  store i32 %v3_2471, i32* %v3_2478, align 4
  store i32 %arg2, i32* @eax, align 4
  %v1_2481 = call i32 @function_45c4(i32 %arg2)
  store i32 %tmp104, i32* @eax, align 4
  br i1 true, label %bb, label %dec_label_pc_2495

bb:                                               ; preds = %dec_label_pc_2448
  %v1_2493 = call i32 @function_249a()
  br label %dec_label_pc_2495

dec_label_pc_2495:                                ; preds = %bb, %dec_label_pc_2448
  %v2_2493 = phi i32 [ %v1_2493, %bb ], [ %tmp104, %dec_label_pc_2448 ]
  ret i32 %v2_2493

; uselistorder directives
  uselistorder i32 %tmp104, { 0, 2, 1 }
  uselistorder i32 %arg2, { 3, 2, 1, 0 }
}

define i32 @function_249a() local_unnamed_addr {
dec_label_pc_249a:
  %v0_249b = load i32, i32* @eax, align 4
  ret i32 %v0_249b
}

define i32 @_ZNSt13_Bit_iteratormmEv(i32 %arg1) local_unnamed_addr {
dec_label_pc_249e:
  ret i32 %arg1
}

define i32 @_ZNSt13_Bit_iteratorpLEi(i32 %arg1, i32 %arg2) local_unnamed_addr {
dec_label_pc_24d6:
  store i32 %arg1, i32* @eax, align 4
  %v2_2500 = call i32 @function_4706(i32 %arg1, i32 %arg2)
  store i32 %arg1, i32* @eax, align 4
  br i1 true, label %bb, label %dec_label_pc_2514

bb:                                               ; preds = %dec_label_pc_24d6
  %v1_2512 = call i32 @function_2519()
  br label %dec_label_pc_2514

dec_label_pc_2514:                                ; preds = %bb, %dec_label_pc_24d6
  %v2_2512 = phi i32 [ %v1_2512, %bb ], [ %arg1, %dec_label_pc_24d6 ]
  ret i32 %v2_2512

; uselistorder directives
  uselistorder i32 %arg1, { 0, 3, 2, 1 }
}

define i32 @function_2519() local_unnamed_addr {
dec_label_pc_2519:
  %v0_251a = load i32, i32* @eax, align 4
  ret i32 %v0_251a
}

define i32 @_ZNKSt13_Bit_iteratorplEi(i32* %arg1, i32 %arg2, i32 %arg3) local_unnamed_addr {
dec_label_pc_251c:
  %stack_var_-24 = alloca i32, align 4
  %tmp107 = ptrtoint i32* %arg1 to i32
  %stack_var_-60 = alloca i32, align 4
  %v1_2542 = add i32 %arg2, ptrtoint (i8** @global_var_4.1177 to i32)
  %v2_2542 = inttoptr i32 %v1_2542 to i32*
  %v3_2542 = load i32, i32* %v2_2542, align 4
  %v1_2545 = inttoptr i32 %arg2 to i32*
  %v2_2545 = load i32, i32* %v1_2545, align 4
  store i32 %v2_2545, i32* %stack_var_-24, align 4
  %v2_2554 = ptrtoint i32* %stack_var_-24 to i32
  store i32 %v2_2554, i32* %stack_var_-60, align 4
  store i32 %v2_2545, i32* %arg1, align 4
  %v2_2569 = add i32 %tmp107, ptrtoint (i8** @global_var_4.1177 to i32)
  %v3_2569 = inttoptr i32 %v2_2569 to i32*
  store i32 %v3_2542, i32* %v3_2569, align 4
  store i32 %tmp107, i32* @eax, align 4
  br i1 true, label %bb, label %dec_label_pc_257b

bb:                                               ; preds = %dec_label_pc_251c
  %v1_2579 = load i32, i32* %stack_var_-60, align 4
  %v3_2579 = call i32 @function_2580(i32 %v1_2579, i32 %arg3)
  br label %dec_label_pc_257b

dec_label_pc_257b:                                ; preds = %bb, %dec_label_pc_251c
  %v4_2579 = phi i32 [ %v3_2579, %bb ], [ %tmp107, %dec_label_pc_251c ]
  ret i32 %v4_2579

; uselistorder directives
  uselistorder i32 %tmp107, { 1, 2, 0 }
  uselistorder i32 %arg2, { 1, 0 }
}

define i32 @function_2580(i32 %arg1, i32 %arg2) local_unnamed_addr {
dec_label_pc_2580:
  %v0_2581 = load i32, i32* @eax, align 4
  ret i32 %v0_2581
}

define i32 @_ZNSt19_Bit_const_iteratorC1EPmj(i32 %arg1, i32 %arg2, i32 %arg3) local_unnamed_addr {
dec_label_pc_2584:
  ret i32 0
}

define i32 @_ZNSt19_Bit_const_iteratorC1ERKSt13_Bit_iterator(i32 %arg1, i32* %arg2) local_unnamed_addr {
dec_label_pc_25d4:
  %tmp102 = ptrtoint i32* %arg2 to i32
  %v1_25f4 = add i32 %tmp102, ptrtoint (i8** @global_var_4.1177 to i32)
  %v2_25f4 = inttoptr i32 %v1_25f4 to i32*
  %v3_25f4 = load i32, i32* %v2_25f4, align 4
  %v2_25fa = load i32, i32* %arg2, align 4
  store i32 %arg1, i32* @eax, align 4
  %v3_260a = call i32 @function_46fe(i32 %arg1, i32 %v2_25fa, i32 %v3_25f4)
  store i32 0, i32* @eax, align 4
  br i1 true, label %bb, label %dec_label_pc_261b

bb:                                               ; preds = %dec_label_pc_25d4
  %v1_2619 = call i32 @function_2620()
  br label %dec_label_pc_261b

dec_label_pc_261b:                                ; preds = %bb, %dec_label_pc_25d4
  %v2_2619 = phi i32 [ %v1_2619, %bb ], [ 0, %dec_label_pc_25d4 ]
  ret i32 %v2_2619

; uselistorder directives
  uselistorder i32 %arg1, { 1, 0 }
}

define i32 @function_2620() local_unnamed_addr {
dec_label_pc_2620:
  %v0_2621 = load i32, i32* @eax, align 4
  ret i32 %v0_2621
}

define i32 @_ZNKSt19_Bit_const_iteratordeEv(i32* %arg1) local_unnamed_addr {
dec_label_pc_2622:
  %stack_var_-24 = alloca i32, align 4
  %tmp105 = ptrtoint i32* %arg1 to i32
  %v1_263c = add i32 %tmp105, ptrtoint (i8** @global_var_4.1177 to i32)
  %v2_263c = inttoptr i32 %v1_263c to i32*
  %v3_263c = load i32, i32* %v2_263c, align 4
  %v3_2646 = urem i32 %v3_263c, 32
  %v5_2646 = icmp eq i32 %v3_2646, 0
  br i1 %v5_2646, label %dec_label_pc_267c, label %bb

bb:                                               ; preds = %dec_label_pc_2622
  %v6_2646 = shl i32 ptrtoint (i8** @global_var_1.1176 to i32), %v3_2646
  br label %dec_label_pc_267c

dec_label_pc_267c:                                ; preds = %dec_label_pc_2622, %bb
  %v0_264d = phi i32 [ ptrtoint (i8** @global_var_1.1176 to i32), %dec_label_pc_2622 ], [ %v6_2646, %bb ]
  %v2_264b = load i32, i32* %arg1, align 4
  %v2_2655 = ptrtoint i32* %stack_var_-24 to i32
  store i32 %v2_2655, i32* @eax, align 4
  %v4_2666 = call i32 @function_462c(i32 %v2_2655, i32 %v2_264b, i32 %v0_264d)
  ret i32 %v4_2666

; uselistorder directives
  uselistorder i32 %v3_2646, { 1, 0 }
  uselistorder label %dec_label_pc_267c, { 1, 0 }
}

define i32 @_ZNSt19_Bit_const_iteratorppEv(i32 %arg1) local_unnamed_addr {
dec_label_pc_267e:
  store i32 %arg1, i32* @eax, align 4
  %v1_269b = call i32 @function_47fa(i32 %arg1)
  ret i32 %arg1

; uselistorder directives
  uselistorder i32 %arg1, { 0, 2, 1 }
}

define i32 @_ZN9base_uintILj256EEC1Ev(i32 %arg1) local_unnamed_addr {
dec_label_pc_26b6:
  store i32 0, i32* @eax, align 4
  br i1 true, label %bb, label %dec_label_pc_26d9

bb:                                               ; preds = %dec_label_pc_26b6
  %v2_26d7 = call i32 @function_26de(i32 %arg1)
  br label %dec_label_pc_26d9

dec_label_pc_26d9:                                ; preds = %bb, %dec_label_pc_26b6
  %v3_26d7 = phi i32 [ %v2_26d7, %bb ], [ 0, %dec_label_pc_26b6 ]
  ret i32 %v3_26d7
}

define i32 @function_26de(i32 %arg1) local_unnamed_addr {
dec_label_pc_26de:
  %v0_26df = load i32, i32* @eax, align 4
  ret i32 %v0_26df
}

define i32 @_ZN7uint256C1Ev(i32 %arg1) local_unnamed_addr {
dec_label_pc_26e0:
  %eax.global-to-local = alloca i32, align 4
  store i32 %arg1, i32* %eax.global-to-local, align 4
  %v0_26ec = load i32, i32* inttoptr (i32 20 to i32*), align 4
  store i32 %arg1, i32* @eax, align 4
  %v1_26fd = call i32 @function_4d96(i32 %arg1)
  %v7_272012 = and i32 %v1_26fd, -256
  %v8_272013 = or i32 %v7_272012, 1
  store i32 %v8_272013, i32* %eax.global-to-local, align 4
  br label %dec_label_pc_270b

dec_label_pc_270b:                                ; preds = %dec_label_pc_26e0, %dec_label_pc_270b
  %v4_271c14 = phi i32 [ 0, %dec_label_pc_26e0 ], [ %v5_2718, %dec_label_pc_270b ]
  store i32 %arg1, i32* %eax.global-to-local, align 4
  %v2_2711 = mul i32 %v4_271c14, ptrtoint (i8** @global_var_4.1177 to i32)
  %v3_2711 = add i32 %v2_2711, %arg1
  %v4_2711 = inttoptr i32 %v3_2711 to i32*
  store i32 0, i32* %v4_2711, align 4
  %v5_2718 = add i32 %v4_271c14, ptrtoint (i8** @global_var_1.1176 to i32)
  %v6_2720.pre = load i32, i32* %eax.global-to-local, align 4
  %v5_271c = add i32 %v4_271c14, add (i32 ptrtoint (i8** @global_var_1.1176 to i32), i32 -7)
  %tmp11 = sub i32 sub (i32 6, i32 ptrtoint (i8** @global_var_1.1176 to i32)), %v4_271c14
  %v12_271c = and i32 %tmp11, %v5_2718
  %v13_271c = icmp slt i32 %v12_271c, 0
  %v15_271c = icmp slt i32 %v5_271c, 0
  %v3_2720 = icmp ne i1 %v15_271c, %v13_271c
  %v5_2720 = zext i1 %v3_2720 to i32
  %v7_2720 = and i32 %v6_2720.pre, -256
  %v8_2720 = or i32 %v5_2720, %v7_2720
  store i32 %v8_2720, i32* %eax.global-to-local, align 4
  %v5_2723 = icmp eq i1 %v3_2720, false
  %v1_2725 = icmp eq i1 %v5_2723, false
  br i1 %v1_2725, label %dec_label_pc_270b, label %dec_label_pc_2727

dec_label_pc_2727:                                ; preds = %dec_label_pc_270b
  store i32 %v0_26ec, i32* %eax.global-to-local, align 4
  store i32 0, i32* @eax, align 4
  br i1 true, label %bb, label %dec_label_pc_2733

bb:                                               ; preds = %dec_label_pc_2727
  %v1_2731 = call i32 @function_2738()
  store i32 %v1_2731, i32* %eax.global-to-local, align 4
  br label %dec_label_pc_2733

dec_label_pc_2733:                                ; preds = %bb, %dec_label_pc_2727
  %v2_2731 = phi i32 [ %v1_2731, %bb ], [ 0, %dec_label_pc_2727 ]
  ret i32 %v2_2731

; uselistorder directives
  uselistorder i1 %v3_2720, { 1, 0 }
  uselistorder i32 %v5_2718, { 1, 0 }
  uselistorder i32 %v4_271c14, { 0, 1, 3, 2 }
  uselistorder i32* %eax.global-to-local, { 0, 4, 5, 2, 3, 1, 6 }
  uselistorder i32 %arg1, { 0, 1, 3, 2, 4 }
  uselistorder label %dec_label_pc_270b, { 1, 0 }
}

define i32 @function_2738() local_unnamed_addr {
dec_label_pc_2738:
  %v0_2739 = load i32, i32* @eax, align 4
  ret i32 %v0_2739
}

define i32 @_ZN7uint256C1Ey(i32* %arg1, i32 %arg2, i32 %arg3) local_unnamed_addr {
dec_label_pc_273a:
  %eax.global-to-local = alloca i32, align 4
  %tmp10 = ptrtoint i32* %arg1 to i32
  store i32 %arg3, i32* %eax.global-to-local, align 4
  %v0_2752 = load i32, i32* inttoptr (i32 20 to i32*), align 4
  store i32 %tmp10, i32* @eax, align 4
  %v1_2763 = call i32 @function_4df0(i32 %tmp10)
  store i32 %arg2, i32* %arg1, align 4
  store i32 %tmp10, i32* %eax.global-to-local, align 4
  %v2_277f = add i32 %tmp10, ptrtoint (i8** @global_var_4.1177 to i32)
  %v3_277f = inttoptr i32 %v2_277f to i32*
  store i32 %arg3, i32* %v3_277f, align 4
  %v6_27a014 = load i32, i32* %eax.global-to-local, align 4
  %v7_27a015 = and i32 %v6_27a014, -256
  %v8_27a016 = or i32 %v7_27a015, 1
  store i32 %v8_27a016, i32* %eax.global-to-local, align 4
  br label %dec_label_pc_278b

dec_label_pc_278b:                                ; preds = %dec_label_pc_273a, %dec_label_pc_278b
  %storemerge17 = phi i32 [ 2, %dec_label_pc_273a ], [ %v4_2798, %dec_label_pc_278b ]
  store i32 %tmp10, i32* %eax.global-to-local, align 4
  %v2_2791 = mul i32 %storemerge17, ptrtoint (i8** @global_var_4.1177 to i32)
  %v3_2791 = add i32 %v2_2791, %tmp10
  %v4_2791 = inttoptr i32 %v3_2791 to i32*
  store i32 0, i32* %v4_2791, align 4
  %v4_2798 = add nuw nsw i32 %storemerge17, 1
  %tmp13 = sub nsw i32 5, %storemerge17
  %v11_279c = and i32 %tmp13, %v4_2798
  %v12_279c = icmp slt i32 %v11_279c, 0
  %v13_279c = icmp eq i32 %v4_2798, 7
  %v14_279c = icmp slt i32 %v4_2798, 7
  %v3_27a0 = icmp ne i1 %v14_279c, %v12_279c
  %v4_27a0 = or i1 %v13_279c, %v3_27a0
  %v5_27a0 = zext i1 %v4_27a0 to i32
  %v6_27a0 = load i32, i32* %eax.global-to-local, align 4
  %v7_27a0 = and i32 %v6_27a0, -256
  %v8_27a0 = or i32 %v5_27a0, %v7_27a0
  store i32 %v8_27a0, i32* %eax.global-to-local, align 4
  %exitcond = icmp eq i32 %v4_2798, 8
  br i1 %exitcond, label %dec_label_pc_27a7, label %dec_label_pc_278b

dec_label_pc_27a7:                                ; preds = %dec_label_pc_278b
  store i32 %v0_2752, i32* %eax.global-to-local, align 4
  store i32 0, i32* @eax, align 4
  br i1 true, label %bb, label %dec_label_pc_27b3

bb:                                               ; preds = %dec_label_pc_27a7
  %v1_27b1 = call i32 @function_27b8()
  store i32 %v1_27b1, i32* %eax.global-to-local, align 4
  br label %dec_label_pc_27b3

dec_label_pc_27b3:                                ; preds = %bb, %dec_label_pc_27a7
  %v2_27b1 = phi i32 [ %v1_27b1, %bb ], [ 0, %dec_label_pc_27a7 ]
  ret i32 %v2_27b1

; uselistorder directives
  uselistorder i32 %storemerge17, { 0, 2, 1 }
  uselistorder i32 %tmp10, { 0, 1, 3, 2, 5, 4 }
  uselistorder i32* %eax.global-to-local, { 0, 4, 5, 2, 3, 1, 6, 7, 8 }
  uselistorder label %dec_label_pc_278b, { 1, 0 }
}

define i32 @function_27b8() local_unnamed_addr {
dec_label_pc_27b8:
  %v0_27b9 = load i32, i32* @eax, align 4
  ret i32 %v0_27b9
}

define i32 @_ZN7uint256aSEy(i32* %arg1, i32 %arg2, i32 %arg3) local_unnamed_addr {
dec_label_pc_27ba:
  %tmp105 = ptrtoint i32* %arg1 to i32
  store i32 %arg2, i32* %arg1, align 4
  %v2_27f4 = add i32 %tmp105, ptrtoint (i8** @global_var_4.1177 to i32)
  %v3_27f4 = inttoptr i32 %v2_27f4 to i32*
  store i32 %arg3, i32* %v3_27f4, align 4
  br label %dec_label_pc_2800

dec_label_pc_2800:                                ; preds = %dec_label_pc_27ba, %dec_label_pc_2800
  %storemerge108 = phi i32 [ 2, %dec_label_pc_27ba ], [ %v4_280d, %dec_label_pc_2800 ]
  %v2_2806 = mul i32 %storemerge108, ptrtoint (i8** @global_var_4.1177 to i32)
  %v3_2806 = add i32 %v2_2806, %tmp105
  %v4_2806 = inttoptr i32 %v3_2806 to i32*
  store i32 0, i32* %v4_2806, align 4
  %v4_280d = add nuw nsw i32 %storemerge108, 1
  store i32 %tmp105, i32* @eax, align 4
  %exitcond = icmp eq i32 %v4_280d, 8
  br i1 %exitcond, label %dec_label_pc_281c, label %dec_label_pc_2800

dec_label_pc_281c:                                ; preds = %dec_label_pc_2800
  br i1 true, label %bb, label %dec_label_pc_282b

bb:                                               ; preds = %dec_label_pc_281c
  %v1_2829 = call i32 @function_2830()
  br label %dec_label_pc_282b

dec_label_pc_282b:                                ; preds = %bb, %dec_label_pc_281c
  %v2_2829 = phi i32 [ %v1_2829, %bb ], [ %tmp105, %dec_label_pc_281c ]
  ret i32 %v2_2829

; uselistorder directives
  uselistorder i32 %storemerge108, { 1, 0 }
  uselistorder i32 %tmp105, { 1, 2, 0, 3 }
  uselistorder label %dec_label_pc_2800, { 1, 0 }
}

define i32 @function_2830() local_unnamed_addr {
dec_label_pc_2830:
  %v0_2831 = load i32, i32* @eax, align 4
  ret i32 %v0_2831
}

define i32 @_ZltRK7uint256S1_(i32* %arg1, i32 %arg2) local_unnamed_addr {
dec_label_pc_2832:
  %stack_var_-80 = alloca i32, align 4
  %stack_var_-48 = alloca i32, align 4
  %v1_2852 = inttoptr i32 %arg2 to i32*
  %v2_2852 = load i32, i32* %v1_2852, align 4
  store i32 %v2_2852, i32* %stack_var_-48, align 4
  %v2_2884 = load i32, i32* %arg1, align 4
  store i32 %v2_2884, i32* %stack_var_-80, align 4
  %v4_28b6 = ptrtoint i32* %stack_var_-48 to i32
  %v2_28ba = ptrtoint i32* %stack_var_-80 to i32
  store i32 %v2_28ba, i32* @eax, align 4
  %v2_28c0 = call i32 @function_a152(i32 %v2_28ba, i32 %v4_28b6)
  store i32 %v2_28c0, i32* @eax, align 4
  br i1 true, label %bb, label %dec_label_pc_28d1

bb:                                               ; preds = %dec_label_pc_2832
  %v1_28cf = call i32 @function_28d6()
  br label %dec_label_pc_28d1

dec_label_pc_28d1:                                ; preds = %bb, %dec_label_pc_2832
  %v2_28cf = phi i32 [ %v1_28cf, %bb ], [ %v2_28c0, %dec_label_pc_2832 ]
  ret i32 %v2_28cf
}

define i32 @function_28d6() local_unnamed_addr {
dec_label_pc_28d6:
  %v0_28d7 = load i32, i32* @eax, align 4
  ret i32 %v0_28d7
}

define i32 @_ZeqRK7uint256S1_(i32* %arg1, i32 %arg2) local_unnamed_addr {
dec_label_pc_28d8:
  %stack_var_-80 = alloca i32, align 4
  %stack_var_-48 = alloca i32, align 4
  %tmp23 = ptrtoint i32* %arg1 to i32
  %v1_28f8 = inttoptr i32 %arg2 to i32*
  %v2_28f8 = load i32, i32* %v1_28f8, align 4
  store i32 %v2_28f8, i32* %stack_var_-48, align 4
  %v2_292a = load i32, i32* %arg1, align 4
  store i32 %v2_292a, i32* %stack_var_-80, align 4
  %v1_294d = add i32 %tmp23, ptrtoint (i8** @global_var_18.1179 to i32)
  %v2_294d = inttoptr i32 %v1_294d to i32*
  %v3_294d = load i32, i32* %v2_294d, align 4
  store i32 %v3_294d, i32* @edx, align 4
  %v4_295c = ptrtoint i32* %stack_var_-48 to i32
  %v2_2960 = ptrtoint i32* %stack_var_-80 to i32
  store i32 %v2_2960, i32* @eax, align 4
  %v2_2966 = call i32 @function_a280(i32 %v2_2960, i32 %v4_295c)
  store i32 0, i32* @edx, align 4
  ret i32 %v2_2966
}

define i32 @_ZNSt14numeric_limitsItE3maxEv() local_unnamed_addr {
dec_label_pc_297e:
  %v0_2984 = load i32, i32* inttoptr (i32 20 to i32*), align 4
  store i32 -1, i32* @eax, align 4
  br i1 true, label %bb, label %dec_label_pc_29a0

bb:                                               ; preds = %dec_label_pc_297e
  %v2_299e = call i32 @function_29a5(i32 %v0_2984)
  br label %dec_label_pc_29a0

dec_label_pc_29a0:                                ; preds = %bb, %dec_label_pc_297e
  %v3_299e = phi i32 [ %v2_299e, %bb ], [ -1, %dec_label_pc_297e ]
  ret i32 %v3_299e
}

define i32 @function_29a5(i32 %arg1) local_unnamed_addr {
dec_label_pc_29a5:
  %v0_29a6 = load i32, i32* @eax, align 4
  ret i32 %v0_29a6
}

define i32 @_ZNSt14numeric_limitsIjE3maxEv() local_unnamed_addr {
dec_label_pc_29a7:
  %v0_29ad = load i32, i32* inttoptr (i32 20 to i32*), align 4
  store i32 -1, i32* @eax, align 4
  br i1 true, label %bb, label %dec_label_pc_29c9

bb:                                               ; preds = %dec_label_pc_29a7
  %v2_29c7 = call i32 @function_29ce(i32 %v0_29ad)
  br label %dec_label_pc_29c9

dec_label_pc_29c9:                                ; preds = %bb, %dec_label_pc_29a7
  %v3_29c7 = phi i32 [ %v2_29c7, %bb ], [ -1, %dec_label_pc_29a7 ]
  ret i32 %v3_29c7
}

define i32 @function_29ce(i32 %arg1) local_unnamed_addr {
dec_label_pc_29ce:
  %v0_29cf = load i32, i32* @eax, align 4
  ret i32 %v0_29cf
}

define i32 @_ZStorSt12_Ios_IostateS_(i32 %arg1, i32 %arg2) local_unnamed_addr {
dec_label_pc_29d0:
  %v2_29f3 = or i32 %arg2, %arg1
  store i32 %v2_29f3, i32* @eax, align 4
  br i1 true, label %bb, label %dec_label_pc_2a01

bb:                                               ; preds = %dec_label_pc_29d0
  %v3_29ff = call i32 @function_2a06(i32 %arg2, i32 %arg1)
  br label %dec_label_pc_2a01

dec_label_pc_2a01:                                ; preds = %bb, %dec_label_pc_29d0
  %v4_29ff = phi i32 [ %v3_29ff, %bb ], [ %v2_29f3, %dec_label_pc_29d0 ]
  ret i32 %v4_29ff

; uselistorder directives
  uselistorder i32 %arg2, { 1, 0 }
  uselistorder i32 %arg1, { 1, 0 }
}

define i32 @function_2a06(i32 %arg1, i32 %arg2) local_unnamed_addr {
dec_label_pc_2a06:
  %v0_2a07 = load i32, i32* @eax, align 4
  ret i32 %v0_2a07
}

define i32 @_ZN5boost12noncopyable_11noncopyableD1Ev(i32 %arg1) local_unnamed_addr {
dec_label_pc_2a08:
  store i32 0, i32* @eax, align 4
  br i1 true, label %bb, label %dec_label_pc_2a2b

bb:                                               ; preds = %dec_label_pc_2a08
  %v2_2a29 = call i32 @function_2a30(i32 %arg1)
  br label %dec_label_pc_2a2b

dec_label_pc_2a2b:                                ; preds = %bb, %dec_label_pc_2a08
  %v3_2a29 = phi i32 [ %v2_2a29, %bb ], [ 0, %dec_label_pc_2a08 ]
  ret i32 %v3_2a29
}

define i32 @function_2a30(i32 %arg1) local_unnamed_addr {
dec_label_pc_2a30:
  %v0_2a31 = load i32, i32* @eax, align 4
  ret i32 %v0_2a31
}

define i32 @_ZN5boost10error_infoINS_15throw_function_EPKcEC1ES3_(i32* %arg1, i32 %arg2) local_unnamed_addr {
dec_label_pc_2a32:
  store i32 %arg2, i32* %arg1, align 4
  store i32 0, i32* @eax, align 4
  br i1 true, label %bb, label %dec_label_pc_2a63

bb:                                               ; preds = %dec_label_pc_2a32
  %tmp104 = ptrtoint i32* %arg1 to i32
  %v3_2a61 = call i32 @function_2a68(i32 %arg2, i32 %tmp104)
  br label %dec_label_pc_2a63

dec_label_pc_2a63:                                ; preds = %bb, %dec_label_pc_2a32
  %v4_2a61 = phi i32 [ %v3_2a61, %bb ], [ 0, %dec_label_pc_2a32 ]
  ret i32 %v4_2a61

; uselistorder directives
  uselistorder i32* %arg1, { 1, 0 }
}

define i32 @function_2a68(i32 %arg1, i32 %arg2) local_unnamed_addr {
dec_label_pc_2a68:
  %v0_2a69 = load i32, i32* @eax, align 4
  ret i32 %v0_2a69
}

define i32 @_ZN5boost10error_infoINS_11throw_file_EPKcEC1ES3_(i32* %arg1, i32 %arg2) local_unnamed_addr {
dec_label_pc_2a6a:
  store i32 %arg2, i32* %arg1, align 4
  store i32 0, i32* @eax, align 4
  br i1 true, label %bb, label %dec_label_pc_2a9b

bb:                                               ; preds = %dec_label_pc_2a6a
  %tmp104 = ptrtoint i32* %arg1 to i32
  %v3_2a99 = call i32 @function_2aa0(i32 %arg2, i32 %tmp104)
  br label %dec_label_pc_2a9b

dec_label_pc_2a9b:                                ; preds = %bb, %dec_label_pc_2a6a
  %v4_2a99 = phi i32 [ %v3_2a99, %bb ], [ 0, %dec_label_pc_2a6a ]
  ret i32 %v4_2a99

; uselistorder directives
  uselistorder i32* %arg1, { 1, 0 }
}

define i32 @function_2aa0(i32 %arg1, i32 %arg2) local_unnamed_addr {
dec_label_pc_2aa0:
  %v0_2aa1 = load i32, i32* @eax, align 4
  ret i32 %v0_2aa1
}

define i32 @_ZN5boost10error_infoINS_11throw_line_EiEC1Ei(i32* %arg1, i32 %arg2) local_unnamed_addr {
dec_label_pc_2aa2:
  store i32 %arg2, i32* %arg1, align 4
  store i32 0, i32* @eax, align 4
  br i1 true, label %bb, label %dec_label_pc_2ad3

bb:                                               ; preds = %dec_label_pc_2aa2
  %tmp104 = ptrtoint i32* %arg1 to i32
  %v3_2ad1 = call i32 @function_2ad8(i32 %arg2, i32 %tmp104)
  br label %dec_label_pc_2ad3

dec_label_pc_2ad3:                                ; preds = %bb, %dec_label_pc_2aa2
  %v4_2ad1 = phi i32 [ %v3_2ad1, %bb ], [ 0, %dec_label_pc_2aa2 ]
  ret i32 %v4_2ad1

; uselistorder directives
  uselistorder i32* %arg1, { 1, 0 }
}

define i32 @function_2ad8(i32 %arg1, i32 %arg2) local_unnamed_addr {
dec_label_pc_2ad8:
  %v0_2ad9 = load i32, i32* @eax, align 4
  ret i32 %v0_2ad9
}

define i32 @_ZN5boost9exceptionC1Ev(i32* %arg1) local_unnamed_addr {
dec_label_pc_2ada:
  %tmp100 = ptrtoint i32* %arg1 to i32
  store i32 ptrtoint (i32* @global_var_1b70c.1190 to i32), i32* %arg1, align 4
  %v1_2afd = add i32 %tmp100, ptrtoint (i8** @global_var_4.1177 to i32)
  store i32 %v1_2afd, i32* @eax, align 4
  %v2_2b03 = call i32 @function_a4ec(i32 %v1_2afd)
  %v1_2b0b = add i32 %tmp100, ptrtoint (i32* @global_var_8.1178 to i32)
  %v2_2b0b = inttoptr i32 %v1_2b0b to i32*
  store i32 0, i32* %v2_2b0b, align 4
  %v1_2b15 = add i32 %tmp100, 12
  %v2_2b15 = inttoptr i32 %v1_2b15 to i32*
  store i32 0, i32* %v2_2b15, align 4
  %v1_2b1f = add i32 %tmp100, 16
  %v2_2b1f = inttoptr i32 %v1_2b1f to i32*
  store i32 -1, i32* %v2_2b1f, align 4
  store i32 0, i32* @eax, align 4
  br i1 true, label %bb, label %dec_label_pc_2b32

bb:                                               ; preds = %dec_label_pc_2ada
  %v1_2b30 = call i32 @function_2b37()
  br label %dec_label_pc_2b32

dec_label_pc_2b32:                                ; preds = %bb, %dec_label_pc_2ada
  %v2_2b30 = phi i32 [ %v1_2b30, %bb ], [ 0, %dec_label_pc_2ada ]
  ret i32 %v2_2b30

; uselistorder directives
  uselistorder i32 %tmp100, { 3, 2, 1, 0 }
}

define i32 @function_2b37() local_unnamed_addr {
dec_label_pc_2b37:
  %v0_2b38 = load i32, i32* @eax, align 4
  ret i32 %v0_2b38
}

define i32 @_ZN5boost9exceptionD1Ev(i32* %arg1) local_unnamed_addr {
dec_label_pc_2b3a:
  %tmp99 = ptrtoint i32* %arg1 to i32
  store i32 ptrtoint (i32* @global_var_1b70c.1190 to i32), i32* %arg1, align 4
  %v1_2b5d = add i32 %tmp99, ptrtoint (i8** @global_var_4.1177 to i32)
  store i32 %v1_2b5d, i32* @eax, align 4
  %v2_2b63 = call i32 @function_a580(i32 %v1_2b5d)
  %v1_2b72 = call i32 @function_2b96()
  ret i32 %tmp99
}

define i32 @function_2b7f() local_unnamed_addr {
dec_label_pc_2b7f:
  %v0_2b7f = call i32 @function_2b96()
  ret i32 %v0_2b7f

; uselistorder directives
  uselistorder i32 ()* @function_2b96, { 1, 0 }
}

define i32 @function_2b96() local_unnamed_addr {
dec_label_pc_2b96:
  %v0_2b96 = load i32, i32* @ebp, align 4
  %v1_2b96 = add i32 %v0_2b96, -12
  %v2_2b96 = inttoptr i32 %v1_2b96 to i32*
  %v3_2b96 = load i32, i32* %v2_2b96, align 4
  %v1_2b99 = load i32, i32* inttoptr (i32 20 to i32*), align 4
  %v2_2b99 = xor i32 %v1_2b99, %v3_2b96
  %v3_2b99 = icmp eq i32 %v2_2b99, 0
  store i32 %v2_2b99, i32* @eax, align 4
  br i1 %v3_2b99, label %bb, label %dec_label_pc_2ba2

bb:                                               ; preds = %dec_label_pc_2b96
  %v1_2ba0 = call i32 @function_2ba7()
  br label %dec_label_pc_2ba2

dec_label_pc_2ba2:                                ; preds = %bb, %dec_label_pc_2b96
  %v2_2ba0 = phi i32 [ %v1_2ba0, %bb ], [ %v2_2b99, %dec_label_pc_2b96 ]
  ret i32 %v2_2ba0
}

define i32 @function_2ba7() local_unnamed_addr {
dec_label_pc_2ba7:
  %v0_2ba8 = load i32, i32* @eax, align 4
  ret i32 %v0_2ba8
}

define i32 @_ZN5boost9exceptionD0Ev(i32 %arg1) local_unnamed_addr {
dec_label_pc_37f0:
  store i32 %arg1, i32* @eax, align 4
  %v1_380d = call i32 @function_632a(i32 %arg1)
  ret i32 %arg1
}

define i32 @function_382d() local_unnamed_addr {
dec_label_pc_382d:
  %eax.global-to-local = alloca i32, align 4
  %ecx.global-to-local = alloca i32, align 4
  %v0_382d = load i32, i32* %ecx.global-to-local, align 4
  %v1_382d = sub i32 %v0_382d, ptrtoint (i8** @global_var_1.1176 to i32)
  store i32 %v1_382d, i32* %ecx.global-to-local, align 4
  %v0_382f = load i32, i32* %eax.global-to-local, align 4
  ret i32 %v0_382f
}

define i32 @_ZN5boost16exception_detail10clone_baseD1Ev(i32* %arg1) local_unnamed_addr {
dec_label_pc_3830:
  %tmp99 = ptrtoint i32* %arg1 to i32
  store i32 ptrtoint (i32* @global_var_1b6f4.1191 to i32), i32* %arg1, align 4
  %v2_385a = call i32 @function_3867(i32 %tmp99)
  ret i32 %tmp99

; uselistorder directives
  uselistorder i32 %tmp99, { 1, 0 }
}

define i32 @function_3867(i32 %arg1) local_unnamed_addr {
dec_label_pc_3867:
  %v0_3867 = load i32, i32* @ebp, align 4
  %v1_3867 = add i32 %v0_3867, -12
  %v2_3867 = inttoptr i32 %v1_3867 to i32*
  %v3_3867 = load i32, i32* %v2_3867, align 4
  %v1_386a = load i32, i32* inttoptr (i32 20 to i32*), align 4
  %v2_386a = xor i32 %v1_386a, %v3_3867
  %v3_386a = icmp eq i32 %v2_386a, 0
  store i32 %v2_386a, i32* @eax, align 4
  br i1 %v3_386a, label %bb, label %dec_label_pc_3873

bb:                                               ; preds = %dec_label_pc_3867
  %v1_3871 = call i32 @function_3878()
  br label %dec_label_pc_3873

dec_label_pc_3873:                                ; preds = %bb, %dec_label_pc_3867
  %v2_3871 = phi i32 [ %v1_3871, %bb ], [ %v2_386a, %dec_label_pc_3867 ]
  ret i32 %v2_3871
}

define i32 @function_3878() local_unnamed_addr {
dec_label_pc_3878:
  %v0_3879 = load i32, i32* @eax, align 4
  ret i32 %v0_3879
}

define i32 @_ZN5boost16exception_detail10clone_baseD0Ev(i32 %arg1) local_unnamed_addr {
dec_label_pc_387a:
  ret i32 %arg1
}

define i32 @function_38b7() local_unnamed_addr {
dec_label_pc_38b7:
  %eax.global-to-local = alloca i32, align 4
  %ecx.global-to-local = alloca i32, align 4
  %v0_38b7 = load i32, i32* %ecx.global-to-local, align 4
  %v1_38b7 = sub i32 %v0_38b7, ptrtoint (i8** @global_var_1.1176 to i32)
  store i32 %v1_38b7, i32* %ecx.global-to-local, align 4
  %v0_38b9 = load i32, i32* %eax.global-to-local, align 4
  ret i32 %v0_38b9
}

define i32 @_ZN5boost16exception_detail20copy_boost_exceptionEPNS_9exceptionEPKS1_(i32 %arg1, i32 %arg2) local_unnamed_addr {
dec_label_pc_38ba:
  %edx.global-to-local = alloca i32, align 4
  %stack_var_-64 = alloca i32, align 4
  %tmp100 = call i8* @__decompiler_undefined_function_2()
  %stack_var_-24 = alloca i32, align 4
  %stack_var_-28 = alloca i32, align 4
  %stack_var_-60 = alloca i8*, align 4
  %v2_38d8 = ptrtoint i32* %stack_var_-28 to i32
  %v1_38e6 = add i32 %arg2, ptrtoint (i8** @global_var_4.1177 to i32)
  %v10_38e6 = icmp eq i32 %v1_38e6, 0
  %v3_38e9 = inttoptr i32 %v1_38e6 to i8*
  store i8* %v3_38e9, i8** %stack_var_-60, align 4
  br i1 %v10_38e6, label %dec_label_pc_3933, label %dec_label_pc_38fa

dec_label_pc_38fa:                                ; preds = %dec_label_pc_38ba
  %v2_3904 = ptrtoint i32* %stack_var_-24 to i32
  store i32 %v1_38e6, i32* %edx.global-to-local, align 4
  %tmp115 = bitcast i32* %stack_var_-24 to i8*
  store i8* %tmp115, i8** %stack_var_-60, align 4
  store i32 %v2_38d8, i32* @eax, align 4
  store i32 %v2_38d8, i32* %stack_var_-64, align 4
  %v5_3923 = call i32 @function_b366(i32 %v2_38d8, i32 %v2_3904, i32 %v1_38e6)
  store i32 %v2_3904, i32* %stack_var_-64, align 4
  br label %dec_label_pc_3933

dec_label_pc_3933:                                ; preds = %dec_label_pc_38fa, %dec_label_pc_38ba
  %stack_var_-56.0 = phi i8* [ %tmp100, %dec_label_pc_38ba ], [ %v3_38e9, %dec_label_pc_38fa ]
  %v1_3936 = add i32 %arg2, 12
  %v2_3936 = inttoptr i32 %v1_3936 to i32*
  %v3_3936 = load i32, i32* %v2_3936, align 4
  store i32 %v3_3936, i32* %edx.global-to-local, align 4
  %v2_393c = add i32 %arg1, 12
  %v3_393c = inttoptr i32 %v2_393c to i32*
  store i32 %v3_3936, i32* %v3_393c, align 4
  %v1_3942 = add i32 %arg2, 16
  %v2_3942 = inttoptr i32 %v1_3942 to i32*
  %v3_3942 = load i32, i32* %v2_3942, align 4
  store i32 %v3_3942, i32* %edx.global-to-local, align 4
  %v2_3948 = add i32 %arg1, 16
  %v3_3948 = inttoptr i32 %v2_3948 to i32*
  store i32 %v3_3942, i32* %v3_3948, align 4
  %v1_394e = add i32 %arg2, ptrtoint (i32* @global_var_8.1178 to i32)
  %v2_394e = inttoptr i32 %v1_394e to i32*
  %v3_394e = load i32, i32* %v2_394e, align 4
  %v2_3954 = add i32 %arg1, ptrtoint (i32* @global_var_8.1178 to i32)
  %v3_3954 = inttoptr i32 %v2_3954 to i32*
  store i32 %v3_394e, i32* %v3_3954, align 4
  %v1_395a = add i32 %arg1, ptrtoint (i8** @global_var_4.1177 to i32)
  store i32 %v1_395a, i32* %edx.global-to-local, align 4
  store i32 %v2_38d8, i32* @eax, align 4
  %v1_3960 = load i32, i32* @esp, align 4
  %v2_3960 = add i32 %v1_3960, ptrtoint (i8** @global_var_4.1177 to i32)
  %v3_3960 = inttoptr i32 %v2_3960 to i32*
  store i32 %v2_38d8, i32* %v3_3960, align 4
  %v0_3964 = load i32, i32* %edx.global-to-local, align 4
  %v1_3964 = load i32, i32* @esp, align 4
  %v2_3964 = inttoptr i32 %v1_3964 to i32*
  store i32 %v0_3964, i32* %v2_3964, align 4
  %v0_3967 = load i32, i32* %stack_var_-64, align 4
  %v1_3967 = load i8*, i8** %stack_var_-60, align 4
  %v2_3967 = ptrtoint i8* %v1_3967 to i32
  %v4_3967 = ptrtoint i8* %stack_var_-56.0 to i32
  %v5_3967 = call i32 @function_b366(i32 %v0_3967, i32 %v2_3967, i32 %v4_3967)
  %v1_396f = load i32, i32* @esp, align 4
  %v2_396f = inttoptr i32 %v1_396f to i32*
  store i32 %v2_38d8, i32* %v2_396f, align 4
  store i32 0, i32* @eax, align 4
  br i1 true, label %bb, label %dec_label_pc_3983

bb:                                               ; preds = %dec_label_pc_3933
  %v1_3981 = call i32 @function_39b0()
  store i32 %v1_3981, i32* @eax, align 4
  br label %dec_label_pc_3983

dec_label_pc_3983:                                ; preds = %bb, %dec_label_pc_3933
  %v0_3983 = call i32 @function_39ab()
  ret i32 %v0_3983

; uselistorder directives
  uselistorder i32 %v2_38d8, { 3, 4, 5, 1, 0, 2 }
  uselistorder i8** %stack_var_-60, { 2, 1, 0 }
  uselistorder i32 (i32, i32, i32)* @function_b366, { 1, 0 }
}

define i32 @function_3985() local_unnamed_addr {
dec_label_pc_3985:
  %eax.global-to-local = alloca i32, align 4
  %ebp.global-to-local = alloca i32, align 4
  %v0_3985 = load i32, i32* %eax.global-to-local, align 4
  store i32 %v0_3985, i32* @ebx, align 4
  %v0_3987 = load i32, i32* %ebp.global-to-local, align 4
  %v1_3987 = add i32 %v0_3987, -20
  store i32 %v1_3987, i32* %eax.global-to-local, align 4
  %v1_3992 = call i32 @function_3996(i32 %v1_3987)
  store i32 %v1_3992, i32* %eax.global-to-local, align 4
  ret i32 %v1_3992
}

define i32 @function_3994() local_unnamed_addr {
dec_label_pc_3994:
  %eax.global-to-local = alloca i32, align 4
  %v0_3994 = load i32, i32* %eax.global-to-local, align 4
  ret i32 %v0_3994
}

define i32 @function_3996(i32 %arg1) local_unnamed_addr {
dec_label_pc_3996:
  %v0_39a1 = load i32, i32* @ebx, align 4
  ret i32 %v0_39a1
}

define i32 @function_39ab() local_unnamed_addr {
dec_label_pc_39ab:
  %tmp = load i32, i32* @eax, align 4
  ret i32 %tmp
}

define i32 @function_39b0() local_unnamed_addr {
dec_label_pc_39b0:
  %v0_39b4 = load i32, i32* @eax, align 4
  ret i32 %v0_39b4
}

define i32 @_ZN5boost6detail23atomic_exchange_and_addEPii(i32* %arg1, i32 %arg2) local_unnamed_addr {
dec_label_pc_39b5:
  %v2_39de = load i32, i32* %arg1, align 4
  %v4_39de = add i32 %v2_39de, %arg2
  store i32 %v4_39de, i32* %arg1, align 4
  store i32 %v2_39de, i32* @eax, align 4
  br i1 true, label %bb, label %dec_label_pc_39f4

bb:                                               ; preds = %dec_label_pc_39b5
  %tmp103 = ptrtoint i32* %arg1 to i32
  %v3_39f2 = call i32 @function_39f9(i32 %arg2, i32 %tmp103)
  br label %dec_label_pc_39f4

dec_label_pc_39f4:                                ; preds = %bb, %dec_label_pc_39b5
  %v4_39f2 = phi i32 [ %v3_39f2, %bb ], [ %v2_39de, %dec_label_pc_39b5 ]
  ret i32 %v4_39f2

; uselistorder directives
  uselistorder i32 %v2_39de, { 1, 2, 0 }
  uselistorder i32 %arg2, { 1, 0 }
  uselistorder i32* %arg1, { 2, 0, 1 }
}

define i32 @function_39f9(i32 %arg1, i32 %arg2) local_unnamed_addr {
dec_label_pc_39f9:
  %v0_39fe = load i32, i32* @eax, align 4
  ret i32 %v0_39fe
}

define i32 @_ZN5boost6detail16atomic_incrementEPi(i32* %arg1) local_unnamed_addr {
dec_label_pc_39ff:
  %v2_3a1c = load i32, i32* %arg1, align 4
  %v3_3a1c = add i32 %v2_3a1c, ptrtoint (i8** @global_var_1.1176 to i32)
  store i32 %v3_3a1c, i32* %arg1, align 4
  store i32 0, i32* @eax, align 4
  br i1 true, label %bb, label %dec_label_pc_3a2b

bb:                                               ; preds = %dec_label_pc_39ff
  %tmp100 = ptrtoint i32* %arg1 to i32
  %v2_3a29 = call i32 @function_3a30(i32 %tmp100)
  br label %dec_label_pc_3a2b

dec_label_pc_3a2b:                                ; preds = %bb, %dec_label_pc_39ff
  %v3_3a29 = phi i32 [ %v2_3a29, %bb ], [ 0, %dec_label_pc_39ff ]
  ret i32 %v3_3a29

; uselistorder directives
  uselistorder i32* %arg1, { 2, 0, 1 }
}

define i32 @function_3a30(i32 %arg1) local_unnamed_addr {
dec_label_pc_3a30:
  %v0_3a31 = load i32, i32* @eax, align 4
  ret i32 %v0_3a31
}

define i32 @_ZN5boost6detail15sp_counted_baseC1Ev(i32* %arg1) local_unnamed_addr {
dec_label_pc_3a32:
  %tmp100 = ptrtoint i32* %arg1 to i32
  store i32 ptrtoint (i32* @global_var_1b6d4.1192 to i32), i32* %arg1, align 4
  %v1_3a55 = add i32 %tmp100, ptrtoint (i8** @global_var_4.1177 to i32)
  %v2_3a55 = inttoptr i32 %v1_3a55 to i32*
  store i32 ptrtoint (i8** @global_var_1.1176 to i32), i32* %v2_3a55, align 4
  %v1_3a5f = add i32 %tmp100, ptrtoint (i32* @global_var_8.1178 to i32)
  %v2_3a5f = inttoptr i32 %v1_3a5f to i32*
  store i32 ptrtoint (i8** @global_var_1.1176 to i32), i32* %v2_3a5f, align 4
  store i32 0, i32* @eax, align 4
  br i1 true, label %bb, label %dec_label_pc_3a72

bb:                                               ; preds = %dec_label_pc_3a32
  %v2_3a70 = call i32 @function_3a77(i32 %tmp100)
  br label %dec_label_pc_3a72

dec_label_pc_3a72:                                ; preds = %bb, %dec_label_pc_3a32
  %v3_3a70 = phi i32 [ %v2_3a70, %bb ], [ 0, %dec_label_pc_3a32 ]
  ret i32 %v3_3a70
}

define i32 @function_3a77(i32 %arg1) local_unnamed_addr {
dec_label_pc_3a77:
  %v0_3a78 = load i32, i32* @eax, align 4
  ret i32 %v0_3a78
}

define i32 @_ZN5boost6detail15sp_counted_baseD1Ev(i32* %arg1) local_unnamed_addr {
dec_label_pc_3a7a:
  %tmp99 = ptrtoint i32* %arg1 to i32
  store i32 ptrtoint (i32* @global_var_1b6d4.1192 to i32), i32* %arg1, align 4
  %v2_3aa4 = call i32 @function_3ab1(i32 %tmp99)
  ret i32 %tmp99

; uselistorder directives
  uselistorder i32 %tmp99, { 1, 0 }
}

define i32 @function_3ab1(i32 %arg1) local_unnamed_addr {
dec_label_pc_3ab1:
  %v0_3ab1 = load i32, i32* @ebp, align 4
  %v1_3ab1 = add i32 %v0_3ab1, -12
  %v2_3ab1 = inttoptr i32 %v1_3ab1 to i32*
  %v3_3ab1 = load i32, i32* %v2_3ab1, align 4
  %v1_3ab4 = load i32, i32* inttoptr (i32 20 to i32*), align 4
  %v2_3ab4 = xor i32 %v1_3ab4, %v3_3ab1
  %v3_3ab4 = icmp eq i32 %v2_3ab4, 0
  store i32 %v2_3ab4, i32* @eax, align 4
  br i1 %v3_3ab4, label %bb, label %dec_label_pc_3abd

bb:                                               ; preds = %dec_label_pc_3ab1
  %v1_3abb = call i32 @function_3ac2()
  br label %dec_label_pc_3abd

dec_label_pc_3abd:                                ; preds = %bb, %dec_label_pc_3ab1
  %v2_3abb = phi i32 [ %v1_3abb, %bb ], [ %v2_3ab4, %dec_label_pc_3ab1 ]
  ret i32 %v2_3abb
}

define i32 @function_3ac2() local_unnamed_addr {
dec_label_pc_3ac2:
  %v0_3ac3 = load i32, i32* @eax, align 4
  ret i32 %v0_3ac3
}

define i32 @_ZN5boost6detail15sp_counted_baseD0Ev(i32 %arg1) local_unnamed_addr {
dec_label_pc_3ac4:
  ret i32 %arg1
}

define i32 @function_3b01() local_unnamed_addr {
dec_label_pc_3b01:
  %eax.global-to-local = alloca i32, align 4
  %ecx.global-to-local = alloca i32, align 4
  %v0_3b01 = load i32, i32* %ecx.global-to-local, align 4
  %v1_3b01 = sub i32 %v0_3b01, ptrtoint (i8** @global_var_1.1176 to i32)
  store i32 %v1_3b01, i32* %ecx.global-to-local, align 4
  %v0_3b03 = load i32, i32* %eax.global-to-local, align 4
  ret i32 %v0_3b03
}

define i32 @_ZN5boost6detail15sp_counted_base7destroyEv(i32* %arg1) {
dec_label_pc_3b04:
  %v10_3b1b = icmp eq i32* %arg1, null
  br i1 %v10_3b1b, label %dec_label_pc_3b33, label %dec_label_pc_3b21

dec_label_pc_3b21:                                ; preds = %dec_label_pc_3b04
  br label %dec_label_pc_3b33

dec_label_pc_3b33:                                ; preds = %dec_label_pc_3b21, %dec_label_pc_3b04
  store i32 0, i32* @eax, align 4
  br i1 true, label %bb, label %dec_label_pc_3b3f

bb:                                               ; preds = %dec_label_pc_3b33
  %v1_3b3d = call i32 @function_3b44()
  br label %dec_label_pc_3b3f

dec_label_pc_3b3f:                                ; preds = %bb, %dec_label_pc_3b33
  %v2_3b3d = phi i32 [ %v1_3b3d, %bb ], [ 0, %dec_label_pc_3b33 ]
  ret i32 %v2_3b3d
}

define i32 @function_3b44() local_unnamed_addr {
dec_label_pc_3b44:
  %v0_3b45 = load i32, i32* @eax, align 4
  ret i32 %v0_3b45
}

define i32 @_ZN5boost6detail15sp_counted_base12add_ref_copyEv(i32 %arg1) local_unnamed_addr {
dec_label_pc_3b46:
  store i32 0, i32* @eax, align 4
  br i1 true, label %bb, label %dec_label_pc_3b77

bb:                                               ; preds = %dec_label_pc_3b46
  %v1_3b60 = add i32 %arg1, ptrtoint (i8** @global_var_4.1177 to i32)
  %v3_3b75 = call i32 @function_3b7c(i32 %v1_3b60)
  br label %dec_label_pc_3b77

dec_label_pc_3b77:                                ; preds = %bb, %dec_label_pc_3b46
  %v4_3b75 = phi i32 [ %v3_3b75, %bb ], [ 0, %dec_label_pc_3b46 ]
  ret i32 %v4_3b75
}

define i32 @function_3b7c(i32 %arg1) local_unnamed_addr {
dec_label_pc_3b7c:
  %v0_3b7d = load i32, i32* @eax, align 4
  ret i32 %v0_3b7d
}

define i32 @_ZN5boost6detail15sp_counted_base7releaseEv(i32* %arg1) local_unnamed_addr {
dec_label_pc_3b7e:
  %tmp102 = ptrtoint i32* %arg1 to i32
  %v1_3b98 = add i32 %tmp102, ptrtoint (i8** @global_var_4.1177 to i32)
  %v3_3ba6 = call i32 @__stack_chk_fail.132(i32 %v1_3b98, i32 -1)
  %v10_3bab = icmp eq i32 %v3_3ba6, 1
  %v5_3bb1 = icmp eq i1 %v10_3bab, false
  br i1 %v5_3bb1, label %dec_label_pc_3bd2, label %dec_label_pc_3bb5

dec_label_pc_3bb5:                                ; preds = %dec_label_pc_3b7e
  br label %dec_label_pc_3bd2

dec_label_pc_3bd2:                                ; preds = %dec_label_pc_3bb5, %dec_label_pc_3b7e
  store i32 0, i32* @eax, align 4
  br i1 true, label %bb, label %dec_label_pc_3bde

bb:                                               ; preds = %dec_label_pc_3bd2
  %v1_3bdc = call i32 @function_3be3()
  br label %dec_label_pc_3bde

dec_label_pc_3bde:                                ; preds = %bb, %dec_label_pc_3bd2
  %v2_3bdc = phi i32 [ %v1_3bdc, %bb ], [ 0, %dec_label_pc_3bd2 ]
  ret i32 %v2_3bdc
}

define i32 @function_3be3() local_unnamed_addr {
dec_label_pc_3be3:
  %v0_3be4 = load i32, i32* @eax, align 4
  ret i32 %v0_3be4
}

define i32 @_ZN5boost6detail15sp_counted_base12weak_releaseEv(i32* %arg1) local_unnamed_addr {
dec_label_pc_3be6:
  %tmp102 = ptrtoint i32* %arg1 to i32
  %v1_3c00 = add i32 %tmp102, ptrtoint (i32* @global_var_8.1178 to i32)
  %v2_3c0e = call i32 @function_759b(i32 %v1_3c00, i32 -1)
  %v10_3c13 = icmp eq i32 %v2_3c0e, 1
  %v5_3c19 = icmp eq i1 %v10_3c13, false
  br i1 %v5_3c19, label %dec_label_pc_3c2f, label %dec_label_pc_3c1d

dec_label_pc_3c1d:                                ; preds = %dec_label_pc_3be6
  br label %dec_label_pc_3c2f

dec_label_pc_3c2f:                                ; preds = %dec_label_pc_3c1d, %dec_label_pc_3be6
  store i32 0, i32* @eax, align 4
  br i1 true, label %bb, label %dec_label_pc_3c3b

bb:                                               ; preds = %dec_label_pc_3c2f
  %v1_3c39 = call i32 @function_3c40()
  br label %dec_label_pc_3c3b

dec_label_pc_3c3b:                                ; preds = %bb, %dec_label_pc_3c2f
  %v2_3c39 = phi i32 [ %v1_3c39, %bb ], [ 0, %dec_label_pc_3c2f ]
  ret i32 %v2_3c39
}

define i32 @function_3c40() local_unnamed_addr {
dec_label_pc_3c40:
  %v0_3c41 = load i32, i32* @eax, align 4
  ret i32 %v0_3c41
}

define i32 @_ZN5boost6detail12shared_countD1Ev(i32* %arg1) local_unnamed_addr {
dec_label_pc_3c42:
  %v2_3c5c = load i32, i32* %arg1, align 4
  %v1_3c5e = icmp eq i32 %v2_3c5c, 0
  br i1 %v1_3c5e, label %dec_label_pc_3c6f, label %dec_label_pc_3c62

dec_label_pc_3c62:                                ; preds = %dec_label_pc_3c42
  br label %dec_label_pc_3c6f

dec_label_pc_3c6f:                                ; preds = %dec_label_pc_3c62, %dec_label_pc_3c42
  store i32 0, i32* @eax, align 4
  br i1 true, label %bb, label %dec_label_pc_3c7b

bb:                                               ; preds = %dec_label_pc_3c6f
  %v1_3c79 = call i32 @function_3c80()
  br label %dec_label_pc_3c7b

dec_label_pc_3c7b:                                ; preds = %bb, %dec_label_pc_3c6f
  %v2_3c79 = phi i32 [ %v1_3c79, %bb ], [ 0, %dec_label_pc_3c6f ]
  ret i32 %v2_3c79
}

define i32 @function_3c80() local_unnamed_addr {
dec_label_pc_3c80:
  %v0_3c81 = load i32, i32* @eax, align 4
  ret i32 %v0_3c81
}

define i32 @_ZN5boost6detail12shared_countC1ERKS1_(i32* %arg1, i32 %arg2) local_unnamed_addr {
dec_label_pc_3c82:
  %v1_3ca2 = inttoptr i32 %arg2 to i32*
  %v2_3ca2 = load i32, i32* %v1_3ca2, align 4
  store i32 %v2_3ca2, i32* %arg1, align 4
  %v1_3cae = icmp eq i32 %v2_3ca2, 0
  br i1 %v1_3cae, label %dec_label_pc_3cbf, label %dec_label_pc_3cb2

dec_label_pc_3cb2:                                ; preds = %dec_label_pc_3c82
  br label %dec_label_pc_3cbf

dec_label_pc_3cbf:                                ; preds = %dec_label_pc_3cb2, %dec_label_pc_3c82
  store i32 0, i32* @eax, align 4
  br i1 true, label %bb, label %dec_label_pc_3ccb

bb:                                               ; preds = %dec_label_pc_3cbf
  %v1_3cc9 = call i32 @function_3cd0()
  br label %dec_label_pc_3ccb

dec_label_pc_3ccb:                                ; preds = %bb, %dec_label_pc_3cbf
  %v2_3cc9 = phi i32 [ %v1_3cc9, %bb ], [ 0, %dec_label_pc_3cbf ]
  ret i32 %v2_3cc9
}

define i32 @function_3cd0() local_unnamed_addr {
dec_label_pc_3cd0:
  %v0_3cd1 = load i32, i32* @eax, align 4
  ret i32 %v0_3cd1
}

define i32 @_ZN5boost6detail26sp_enable_shared_from_thisEz() local_unnamed_addr {
dec_label_pc_3cd2:
  %v0_3cd8 = load i32, i32* inttoptr (i32 20 to i32*), align 4
  store i32 0, i32* @eax, align 4
  br i1 true, label %bb, label %dec_label_pc_3cef

bb:                                               ; preds = %dec_label_pc_3cd2
  %v2_3ced = call i32 @function_3cf4(i32 %v0_3cd8)
  br label %dec_label_pc_3cef

dec_label_pc_3cef:                                ; preds = %bb, %dec_label_pc_3cd2
  %v3_3ced = phi i32 [ %v2_3ced, %bb ], [ 0, %dec_label_pc_3cd2 ]
  ret i32 %v3_3ced
}

define i32 @function_3cf4(i32 %arg1) local_unnamed_addr {
dec_label_pc_3cf4:
  %v0_3cf5 = load i32, i32* @eax, align 4
  ret i32 %v0_3cf5
}

define i32 @function_3e0c(i32 %arg1) local_unnamed_addr {
dec_label_pc_3e0c:
  %tmp = load i32, i32* @eax, align 4
  ret i32 %tmp
}

define i32 @function_40bc(i32 %arg1) local_unnamed_addr {
dec_label_pc_40bc:
  %tmp = load i32, i32* @eax, align 4
  ret i32 %tmp
}

define i32 @function_40fa(i32 %arg1, i32 %arg2) local_unnamed_addr {
dec_label_pc_40fa:
  %tmp = load i32, i32* @eax, align 4
  ret i32 %tmp
}

define i32 @function_422a(i32 %arg1) local_unnamed_addr {
dec_label_pc_422a:
  %tmp = load i32, i32* @eax, align 4
  ret i32 %tmp
}

define i32 @function_4309() local_unnamed_addr {
dec_label_pc_4309:
  %tmp = load i32, i32* @eax, align 4
  ret i32 %tmp
}

define i32 @_Z16GetSerializeSizecii(i8 %arg1, i32 %arg2, i32 %arg3) local_unnamed_addr {
dec_label_pc_4330:
  store i32 ptrtoint (i8** @global_var_1.1176 to i32), i32* @eax, align 4
  br i1 true, label %bb, label %dec_label_pc_4364

bb:                                               ; preds = %dec_label_pc_4330
  %v4_4362 = sext i8 %arg1 to i32
  %v5_4362 = call i32 @function_4369(i32 %arg3, i32 %arg2, i32 %v4_4362)
  br label %dec_label_pc_4364

dec_label_pc_4364:                                ; preds = %bb, %dec_label_pc_4330
  %v6_4362 = phi i32 [ %v5_4362, %bb ], [ ptrtoint (i8** @global_var_1.1176 to i32), %dec_label_pc_4330 ]
  ret i32 %v6_4362
}

define i32 @function_4369(i32 %arg1, i32 %arg2, i32 %arg3) local_unnamed_addr {
dec_label_pc_4369:
  %v0_436a = load i32, i32* @eax, align 4
  ret i32 %v0_436a
}

define i32 @_Z16GetSerializeSizeiii(i32 %arg1) local_unnamed_addr {
dec_label_pc_436b:
  ret i32 %arg1
}

define i32 @function_4376(i32 %arg1, i32 %arg2, i32 %arg3) local_unnamed_addr {
dec_label_pc_4376:
  %cf.global-to-local = alloca i1, align 1
  %eax.global-to-local = alloca i32, align 4
  %ebp.global-to-local = alloca i32, align 4
  %ecx.global-to-local = alloca i32, align 4
  %v0_4378 = load i32, i32* @ebp, align 4
  %v0_4379 = load i32, i32* @eax, align 4
  store i1 false, i1* %cf.global-to-local, align 1
  %v11_4379 = or i32 %v0_4379, 137
  store i32 %v11_4379, i32* @eax, align 4
  %v1_437b = add i32 %v0_4378, add (i32 ptrtoint (i8** @global_var_1.1176 to i32), i32 ptrtoint (i8** @global_var_1.1176 to i32))
  %v9_437b = icmp eq i32 %v1_437b, 0
  store i32 %v1_437b, i32* %ebp.global-to-local, align 4
  %v0_437c = load i32, i32* @ecx, align 4
  %v1_437c = sub i32 %v0_437c, ptrtoint (i8** @global_var_1.1176 to i32)
  store i32 %v1_437c, i32* %ecx.global-to-local, align 4
  %v2_437c = icmp eq i32 %v1_437c, 0
  %v4_437c = or i1 %v9_437b, %v2_437c
  br i1 %v4_437c, label %dec_label_pc_437e, label %bb

bb:                                               ; preds = %dec_label_pc_4376
  %v6_437c = call i32 @function_4309()
  store i32 %v6_437c, i32* @eax, align 4
  %v0_437e.pre = load i32, i32* %ebp.global-to-local, align 4
  %v0_437f.pre = load i32, i32* %ecx.global-to-local, align 4
  %v6_437f.pre = load i1, i1* %cf.global-to-local, align 1
  br label %dec_label_pc_437e

dec_label_pc_437e:                                ; preds = %dec_label_pc_4376, %bb
  %v6_437f = phi i1 [ false, %dec_label_pc_4376 ], [ %v6_437f.pre, %bb ]
  %v30_437f = phi i32 [ %v1_437c, %dec_label_pc_4376 ], [ %v0_437f.pre, %bb ]
  %v0_437e = phi i32 [ %v1_437b, %dec_label_pc_4376 ], [ %v0_437e.pre, %bb ]
  %v1_437e = add i32 %v0_437e, ptrtoint (i8** @global_var_1.1176 to i32)
  store i32 %v1_437e, i32* @ebp, align 4
  %v1_437f = add i32 %v30_437f, -1587159995
  %v2_437f = inttoptr i32 %v1_437f to i8*
  %v3_437f = load i8, i8* %v2_437f, align 1
  %v5_437f = trunc i32 %v30_437f to i8
  %v7_437f = zext i1 %v6_437f to i8
  %v8_437f = add i8 %v3_437f, %v5_437f
  %v9_437f = add i8 %v8_437f, %v7_437f
  %v27_437f = icmp ule i8 %v9_437f, %v3_437f
  %v28_437f = icmp ult i8 %v8_437f, %v3_437f
  %v29_437f = select i1 %v6_437f, i1 %v27_437f, i1 %v28_437f
  store i1 %v29_437f, i1* %cf.global-to-local, align 1
  store i8 %v9_437f, i8* %v2_437f, align 1
  %v0_4385 = load i32, i32* @eax, align 4
  %v1_4385 = trunc i32 %v0_4385 to i8
  %v2_4385 = load i1, i1* %cf.global-to-local, align 1
  %v3_4385 = zext i1 %v2_4385 to i8
  %v4_4385 = add i8 %v3_4385, %v1_4385
  %v19_4385 = icmp ule i8 %v4_4385, %v1_4385
  %v21_4385 = icmp eq i1 %v2_4385, %v19_4385
  store i1 %v21_4385, i1* %cf.global-to-local, align 1
  %v22_4385 = zext i8 %v4_4385 to i32
  %v24_4385 = and i32 %v0_4385, -256
  %v25_4385 = or i32 %v22_4385, %v24_4385
  store i32 %v25_4385, i32* %eax.global-to-local, align 4
  %v1_4387 = inttoptr i32 %v25_4385 to i8*
  %v2_4387 = load i8, i8* %v1_4387, align 1
  %v5_4387 = add i8 %v2_4387, %v4_4385
  store i8 %v5_4387, i8* %v1_4387, align 1
  %v0_4389 = load i32, i32* %eax.global-to-local, align 4
  %v1_4389 = load i32, i32* @ebp, align 4
  %v2_4389 = add i32 %v1_4389, -12
  %v3_4389 = inttoptr i32 %v2_4389 to i32*
  store i32 %v0_4389, i32* %v3_4389, align 4
  store i32 ptrtoint (i8** @global_var_4.1177 to i32), i32* @eax, align 4
  %v0_4393 = load i32, i32* @ebp, align 4
  %v1_4393 = add i32 %v0_4393, -12
  %v2_4393 = inttoptr i32 %v1_4393 to i32*
  %v3_4393 = load i32, i32* %v2_4393, align 4
  %v1_4396 = load i32, i32* inttoptr (i32 20 to i32*), align 4
  store i1 false, i1* %cf.global-to-local, align 1
  %v3_4396 = icmp eq i32 %v1_4396, %v3_4393
  br i1 %v3_4396, label %bb7, label %dec_label_pc_439f

bb7:                                              ; preds = %dec_label_pc_437e
  %v1_439d = call i32 @function_43a4()
  store i32 %v1_439d, i32* %eax.global-to-local, align 4
  br label %dec_label_pc_439f

dec_label_pc_439f:                                ; preds = %bb7, %dec_label_pc_437e
  %v2_439d = phi i32 [ %v1_439d, %bb7 ], [ ptrtoint (i8** @global_var_4.1177 to i32), %dec_label_pc_437e ]
  ret i32 %v2_439d

; uselistorder directives
  uselistorder i8 %v4_4385, { 0, 2, 1 }
  uselistorder i8 %v1_4385, { 1, 0 }
  uselistorder i8 %v9_437f, { 1, 0 }
  uselistorder i8 %v8_437f, { 1, 0 }
  uselistorder i8 %v3_437f, { 1, 2, 0 }
  uselistorder i32 %v30_437f, { 1, 0 }
  uselistorder i1 %v6_437f, { 1, 0 }
  uselistorder label %dec_label_pc_437e, { 1, 0 }
}

define i32 @function_43a4() local_unnamed_addr {
dec_label_pc_43a4:
  %v0_43a5 = load i32, i32* @eax, align 4
  ret i32 %v0_43a5
}

define i32 @_Z16GetSerializeSizejii(i32 %arg1, i32 %arg2, i32 %arg3) local_unnamed_addr {
dec_label_pc_43a6:
  store i32 ptrtoint (i8** @global_var_4.1177 to i32), i32* @eax, align 4
  br i1 true, label %bb, label %dec_label_pc_43da

bb:                                               ; preds = %dec_label_pc_43a6
  %v4_43d8 = call i32 @function_43df(i32 %arg3, i32 %arg2, i32 %arg1)
  br label %dec_label_pc_43da

dec_label_pc_43da:                                ; preds = %bb, %dec_label_pc_43a6
  %v5_43d8 = phi i32 [ %v4_43d8, %bb ], [ ptrtoint (i8** @global_var_4.1177 to i32), %dec_label_pc_43a6 ]
  ret i32 %v5_43d8
}

define i32 @function_43df(i32 %arg1, i32 %arg2, i32 %arg3) local_unnamed_addr {
dec_label_pc_43df:
  %v0_43e0 = load i32, i32* @eax, align 4
  ret i32 %v0_43e0
}

define i32 @_Z20GetSizeOfCompactSizey(i32 %arg1, i32 %arg2) local_unnamed_addr {
dec_label_pc_43e1:
  %v10_43fe = icmp eq i32 %arg2, 0
  br i1 %v10_43fe, label %dec_label_pc_4404, label %dec_label_pc_441a.thread

dec_label_pc_441a.thread:                         ; preds = %dec_label_pc_43e1
  br label %dec_label_pc_443d

dec_label_pc_4404:                                ; preds = %dec_label_pc_43e1
  %tmp107 = icmp ult i32 %arg1, 253
  br i1 %tmp107, label %dec_label_pc_4413, label %dec_label_pc_4438

dec_label_pc_4413:                                ; preds = %dec_label_pc_4404
  ret i32 ptrtoint (i8** @global_var_1.1176 to i32)

dec_label_pc_4438:                                ; preds = %dec_label_pc_4404
  br label %dec_label_pc_443d

dec_label_pc_443d:                                ; preds = %dec_label_pc_4438, %dec_label_pc_441a.thread
  ret i32 0
}

define i32 @function_4448(i32 %arg1, i32 %arg2, i32 %arg3) local_unnamed_addr {
dec_label_pc_4448:
  %ebx.global-to-local = alloca i32, align 4
  %v2_4448 = load i8, i8* bitcast (i32* @eax to i8*), align 4
  %v3_4448 = load i32, i32* @eax, align 4
  %v4_4448 = trunc i32 %v3_4448 to i8
  %v5_4448 = add i8 %v4_4448, %v2_4448
  %v21_4448 = inttoptr i32 %v3_4448 to i8*
  store i8 %v5_4448, i8* %v21_4448, align 1
  %v0_444a = load i32, i32* @ebx, align 4
  %v2_444a = load i32, i32* @ecx, align 4
  %v3_444a = lshr i32 %v2_444a, ptrtoint (i32* @global_var_8.1178 to i32)
  %v5_444a = add i32 %v3_444a, %v0_444a
  %v20_444a = urem i32 %v5_444a, 256
  %v22_444a = and i32 %v0_444a, -256
  %v23_444a = or i32 %v20_444a, %v22_444a
  store i32 %v23_444a, i32* %ebx.global-to-local, align 4
  %v0_444c = load i32, i32* @ebp, align 4
  %v1_444c = load i32, i32* @eax, align 4
  %v2_444c = xor i32 %v1_444c, %v0_444c
  store i32 %v2_444c, i32* @ebp, align 4
  %v20_444e = inttoptr i32 %v1_444c to i32*
  store i32 0, i32* %v20_444e, align 4
  %v2_4451 = load i8, i8* bitcast (i32* @edx to i8*), align 4
  %v3_4451 = load i32, i32* %ebx.global-to-local, align 4
  %v4_4451 = lshr i32 %v3_4451, ptrtoint (i32* @global_var_8.1178 to i32)
  %v5_4451 = trunc i32 %v4_4451 to i8
  %v6_4451 = add i8 %v5_4451, %v2_4451
  %v21_4451 = load i32, i32* @edx, align 4
  %v22_4451 = inttoptr i32 %v21_4451 to i8*
  store i8 %v6_4451, i8* %v22_4451, align 1
  %v0_445c = load i32, i32* @edx, align 4
  %v1_445c = load i32, i32* @ebp, align 4
  %v2_445c = add i32 %v1_445c, -28
  %v3_445c = inttoptr i32 %v2_445c to i32*
  %v4_445c = load i32, i32* %v3_445c, align 4
  %tmp = icmp ugt i32 %v0_445c, %v4_445c
  br i1 %tmp, label %dec_label_pc_4470, label %dec_label_pc_4461

dec_label_pc_4461:                                ; preds = %dec_label_pc_4448
  %v10_445c = icmp ult i32 %v0_445c, %v4_445c
  br i1 %v10_445c, label %dec_label_pc_446b, label %dec_label_pc_4466

dec_label_pc_4466:                                ; preds = %dec_label_pc_4461
  %v0_4466 = load i32, i32* @eax, align 4
  %v2_4466 = add i32 %v1_445c, -32
  %v3_4466 = inttoptr i32 %v2_4466 to i32*
  %v4_4466 = load i32, i32* %v3_4466, align 4
  %v10_4466 = icmp ult i32 %v0_4466, %v4_4466
  %v1_4469 = icmp eq i1 %v10_4466, false
  br i1 %v1_4469, label %dec_label_pc_4470, label %dec_label_pc_446b

dec_label_pc_446b:                                ; preds = %dec_label_pc_4466, %dec_label_pc_4461
  br label %dec_label_pc_4470

dec_label_pc_4470:                                ; preds = %dec_label_pc_4448, %dec_label_pc_446b, %dec_label_pc_4466
  %v0_4470 = phi i8 [ ptrtoint (i8** @global_var_1.1176 to i8), %dec_label_pc_4448 ], [ 0, %dec_label_pc_446b ], [ ptrtoint (i8** @global_var_1.1176 to i8), %dec_label_pc_4466 ]
  %v5_4470 = icmp eq i8 %v0_4470, 0
  %. = select i1 %v5_4470, i32 ptrtoint (i32* @global_var_9.1193 to i32), i32 ptrtoint (i8* @global_var_5.1189 to i32)
  store i32 %., i32* @eax, align 4
  %v1_4480 = add i32 %v1_445c, -12
  %v2_4480 = inttoptr i32 %v1_4480 to i32*
  %v3_4480 = load i32, i32* %v2_4480, align 4
  %v1_4483 = load i32, i32* inttoptr (i32 20 to i32*), align 4
  %v3_4483 = icmp eq i32 %v1_4483, %v3_4480
  br i1 %v3_4483, label %bb, label %dec_label_pc_448c

bb:                                               ; preds = %dec_label_pc_4470
  %v1_448a = call i32 @function_4491()
  br label %dec_label_pc_448c

dec_label_pc_448c:                                ; preds = %bb, %dec_label_pc_4470
  %v2_448a = phi i32 [ %v1_448a, %bb ], [ %., %dec_label_pc_4470 ]
  ret i32 %v2_448a

; uselistorder directives
  uselistorder i32 %v4_445c, { 1, 0 }
  uselistorder i32 %v0_445c, { 1, 0 }
  uselistorder i32 %v1_444c, { 1, 0 }
  uselistorder i32 %v0_444a, { 1, 0 }
  uselistorder label %dec_label_pc_4470, { 1, 2, 0 }
}

define i32 @function_448e(i32 %arg1, i32 %arg2, i32 %arg3) local_unnamed_addr {
dec_label_pc_448e:
  %tmp = load i32, i32* @eax, align 4
  ret i32 %tmp
}

define i32 @function_4491() local_unnamed_addr {
dec_label_pc_4491:
  %v0_4492 = load i32, i32* @eax, align 4
  ret i32 %v0_4492
}

define i32 @_ZN9CFlatDataC1EPvS0_(i32* %arg1, i32 %arg2, i32 %arg3) local_unnamed_addr {
dec_label_pc_4494:
  %tmp104 = ptrtoint i32* %arg1 to i32
  store i32 %arg2, i32* %arg1, align 4
  %v2_44c5 = add i32 %tmp104, ptrtoint (i8** @global_var_4.1177 to i32)
  %v3_44c5 = inttoptr i32 %v2_44c5 to i32*
  store i32 %arg3, i32* %v3_44c5, align 4
  store i32 0, i32* @eax, align 4
  br i1 true, label %bb, label %dec_label_pc_44d4

bb:                                               ; preds = %dec_label_pc_4494
  %v4_44d2 = call i32 @function_44d9(i32 %arg3, i32 %arg2, i32 %tmp104)
  br label %dec_label_pc_44d4

dec_label_pc_44d4:                                ; preds = %bb, %dec_label_pc_4494
  %v5_44d2 = phi i32 [ %v4_44d2, %bb ], [ 0, %dec_label_pc_4494 ]
  ret i32 %v5_44d2
}

define i32 @function_44d9(i32 %arg1, i32 %arg2, i32 %arg3) local_unnamed_addr {
dec_label_pc_44d9:
  %v0_44da = load i32, i32* @eax, align 4
  ret i32 %v0_44da
}

define i32 @_ZN11CDataStreamC1Eii(i32 %arg1, i32 %arg2, i32 %arg3) local_unnamed_addr {
dec_label_pc_44dc:
  store i1 false, i1* @cf, align 1
  store i32 %arg1, i32* @eax, align 4
  %v3_451e = call i32 @function_8ac2(i32 %arg1, i32 %arg2, i32 %arg3)
  store i32 0, i32* @eax, align 4
  br i1 true, label %bb, label %dec_label_pc_452f

bb:                                               ; preds = %dec_label_pc_44dc
  %v1_452d = call i32 @function_4534()
  br label %dec_label_pc_452f

dec_label_pc_452f:                                ; preds = %bb, %dec_label_pc_44dc
  %v2_452d = phi i32 [ %v1_452d, %bb ], [ 0, %dec_label_pc_44dc ]
  ret i32 %v2_452d

; uselistorder directives
  uselistorder i32 %arg1, { 1, 0 }
}

define i32 @function_4534() local_unnamed_addr {
dec_label_pc_4534:
  %v0_4535 = load i32, i32* @eax, align 4
  ret i32 %v0_4535
}

define i32 @_ZN11CDataStreamC1EPKcS1_ii(i32 %arg1, i32 %arg2, i32 %arg3, i32 %arg4, i32 %arg5) local_unnamed_addr {
dec_label_pc_4536:
  store i32 %arg2, i32* @edx, align 4
  ret i32 %arg1
}

define i32 @function_458c(i32 %arg1) local_unnamed_addr {
dec_label_pc_458c:
  %v0_458c = call i32 @function_c1d6()
  %v0_4591 = load i32, i32* @ebp, align 4
  %v1_4591 = add i32 %v0_4591, -13
  %v1_4597 = call i32 @function_c1a0(i32 %v1_4591)
  %v0_459c = load i32, i32* @ebp, align 4
  %v1_459c = add i32 %v0_459c, -44
  %v2_459c = inttoptr i32 %v1_459c to i32*
  %v3_459c = load i32, i32* %v2_459c, align 4
  %v1_45a3 = add i32 %v0_459c, -40
  %v2_45a3 = inttoptr i32 %v1_45a3 to i32*
  %v3_45a3 = load i32, i32* %v2_45a3, align 4
  %v1_45aa = add i32 %v0_459c, -28
  %v2_45aa = inttoptr i32 %v1_45aa to i32*
  %v3_45aa = load i32, i32* %v2_45aa, align 4
  store i32 %v3_45aa, i32* @eax, align 4
  %v3_45b0 = call i32 @function_8b1c(i32 %v3_45aa, i32 %v3_45a3, i32 %v3_459c)
  %v0_45b5 = load i32, i32* @ebp, align 4
  %v1_45b5 = add i32 %v0_45b5, -12
  %v2_45b5 = inttoptr i32 %v1_45b5 to i32*
  %v3_45b5 = load i32, i32* %v2_45b5, align 4
  %v1_45b8 = load i32, i32* inttoptr (i32 20 to i32*), align 4
  %v2_45b8 = xor i32 %v1_45b8, %v3_45b5
  %v3_45b8 = icmp eq i32 %v2_45b8, 0
  store i32 %v2_45b8, i32* @eax, align 4
  br i1 %v3_45b8, label %bb, label %dec_label_pc_45c1

bb:                                               ; preds = %dec_label_pc_458c
  %v1_45bf = call i32 @function_45df()
  store i32 %v1_45bf, i32* @eax, align 4
  br label %dec_label_pc_45c1

dec_label_pc_45c1:                                ; preds = %bb, %dec_label_pc_458c
  %v0_45c1 = call i32 @function_45da()
  ret i32 %v0_45c1
}

define i32 @function_45c4(i32 %arg1) local_unnamed_addr {
dec_label_pc_45c4:
  %v0_45c4 = load i32, i32* @eax, align 4
  ret i32 %v0_45c4
}

define i32 @function_45da() local_unnamed_addr {
dec_label_pc_45da:
  %v0_45da = load i32, i32* @eax, align 4
  ret i32 %v0_45da
}

define i32 @function_45df() local_unnamed_addr {
dec_label_pc_45df:
  %v0_45e4 = load i32, i32* @eax, align 4
  ret i32 %v0_45e4
}

define i32 @_ZN11CDataStream4InitEii(i32 %arg1, i32 %arg2, i32 %arg3) local_unnamed_addr {
dec_label_pc_45e6:
  %v1_460c = add i32 %arg1, 12
  %v2_460c = inttoptr i32 %v1_460c to i32*
  store i32 0, i32* %v2_460c, align 4
  %v2_4619 = add i32 %arg1, 20
  %v3_4619 = inttoptr i32 %v2_4619 to i32*
  store i32 %arg2, i32* %v3_4619, align 4
  %v2_4622 = add i32 %arg1, ptrtoint (i8** @global_var_18.1179 to i32)
  %v3_4622 = inttoptr i32 %v2_4622 to i32*
  store i32 %arg3, i32* %v3_4622, align 4
  ret i32 %arg1

; uselistorder directives
  uselistorder i32 %arg1, { 3, 2, 1, 0 }
}

define i32 @function_462c(i32 %arg1, i32 %arg2, i32 %arg3) local_unnamed_addr {
dec_label_pc_462c:
  %v2_462c = load i8, i8* bitcast (i32* @eax to i8*), align 4
  %v3_462c = load i32, i32* @eax, align 4
  %v4_462c = trunc i32 %v3_462c to i8
  %v5_462c = add i8 %v4_462c, %v2_462c
  %v21_462c = inttoptr i32 %v3_462c to i8*
  store i8 %v5_462c, i8* %v21_462c, align 1
  %v4_463d = call i32 @function_6fb6(i32 ptrtoint (i8** @global_var_1.1176 to i32), i32 ptrtoint (i8** @global_var_4.1177 to i32))
  %v0_4644 = load i32, i32* @ebp, align 4
  %v1_4644 = add i32 %v0_4644, -28
  %v2_4644 = inttoptr i32 %v1_4644 to i32*
  %v3_4644 = load i32, i32* %v2_4644, align 4
  %v1_4647 = trunc i32 %v4_463d to i16
  %v3_4647 = add i32 %v3_4644, 18
  %v4_4647 = inttoptr i32 %v3_4647 to i16*
  store i16 %v1_4647, i16* %v4_4647, align 2
  %v0_464b = load i32, i32* @ebp, align 4
  %v1_464b = add i32 %v0_464b, -12
  %v2_464b = inttoptr i32 %v1_464b to i32*
  %v3_464b = load i32, i32* %v2_464b, align 4
  %v1_464e = load i32, i32* inttoptr (i32 20 to i32*), align 4
  %v2_464e = xor i32 %v1_464e, %v3_464b
  %v3_464e = icmp eq i32 %v2_464e, 0
  store i32 %v2_464e, i32* @eax, align 4
  br i1 %v3_464e, label %bb, label %dec_label_pc_4657

bb:                                               ; preds = %dec_label_pc_462c
  %v1_4655 = call i32 @function_465c()
  br label %dec_label_pc_4657

dec_label_pc_4657:                                ; preds = %bb, %dec_label_pc_462c
  %v2_4655 = phi i32 [ %v1_4655, %bb ], [ %v2_464e, %dec_label_pc_462c ]
  ret i32 %v2_4655
}

define i32 @function_465c() local_unnamed_addr {
dec_label_pc_465c:
  %v0_465d = load i32, i32* @eax, align 4
  ret i32 %v0_465d
}

define i32 @_ZN11CDataStreamD1Ev(i32 %arg1) local_unnamed_addr {
dec_label_pc_465e:
  %v1_467b = call i32 @function_c218(i32 %arg1)
  ret i32 0
}

define i32 @_ZNK11CDataStream3strEv(i32 %arg1, i32 %arg2) local_unnamed_addr {
dec_label_pc_4694:
  %stack_var_-17 = alloca i32, align 4
  %v2_46b2 = ptrtoint i32* %stack_var_-17 to i32
  ret i32 %v2_46b2
}

define i32 @function_46fe(i32 %arg1, i32 %arg2, i32 %arg3) local_unnamed_addr {
dec_label_pc_46fe:
  %v0_4700 = load i32, i32* @eax, align 4
  %v2_4700 = add i32 %v0_4700, 36
  %v16_4700 = and i32 %v2_4700, 255
  %v18_4700 = and i32 %v0_4700, -256
  %v19_4700 = or i32 %v16_4700, %v18_4700
  ret i32 %v19_4700

; uselistorder directives
  uselistorder i32 %v0_4700, { 1, 0 }
}

define i32 @function_4706(i32 %arg1, i32 %arg2) local_unnamed_addr {
dec_label_pc_4706:
  %v0_4706 = load i32, i32* @ebp, align 4
  %v1_4706 = add i32 %v0_4706, 76149573
  %v2_4706 = inttoptr i32 %v1_4706 to i8*
  %v3_4706 = load i8, i8* %v2_4706, align 1
  %v4_4706 = load i32, i32* @ecx, align 4
  %v5_4706 = trunc i32 %v4_4706 to i8
  %v6_4706 = add i8 %v5_4706, %v3_4706
  store i8 %v6_4706, i8* %v2_4706, align 1
  %v0_470c = load i32, i32* @eax, align 4
  %v11_470c = and i32 %v0_470c, -24
  ret i32 %v11_470c
}

define i32 @function_4711() local_unnamed_addr {
dec_label_pc_4711:
  %ebx.global-to-local = alloca i32, align 4
  %edx.global-to-local = alloca i32, align 4
  %v0_4711 = load i32, i32* %ebx.global-to-local, align 4
  %v1_4711 = add i32 %v0_4711, 1435231301
  %v2_4711 = inttoptr i32 %v1_4711 to i32*
  %v3_4711 = load i32, i32* %v2_4711, align 4
  %v4_4711 = add i32 %v3_4711, -1
  store i32 %v4_4711, i32* %v2_4711, align 4
  %v0_4718 = load i32, i32* %edx.global-to-local, align 4
  %v1_4718 = load i32, i32* inttoptr (i32 20 to i32*), align 4
  %v2_4718 = xor i32 %v1_4718, %v0_4718
  %v3_4718 = icmp eq i32 %v2_4718, 0
  store i32 %v2_4718, i32* %edx.global-to-local, align 4
  br i1 %v3_4718, label %bb, label %dec_label_pc_4721

bb:                                               ; preds = %dec_label_pc_4711
  %v1_471f = call i32 @function_473f()
  store i32 %v1_471f, i32* @eax, align 4
  br label %dec_label_pc_4721

dec_label_pc_4721:                                ; preds = %bb, %dec_label_pc_4711
  %v0_4721 = call i32 @function_473a()
  ret i32 %v0_4721
}

define i32 @function_4724() local_unnamed_addr {
dec_label_pc_4724:
  %eax.global-to-local = alloca i32, align 4
  %v0_4724 = load i32, i32* %eax.global-to-local, align 4
  ret i32 %v0_4724
}

define i32 @function_473a() local_unnamed_addr {
dec_label_pc_473a:
  %tmp = load i32, i32* @eax, align 4
  ret i32 %tmp
}

define i32 @function_473f() local_unnamed_addr {
dec_label_pc_473f:
  %v0_4743 = load i32, i32* @eax, align 4
  ret i32 %v0_4743
}

define i32 @_ZNK11CDataStream5beginEv(i32 %arg1, i32 %arg2) local_unnamed_addr {
dec_label_pc_4746:
  %stack_var_-24 = alloca i32, align 4
  %stack_var_-20 = alloca i32, align 4
  %v1_4766 = add i32 %arg2, 12
  %v2_4766 = inttoptr i32 %v1_4766 to i32*
  %v3_4766 = load i32, i32* %v2_4766, align 4
  store i32 %v3_4766, i32* %stack_var_-20, align 4
  %v2_476f = ptrtoint i32* %stack_var_-24 to i32
  store i32 %v2_476f, i32* @eax, align 4
  %v2_4779 = call i32 @function_c470(i32 %v2_476f, i32 %arg2)
  store i32 %arg1, i32* @eax, align 4
  br i1 true, label %bb, label %dec_label_pc_47ac

bb:                                               ; preds = %dec_label_pc_4746
  %v2_4784 = ptrtoint i32* %stack_var_-20 to i32
  %v4_47aa = call i32 @function_47b1(i32 %arg1, i32 %v2_476f, i32 %v2_4784)
  br label %dec_label_pc_47ac

dec_label_pc_47ac:                                ; preds = %bb, %dec_label_pc_4746
  %v5_47aa = phi i32 [ %v4_47aa, %bb ], [ %arg1, %dec_label_pc_4746 ]
  ret i32 %v5_47aa

; uselistorder directives
  uselistorder i32 %arg2, { 1, 0 }
}

define i32 @function_47b1(i32 %arg1, i32 %arg2, i32 %arg3) local_unnamed_addr {
dec_label_pc_47b1:
  %v0_47b2 = load i32, i32* @eax, align 4
  ret i32 %v0_47b2
}

define i32 @_ZNK11CDataStream3endEv(i32 %arg1, i32 %arg2) local_unnamed_addr {
dec_label_pc_47b6:
  store i32 %arg1, i32* @eax, align 4
  %v2_47e0 = call i32 @function_c530(i32 %arg1, i32 %arg2)
  store i32 %arg1, i32* @eax, align 4
  br i1 true, label %bb, label %dec_label_pc_47f7

bb:                                               ; preds = %dec_label_pc_47b6
  %v1_47f5 = call i32 @function_47fc()
  br label %dec_label_pc_47f7

dec_label_pc_47f7:                                ; preds = %bb, %dec_label_pc_47b6
  %v2_47f5 = phi i32 [ %v1_47f5, %bb ], [ %arg1, %dec_label_pc_47b6 ]
  ret i32 %v2_47f5

; uselistorder directives
  uselistorder i32 %arg1, { 0, 3, 2, 1 }
}

define i32 @function_47fa(i32 %arg1) local_unnamed_addr {
dec_label_pc_47fa:
  %tmp = load i32, i32* @eax, align 4
  ret i32 %tmp
}

define i32 @function_47fc() local_unnamed_addr {
dec_label_pc_47fc:
  %v0_47fd = load i32, i32* @eax, align 4
  ret i32 %v0_47fd
}

define i32 @_ZNK11CDataStream4sizeEv(i32 %arg1) local_unnamed_addr {
dec_label_pc_4800:
  %v1_481d = call i32 @function_c77e(i32 %arg1)
  %v1_4825 = add i32 %arg1, 12
  %v2_4825 = inttoptr i32 %v1_4825 to i32*
  %v3_4825 = load i32, i32* %v2_4825, align 4
  %v2_4828 = sub i32 %v1_481d, %v3_4825
  store i32 %v2_4828, i32* @eax, align 4
  br i1 true, label %bb, label %dec_label_pc_4836

bb:                                               ; preds = %dec_label_pc_4800
  %v1_4834 = call i32 @function_483b()
  br label %dec_label_pc_4836

dec_label_pc_4836:                                ; preds = %bb, %dec_label_pc_4800
  %v2_4834 = phi i32 [ %v1_4834, %bb ], [ %v2_4828, %dec_label_pc_4800 ]
  ret i32 %v2_4834

; uselistorder directives
  uselistorder i32 %arg1, { 1, 0 }
}

define i32 @function_483b() local_unnamed_addr {
dec_label_pc_483b:
  %v0_483c = load i32, i32* @eax, align 4
  ret i32 %v0_483c
}

define i32 @_ZN11CDataStream7reserveEj(i32 %arg1, i32 %arg2) local_unnamed_addr {
dec_label_pc_483e:
  %v1_485e = add i32 %arg1, 12
  %v2_485e = inttoptr i32 %v1_485e to i32*
  %v3_485e = load i32, i32* %v2_485e, align 4
  %v5_4863 = add i32 %v3_485e, %arg2
  store i32 %arg1, i32* @eax, align 4
  %v2_4870 = call i32 @function_c7fa(i32 %arg1, i32 %v5_4863)
  store i32 0, i32* @eax, align 4
  br i1 true, label %bb, label %dec_label_pc_4881

bb:                                               ; preds = %dec_label_pc_483e
  %v1_487f = call i32 @function_4886()
  br label %dec_label_pc_4881

dec_label_pc_4881:                                ; preds = %bb, %dec_label_pc_483e
  %v2_487f = phi i32 [ %v1_487f, %bb ], [ 0, %dec_label_pc_483e ]
  ret i32 %v2_487f

; uselistorder directives
  uselistorder i32 %arg1, { 2, 1, 0 }
}

define i32 @function_4886() local_unnamed_addr {
dec_label_pc_4886:
  %v0_4887 = load i32, i32* @eax, align 4
  ret i32 %v0_4887
}

define i32 @_ZN11CDataStreamixEj(i32 %arg1, i32 %arg2) local_unnamed_addr {
dec_label_pc_4888:
  ret i32 %arg1
}

define i32 @_ZN11CDataStream8setstateEsPKc(i32 %arg1, i16 %arg2, i32 %arg3) local_unnamed_addr {
dec_label_pc_48d2:
  %v1_48fb = add i32 %arg1, 16
  %v2_48fb = inttoptr i32 %v1_48fb to i16*
  %v3_48fb = load i16, i16* %v2_48fb, align 2
  %v6_4901 = or i16 %v3_48fb, %arg2
  store i16 %v6_4901, i16* %v2_48fb, align 2
  %v1_4916 = add i32 %arg1, 18
  %v2_4916 = inttoptr i32 %v1_4916 to i16*
  %v3_4916 = load i16, i16* %v2_4916, align 2
  %v2_491a3 = and i16 %v3_4916, %v6_4901
  %v2_491a = zext i16 %v2_491a3 to i32
  %v5_491c = icmp eq i16 %v2_491a3, 0
  br i1 %v5_491c, label %bb, label %dec_label_pc_4925

bb:                                               ; preds = %dec_label_pc_48d2
  %v4_48da = sext i16 %arg2 to i32
  %v5_491f = call i32 @function_49b4(i32 %arg3, i32 %v4_48da, i32 %arg1)
  br label %dec_label_pc_4925

dec_label_pc_4925:                                ; preds = %bb, %dec_label_pc_48d2
  %v2_4925 = phi i32 [ %v5_491f, %bb ], [ %v2_491a, %dec_label_pc_48d2 ]
  ret i32 %v2_4925

; uselistorder directives
  uselistorder i16 %arg2, { 1, 0 }
}

define i32 @function_4932() local_unnamed_addr {
dec_label_pc_4932:
  %eax.global-to-local = alloca i32, align 4
  %v0_4932 = load i32, i32* %eax.global-to-local, align 4
  ret i32 %v0_4932
}

define i32 @function_49b4(i32 %arg1, i32 %arg2, i32 %arg3) local_unnamed_addr {
dec_label_pc_49b4:
  %v0_49b4 = load i32, i32* @ebp, align 4
  %v1_49b4 = add i32 %v0_49b4, -12
  %v2_49b4 = inttoptr i32 %v1_49b4 to i32*
  %v3_49b4 = load i32, i32* %v2_49b4, align 4
  %v1_49b7 = load i32, i32* inttoptr (i32 20 to i32*), align 4
  %v2_49b7 = xor i32 %v1_49b7, %v3_49b4
  ret i32 %v2_49b7
}

define i32 @_ZNSt9exceptionC1ERKS_(i32 %arg1, i32 %arg2) local_unnamed_addr {
dec_label_pc_49cc:
  ret i32 %arg1
}

define i32 @function_4a03() local_unnamed_addr {
dec_label_pc_4a03:
  %eax.global-to-local = alloca i32, align 4
  %v0_4a04 = load i32, i32* %eax.global-to-local, align 4
  ret i32 %v0_4a04
}

define i32 @_ZN11CDataStream4readEPci(i32 %arg1, i32 %arg2, i32 %arg3) local_unnamed_addr {
dec_label_pc_4a06:
  %v11_4a2a = icmp slt i32 %arg3, 0
  %v1_4a2e = icmp eq i1 %v11_4a2a, false
  br i1 %v1_4a2e, label %bb, label %dec_label_pc_4a30

bb:                                               ; preds = %dec_label_pc_4a06
  %v5_4a2e = call i32 @function_4a54(i32 %arg3, i32 %arg2, i32 %arg1)
  br label %dec_label_pc_4a30

dec_label_pc_4a30:                                ; preds = %bb, %dec_label_pc_4a06
  %v3_4a48 = phi i32 [ %v5_4a2e, %bb ], [ 0, %dec_label_pc_4a06 ]
  ret i32 %v3_4a48
}

define i32 @function_4a54(i32 %arg1, i32 %arg2, i32 %arg3) local_unnamed_addr {
dec_label_pc_4a54:
  %v0_4a54 = load i32, i32* @ebp, align 4
  %v1_4a54 = add i32 %v0_4a54, -28
  %v2_4a54 = inttoptr i32 %v1_4a54 to i32*
  %v3_4a54 = load i32, i32* %v2_4a54, align 4
  %v1_4a57 = add i32 %v3_4a54, 12
  %v2_4a57 = inttoptr i32 %v1_4a57 to i32*
  %v3_4a57 = load i32, i32* %v2_4a57, align 4
  store i32 %v3_4a57, i32* @edx, align 4
  %v1_4a5a = add i32 %v0_4a54, -36
  %v2_4a5a = inttoptr i32 %v1_4a5a to i32*
  %v3_4a5a = load i32, i32* %v2_4a5a, align 4
  %v2_4a5d = add i32 %v3_4a5a, %v3_4a57
  %v2_4a5f = add i32 %v0_4a54, -16
  %v3_4a5f = inttoptr i32 %v2_4a5f to i32*
  store i32 %v2_4a5d, i32* %v3_4a5f, align 4
  %v0_4a62 = load i32, i32* @ebp, align 4
  %v1_4a62 = add i32 %v0_4a62, -28
  %v2_4a62 = inttoptr i32 %v1_4a62 to i32*
  %v3_4a62 = load i32, i32* %v2_4a62, align 4
  %v2_4a6d = add i32 %v0_4a62, -16
  %v3_4a6d = inttoptr i32 %v2_4a6d to i32*
  %v4_4a6d = load i32, i32* %v3_4a6d, align 4
  %tmp11 = icmp ule i32 %v3_4a62, %v4_4a6d
  %v5_4a73 = icmp eq i1 %tmp11, false
  br i1 %v5_4a73, label %bb, label %dec_label_pc_4a7b

bb:                                               ; preds = %dec_label_pc_4a54
  %v2_4a75 = call i32 @function_4b20(i32 %v3_4a62)
  %v0_4a7b.pre = load i32, i32* @ebp, align 4
  br label %dec_label_pc_4a7b

dec_label_pc_4a7b:                                ; preds = %bb, %dec_label_pc_4a54
  %v0_4a7b = phi i32 [ %v0_4a7b.pre, %bb ], [ %v0_4a62, %dec_label_pc_4a54 ]
  %v1_4a7b = add i32 %v0_4a7b, -28
  %v2_4a7b = inttoptr i32 %v1_4a7b to i32*
  %v3_4a7b = load i32, i32* %v2_4a7b, align 4
  %v2_4a86 = add i32 %v0_4a7b, -16
  %v3_4a86 = inttoptr i32 %v2_4a86 to i32*
  %v4_4a86 = load i32, i32* %v3_4a86, align 4
  %v10_4a86 = icmp ult i32 %v3_4a7b, %v4_4a86
  %v5_4a8c = icmp eq i1 %v10_4a86, false
  br i1 %v5_4a8c, label %bb12, label %dec_label_pc_4a90

bb12:                                             ; preds = %dec_label_pc_4a7b
  %v2_4a8e = call i32 @function_4adb(i32 %v3_4a7b)
  %v0_4aa0.pre = load i32, i32* @ebp, align 4
  br label %dec_label_pc_4a90

dec_label_pc_4a90:                                ; preds = %bb12, %dec_label_pc_4a7b
  %v0_4aa0 = phi i32 [ %v0_4aa0.pre, %bb12 ], [ %v0_4a7b, %dec_label_pc_4a7b ]
  %v1_4aa0 = add i32 %v0_4aa0, -28
  %v2_4aa0 = inttoptr i32 %v1_4aa0 to i32*
  %v3_4aa0 = load i32, i32* %v2_4aa0, align 4
  store i32 %v3_4aa0, i32* @eax, align 4
  %v5_4aa6 = call i32 @function_92d8(i32 %v3_4aa0, i32 ptrtoint (i8** @global_var_4.1177 to i32), i32 ptrtoint ([34 x i8]* @global_var_3d20.1197 to i32))
  %v0_4aab = load i32, i32* @ebp, align 4
  %v1_4aba = add i32 %v0_4aab, -32
  %v2_4aba = inttoptr i32 %v1_4aba to i32*
  %v3_4aba = load i32, i32* %v2_4aba, align 4
  ret i32 %v3_4aba

; uselistorder directives
  uselistorder i32 %v0_4a7b, { 0, 2, 1 }
  uselistorder i32 %v3_4a62, { 1, 0 }
}

define i32 @function_4adb(i32 %arg1) local_unnamed_addr {
dec_label_pc_4adb:
  %v0_4adb = load i32, i32* @ebp, align 4
  %v1_4ade = add i32 %v0_4adb, -28
  %v2_4ade = inttoptr i32 %v1_4ade to i32*
  %v3_4ade = load i32, i32* %v2_4ade, align 4
  %v1_4ae1 = add i32 %v3_4ade, 12
  %v2_4ae1 = inttoptr i32 %v1_4ae1 to i32*
  %v3_4ae1 = load i32, i32* %v2_4ae1, align 4
  store i32 %v3_4ae1, i32* @edx, align 4
  %v1_4afb = add i32 %v0_4adb, -32
  %v2_4afb = inttoptr i32 %v1_4afb to i32*
  %v3_4afb = load i32, i32* %v2_4afb, align 4
  ret i32 %v3_4afb
}

define i32 @function_4b06() local_unnamed_addr {
dec_label_pc_4b06:
  %v0_4b06 = load i32, i32* @ebp, align 4
  %v1_4b06 = add i32 %v0_4b06, -28
  %v2_4b06 = inttoptr i32 %v1_4b06 to i32*
  %v3_4b06 = load i32, i32* %v2_4b06, align 4
  %v1_4b09 = add i32 %v3_4b06, 12
  %v2_4b09 = inttoptr i32 %v1_4b09 to i32*
  store i32 0, i32* %v2_4b09, align 4
  %v0_4b10 = load i32, i32* @ebp, align 4
  %v1_4b10 = add i32 %v0_4b10, -28
  %v2_4b10 = inttoptr i32 %v1_4b10 to i32*
  %v3_4b10 = load i32, i32* %v2_4b10, align 4
  store i32 %v3_4b10, i32* @eax, align 4
  %v1_4b1e = call i32 @function_4b57(i32 %v3_4b10)
  ret i32 %v1_4b1e

; uselistorder directives
  uselistorder i32 %v3_4b10, { 1, 0 }
}

define i32 @function_4b20(i32 %arg1) local_unnamed_addr {
dec_label_pc_4b20:
  %v0_4b20 = load i32, i32* @ebp, align 4
  %v1_4b23 = add i32 %v0_4b20, -28
  %v2_4b23 = inttoptr i32 %v1_4b23 to i32*
  %v3_4b23 = load i32, i32* %v2_4b23, align 4
  %v1_4b26 = add i32 %v3_4b23, 12
  %v2_4b26 = inttoptr i32 %v1_4b26 to i32*
  %v3_4b26 = load i32, i32* %v2_4b26, align 4
  store i32 %v3_4b26, i32* @edx, align 4
  %v1_4b40 = add i32 %v0_4b20, -32
  %v2_4b40 = inttoptr i32 %v1_4b40 to i32*
  %v3_4b40 = load i32, i32* %v2_4b40, align 4
  ret i32 %v3_4b40
}

define i32 @function_4b57(i32 %arg1) local_unnamed_addr {
dec_label_pc_4b57:
  %v0_4b6d = load i32, i32* @eax, align 4
  ret i32 %v0_4b6d
}

define i32 @_ZN11CDataStream5writeEPKci(i32 %arg1, i32 %arg2, i32 %arg3) local_unnamed_addr {
dec_label_pc_4b6e:
  %v11_4b92 = icmp slt i32 %arg3, 0
  %v1_4b96 = icmp eq i1 %v11_4b92, false
  br i1 %v1_4b96, label %bb, label %dec_label_pc_4b98

bb:                                               ; preds = %dec_label_pc_4b6e
  %v5_4b96 = call i32 @function_4bbc(i32 %arg3, i32 %arg2, i32 %arg1)
  br label %dec_label_pc_4b98

dec_label_pc_4b98:                                ; preds = %bb, %dec_label_pc_4b6e
  %v3_4bb0 = phi i32 [ %v5_4b96, %bb ], [ 0, %dec_label_pc_4b6e ]
  ret i32 %v3_4bb0
}

define i32 @function_4bbc(i32 %arg1, i32 %arg2, i32 %arg3) local_unnamed_addr {
dec_label_pc_4bbc:
  %v0_4bbc = load i32, i32* @ebp, align 4
  %v1_4bbc = add i32 %v0_4bbc, -36
  %v2_4bbc = inttoptr i32 %v1_4bbc to i32*
  %v3_4bbc = load i32, i32* %v2_4bbc, align 4
  %v2_4bc1 = add i32 %v0_4bbc, -32
  %v3_4bc1 = inttoptr i32 %v2_4bc1 to i32*
  %v4_4bc1 = load i32, i32* %v3_4bc1, align 4
  %v5_4bc1 = add i32 %v4_4bc1, %v3_4bbc
  store i32 %v5_4bc1, i32* @ebx, align 4
  %v1_4bc4 = add i32 %v0_4bbc, -28
  %v2_4bc4 = inttoptr i32 %v1_4bc4 to i32*
  %v1_4bc7 = add i32 %v0_4bbc, -16
  %v3_4bd9 = load i32, i32* %v2_4bc4, align 4
  store i32 %v3_4bd9, i32* @eax, align 4
  %v3_4be0 = load i32, i32* %v3_4bc1, align 4
  %v2_4be7 = inttoptr i32 %v1_4bc7 to i32*
  %v3_4be7 = load i32, i32* %v2_4be7, align 4
  %v4_4bf1 = call i32 @function_ccba(i32 %v3_4bd9, i32 %v3_4be7, i32 %v3_4be0, i32 %v5_4bc1)
  %v0_4bf6 = load i32, i32* @ebp, align 4
  %v1_4bf6 = add i32 %v0_4bf6, -28
  %v2_4bf6 = inttoptr i32 %v1_4bf6 to i32*
  %v3_4bf6 = load i32, i32* %v2_4bf6, align 4
  store i32 %v3_4bf6, i32* @eax, align 4
  %v1_4bf9 = add i32 %v0_4bf6, -12
  %v2_4bf9 = inttoptr i32 %v1_4bf9 to i32*
  %v3_4bf9 = load i32, i32* %v2_4bf9, align 4
  %v1_4bfc = load i32, i32* inttoptr (i32 20 to i32*), align 4
  %v3_4bfc = icmp eq i32 %v1_4bfc, %v3_4bf9
  br i1 %v3_4bfc, label %bb, label %dec_label_pc_4c05

bb:                                               ; preds = %dec_label_pc_4bbc
  %v1_4c03 = call i32 @function_4c0a()
  br label %dec_label_pc_4c05

dec_label_pc_4c05:                                ; preds = %bb, %dec_label_pc_4bbc
  %v2_4c03 = phi i32 [ %v1_4c03, %bb ], [ %v3_4bf6, %dec_label_pc_4bbc ]
  ret i32 %v2_4c03

; uselistorder directives
  uselistorder i32 %v0_4bbc, { 1, 0, 2, 3 }
}

define i32 @function_4c0a() local_unnamed_addr {
dec_label_pc_4c0a:
  %v0_4c0e = load i32, i32* @eax, align 4
  ret i32 %v0_4c0e
}

define i32 @_ZNK5boost15foreach_detail_13auto_any_basecvbEv(i32 %arg1) local_unnamed_addr {
dec_label_pc_4c10:
  store i32 0, i32* @eax, align 4
  br i1 true, label %bb, label %dec_label_pc_4c38

bb:                                               ; preds = %dec_label_pc_4c10
  %v2_4c36 = call i32 @function_4c3d(i32 %arg1)
  br label %dec_label_pc_4c38

dec_label_pc_4c38:                                ; preds = %bb, %dec_label_pc_4c10
  %v3_4c36 = phi i32 [ %v2_4c36, %bb ], [ 0, %dec_label_pc_4c10 ]
  ret i32 %v3_4c36
}

define i32 @function_4c3d(i32 %arg1) local_unnamed_addr {
dec_label_pc_4c3d:
  %v0_4c3e = load i32, i32* @eax, align 4
  ret i32 %v0_4c3e
}

define i32 @_ZN5boost15foreach_detail_9set_falseERb(i8* %arg1) local_unnamed_addr {
dec_label_pc_4c3f:
  store i8 0, i8* %arg1, align 1
  store i32 0, i32* @eax, align 4
  br i1 true, label %bb, label %dec_label_pc_4c6d

bb:                                               ; preds = %dec_label_pc_4c3f
  %v4_4c45 = ptrtoint i8* %arg1 to i32
  %v3_4c6b = call i32 @function_4c72(i32 %v4_4c45)
  br label %dec_label_pc_4c6d

dec_label_pc_4c6d:                                ; preds = %bb, %dec_label_pc_4c3f
  %v4_4c6b = phi i32 [ %v3_4c6b, %bb ], [ 0, %dec_label_pc_4c3f ]
  ret i32 %v4_4c6b

; uselistorder directives
  uselistorder i8* %arg1, { 1, 0 }
}

define i32 @function_4c72(i32 %arg1) local_unnamed_addr {
dec_label_pc_4c72:
  %v0_4c73 = load i32, i32* @eax, align 4
  ret i32 %v0_4c73
}

define i32 @_ZN11CHashWriter4InitEv(i32 %arg1) local_unnamed_addr {
dec_label_pc_4c74:
  ret i32 %arg1
}

define i32 @function_4ca6() local_unnamed_addr {
dec_label_pc_4ca6:
  %eax.global-to-local = alloca i32, align 4
  %ecx.global-to-local = alloca i32, align 4
  %v0_4ca6 = load i32, i32* %ecx.global-to-local, align 4
  %v1_4ca6 = sub i32 %v0_4ca6, ptrtoint (i8** @global_var_1.1176 to i32)
  store i32 %v1_4ca6, i32* %ecx.global-to-local, align 4
  %v0_4ca8 = load i32, i32* %eax.global-to-local, align 4
  ret i32 %v0_4ca8
}

define i32 @_ZN11CHashWriterC1Eii(i32 %arg1, i32 %arg2, i32 %arg3) local_unnamed_addr {
dec_label_pc_4caa:
  %v2_4cd3 = add i32 %arg1, 112
  %v3_4cd3 = inttoptr i32 %v2_4cd3 to i32*
  store i32 %arg2, i32* %v3_4cd3, align 4
  %v2_4cdc = add i32 %arg1, 116
  %v3_4cdc = inttoptr i32 %v2_4cdc to i32*
  store i32 %arg3, i32* %v3_4cdc, align 4
  store i32 %arg1, i32* @eax, align 4
  %v1_4ce5 = call i32 @function_991e(i32 %arg1)
  store i32 0, i32* @eax, align 4
  br i1 true, label %bb, label %dec_label_pc_4cf6

bb:                                               ; preds = %dec_label_pc_4caa
  %v1_4cf4 = call i32 @function_4cfb()
  br label %dec_label_pc_4cf6

dec_label_pc_4cf6:                                ; preds = %bb, %dec_label_pc_4caa
  %v2_4cf4 = phi i32 [ %v1_4cf4, %bb ], [ 0, %dec_label_pc_4caa ]
  ret i32 %v2_4cf4

; uselistorder directives
  uselistorder i32 %arg1, { 3, 2, 1, 0 }
}

define i32 @function_4cfb() local_unnamed_addr {
dec_label_pc_4cfb:
  %v0_4cfc = load i32, i32* @eax, align 4
  ret i32 %v0_4cfc
}

define i32 @_ZN11CHashWriter5writeEPKcj(i32 %arg1, i32 %arg2, i32 %arg3) local_unnamed_addr {
dec_label_pc_4cfe:
  ret i32 %arg1
}

define i32 @function_4d4d() local_unnamed_addr {
dec_label_pc_4d4d:
  %eax.global-to-local = alloca i32, align 4
  %ecx.global-to-local = alloca i32, align 4
  %v0_4d4d = load i32, i32* %ecx.global-to-local, align 4
  %v1_4d4d = sub i32 %v0_4d4d, ptrtoint (i8** @global_var_1.1176 to i32)
  store i32 %v1_4d4d, i32* %ecx.global-to-local, align 4
  %v0_4d4f = load i32, i32* %eax.global-to-local, align 4
  ret i32 %v0_4d4f
}

define i32 @_ZN11CHashWriter7GetHashEv(i32 %arg1, i32 %arg2) local_unnamed_addr {
dec_label_pc_4d50:
  %stack_var_-48 = alloca i32, align 4
  %v2_4d6d = ptrtoint i32* %stack_var_-48 to i32
  ret i32 %v2_4d6d
}

define i32 @function_4d96(i32 %arg1) local_unnamed_addr {
dec_label_pc_4d96:
  %eax.global-to-local = alloca i32, align 4
  %v0_4d96 = load i32, i32* @ebp, align 4
  %v1_4d96 = add i32 %v0_4d96, ptrtoint (i8** @global_var_1.1176 to i32)
  store i32 %v1_4d96, i32* @ebp, align 4
  %v0_4d97 = load i32, i32* @ecx, align 4
  %v1_4d97 = add i32 %v0_4d97, -955767740
  %v2_4d97 = inttoptr i32 %v1_4d97 to i32*
  %v3_4d97 = load i32, i32* %v2_4d97, align 4
  store i32 %v3_4d97, i32* @ecx, align 4
  %v0_4d9e = load i32, i32* @eax, align 4
  %v1_4d9e = trunc i32 %v0_4d9e to i8
  %v2_4d9e = and i8 %v1_4d9e, ptrtoint (i8** @global_var_4.1177 to i8)
  %v8_4d9e = zext i8 %v2_4d9e to i32
  %v10_4d9e = and i32 %v0_4d9e, -256
  %v11_4d9e = or i32 %v8_4d9e, %v10_4d9e
  store i32 %v11_4d9e, i32* %eax.global-to-local, align 4
  %v1_4da0 = inttoptr i32 %v11_4d9e to i8*
  %v2_4da0 = load i8, i8* %v1_4da0, align 4
  %v5_4da0 = and i8 %v2_4da0, %v2_4d9e
  store i8 %v5_4da0, i8* %v1_4da0, align 4
  %v0_4da2 = load i32, i32* %eax.global-to-local, align 4
  %v1_4da2 = inttoptr i32 %v0_4da2 to i8*
  %v2_4da2 = load i8, i8* %v1_4da2, align 1
  %v4_4da2 = trunc i32 %v0_4da2 to i8
  %v5_4da2 = add i8 %v2_4da2, %v4_4da2
  store i8 %v5_4da2, i8* %v1_4da2, align 1
  %v0_4da4 = load i32, i32* @ebp, align 4
  %v1_4da4 = add i32 %v0_4da4, -44
  store i32 %v1_4da4, i32* %eax.global-to-local, align 4
  ret i32 %v1_4da4
}

define i32 @function_4dae() local_unnamed_addr {
dec_label_pc_4dae:
  %eax.global-to-local = alloca i32, align 4
  %ebx.global-to-local = alloca i32, align 4
  %edx.global-to-local = alloca i32, align 4
  %v0_4dae = load i32, i32* %ebx.global-to-local, align 4
  %v1_4dae = add i32 %v0_4dae, 1435223109
  %v2_4dae = inttoptr i32 %v1_4dae to i32*
  %v3_4dae = load i32, i32* %v2_4dae, align 4
  %v4_4dae = add i32 %v3_4dae, -1
  store i32 %v4_4dae, i32* %v2_4dae, align 4
  %v0_4db5 = load i32, i32* %edx.global-to-local, align 4
  %v1_4db5 = load i32, i32* inttoptr (i32 20 to i32*), align 4
  %v2_4db5 = xor i32 %v1_4db5, %v0_4db5
  store i32 %v2_4db5, i32* %edx.global-to-local, align 4
  %v0_4dc4 = load i32, i32* %eax.global-to-local, align 4
  ret i32 %v0_4dc4
}

define i32 @_ZN5boost9exceptionC1ERKS0_(i32* %arg1, i32 %arg2) local_unnamed_addr {
dec_label_pc_4dc8:
  %tmp101 = ptrtoint i32* %arg1 to i32
  store i32 ptrtoint (i32* @global_var_1b70c.1190 to i32), i32* %arg1, align 4
  ret i32 %tmp101
}

define i32 @function_4df0(i32 %arg1) local_unnamed_addr {
dec_label_pc_4df0:
  %v0_4df0 = load i32, i32* @ecx, align 4
  %v1_4df0 = sub i32 %v0_4df0, ptrtoint (i8** @global_var_1.1176 to i32)
  store i32 %v1_4df0, i32* @ecx, align 4
  %v0_4df2 = load i32, i32* @eax, align 4
  %v2_4df3 = add i32 %v0_4df2, 139
  %v0_4df5 = load i32, i32* @ebp, align 4
  %v1_4df5 = add i32 %v0_4df5, ptrtoint (i8** @global_var_1.1176 to i32)
  store i32 %v1_4df5, i32* @ebp, align 4
  %v2_4dfc = and i32 %v2_4df3, zext (i8 ptrtoint (i8** @global_var_4.1177 to i8) to i32)
  %v10_4dfc = and i32 %v0_4df2, -256
  %v11_4dfc = or i32 %v2_4dfc, %v10_4dfc
  %v1_4e01 = call i32 @function_d6b2(i32 %v11_4dfc)
  %v0_4e06 = load i32, i32* @ebp, align 4
  %v1_4e06 = add i32 %v0_4e06, -32
  %v2_4e06 = inttoptr i32 %v1_4e06 to i32*
  %v3_4e06 = load i32, i32* %v2_4e06, align 4
  %v1_4e09 = add i32 %v3_4e06, ptrtoint (i32* @global_var_8.1178 to i32)
  %v2_4e09 = inttoptr i32 %v1_4e09 to i32*
  %v3_4e09 = load i32, i32* %v2_4e09, align 4
  %v1_4e0c = add i32 %v0_4e06, -28
  %v2_4e0c = inttoptr i32 %v1_4e0c to i32*
  %v3_4e0c = load i32, i32* %v2_4e0c, align 4
  %v2_4e0f = add i32 %v3_4e0c, ptrtoint (i32* @global_var_8.1178 to i32)
  %v3_4e0f = inttoptr i32 %v2_4e0f to i32*
  store i32 %v3_4e09, i32* %v3_4e0f, align 4
  %v0_4e12 = load i32, i32* @ebp, align 4
  %v1_4e12 = add i32 %v0_4e12, -32
  %v2_4e12 = inttoptr i32 %v1_4e12 to i32*
  %v3_4e12 = load i32, i32* %v2_4e12, align 4
  %v1_4e15 = add i32 %v3_4e12, 12
  %v2_4e15 = inttoptr i32 %v1_4e15 to i32*
  %v3_4e15 = load i32, i32* %v2_4e15, align 4
  %v1_4e18 = add i32 %v0_4e12, -28
  %v2_4e18 = inttoptr i32 %v1_4e18 to i32*
  %v3_4e18 = load i32, i32* %v2_4e18, align 4
  %v2_4e1b = add i32 %v3_4e18, 12
  %v3_4e1b = inttoptr i32 %v2_4e1b to i32*
  store i32 %v3_4e15, i32* %v3_4e1b, align 4
  %v0_4e1e = load i32, i32* @ebp, align 4
  %v1_4e1e = add i32 %v0_4e1e, -32
  %v2_4e1e = inttoptr i32 %v1_4e1e to i32*
  %v3_4e1e = load i32, i32* %v2_4e1e, align 4
  %v1_4e21 = add i32 %v3_4e1e, 16
  %v2_4e21 = inttoptr i32 %v1_4e21 to i32*
  %v3_4e21 = load i32, i32* %v2_4e21, align 4
  %v1_4e24 = add i32 %v0_4e1e, -28
  %v2_4e24 = inttoptr i32 %v1_4e24 to i32*
  %v3_4e24 = load i32, i32* %v2_4e24, align 4
  %v2_4e27 = add i32 %v3_4e24, 16
  %v3_4e27 = inttoptr i32 %v2_4e27 to i32*
  store i32 %v3_4e21, i32* %v3_4e27, align 4
  %v0_4e2a = load i32, i32* @ebp, align 4
  %v1_4e2a = add i32 %v0_4e2a, -12
  %v2_4e2a = inttoptr i32 %v1_4e2a to i32*
  %v3_4e2a = load i32, i32* %v2_4e2a, align 4
  %v1_4e2d = load i32, i32* inttoptr (i32 20 to i32*), align 4
  %v2_4e2d = xor i32 %v1_4e2d, %v3_4e2a
  %v3_4e2d = icmp eq i32 %v2_4e2d, 0
  store i32 %v2_4e2d, i32* @eax, align 4
  br i1 %v3_4e2d, label %bb, label %dec_label_pc_4e36

bb:                                               ; preds = %dec_label_pc_4df0
  %v1_4e34 = call i32 @function_4e3b()
  br label %dec_label_pc_4e36

dec_label_pc_4e36:                                ; preds = %bb, %dec_label_pc_4df0
  %v3_4e34 = phi i32 [ %v1_4e34, %bb ], [ %v2_4e2d, %dec_label_pc_4df0 ]
  ret i32 %v3_4e34

; uselistorder directives
  uselistorder i32 %v0_4df2, { 1, 0 }
}

define i32 @function_4e3b() local_unnamed_addr {
dec_label_pc_4e3b:
  %v0_4e3c = load i32, i32* @eax, align 4
  ret i32 %v0_4e3c
}

define i32 @_ZN5boost10shared_ptrIKNS_16exception_detail10clone_baseEED1Ev(i32 %arg1) local_unnamed_addr {
dec_label_pc_4e3e:
  ret i32 0
}

define i32 @_ZN5boost10shared_ptrIKNS_16exception_detail10clone_baseEEC1ERKS4_(i32* %arg1, i32 %arg2) local_unnamed_addr {
dec_label_pc_4e76:
  %v1_4e96 = inttoptr i32 %arg2 to i32*
  %v2_4e96 = load i32, i32* %v1_4e96, align 4
  store i32 %v2_4e96, i32* %arg1, align 4
  store i32 0, i32* @eax, align 4
  br i1 true, label %bb, label %dec_label_pc_4ec1

bb:                                               ; preds = %dec_label_pc_4e76
  %tmp104 = ptrtoint i32* %arg1 to i32
  %v1_4ea6 = add i32 %tmp104, ptrtoint (i8** @global_var_4.1177 to i32)
  %v1_4ea0 = add i32 %arg2, ptrtoint (i8** @global_var_4.1177 to i32)
  %v5_4ebf = call i32 @function_4ec6(i32 %v1_4ea6, i32 %v1_4ea0)
  br label %dec_label_pc_4ec1

dec_label_pc_4ec1:                                ; preds = %bb, %dec_label_pc_4e76
  %v6_4ebf = phi i32 [ %v5_4ebf, %bb ], [ 0, %dec_label_pc_4e76 ]
  ret i32 %v6_4ebf

; uselistorder directives
  uselistorder i32 %arg2, { 1, 0 }
  uselistorder i32* %arg1, { 1, 0 }
}

define i32 @function_4ec6(i32 %arg1, i32 %arg2) local_unnamed_addr {
dec_label_pc_4ec6:
  %v0_4ec7 = load i32, i32* @eax, align 4
  ret i32 %v0_4ec7
}

define i32 @_ZN5boost6system14error_categoryD1Ev(i32* %arg1) local_unnamed_addr {
dec_label_pc_4ec8:
  %tmp99 = ptrtoint i32* %arg1 to i32
  store i32 ptrtoint (i32* @global_var_1b60c.1200 to i32), i32* %arg1, align 4
  store i32 %tmp99, i32* @eax, align 4
  %v1_4eee = call i32 @function_78d0(i32 %tmp99)
  %v1_4efd = call i32 @function_4f0a()
  ret i32 %tmp99
}

define i32 @function_4f0a() local_unnamed_addr {
dec_label_pc_4f0a:
  %v0_4f0a = load i32, i32* @ebp, align 4
  %v1_4f0a = add i32 %v0_4f0a, -12
  %v2_4f0a = inttoptr i32 %v1_4f0a to i32*
  %v3_4f0a = load i32, i32* %v2_4f0a, align 4
  %v1_4f0d = load i32, i32* inttoptr (i32 20 to i32*), align 4
  %v2_4f0d = xor i32 %v1_4f0d, %v3_4f0a
  %v3_4f0d = icmp eq i32 %v2_4f0d, 0
  store i32 %v2_4f0d, i32* @eax, align 4
  br i1 %v3_4f0d, label %bb, label %dec_label_pc_4f16

bb:                                               ; preds = %dec_label_pc_4f0a
  %v1_4f14 = call i32 @function_4f1b()
  br label %dec_label_pc_4f16

dec_label_pc_4f16:                                ; preds = %bb, %dec_label_pc_4f0a
  %v2_4f14 = phi i32 [ %v1_4f14, %bb ], [ %v2_4f0d, %dec_label_pc_4f0a ]
  ret i32 %v2_4f14
}

define i32 @function_4f1b() local_unnamed_addr {
dec_label_pc_4f1b:
  %v0_4f1c = load i32, i32* @eax, align 4
  ret i32 %v0_4f1c
}

define i32 @_ZN5boost6system14error_categoryD0Ev(i32 %arg1) local_unnamed_addr {
dec_label_pc_4f1e:
  %v1_4f3b = call i32 @function_9de6(i32 %arg1)
  ret i32 %arg1
}

define i32 @function_4f4a() local_unnamed_addr {
dec_label_pc_4f4a:
  %eax.global-to-local = alloca i32, align 4
  %ebx.global-to-local = alloca i32, align 4
  %v0_4f4a = load i32, i32* %ebx.global-to-local, align 4
  %v1_4f4a = add i32 %v0_4f4a, 862319685
  %v2_4f4a = inttoptr i32 %v1_4f4a to i32*
  %v3_4f4a = load i32, i32* %v2_4f4a, align 4
  %v4_4f4a = add i32 %v3_4f4a, -1
  store i32 %v4_4f4a, i32* %v2_4f4a, align 4
  %v0_4f50 = load i32, i32* %eax.global-to-local, align 4
  %v1_4f50 = add i32 %v0_4f50, 20
  store i32 %v1_4f50, i32* %eax.global-to-local, align 4
  ret i32 %v1_4f50
}

define i32 @_ZNK5boost6system14error_categoryeqERKS1_(i32 %arg1, i32 %arg2) local_unnamed_addr {
dec_label_pc_4f5e:
  %v15_4f7e = icmp eq i32 %arg1, %arg2
  %v1_4f81 = zext i1 %v15_4f7e to i32
  %v3_4f81 = and i32 %arg1, -256
  %v4_4f81 = or i32 %v1_4f81, %v3_4f81
  store i32 %v4_4f81, i32* @eax, align 4
  br i1 true, label %bb, label %dec_label_pc_4f90

bb:                                               ; preds = %dec_label_pc_4f5e
  %v3_4f8e = call i32 @function_4f95(i32 %arg2, i32 %arg1)
  br label %dec_label_pc_4f90

dec_label_pc_4f90:                                ; preds = %bb, %dec_label_pc_4f5e
  %v4_4f8e = phi i32 [ %v3_4f8e, %bb ], [ %v4_4f81, %dec_label_pc_4f5e ]
  ret i32 %v4_4f8e

; uselistorder directives
  uselistorder i32 %arg2, { 1, 0 }
  uselistorder i32 %arg1, { 2, 1, 0 }
}

define i32 @function_4f95(i32 %arg1, i32 %arg2) local_unnamed_addr {
dec_label_pc_4f95:
  %v0_4f96 = load i32, i32* @eax, align 4
  ret i32 %v0_4f96
}

define i32 @_ZN5boost6system15error_conditionC1EiRKNS0_14error_categoryE(i32* %arg1, i32 %arg2, i32 %arg3) local_unnamed_addr {
dec_label_pc_4f98:
  %tmp104 = ptrtoint i32* %arg1 to i32
  store i32 %arg2, i32* %arg1, align 4
  %v2_4fc9 = add i32 %tmp104, ptrtoint (i8** @global_var_4.1177 to i32)
  %v3_4fc9 = inttoptr i32 %v2_4fc9 to i32*
  store i32 %arg3, i32* %v3_4fc9, align 4
  store i32 0, i32* @eax, align 4
  br i1 true, label %bb, label %dec_label_pc_4fd8

bb:                                               ; preds = %dec_label_pc_4f98
  %v4_4fd6 = call i32 @function_4fdd(i32 %arg3, i32 %arg2, i32 %tmp104)
  br label %dec_label_pc_4fd8

dec_label_pc_4fd8:                                ; preds = %bb, %dec_label_pc_4f98
  %v5_4fd6 = phi i32 [ %v4_4fd6, %bb ], [ 0, %dec_label_pc_4f98 ]
  ret i32 %v5_4fd6
}

define i32 @function_4fdd(i32 %arg1, i32 %arg2, i32 %arg3) local_unnamed_addr {
dec_label_pc_4fdd:
  %v0_4fde = load i32, i32* @eax, align 4
  ret i32 %v0_4fde
}

define i32 @_ZN5boost6systemeqERKNS0_15error_conditionES3_(i32* %arg1, i32 %arg2) local_unnamed_addr {
dec_label_pc_4fdf:
  %tmp102 = ptrtoint i32* %arg1 to i32
  %v1_4fff = add i32 %tmp102, ptrtoint (i8** @global_var_4.1177 to i32)
  %v2_4fff = inttoptr i32 %v1_4fff to i32*
  %v3_4fff = load i32, i32* %v2_4fff, align 4
  %v1_5005 = add i32 %arg2, ptrtoint (i8** @global_var_4.1177 to i32)
  %v2_5005 = inttoptr i32 %v1_5005 to i32*
  %v3_5005 = load i32, i32* %v2_5005, align 4
  %v12_5008 = icmp eq i32 %v3_4fff, %v3_5005
  %v1_500a = icmp eq i1 %v12_5008, false
  br i1 %v1_500a, label %dec_label_pc_5021, label %dec_label_pc_500c

dec_label_pc_500c:                                ; preds = %dec_label_pc_4fdf
  %v2_500f = load i32, i32* %arg1, align 4
  %v1_5014 = inttoptr i32 %arg2 to i32*
  %v2_5014 = load i32, i32* %v1_5014, align 4
  %v12_5016 = icmp eq i32 %v2_500f, %v2_5014
  %v1_5018 = icmp eq i1 %v12_5016, false
  br i1 %v1_5018, label %dec_label_pc_5021, label %dec_label_pc_5026

dec_label_pc_5021:                                ; preds = %dec_label_pc_500c, %dec_label_pc_4fdf
  br label %dec_label_pc_5026

dec_label_pc_5026:                                ; preds = %dec_label_pc_500c, %dec_label_pc_5021
  %storemerge = phi i32 [ 0, %dec_label_pc_5021 ], [ ptrtoint (i8** @global_var_1.1176 to i32), %dec_label_pc_500c ]
  store i32 %storemerge, i32* @eax, align 4
  br i1 true, label %bb, label %dec_label_pc_5032

bb:                                               ; preds = %dec_label_pc_5026
  %v1_5030 = call i32 @function_5037()
  br label %dec_label_pc_5032

dec_label_pc_5032:                                ; preds = %bb, %dec_label_pc_5026
  %v2_5030 = phi i32 [ %v1_5030, %bb ], [ %storemerge, %dec_label_pc_5026 ]
  ret i32 %v2_5030

; uselistorder directives
  uselistorder label %dec_label_pc_5026, { 1, 0 }
}

define i32 @function_5037() local_unnamed_addr {
dec_label_pc_5037:
  %v0_5038 = load i32, i32* @eax, align 4
  ret i32 %v0_5038
}

define i32 @_ZNK5boost6system10error_code5valueEv(i32* %arg1) local_unnamed_addr {
dec_label_pc_503a:
  %ebp.global-to-local = alloca i32, align 4
  %v0_503a = load i32, i32* %ebp.global-to-local, align 4
  %v2_5054 = load i32, i32* %arg1, align 4
  store i32 %v0_503a, i32* %ebp.global-to-local, align 4
  ret i32 %v2_5054
}

define i32 @_ZNK5boost6system10error_code8categoryEv(i32 %arg1) local_unnamed_addr {
dec_label_pc_506a:
  %v1_5084 = add i32 %arg1, ptrtoint (i8** @global_var_4.1177 to i32)
  %v2_5084 = inttoptr i32 %v1_5084 to i32*
  %v3_5084 = load i32, i32* %v2_5084, align 4
  store i32 %v3_5084, i32* @eax, align 4
  br i1 true, label %bb, label %dec_label_pc_5093

bb:                                               ; preds = %dec_label_pc_506a
  %v2_5091 = call i32 @function_5098(i32 %arg1)
  br label %dec_label_pc_5093

dec_label_pc_5093:                                ; preds = %bb, %dec_label_pc_506a
  %v3_5091 = phi i32 [ %v2_5091, %bb ], [ %v3_5084, %dec_label_pc_506a ]
  ret i32 %v3_5091
}

define i32 @function_5098(i32 %arg1) local_unnamed_addr {
dec_label_pc_5098:
  %v0_5099 = load i32, i32* @eax, align 4
  ret i32 %v0_5099
}

define i32 @_ZNK5boost6system10error_code7messageEv(i32 %arg1, i32 %arg2) local_unnamed_addr {
dec_label_pc_509a:
  %ebx.global-to-local = alloca i32, align 4
  %v0_509d = load i32, i32* %ebx.global-to-local, align 4
  %v1_50bb = add i32 %arg2, ptrtoint (i8** @global_var_4.1177 to i32)
  %v2_50bb = inttoptr i32 %v1_50bb to i32*
  %v3_50bb = load i32, i32* %v2_50bb, align 4
  %v1_50be = inttoptr i32 %v3_50bb to i32*
  %v2_50be = load i32, i32* %v1_50be, align 4
  %v1_50c0 = add i32 %v2_50be, 12
  %v1_50c3 = inttoptr i32 %v1_50c0 to i32*
  %v2_50c3 = load i32, i32* %v1_50c3, align 4
  store i32 %v2_50c3, i32* %ebx.global-to-local, align 4
  store i32 %arg2, i32* @eax, align 4
  %v1_50cb = call i32 @function_a0d4(i32 %arg2)
  store i32 %v0_509d, i32* %ebx.global-to-local, align 4
  ret i32 %arg1

; uselistorder directives
  uselistorder i32 %arg2, { 2, 1, 0 }
}

define i32 @_ZNK5boost6system14error_category23default_error_conditionEi(i32 %arg1, i32 %arg2, i32 %arg3) local_unnamed_addr {
dec_label_pc_5104:
  store i32 %arg1, i32* @eax, align 4
  %v3_513b = call i32 @function_a09c(i32 %arg1, i32 %arg3, i32 %arg2)
  ret i32 %arg1

; uselistorder directives
  uselistorder i32 %arg1, { 0, 2, 1 }
}

define i32 @_ZNK5boost6system14error_category10equivalentEiRKNS0_15error_conditionE(i32* %arg1, i32 %arg2, i32 %arg3) local_unnamed_addr {
dec_label_pc_5158:
  %stack_var_-24 = alloca i32, align 4
  %tmp108 = ptrtoint i32* %arg1 to i32
  %v2_5185 = ptrtoint i32* %stack_var_-24 to i32
  store i32 %v2_5185, i32* @eax, align 4
  %v4_51ab = call i32 @function_a137(i32 %v2_5185, i32 %arg3, i32 %tmp108, i32 %arg2)
  store i32 %v4_51ab, i32* @eax, align 4
  br i1 true, label %bb, label %dec_label_pc_51bc

bb:                                               ; preds = %dec_label_pc_5158
  %v1_51ba = call i32 @function_51c1()
  br label %dec_label_pc_51bc

dec_label_pc_51bc:                                ; preds = %bb, %dec_label_pc_5158
  %v2_51ba = phi i32 [ %v1_51ba, %bb ], [ %v4_51ab, %dec_label_pc_5158 ]
  ret i32 %v2_51ba
}

define i32 @function_51c1() local_unnamed_addr {
dec_label_pc_51c1:
  %v0_51c2 = load i32, i32* @eax, align 4
  ret i32 %v0_51c2
}

define i32 @_ZNK5boost6system14error_category10equivalentERKNS0_10error_codeEi(i32 %arg1, i32 %arg2, i32 %arg3) local_unnamed_addr {
dec_label_pc_51c4:
  store i1 false, i1* @cf, align 1
  store i32 %arg2, i32* @eax, align 4
  %v1_51ed = call i32 @function_a22e(i32 %arg2)
  store i32 %arg1, i32* @eax, align 4
  %v2_51fc = call i32 @function_a122(i32 %arg1, i32 %v1_51ed)
  %v4_5201 = trunc i32 %v2_51fc to i8
  %v5_5201 = icmp eq i8 %v4_5201, 0
  br i1 %v5_5201, label %dec_label_pc_521c, label %dec_label_pc_5205

dec_label_pc_5205:                                ; preds = %dec_label_pc_51c4
  store i32 %arg2, i32* @eax, align 4
  %v1_520b = call i32 @function_a1fe(i32 %arg2)
  %v15_5210 = icmp eq i32 %v1_520b, %arg3
  %v1_5213 = icmp eq i1 %v15_5210, false
  br i1 %v1_5213, label %dec_label_pc_521c, label %dec_label_pc_5221

dec_label_pc_521c:                                ; preds = %dec_label_pc_5205, %dec_label_pc_51c4
  br label %dec_label_pc_5221

dec_label_pc_5221:                                ; preds = %dec_label_pc_5205, %dec_label_pc_521c
  %storemerge = phi i32 [ 0, %dec_label_pc_521c ], [ ptrtoint (i8** @global_var_1.1176 to i32), %dec_label_pc_5205 ]
  store i32 %storemerge, i32* @eax, align 4
  br i1 true, label %bb, label %dec_label_pc_522d

bb:                                               ; preds = %dec_label_pc_5221
  %v1_522b = call i32 @function_5232()
  br label %dec_label_pc_522d

dec_label_pc_522d:                                ; preds = %bb, %dec_label_pc_5221
  %v2_522b = phi i32 [ %v1_522b, %bb ], [ %storemerge, %dec_label_pc_5221 ]
  ret i32 %v2_522b

; uselistorder directives
  uselistorder i32 %arg2, { 1, 0, 3, 2 }
  uselistorder i32 %arg1, { 1, 0 }
  uselistorder label %dec_label_pc_5221, { 1, 0 }
}

define i32 @function_5232() local_unnamed_addr {
dec_label_pc_5232:
  %v0_5233 = load i32, i32* @eax, align 4
  ret i32 %v0_5233
}

define i32 @_ZN5boost11filesystem311path_traits7convertEPKcS3_RSsRKSt7codecvtIwc11__mbstate_tE(i32 %arg1, i32 %arg2, i32 %arg3, i32 %arg4) local_unnamed_addr {
dec_label_pc_5234:
  store i32 0, i32* @eax, align 4
  %v10_525d = icmp eq i32 %arg1, 0
  %v1_5261 = icmp eq i1 %v10_525d, false
  br i1 %v1_5261, label %bb, label %dec_label_pc_5263

bb:                                               ; preds = %dec_label_pc_5234
  %v6_5261 = call i32 @function_5287(i32 %arg4, i32 %arg3, i32 %arg2, i32 %arg1)
  br label %dec_label_pc_5263

dec_label_pc_5263:                                ; preds = %bb, %dec_label_pc_5234
  %v3_527b = phi i32 [ %v6_5261, %bb ], [ 0, %dec_label_pc_5234 ]
